
alıcı_cihaz.elf:     file format elf32-littlearm

Sections:
Idx Name          Size      VMA       LMA       File off  Algn
  0 .isr_vector   000000bc  08000000  08000000  00001000  2**0
                  CONTENTS, ALLOC, LOAD, READONLY, DATA
  1 .text         00006cb0  080000bc  080000bc  000010bc  2**2
                  CONTENTS, ALLOC, LOAD, READONLY, CODE
  2 .rodata       0000029c  08006d6c  08006d6c  00007d6c  2**2
                  CONTENTS, ALLOC, LOAD, READONLY, DATA
  3 .ARM.extab    00000000  08007008  08007008  0000900c  2**0
                  CONTENTS, READONLY
  4 .ARM          00000000  08007008  08007008  0000900c  2**0
                  CONTENTS, READONLY
  5 .preinit_array 00000000  08007008  08007008  0000900c  2**0
                  CONTENTS, ALLOC, LOAD, DATA
  6 .init_array   00000004  08007008  08007008  00008008  2**2
                  CONTENTS, ALLOC, LOAD, READONLY, DATA
  7 .fini_array   00000004  0800700c  0800700c  0000800c  2**2
                  CONTENTS, ALLOC, LOAD, READONLY, DATA
  8 .data         0000000c  20000000  08007010  00009000  2**2
                  CONTENTS, ALLOC, LOAD, DATA
  9 .bss          00000330  20000010  0800701c  00009010  2**3
                  ALLOC
 10 ._user_heap_stack 00001400  20000340  0800701c  00009340  2**0
                  ALLOC
 11 .ARM.attributes 00000028  00000000  00000000  0000900c  2**0
                  CONTENTS, READONLY
 12 .debug_info   0000f82c  00000000  00000000  00009034  2**0
                  CONTENTS, READONLY, DEBUGGING, OCTETS
 13 .debug_abbrev 00003bd1  00000000  00000000  00018860  2**0
                  CONTENTS, READONLY, DEBUGGING, OCTETS
 14 .debug_aranges 000010e0  00000000  00000000  0001c438  2**3
                  CONTENTS, READONLY, DEBUGGING, OCTETS
 15 .debug_rnglists 00000d17  00000000  00000000  0001d518  2**0
                  CONTENTS, READONLY, DEBUGGING, OCTETS
 16 .debug_macro  00013fa8  00000000  00000000  0001e22f  2**0
                  CONTENTS, READONLY, DEBUGGING, OCTETS
 17 .debug_line   00018c76  00000000  00000000  000321d7  2**0
                  CONTENTS, READONLY, DEBUGGING, OCTETS
 18 .debug_str    00070b0b  00000000  00000000  0004ae4d  2**0
                  CONTENTS, READONLY, DEBUGGING, OCTETS
 19 .comment      00000043  00000000  00000000  000bb958  2**0
                  CONTENTS, READONLY
 20 .debug_frame  00003954  00000000  00000000  000bb99c  2**2
                  CONTENTS, READONLY, DEBUGGING, OCTETS
 21 .debug_loclists 000000f1  00000000  00000000  000bf2f0  2**0
                  CONTENTS, READONLY, DEBUGGING, OCTETS
 22 .debug_line_str 00000072  00000000  00000000  000bf3e1  2**0
                  CONTENTS, READONLY, DEBUGGING, OCTETS

Disassembly of section .text:

080000bc <__do_global_dtors_aux>:
 80000bc:	b510      	push	{r4, lr}
 80000be:	4c06      	ldr	r4, [pc, #24]	@ (80000d8 <__do_global_dtors_aux+0x1c>)
 80000c0:	7823      	ldrb	r3, [r4, #0]
 80000c2:	2b00      	cmp	r3, #0
 80000c4:	d107      	bne.n	80000d6 <__do_global_dtors_aux+0x1a>
 80000c6:	4b05      	ldr	r3, [pc, #20]	@ (80000dc <__do_global_dtors_aux+0x20>)
 80000c8:	2b00      	cmp	r3, #0
 80000ca:	d002      	beq.n	80000d2 <__do_global_dtors_aux+0x16>
 80000cc:	4804      	ldr	r0, [pc, #16]	@ (80000e0 <__do_global_dtors_aux+0x24>)
 80000ce:	e000      	b.n	80000d2 <__do_global_dtors_aux+0x16>
 80000d0:	bf00      	nop
 80000d2:	2301      	movs	r3, #1
 80000d4:	7023      	strb	r3, [r4, #0]
 80000d6:	bd10      	pop	{r4, pc}
 80000d8:	20000010 	.word	0x20000010
 80000dc:	00000000 	.word	0x00000000
 80000e0:	08006d54 	.word	0x08006d54

080000e4 <frame_dummy>:
 80000e4:	4b04      	ldr	r3, [pc, #16]	@ (80000f8 <frame_dummy+0x14>)
 80000e6:	b510      	push	{r4, lr}
 80000e8:	2b00      	cmp	r3, #0
 80000ea:	d003      	beq.n	80000f4 <frame_dummy+0x10>
 80000ec:	4903      	ldr	r1, [pc, #12]	@ (80000fc <frame_dummy+0x18>)
 80000ee:	4804      	ldr	r0, [pc, #16]	@ (8000100 <frame_dummy+0x1c>)
 80000f0:	e000      	b.n	80000f4 <frame_dummy+0x10>
 80000f2:	bf00      	nop
 80000f4:	bd10      	pop	{r4, pc}
 80000f6:	46c0      	nop			@ (mov r8, r8)
 80000f8:	00000000 	.word	0x00000000
 80000fc:	20000014 	.word	0x20000014
 8000100:	08006d54 	.word	0x08006d54

08000104 <__udivsi3>:
 8000104:	2200      	movs	r2, #0
 8000106:	0843      	lsrs	r3, r0, #1
 8000108:	428b      	cmp	r3, r1
 800010a:	d374      	bcc.n	80001f6 <__udivsi3+0xf2>
 800010c:	0903      	lsrs	r3, r0, #4
 800010e:	428b      	cmp	r3, r1
 8000110:	d35f      	bcc.n	80001d2 <__udivsi3+0xce>
 8000112:	0a03      	lsrs	r3, r0, #8
 8000114:	428b      	cmp	r3, r1
 8000116:	d344      	bcc.n	80001a2 <__udivsi3+0x9e>
 8000118:	0b03      	lsrs	r3, r0, #12
 800011a:	428b      	cmp	r3, r1
 800011c:	d328      	bcc.n	8000170 <__udivsi3+0x6c>
 800011e:	0c03      	lsrs	r3, r0, #16
 8000120:	428b      	cmp	r3, r1
 8000122:	d30d      	bcc.n	8000140 <__udivsi3+0x3c>
 8000124:	22ff      	movs	r2, #255	@ 0xff
 8000126:	0209      	lsls	r1, r1, #8
 8000128:	ba12      	rev	r2, r2
 800012a:	0c03      	lsrs	r3, r0, #16
 800012c:	428b      	cmp	r3, r1
 800012e:	d302      	bcc.n	8000136 <__udivsi3+0x32>
 8000130:	1212      	asrs	r2, r2, #8
 8000132:	0209      	lsls	r1, r1, #8
 8000134:	d065      	beq.n	8000202 <__udivsi3+0xfe>
 8000136:	0b03      	lsrs	r3, r0, #12
 8000138:	428b      	cmp	r3, r1
 800013a:	d319      	bcc.n	8000170 <__udivsi3+0x6c>
 800013c:	e000      	b.n	8000140 <__udivsi3+0x3c>
 800013e:	0a09      	lsrs	r1, r1, #8
 8000140:	0bc3      	lsrs	r3, r0, #15
 8000142:	428b      	cmp	r3, r1
 8000144:	d301      	bcc.n	800014a <__udivsi3+0x46>
 8000146:	03cb      	lsls	r3, r1, #15
 8000148:	1ac0      	subs	r0, r0, r3
 800014a:	4152      	adcs	r2, r2
 800014c:	0b83      	lsrs	r3, r0, #14
 800014e:	428b      	cmp	r3, r1
 8000150:	d301      	bcc.n	8000156 <__udivsi3+0x52>
 8000152:	038b      	lsls	r3, r1, #14
 8000154:	1ac0      	subs	r0, r0, r3
 8000156:	4152      	adcs	r2, r2
 8000158:	0b43      	lsrs	r3, r0, #13
 800015a:	428b      	cmp	r3, r1
 800015c:	d301      	bcc.n	8000162 <__udivsi3+0x5e>
 800015e:	034b      	lsls	r3, r1, #13
 8000160:	1ac0      	subs	r0, r0, r3
 8000162:	4152      	adcs	r2, r2
 8000164:	0b03      	lsrs	r3, r0, #12
 8000166:	428b      	cmp	r3, r1
 8000168:	d301      	bcc.n	800016e <__udivsi3+0x6a>
 800016a:	030b      	lsls	r3, r1, #12
 800016c:	1ac0      	subs	r0, r0, r3
 800016e:	4152      	adcs	r2, r2
 8000170:	0ac3      	lsrs	r3, r0, #11
 8000172:	428b      	cmp	r3, r1
 8000174:	d301      	bcc.n	800017a <__udivsi3+0x76>
 8000176:	02cb      	lsls	r3, r1, #11
 8000178:	1ac0      	subs	r0, r0, r3
 800017a:	4152      	adcs	r2, r2
 800017c:	0a83      	lsrs	r3, r0, #10
 800017e:	428b      	cmp	r3, r1
 8000180:	d301      	bcc.n	8000186 <__udivsi3+0x82>
 8000182:	028b      	lsls	r3, r1, #10
 8000184:	1ac0      	subs	r0, r0, r3
 8000186:	4152      	adcs	r2, r2
 8000188:	0a43      	lsrs	r3, r0, #9
 800018a:	428b      	cmp	r3, r1
 800018c:	d301      	bcc.n	8000192 <__udivsi3+0x8e>
 800018e:	024b      	lsls	r3, r1, #9
 8000190:	1ac0      	subs	r0, r0, r3
 8000192:	4152      	adcs	r2, r2
 8000194:	0a03      	lsrs	r3, r0, #8
 8000196:	428b      	cmp	r3, r1
 8000198:	d301      	bcc.n	800019e <__udivsi3+0x9a>
 800019a:	020b      	lsls	r3, r1, #8
 800019c:	1ac0      	subs	r0, r0, r3
 800019e:	4152      	adcs	r2, r2
 80001a0:	d2cd      	bcs.n	800013e <__udivsi3+0x3a>
 80001a2:	09c3      	lsrs	r3, r0, #7
 80001a4:	428b      	cmp	r3, r1
 80001a6:	d301      	bcc.n	80001ac <__udivsi3+0xa8>
 80001a8:	01cb      	lsls	r3, r1, #7
 80001aa:	1ac0      	subs	r0, r0, r3
 80001ac:	4152      	adcs	r2, r2
 80001ae:	0983      	lsrs	r3, r0, #6
 80001b0:	428b      	cmp	r3, r1
 80001b2:	d301      	bcc.n	80001b8 <__udivsi3+0xb4>
 80001b4:	018b      	lsls	r3, r1, #6
 80001b6:	1ac0      	subs	r0, r0, r3
 80001b8:	4152      	adcs	r2, r2
 80001ba:	0943      	lsrs	r3, r0, #5
 80001bc:	428b      	cmp	r3, r1
 80001be:	d301      	bcc.n	80001c4 <__udivsi3+0xc0>
 80001c0:	014b      	lsls	r3, r1, #5
 80001c2:	1ac0      	subs	r0, r0, r3
 80001c4:	4152      	adcs	r2, r2
 80001c6:	0903      	lsrs	r3, r0, #4
 80001c8:	428b      	cmp	r3, r1
 80001ca:	d301      	bcc.n	80001d0 <__udivsi3+0xcc>
 80001cc:	010b      	lsls	r3, r1, #4
 80001ce:	1ac0      	subs	r0, r0, r3
 80001d0:	4152      	adcs	r2, r2
 80001d2:	08c3      	lsrs	r3, r0, #3
 80001d4:	428b      	cmp	r3, r1
 80001d6:	d301      	bcc.n	80001dc <__udivsi3+0xd8>
 80001d8:	00cb      	lsls	r3, r1, #3
 80001da:	1ac0      	subs	r0, r0, r3
 80001dc:	4152      	adcs	r2, r2
 80001de:	0883      	lsrs	r3, r0, #2
 80001e0:	428b      	cmp	r3, r1
 80001e2:	d301      	bcc.n	80001e8 <__udivsi3+0xe4>
 80001e4:	008b      	lsls	r3, r1, #2
 80001e6:	1ac0      	subs	r0, r0, r3
 80001e8:	4152      	adcs	r2, r2
 80001ea:	0843      	lsrs	r3, r0, #1
 80001ec:	428b      	cmp	r3, r1
 80001ee:	d301      	bcc.n	80001f4 <__udivsi3+0xf0>
 80001f0:	004b      	lsls	r3, r1, #1
 80001f2:	1ac0      	subs	r0, r0, r3
 80001f4:	4152      	adcs	r2, r2
 80001f6:	1a41      	subs	r1, r0, r1
 80001f8:	d200      	bcs.n	80001fc <__udivsi3+0xf8>
 80001fa:	4601      	mov	r1, r0
 80001fc:	4152      	adcs	r2, r2
 80001fe:	4610      	mov	r0, r2
 8000200:	4770      	bx	lr
 8000202:	e7ff      	b.n	8000204 <__udivsi3+0x100>
 8000204:	b501      	push	{r0, lr}
 8000206:	2000      	movs	r0, #0
 8000208:	f000 f806 	bl	8000218 <__aeabi_idiv0>
 800020c:	bd02      	pop	{r1, pc}
 800020e:	46c0      	nop			@ (mov r8, r8)

08000210 <__aeabi_uidivmod>:
 8000210:	2900      	cmp	r1, #0
 8000212:	d0f7      	beq.n	8000204 <__udivsi3+0x100>
 8000214:	e776      	b.n	8000104 <__udivsi3>
 8000216:	4770      	bx	lr

08000218 <__aeabi_idiv0>:
 8000218:	4770      	bx	lr
 800021a:	46c0      	nop			@ (mov r8, r8)

0800021c <Multiply>:

static const uint8_t Rcon[11] = { 0x8d, 0x01, 0x02, 0x04, 0x08, 0x10, 0x20,
		0x40, 0x80, 0x1b, 0x36 };

// --- MATEMATİKSEL YARDIMCI FONKSİYONLAR ---
static uint8_t Multiply(uint8_t x, uint8_t y) {
 800021c:	b580      	push	{r7, lr}
 800021e:	b084      	sub	sp, #16
 8000220:	af00      	add	r7, sp, #0
 8000222:	0002      	movs	r2, r0
 8000224:	1dfb      	adds	r3, r7, #7
 8000226:	701a      	strb	r2, [r3, #0]
 8000228:	1dbb      	adds	r3, r7, #6
 800022a:	1c0a      	adds	r2, r1, #0
 800022c:	701a      	strb	r2, [r3, #0]
	uint8_t p = 0;
 800022e:	230f      	movs	r3, #15
 8000230:	18fb      	adds	r3, r7, r3
 8000232:	2200      	movs	r2, #0
 8000234:	701a      	strb	r2, [r3, #0]
	for (uint8_t i = 0; i < 8; i++) {
 8000236:	230e      	movs	r3, #14
 8000238:	18fb      	adds	r3, r7, r3
 800023a:	2200      	movs	r2, #0
 800023c:	701a      	strb	r2, [r3, #0]
 800023e:	e02d      	b.n	800029c <Multiply+0x80>
		if (y & 1)
 8000240:	1dbb      	adds	r3, r7, #6
 8000242:	781b      	ldrb	r3, [r3, #0]
 8000244:	2201      	movs	r2, #1
 8000246:	4013      	ands	r3, r2
 8000248:	d007      	beq.n	800025a <Multiply+0x3e>
			p ^= x;
 800024a:	220f      	movs	r2, #15
 800024c:	18bb      	adds	r3, r7, r2
 800024e:	18b9      	adds	r1, r7, r2
 8000250:	1dfa      	adds	r2, r7, #7
 8000252:	7809      	ldrb	r1, [r1, #0]
 8000254:	7812      	ldrb	r2, [r2, #0]
 8000256:	404a      	eors	r2, r1
 8000258:	701a      	strb	r2, [r3, #0]
		uint8_t hb = (x & 0x80);
 800025a:	200d      	movs	r0, #13
 800025c:	183b      	adds	r3, r7, r0
 800025e:	1dfa      	adds	r2, r7, #7
 8000260:	7812      	ldrb	r2, [r2, #0]
 8000262:	217f      	movs	r1, #127	@ 0x7f
 8000264:	438a      	bics	r2, r1
 8000266:	701a      	strb	r2, [r3, #0]
		x <<= 1;
 8000268:	1dfa      	adds	r2, r7, #7
 800026a:	1dfb      	adds	r3, r7, #7
 800026c:	781b      	ldrb	r3, [r3, #0]
 800026e:	18db      	adds	r3, r3, r3
 8000270:	7013      	strb	r3, [r2, #0]
		if (hb)
 8000272:	183b      	adds	r3, r7, r0
 8000274:	781b      	ldrb	r3, [r3, #0]
 8000276:	2b00      	cmp	r3, #0
 8000278:	d005      	beq.n	8000286 <Multiply+0x6a>
			x ^= 0x1b;
 800027a:	1dfb      	adds	r3, r7, #7
 800027c:	1dfa      	adds	r2, r7, #7
 800027e:	7812      	ldrb	r2, [r2, #0]
 8000280:	211b      	movs	r1, #27
 8000282:	404a      	eors	r2, r1
 8000284:	701a      	strb	r2, [r3, #0]
		y >>= 1;
 8000286:	1dbb      	adds	r3, r7, #6
 8000288:	1dba      	adds	r2, r7, #6
 800028a:	7812      	ldrb	r2, [r2, #0]
 800028c:	0852      	lsrs	r2, r2, #1
 800028e:	701a      	strb	r2, [r3, #0]
	for (uint8_t i = 0; i < 8; i++) {
 8000290:	210e      	movs	r1, #14
 8000292:	187b      	adds	r3, r7, r1
 8000294:	781a      	ldrb	r2, [r3, #0]
 8000296:	187b      	adds	r3, r7, r1
 8000298:	3201      	adds	r2, #1
 800029a:	701a      	strb	r2, [r3, #0]
 800029c:	230e      	movs	r3, #14
 800029e:	18fb      	adds	r3, r7, r3
 80002a0:	781b      	ldrb	r3, [r3, #0]
 80002a2:	2b07      	cmp	r3, #7
 80002a4:	d9cc      	bls.n	8000240 <Multiply+0x24>
	}
	return p;
 80002a6:	230f      	movs	r3, #15
 80002a8:	18fb      	adds	r3, r7, r3
 80002aa:	781b      	ldrb	r3, [r3, #0]
}
 80002ac:	0018      	movs	r0, r3
 80002ae:	46bd      	mov	sp, r7
 80002b0:	b004      	add	sp, #16
 80002b2:	bd80      	pop	{r7, pc}

080002b4 <KeyExpansion>:

static void KeyExpansion(uint8_t *RoundKey, const uint8_t *Key) {
 80002b4:	b590      	push	{r4, r7, lr}
 80002b6:	b089      	sub	sp, #36	@ 0x24
 80002b8:	af00      	add	r7, sp, #0
 80002ba:	6078      	str	r0, [r7, #4]
 80002bc:	6039      	str	r1, [r7, #0]
	uint32_t i, j, k;
	uint8_t tempa[4];
	for (i = 0; i < 8; ++i) {
 80002be:	2300      	movs	r3, #0
 80002c0:	61fb      	str	r3, [r7, #28]
 80002c2:	e030      	b.n	8000326 <KeyExpansion+0x72>
		RoundKey[(i * 4) + 0] = Key[(i * 4) + 0];
 80002c4:	69fb      	ldr	r3, [r7, #28]
 80002c6:	009b      	lsls	r3, r3, #2
 80002c8:	683a      	ldr	r2, [r7, #0]
 80002ca:	18d2      	adds	r2, r2, r3
 80002cc:	69fb      	ldr	r3, [r7, #28]
 80002ce:	009b      	lsls	r3, r3, #2
 80002d0:	6879      	ldr	r1, [r7, #4]
 80002d2:	18cb      	adds	r3, r1, r3
 80002d4:	7812      	ldrb	r2, [r2, #0]
 80002d6:	701a      	strb	r2, [r3, #0]
		RoundKey[(i * 4) + 1] = Key[(i * 4) + 1];
 80002d8:	69fb      	ldr	r3, [r7, #28]
 80002da:	009b      	lsls	r3, r3, #2
 80002dc:	3301      	adds	r3, #1
 80002de:	683a      	ldr	r2, [r7, #0]
 80002e0:	18d2      	adds	r2, r2, r3
 80002e2:	69fb      	ldr	r3, [r7, #28]
 80002e4:	009b      	lsls	r3, r3, #2
 80002e6:	3301      	adds	r3, #1
 80002e8:	6879      	ldr	r1, [r7, #4]
 80002ea:	18cb      	adds	r3, r1, r3
 80002ec:	7812      	ldrb	r2, [r2, #0]
 80002ee:	701a      	strb	r2, [r3, #0]
		RoundKey[(i * 4) + 2] = Key[(i * 4) + 2];
 80002f0:	69fb      	ldr	r3, [r7, #28]
 80002f2:	009b      	lsls	r3, r3, #2
 80002f4:	3302      	adds	r3, #2
 80002f6:	683a      	ldr	r2, [r7, #0]
 80002f8:	18d2      	adds	r2, r2, r3
 80002fa:	69fb      	ldr	r3, [r7, #28]
 80002fc:	009b      	lsls	r3, r3, #2
 80002fe:	3302      	adds	r3, #2
 8000300:	6879      	ldr	r1, [r7, #4]
 8000302:	18cb      	adds	r3, r1, r3
 8000304:	7812      	ldrb	r2, [r2, #0]
 8000306:	701a      	strb	r2, [r3, #0]
		RoundKey[(i * 4) + 3] = Key[(i * 4) + 3];
 8000308:	69fb      	ldr	r3, [r7, #28]
 800030a:	009b      	lsls	r3, r3, #2
 800030c:	3303      	adds	r3, #3
 800030e:	683a      	ldr	r2, [r7, #0]
 8000310:	18d2      	adds	r2, r2, r3
 8000312:	69fb      	ldr	r3, [r7, #28]
 8000314:	009b      	lsls	r3, r3, #2
 8000316:	3303      	adds	r3, #3
 8000318:	6879      	ldr	r1, [r7, #4]
 800031a:	18cb      	adds	r3, r1, r3
 800031c:	7812      	ldrb	r2, [r2, #0]
 800031e:	701a      	strb	r2, [r3, #0]
	for (i = 0; i < 8; ++i) {
 8000320:	69fb      	ldr	r3, [r7, #28]
 8000322:	3301      	adds	r3, #1
 8000324:	61fb      	str	r3, [r7, #28]
 8000326:	69fb      	ldr	r3, [r7, #28]
 8000328:	2b07      	cmp	r3, #7
 800032a:	d9cb      	bls.n	80002c4 <KeyExpansion+0x10>
	}
	for (i = 8; i < 60; ++i) {
 800032c:	2308      	movs	r3, #8
 800032e:	61fb      	str	r3, [r7, #28]
 8000330:	e0c2      	b.n	80004b8 <KeyExpansion+0x204>
		k = (i - 1) * 4;
 8000332:	69fb      	ldr	r3, [r7, #28]
 8000334:	3b01      	subs	r3, #1
 8000336:	009b      	lsls	r3, r3, #2
 8000338:	61bb      	str	r3, [r7, #24]
		tempa[0] = RoundKey[k + 0];
 800033a:	687a      	ldr	r2, [r7, #4]
 800033c:	69bb      	ldr	r3, [r7, #24]
 800033e:	18d3      	adds	r3, r2, r3
 8000340:	781a      	ldrb	r2, [r3, #0]
 8000342:	210c      	movs	r1, #12
 8000344:	187b      	adds	r3, r7, r1
 8000346:	701a      	strb	r2, [r3, #0]
		tempa[1] = RoundKey[k + 1];
 8000348:	69bb      	ldr	r3, [r7, #24]
 800034a:	3301      	adds	r3, #1
 800034c:	687a      	ldr	r2, [r7, #4]
 800034e:	18d3      	adds	r3, r2, r3
 8000350:	781a      	ldrb	r2, [r3, #0]
 8000352:	187b      	adds	r3, r7, r1
 8000354:	705a      	strb	r2, [r3, #1]
		tempa[2] = RoundKey[k + 2];
 8000356:	69bb      	ldr	r3, [r7, #24]
 8000358:	3302      	adds	r3, #2
 800035a:	687a      	ldr	r2, [r7, #4]
 800035c:	18d3      	adds	r3, r2, r3
 800035e:	781a      	ldrb	r2, [r3, #0]
 8000360:	187b      	adds	r3, r7, r1
 8000362:	709a      	strb	r2, [r3, #2]
		tempa[3] = RoundKey[k + 3];
 8000364:	69bb      	ldr	r3, [r7, #24]
 8000366:	3303      	adds	r3, #3
 8000368:	687a      	ldr	r2, [r7, #4]
 800036a:	18d3      	adds	r3, r2, r3
 800036c:	781a      	ldrb	r2, [r3, #0]
 800036e:	187b      	adds	r3, r7, r1
 8000370:	70da      	strb	r2, [r3, #3]
		if (i % 8 == 0) {
 8000372:	69fb      	ldr	r3, [r7, #28]
 8000374:	2207      	movs	r2, #7
 8000376:	4013      	ands	r3, r2
 8000378:	d13b      	bne.n	80003f2 <KeyExpansion+0x13e>
			uint8_t u8tmp = tempa[0];
 800037a:	2417      	movs	r4, #23
 800037c:	193b      	adds	r3, r7, r4
 800037e:	0008      	movs	r0, r1
 8000380:	183a      	adds	r2, r7, r0
 8000382:	7812      	ldrb	r2, [r2, #0]
 8000384:	701a      	strb	r2, [r3, #0]
			tempa[0] = tempa[1];
 8000386:	183b      	adds	r3, r7, r0
 8000388:	785a      	ldrb	r2, [r3, #1]
 800038a:	183b      	adds	r3, r7, r0
 800038c:	701a      	strb	r2, [r3, #0]
			tempa[1] = tempa[2];
 800038e:	183b      	adds	r3, r7, r0
 8000390:	789a      	ldrb	r2, [r3, #2]
 8000392:	183b      	adds	r3, r7, r0
 8000394:	705a      	strb	r2, [r3, #1]
			tempa[2] = tempa[3];
 8000396:	183b      	adds	r3, r7, r0
 8000398:	78da      	ldrb	r2, [r3, #3]
 800039a:	183b      	adds	r3, r7, r0
 800039c:	709a      	strb	r2, [r3, #2]
			tempa[3] = u8tmp;
 800039e:	183b      	adds	r3, r7, r0
 80003a0:	193a      	adds	r2, r7, r4
 80003a2:	7812      	ldrb	r2, [r2, #0]
 80003a4:	70da      	strb	r2, [r3, #3]
			tempa[0] = sbox[tempa[0]];
 80003a6:	183b      	adds	r3, r7, r0
 80003a8:	781b      	ldrb	r3, [r3, #0]
 80003aa:	001a      	movs	r2, r3
 80003ac:	4b47      	ldr	r3, [pc, #284]	@ (80004cc <KeyExpansion+0x218>)
 80003ae:	5c9a      	ldrb	r2, [r3, r2]
 80003b0:	183b      	adds	r3, r7, r0
 80003b2:	701a      	strb	r2, [r3, #0]
			tempa[1] = sbox[tempa[1]];
 80003b4:	183b      	adds	r3, r7, r0
 80003b6:	785b      	ldrb	r3, [r3, #1]
 80003b8:	001a      	movs	r2, r3
 80003ba:	4b44      	ldr	r3, [pc, #272]	@ (80004cc <KeyExpansion+0x218>)
 80003bc:	5c9a      	ldrb	r2, [r3, r2]
 80003be:	183b      	adds	r3, r7, r0
 80003c0:	705a      	strb	r2, [r3, #1]
			tempa[2] = sbox[tempa[2]];
 80003c2:	183b      	adds	r3, r7, r0
 80003c4:	789b      	ldrb	r3, [r3, #2]
 80003c6:	001a      	movs	r2, r3
 80003c8:	4b40      	ldr	r3, [pc, #256]	@ (80004cc <KeyExpansion+0x218>)
 80003ca:	5c9a      	ldrb	r2, [r3, r2]
 80003cc:	183b      	adds	r3, r7, r0
 80003ce:	709a      	strb	r2, [r3, #2]
			tempa[3] = sbox[tempa[3]];
 80003d0:	183b      	adds	r3, r7, r0
 80003d2:	78db      	ldrb	r3, [r3, #3]
 80003d4:	001a      	movs	r2, r3
 80003d6:	4b3d      	ldr	r3, [pc, #244]	@ (80004cc <KeyExpansion+0x218>)
 80003d8:	5c9a      	ldrb	r2, [r3, r2]
 80003da:	183b      	adds	r3, r7, r0
 80003dc:	70da      	strb	r2, [r3, #3]
			tempa[0] ^= Rcon[i / 8];
 80003de:	183b      	adds	r3, r7, r0
 80003e0:	781a      	ldrb	r2, [r3, #0]
 80003e2:	69fb      	ldr	r3, [r7, #28]
 80003e4:	08db      	lsrs	r3, r3, #3
 80003e6:	493a      	ldr	r1, [pc, #232]	@ (80004d0 <KeyExpansion+0x21c>)
 80003e8:	5ccb      	ldrb	r3, [r1, r3]
 80003ea:	4053      	eors	r3, r2
 80003ec:	b2da      	uxtb	r2, r3
 80003ee:	183b      	adds	r3, r7, r0
 80003f0:	701a      	strb	r2, [r3, #0]
		}
		if (i % 8 == 4) {
 80003f2:	69fb      	ldr	r3, [r7, #28]
 80003f4:	2207      	movs	r2, #7
 80003f6:	4013      	ands	r3, r2
 80003f8:	2b04      	cmp	r3, #4
 80003fa:	d11c      	bne.n	8000436 <KeyExpansion+0x182>
			tempa[0] = sbox[tempa[0]];
 80003fc:	210c      	movs	r1, #12
 80003fe:	187b      	adds	r3, r7, r1
 8000400:	781b      	ldrb	r3, [r3, #0]
 8000402:	001a      	movs	r2, r3
 8000404:	4b31      	ldr	r3, [pc, #196]	@ (80004cc <KeyExpansion+0x218>)
 8000406:	5c9a      	ldrb	r2, [r3, r2]
 8000408:	187b      	adds	r3, r7, r1
 800040a:	701a      	strb	r2, [r3, #0]
			tempa[1] = sbox[tempa[1]];
 800040c:	187b      	adds	r3, r7, r1
 800040e:	785b      	ldrb	r3, [r3, #1]
 8000410:	001a      	movs	r2, r3
 8000412:	4b2e      	ldr	r3, [pc, #184]	@ (80004cc <KeyExpansion+0x218>)
 8000414:	5c9a      	ldrb	r2, [r3, r2]
 8000416:	187b      	adds	r3, r7, r1
 8000418:	705a      	strb	r2, [r3, #1]
			tempa[2] = sbox[tempa[2]];
 800041a:	187b      	adds	r3, r7, r1
 800041c:	789b      	ldrb	r3, [r3, #2]
 800041e:	001a      	movs	r2, r3
 8000420:	4b2a      	ldr	r3, [pc, #168]	@ (80004cc <KeyExpansion+0x218>)
 8000422:	5c9a      	ldrb	r2, [r3, r2]
 8000424:	187b      	adds	r3, r7, r1
 8000426:	709a      	strb	r2, [r3, #2]
			tempa[3] = sbox[tempa[3]];
 8000428:	187b      	adds	r3, r7, r1
 800042a:	78db      	ldrb	r3, [r3, #3]
 800042c:	001a      	movs	r2, r3
 800042e:	4b27      	ldr	r3, [pc, #156]	@ (80004cc <KeyExpansion+0x218>)
 8000430:	5c9a      	ldrb	r2, [r3, r2]
 8000432:	187b      	adds	r3, r7, r1
 8000434:	70da      	strb	r2, [r3, #3]
		}
		j = i * 4;
 8000436:	69fb      	ldr	r3, [r7, #28]
 8000438:	009b      	lsls	r3, r3, #2
 800043a:	613b      	str	r3, [r7, #16]
		k = (i - 8) * 4;
 800043c:	69fb      	ldr	r3, [r7, #28]
 800043e:	3b08      	subs	r3, #8
 8000440:	009b      	lsls	r3, r3, #2
 8000442:	61bb      	str	r3, [r7, #24]
		RoundKey[j + 0] = RoundKey[k + 0] ^ tempa[0];
 8000444:	687a      	ldr	r2, [r7, #4]
 8000446:	69bb      	ldr	r3, [r7, #24]
 8000448:	18d3      	adds	r3, r2, r3
 800044a:	7819      	ldrb	r1, [r3, #0]
 800044c:	240c      	movs	r4, #12
 800044e:	193b      	adds	r3, r7, r4
 8000450:	781a      	ldrb	r2, [r3, #0]
 8000452:	6878      	ldr	r0, [r7, #4]
 8000454:	693b      	ldr	r3, [r7, #16]
 8000456:	18c3      	adds	r3, r0, r3
 8000458:	404a      	eors	r2, r1
 800045a:	b2d2      	uxtb	r2, r2
 800045c:	701a      	strb	r2, [r3, #0]
		RoundKey[j + 1] = RoundKey[k + 1] ^ tempa[1];
 800045e:	69bb      	ldr	r3, [r7, #24]
 8000460:	3301      	adds	r3, #1
 8000462:	687a      	ldr	r2, [r7, #4]
 8000464:	18d3      	adds	r3, r2, r3
 8000466:	7819      	ldrb	r1, [r3, #0]
 8000468:	193b      	adds	r3, r7, r4
 800046a:	785a      	ldrb	r2, [r3, #1]
 800046c:	693b      	ldr	r3, [r7, #16]
 800046e:	3301      	adds	r3, #1
 8000470:	6878      	ldr	r0, [r7, #4]
 8000472:	18c3      	adds	r3, r0, r3
 8000474:	404a      	eors	r2, r1
 8000476:	b2d2      	uxtb	r2, r2
 8000478:	701a      	strb	r2, [r3, #0]
		RoundKey[j + 2] = RoundKey[k + 2] ^ tempa[2];
 800047a:	69bb      	ldr	r3, [r7, #24]
 800047c:	3302      	adds	r3, #2
 800047e:	687a      	ldr	r2, [r7, #4]
 8000480:	18d3      	adds	r3, r2, r3
 8000482:	7819      	ldrb	r1, [r3, #0]
 8000484:	193b      	adds	r3, r7, r4
 8000486:	789a      	ldrb	r2, [r3, #2]
 8000488:	693b      	ldr	r3, [r7, #16]
 800048a:	3302      	adds	r3, #2
 800048c:	6878      	ldr	r0, [r7, #4]
 800048e:	18c3      	adds	r3, r0, r3
 8000490:	404a      	eors	r2, r1
 8000492:	b2d2      	uxtb	r2, r2
 8000494:	701a      	strb	r2, [r3, #0]
		RoundKey[j + 3] = RoundKey[k + 3] ^ tempa[3];
 8000496:	69bb      	ldr	r3, [r7, #24]
 8000498:	3303      	adds	r3, #3
 800049a:	687a      	ldr	r2, [r7, #4]
 800049c:	18d3      	adds	r3, r2, r3
 800049e:	7819      	ldrb	r1, [r3, #0]
 80004a0:	193b      	adds	r3, r7, r4
 80004a2:	78da      	ldrb	r2, [r3, #3]
 80004a4:	693b      	ldr	r3, [r7, #16]
 80004a6:	3303      	adds	r3, #3
 80004a8:	6878      	ldr	r0, [r7, #4]
 80004aa:	18c3      	adds	r3, r0, r3
 80004ac:	404a      	eors	r2, r1
 80004ae:	b2d2      	uxtb	r2, r2
 80004b0:	701a      	strb	r2, [r3, #0]
	for (i = 8; i < 60; ++i) {
 80004b2:	69fb      	ldr	r3, [r7, #28]
 80004b4:	3301      	adds	r3, #1
 80004b6:	61fb      	str	r3, [r7, #28]
 80004b8:	69fb      	ldr	r3, [r7, #28]
 80004ba:	2b3b      	cmp	r3, #59	@ 0x3b
 80004bc:	d800      	bhi.n	80004c0 <KeyExpansion+0x20c>
 80004be:	e738      	b.n	8000332 <KeyExpansion+0x7e>
	}
}
 80004c0:	46c0      	nop			@ (mov r8, r8)
 80004c2:	46c0      	nop			@ (mov r8, r8)
 80004c4:	46bd      	mov	sp, r7
 80004c6:	b009      	add	sp, #36	@ 0x24
 80004c8:	bd90      	pop	{r4, r7, pc}
 80004ca:	46c0      	nop			@ (mov r8, r8)
 80004cc:	08006d6c 	.word	0x08006d6c
 80004d0:	08006f6c 	.word	0x08006f6c

080004d4 <InvCipher>:

// --- AES ÇÖZME ADIMLARI ---
static void InvCipher(uint8_t *state, const uint8_t *RoundKey) {
 80004d4:	b5f0      	push	{r4, r5, r6, r7, lr}
 80004d6:	b089      	sub	sp, #36	@ 0x24
 80004d8:	af00      	add	r7, sp, #0
 80004da:	6078      	str	r0, [r7, #4]
 80004dc:	6039      	str	r1, [r7, #0]
	// AddRoundKey(14)
	for (uint8_t i = 0; i < 16; ++i)
 80004de:	231f      	movs	r3, #31
 80004e0:	18fb      	adds	r3, r7, r3
 80004e2:	2200      	movs	r2, #0
 80004e4:	701a      	strb	r2, [r3, #0]
 80004e6:	e018      	b.n	800051a <InvCipher+0x46>
		state[i] ^= RoundKey[(14 * 16) + i];
 80004e8:	241f      	movs	r4, #31
 80004ea:	193b      	adds	r3, r7, r4
 80004ec:	781b      	ldrb	r3, [r3, #0]
 80004ee:	687a      	ldr	r2, [r7, #4]
 80004f0:	18d3      	adds	r3, r2, r3
 80004f2:	7819      	ldrb	r1, [r3, #0]
 80004f4:	193b      	adds	r3, r7, r4
 80004f6:	781b      	ldrb	r3, [r3, #0]
 80004f8:	33e0      	adds	r3, #224	@ 0xe0
 80004fa:	001a      	movs	r2, r3
 80004fc:	683b      	ldr	r3, [r7, #0]
 80004fe:	189b      	adds	r3, r3, r2
 8000500:	781a      	ldrb	r2, [r3, #0]
 8000502:	193b      	adds	r3, r7, r4
 8000504:	781b      	ldrb	r3, [r3, #0]
 8000506:	6878      	ldr	r0, [r7, #4]
 8000508:	18c3      	adds	r3, r0, r3
 800050a:	404a      	eors	r2, r1
 800050c:	b2d2      	uxtb	r2, r2
 800050e:	701a      	strb	r2, [r3, #0]
	for (uint8_t i = 0; i < 16; ++i)
 8000510:	193b      	adds	r3, r7, r4
 8000512:	193a      	adds	r2, r7, r4
 8000514:	7812      	ldrb	r2, [r2, #0]
 8000516:	3201      	adds	r2, #1
 8000518:	701a      	strb	r2, [r3, #0]
 800051a:	231f      	movs	r3, #31
 800051c:	18fb      	adds	r3, r7, r3
 800051e:	781b      	ldrb	r3, [r3, #0]
 8000520:	2b0f      	cmp	r3, #15
 8000522:	d9e1      	bls.n	80004e8 <InvCipher+0x14>

	for (int round = 13; round > 0; --round) {
 8000524:	230d      	movs	r3, #13
 8000526:	61bb      	str	r3, [r7, #24]
 8000528:	e185      	b.n	8000836 <InvCipher+0x362>
		// InvShiftRows
		uint8_t tmp;
		tmp = state[13];
 800052a:	2111      	movs	r1, #17
 800052c:	187b      	adds	r3, r7, r1
 800052e:	687a      	ldr	r2, [r7, #4]
 8000530:	7b52      	ldrb	r2, [r2, #13]
 8000532:	701a      	strb	r2, [r3, #0]
		state[13] = state[9];
 8000534:	687b      	ldr	r3, [r7, #4]
 8000536:	330d      	adds	r3, #13
 8000538:	687a      	ldr	r2, [r7, #4]
 800053a:	7a52      	ldrb	r2, [r2, #9]
 800053c:	701a      	strb	r2, [r3, #0]
		state[9] = state[5];
 800053e:	687b      	ldr	r3, [r7, #4]
 8000540:	3309      	adds	r3, #9
 8000542:	687a      	ldr	r2, [r7, #4]
 8000544:	7952      	ldrb	r2, [r2, #5]
 8000546:	701a      	strb	r2, [r3, #0]
		state[5] = state[1];
 8000548:	687b      	ldr	r3, [r7, #4]
 800054a:	3305      	adds	r3, #5
 800054c:	687a      	ldr	r2, [r7, #4]
 800054e:	7852      	ldrb	r2, [r2, #1]
 8000550:	701a      	strb	r2, [r3, #0]
		state[1] = tmp;
 8000552:	687b      	ldr	r3, [r7, #4]
 8000554:	3301      	adds	r3, #1
 8000556:	187a      	adds	r2, r7, r1
 8000558:	7812      	ldrb	r2, [r2, #0]
 800055a:	701a      	strb	r2, [r3, #0]
		tmp = state[2];
 800055c:	187b      	adds	r3, r7, r1
 800055e:	687a      	ldr	r2, [r7, #4]
 8000560:	7892      	ldrb	r2, [r2, #2]
 8000562:	701a      	strb	r2, [r3, #0]
		state[2] = state[10];
 8000564:	687b      	ldr	r3, [r7, #4]
 8000566:	3302      	adds	r3, #2
 8000568:	687a      	ldr	r2, [r7, #4]
 800056a:	7a92      	ldrb	r2, [r2, #10]
 800056c:	701a      	strb	r2, [r3, #0]
		state[10] = tmp;
 800056e:	687b      	ldr	r3, [r7, #4]
 8000570:	330a      	adds	r3, #10
 8000572:	187a      	adds	r2, r7, r1
 8000574:	7812      	ldrb	r2, [r2, #0]
 8000576:	701a      	strb	r2, [r3, #0]
		tmp = state[6];
 8000578:	187b      	adds	r3, r7, r1
 800057a:	687a      	ldr	r2, [r7, #4]
 800057c:	7992      	ldrb	r2, [r2, #6]
 800057e:	701a      	strb	r2, [r3, #0]
		state[6] = state[14];
 8000580:	687b      	ldr	r3, [r7, #4]
 8000582:	3306      	adds	r3, #6
 8000584:	687a      	ldr	r2, [r7, #4]
 8000586:	7b92      	ldrb	r2, [r2, #14]
 8000588:	701a      	strb	r2, [r3, #0]
		state[14] = tmp;
 800058a:	687b      	ldr	r3, [r7, #4]
 800058c:	330e      	adds	r3, #14
 800058e:	187a      	adds	r2, r7, r1
 8000590:	7812      	ldrb	r2, [r2, #0]
 8000592:	701a      	strb	r2, [r3, #0]
		tmp = state[3];
 8000594:	187b      	adds	r3, r7, r1
 8000596:	687a      	ldr	r2, [r7, #4]
 8000598:	78d2      	ldrb	r2, [r2, #3]
 800059a:	701a      	strb	r2, [r3, #0]
		state[3] = state[7];
 800059c:	687b      	ldr	r3, [r7, #4]
 800059e:	3303      	adds	r3, #3
 80005a0:	687a      	ldr	r2, [r7, #4]
 80005a2:	79d2      	ldrb	r2, [r2, #7]
 80005a4:	701a      	strb	r2, [r3, #0]
		state[7] = state[11];
 80005a6:	687b      	ldr	r3, [r7, #4]
 80005a8:	3307      	adds	r3, #7
 80005aa:	687a      	ldr	r2, [r7, #4]
 80005ac:	7ad2      	ldrb	r2, [r2, #11]
 80005ae:	701a      	strb	r2, [r3, #0]
		state[11] = state[15];
 80005b0:	687b      	ldr	r3, [r7, #4]
 80005b2:	330b      	adds	r3, #11
 80005b4:	687a      	ldr	r2, [r7, #4]
 80005b6:	7bd2      	ldrb	r2, [r2, #15]
 80005b8:	701a      	strb	r2, [r3, #0]
		state[15] = tmp;
 80005ba:	687b      	ldr	r3, [r7, #4]
 80005bc:	330f      	adds	r3, #15
 80005be:	187a      	adds	r2, r7, r1
 80005c0:	7812      	ldrb	r2, [r2, #0]
 80005c2:	701a      	strb	r2, [r3, #0]

		// InvSubBytes
		for (uint8_t i = 0; i < 16; ++i)
 80005c4:	2317      	movs	r3, #23
 80005c6:	18fb      	adds	r3, r7, r3
 80005c8:	2200      	movs	r2, #0
 80005ca:	701a      	strb	r2, [r3, #0]
 80005cc:	e012      	b.n	80005f4 <InvCipher+0x120>
			state[i] = rsbox[state[i]];
 80005ce:	2017      	movs	r0, #23
 80005d0:	183b      	adds	r3, r7, r0
 80005d2:	781b      	ldrb	r3, [r3, #0]
 80005d4:	687a      	ldr	r2, [r7, #4]
 80005d6:	18d3      	adds	r3, r2, r3
 80005d8:	781b      	ldrb	r3, [r3, #0]
 80005da:	0019      	movs	r1, r3
 80005dc:	183b      	adds	r3, r7, r0
 80005de:	781b      	ldrb	r3, [r3, #0]
 80005e0:	687a      	ldr	r2, [r7, #4]
 80005e2:	18d3      	adds	r3, r2, r3
 80005e4:	4ade      	ldr	r2, [pc, #888]	@ (8000960 <InvCipher+0x48c>)
 80005e6:	5c52      	ldrb	r2, [r2, r1]
 80005e8:	701a      	strb	r2, [r3, #0]
		for (uint8_t i = 0; i < 16; ++i)
 80005ea:	183b      	adds	r3, r7, r0
 80005ec:	183a      	adds	r2, r7, r0
 80005ee:	7812      	ldrb	r2, [r2, #0]
 80005f0:	3201      	adds	r2, #1
 80005f2:	701a      	strb	r2, [r3, #0]
 80005f4:	2317      	movs	r3, #23
 80005f6:	18fb      	adds	r3, r7, r3
 80005f8:	781b      	ldrb	r3, [r3, #0]
 80005fa:	2b0f      	cmp	r3, #15
 80005fc:	d9e7      	bls.n	80005ce <InvCipher+0xfa>

		// AddRoundKey
		for (uint8_t i = 0; i < 16; ++i)
 80005fe:	2316      	movs	r3, #22
 8000600:	18fb      	adds	r3, r7, r3
 8000602:	2200      	movs	r2, #0
 8000604:	701a      	strb	r2, [r3, #0]
 8000606:	e01a      	b.n	800063e <InvCipher+0x16a>
			state[i] ^= RoundKey[(round * 16) + i];
 8000608:	2416      	movs	r4, #22
 800060a:	193b      	adds	r3, r7, r4
 800060c:	781b      	ldrb	r3, [r3, #0]
 800060e:	687a      	ldr	r2, [r7, #4]
 8000610:	18d3      	adds	r3, r2, r3
 8000612:	7819      	ldrb	r1, [r3, #0]
 8000614:	69bb      	ldr	r3, [r7, #24]
 8000616:	011a      	lsls	r2, r3, #4
 8000618:	193b      	adds	r3, r7, r4
 800061a:	781b      	ldrb	r3, [r3, #0]
 800061c:	18d3      	adds	r3, r2, r3
 800061e:	001a      	movs	r2, r3
 8000620:	683b      	ldr	r3, [r7, #0]
 8000622:	189b      	adds	r3, r3, r2
 8000624:	781a      	ldrb	r2, [r3, #0]
 8000626:	193b      	adds	r3, r7, r4
 8000628:	781b      	ldrb	r3, [r3, #0]
 800062a:	6878      	ldr	r0, [r7, #4]
 800062c:	18c3      	adds	r3, r0, r3
 800062e:	404a      	eors	r2, r1
 8000630:	b2d2      	uxtb	r2, r2
 8000632:	701a      	strb	r2, [r3, #0]
		for (uint8_t i = 0; i < 16; ++i)
 8000634:	193b      	adds	r3, r7, r4
 8000636:	193a      	adds	r2, r7, r4
 8000638:	7812      	ldrb	r2, [r2, #0]
 800063a:	3201      	adds	r2, #1
 800063c:	701a      	strb	r2, [r3, #0]
 800063e:	2316      	movs	r3, #22
 8000640:	18fb      	adds	r3, r7, r3
 8000642:	781b      	ldrb	r3, [r3, #0]
 8000644:	2b0f      	cmp	r3, #15
 8000646:	d9df      	bls.n	8000608 <InvCipher+0x134>

		// InvMixColumns
		uint8_t a, b, c, d;
		for (uint8_t i = 0; i < 4; ++i) {
 8000648:	2315      	movs	r3, #21
 800064a:	18fb      	adds	r3, r7, r3
 800064c:	2200      	movs	r2, #0
 800064e:	701a      	strb	r2, [r3, #0]
 8000650:	e0e8      	b.n	8000824 <InvCipher+0x350>
			a = state[i * 4 + 0];
 8000652:	2515      	movs	r5, #21
 8000654:	197b      	adds	r3, r7, r5
 8000656:	781b      	ldrb	r3, [r3, #0]
 8000658:	009b      	lsls	r3, r3, #2
 800065a:	001a      	movs	r2, r3
 800065c:	687b      	ldr	r3, [r7, #4]
 800065e:	189a      	adds	r2, r3, r2
 8000660:	2610      	movs	r6, #16
 8000662:	19bb      	adds	r3, r7, r6
 8000664:	7812      	ldrb	r2, [r2, #0]
 8000666:	701a      	strb	r2, [r3, #0]
			b = state[i * 4 + 1];
 8000668:	197b      	adds	r3, r7, r5
 800066a:	781b      	ldrb	r3, [r3, #0]
 800066c:	009b      	lsls	r3, r3, #2
 800066e:	3301      	adds	r3, #1
 8000670:	687a      	ldr	r2, [r7, #4]
 8000672:	18d2      	adds	r2, r2, r3
 8000674:	230f      	movs	r3, #15
 8000676:	18fb      	adds	r3, r7, r3
 8000678:	7812      	ldrb	r2, [r2, #0]
 800067a:	701a      	strb	r2, [r3, #0]
			c = state[i * 4 + 2];
 800067c:	197b      	adds	r3, r7, r5
 800067e:	781b      	ldrb	r3, [r3, #0]
 8000680:	009b      	lsls	r3, r3, #2
 8000682:	3302      	adds	r3, #2
 8000684:	687a      	ldr	r2, [r7, #4]
 8000686:	18d2      	adds	r2, r2, r3
 8000688:	210e      	movs	r1, #14
 800068a:	187b      	adds	r3, r7, r1
 800068c:	7812      	ldrb	r2, [r2, #0]
 800068e:	701a      	strb	r2, [r3, #0]
			d = state[i * 4 + 3];
 8000690:	197b      	adds	r3, r7, r5
 8000692:	781b      	ldrb	r3, [r3, #0]
 8000694:	009b      	lsls	r3, r3, #2
 8000696:	3303      	adds	r3, #3
 8000698:	687a      	ldr	r2, [r7, #4]
 800069a:	18d2      	adds	r2, r2, r3
 800069c:	200d      	movs	r0, #13
 800069e:	183b      	adds	r3, r7, r0
 80006a0:	7812      	ldrb	r2, [r2, #0]
 80006a2:	701a      	strb	r2, [r3, #0]
			state[i * 4 + 0] = Multiply(a, 0x0e) ^ Multiply(b, 0x0b)
 80006a4:	19bb      	adds	r3, r7, r6
 80006a6:	781b      	ldrb	r3, [r3, #0]
 80006a8:	210e      	movs	r1, #14
 80006aa:	0018      	movs	r0, r3
 80006ac:	f7ff fdb6 	bl	800021c <Multiply>
 80006b0:	0003      	movs	r3, r0
 80006b2:	001c      	movs	r4, r3
 80006b4:	230f      	movs	r3, #15
 80006b6:	18fb      	adds	r3, r7, r3
 80006b8:	781b      	ldrb	r3, [r3, #0]
 80006ba:	210b      	movs	r1, #11
 80006bc:	0018      	movs	r0, r3
 80006be:	f7ff fdad 	bl	800021c <Multiply>
 80006c2:	0003      	movs	r3, r0
 80006c4:	4063      	eors	r3, r4
 80006c6:	b2dc      	uxtb	r4, r3
					^ Multiply(c, 0x0d) ^ Multiply(d, 0x09);
 80006c8:	210e      	movs	r1, #14
 80006ca:	187b      	adds	r3, r7, r1
 80006cc:	781b      	ldrb	r3, [r3, #0]
 80006ce:	210d      	movs	r1, #13
 80006d0:	0018      	movs	r0, r3
 80006d2:	f7ff fda3 	bl	800021c <Multiply>
 80006d6:	0003      	movs	r3, r0
			state[i * 4 + 0] = Multiply(a, 0x0e) ^ Multiply(b, 0x0b)
 80006d8:	4063      	eors	r3, r4
 80006da:	b2dc      	uxtb	r4, r3
					^ Multiply(c, 0x0d) ^ Multiply(d, 0x09);
 80006dc:	200d      	movs	r0, #13
 80006de:	183b      	adds	r3, r7, r0
 80006e0:	781b      	ldrb	r3, [r3, #0]
 80006e2:	2109      	movs	r1, #9
 80006e4:	0018      	movs	r0, r3
 80006e6:	f7ff fd99 	bl	800021c <Multiply>
 80006ea:	0003      	movs	r3, r0
 80006ec:	001a      	movs	r2, r3
			state[i * 4 + 0] = Multiply(a, 0x0e) ^ Multiply(b, 0x0b)
 80006ee:	197b      	adds	r3, r7, r5
 80006f0:	781b      	ldrb	r3, [r3, #0]
 80006f2:	009b      	lsls	r3, r3, #2
 80006f4:	0019      	movs	r1, r3
 80006f6:	687b      	ldr	r3, [r7, #4]
 80006f8:	185b      	adds	r3, r3, r1
 80006fa:	4062      	eors	r2, r4
 80006fc:	b2d2      	uxtb	r2, r2
 80006fe:	701a      	strb	r2, [r3, #0]
			state[i * 4 + 1] = Multiply(a, 0x09) ^ Multiply(b, 0x0e)
 8000700:	19bb      	adds	r3, r7, r6
 8000702:	781b      	ldrb	r3, [r3, #0]
 8000704:	2109      	movs	r1, #9
 8000706:	0018      	movs	r0, r3
 8000708:	f7ff fd88 	bl	800021c <Multiply>
 800070c:	0003      	movs	r3, r0
 800070e:	001c      	movs	r4, r3
 8000710:	230f      	movs	r3, #15
 8000712:	18fb      	adds	r3, r7, r3
 8000714:	781b      	ldrb	r3, [r3, #0]
 8000716:	210e      	movs	r1, #14
 8000718:	0018      	movs	r0, r3
 800071a:	f7ff fd7f 	bl	800021c <Multiply>
 800071e:	0003      	movs	r3, r0
 8000720:	4063      	eors	r3, r4
 8000722:	b2dc      	uxtb	r4, r3
					^ Multiply(c, 0x0b) ^ Multiply(d, 0x0d);
 8000724:	210e      	movs	r1, #14
 8000726:	187b      	adds	r3, r7, r1
 8000728:	781b      	ldrb	r3, [r3, #0]
 800072a:	210b      	movs	r1, #11
 800072c:	0018      	movs	r0, r3
 800072e:	f7ff fd75 	bl	800021c <Multiply>
 8000732:	0003      	movs	r3, r0
			state[i * 4 + 1] = Multiply(a, 0x09) ^ Multiply(b, 0x0e)
 8000734:	4063      	eors	r3, r4
 8000736:	b2dc      	uxtb	r4, r3
					^ Multiply(c, 0x0b) ^ Multiply(d, 0x0d);
 8000738:	200d      	movs	r0, #13
 800073a:	183b      	adds	r3, r7, r0
 800073c:	781b      	ldrb	r3, [r3, #0]
 800073e:	210d      	movs	r1, #13
 8000740:	0018      	movs	r0, r3
 8000742:	f7ff fd6b 	bl	800021c <Multiply>
 8000746:	0003      	movs	r3, r0
 8000748:	0019      	movs	r1, r3
			state[i * 4 + 1] = Multiply(a, 0x09) ^ Multiply(b, 0x0e)
 800074a:	197b      	adds	r3, r7, r5
 800074c:	781b      	ldrb	r3, [r3, #0]
 800074e:	009b      	lsls	r3, r3, #2
 8000750:	3301      	adds	r3, #1
 8000752:	687a      	ldr	r2, [r7, #4]
 8000754:	18d3      	adds	r3, r2, r3
 8000756:	0022      	movs	r2, r4
 8000758:	404a      	eors	r2, r1
 800075a:	b2d2      	uxtb	r2, r2
 800075c:	701a      	strb	r2, [r3, #0]
			state[i * 4 + 2] = Multiply(a, 0x0d) ^ Multiply(b, 0x09)
 800075e:	19bb      	adds	r3, r7, r6
 8000760:	781b      	ldrb	r3, [r3, #0]
 8000762:	210d      	movs	r1, #13
 8000764:	0018      	movs	r0, r3
 8000766:	f7ff fd59 	bl	800021c <Multiply>
 800076a:	0003      	movs	r3, r0
 800076c:	001c      	movs	r4, r3
 800076e:	230f      	movs	r3, #15
 8000770:	18fb      	adds	r3, r7, r3
 8000772:	781b      	ldrb	r3, [r3, #0]
 8000774:	2109      	movs	r1, #9
 8000776:	0018      	movs	r0, r3
 8000778:	f7ff fd50 	bl	800021c <Multiply>
 800077c:	0003      	movs	r3, r0
 800077e:	4063      	eors	r3, r4
 8000780:	b2dc      	uxtb	r4, r3
					^ Multiply(c, 0x0e) ^ Multiply(d, 0x0b);
 8000782:	210e      	movs	r1, #14
 8000784:	187b      	adds	r3, r7, r1
 8000786:	781b      	ldrb	r3, [r3, #0]
 8000788:	210e      	movs	r1, #14
 800078a:	0018      	movs	r0, r3
 800078c:	f7ff fd46 	bl	800021c <Multiply>
 8000790:	0003      	movs	r3, r0
			state[i * 4 + 2] = Multiply(a, 0x0d) ^ Multiply(b, 0x09)
 8000792:	4063      	eors	r3, r4
 8000794:	b2dc      	uxtb	r4, r3
					^ Multiply(c, 0x0e) ^ Multiply(d, 0x0b);
 8000796:	200d      	movs	r0, #13
 8000798:	183b      	adds	r3, r7, r0
 800079a:	781b      	ldrb	r3, [r3, #0]
 800079c:	210b      	movs	r1, #11
 800079e:	0018      	movs	r0, r3
 80007a0:	f7ff fd3c 	bl	800021c <Multiply>
 80007a4:	0003      	movs	r3, r0
 80007a6:	0019      	movs	r1, r3
			state[i * 4 + 2] = Multiply(a, 0x0d) ^ Multiply(b, 0x09)
 80007a8:	197b      	adds	r3, r7, r5
 80007aa:	781b      	ldrb	r3, [r3, #0]
 80007ac:	009b      	lsls	r3, r3, #2
 80007ae:	3302      	adds	r3, #2
 80007b0:	687a      	ldr	r2, [r7, #4]
 80007b2:	18d3      	adds	r3, r2, r3
 80007b4:	0022      	movs	r2, r4
 80007b6:	404a      	eors	r2, r1
 80007b8:	b2d2      	uxtb	r2, r2
 80007ba:	701a      	strb	r2, [r3, #0]
			state[i * 4 + 3] = Multiply(a, 0x0b) ^ Multiply(b, 0x0d)
 80007bc:	19bb      	adds	r3, r7, r6
 80007be:	781b      	ldrb	r3, [r3, #0]
 80007c0:	210b      	movs	r1, #11
 80007c2:	0018      	movs	r0, r3
 80007c4:	f7ff fd2a 	bl	800021c <Multiply>
 80007c8:	0003      	movs	r3, r0
 80007ca:	001c      	movs	r4, r3
 80007cc:	230f      	movs	r3, #15
 80007ce:	18fb      	adds	r3, r7, r3
 80007d0:	781b      	ldrb	r3, [r3, #0]
 80007d2:	210d      	movs	r1, #13
 80007d4:	0018      	movs	r0, r3
 80007d6:	f7ff fd21 	bl	800021c <Multiply>
 80007da:	0003      	movs	r3, r0
 80007dc:	4063      	eors	r3, r4
 80007de:	b2dc      	uxtb	r4, r3
					^ Multiply(c, 0x09) ^ Multiply(d, 0x0e);
 80007e0:	210e      	movs	r1, #14
 80007e2:	187b      	adds	r3, r7, r1
 80007e4:	781b      	ldrb	r3, [r3, #0]
 80007e6:	2109      	movs	r1, #9
 80007e8:	0018      	movs	r0, r3
 80007ea:	f7ff fd17 	bl	800021c <Multiply>
 80007ee:	0003      	movs	r3, r0
			state[i * 4 + 3] = Multiply(a, 0x0b) ^ Multiply(b, 0x0d)
 80007f0:	4063      	eors	r3, r4
 80007f2:	b2dc      	uxtb	r4, r3
					^ Multiply(c, 0x09) ^ Multiply(d, 0x0e);
 80007f4:	200d      	movs	r0, #13
 80007f6:	183b      	adds	r3, r7, r0
 80007f8:	781b      	ldrb	r3, [r3, #0]
 80007fa:	210e      	movs	r1, #14
 80007fc:	0018      	movs	r0, r3
 80007fe:	f7ff fd0d 	bl	800021c <Multiply>
 8000802:	0003      	movs	r3, r0
 8000804:	0019      	movs	r1, r3
			state[i * 4 + 3] = Multiply(a, 0x0b) ^ Multiply(b, 0x0d)
 8000806:	197b      	adds	r3, r7, r5
 8000808:	781b      	ldrb	r3, [r3, #0]
 800080a:	009b      	lsls	r3, r3, #2
 800080c:	3303      	adds	r3, #3
 800080e:	687a      	ldr	r2, [r7, #4]
 8000810:	18d3      	adds	r3, r2, r3
 8000812:	0022      	movs	r2, r4
 8000814:	404a      	eors	r2, r1
 8000816:	b2d2      	uxtb	r2, r2
 8000818:	701a      	strb	r2, [r3, #0]
		for (uint8_t i = 0; i < 4; ++i) {
 800081a:	197b      	adds	r3, r7, r5
 800081c:	197a      	adds	r2, r7, r5
 800081e:	7812      	ldrb	r2, [r2, #0]
 8000820:	3201      	adds	r2, #1
 8000822:	701a      	strb	r2, [r3, #0]
 8000824:	2315      	movs	r3, #21
 8000826:	18fb      	adds	r3, r7, r3
 8000828:	781b      	ldrb	r3, [r3, #0]
 800082a:	2b03      	cmp	r3, #3
 800082c:	d800      	bhi.n	8000830 <InvCipher+0x35c>
 800082e:	e710      	b.n	8000652 <InvCipher+0x17e>
	for (int round = 13; round > 0; --round) {
 8000830:	69bb      	ldr	r3, [r7, #24]
 8000832:	3b01      	subs	r3, #1
 8000834:	61bb      	str	r3, [r7, #24]
 8000836:	69bb      	ldr	r3, [r7, #24]
 8000838:	2b00      	cmp	r3, #0
 800083a:	dd00      	ble.n	800083e <InvCipher+0x36a>
 800083c:	e675      	b.n	800052a <InvCipher+0x56>
		}
	}
	// Son Round
	uint8_t tmp;
	tmp = state[13];
 800083e:	2112      	movs	r1, #18
 8000840:	187b      	adds	r3, r7, r1
 8000842:	687a      	ldr	r2, [r7, #4]
 8000844:	7b52      	ldrb	r2, [r2, #13]
 8000846:	701a      	strb	r2, [r3, #0]
	state[13] = state[9];
 8000848:	687b      	ldr	r3, [r7, #4]
 800084a:	330d      	adds	r3, #13
 800084c:	687a      	ldr	r2, [r7, #4]
 800084e:	7a52      	ldrb	r2, [r2, #9]
 8000850:	701a      	strb	r2, [r3, #0]
	state[9] = state[5];
 8000852:	687b      	ldr	r3, [r7, #4]
 8000854:	3309      	adds	r3, #9
 8000856:	687a      	ldr	r2, [r7, #4]
 8000858:	7952      	ldrb	r2, [r2, #5]
 800085a:	701a      	strb	r2, [r3, #0]
	state[5] = state[1];
 800085c:	687b      	ldr	r3, [r7, #4]
 800085e:	3305      	adds	r3, #5
 8000860:	687a      	ldr	r2, [r7, #4]
 8000862:	7852      	ldrb	r2, [r2, #1]
 8000864:	701a      	strb	r2, [r3, #0]
	state[1] = tmp;
 8000866:	687b      	ldr	r3, [r7, #4]
 8000868:	3301      	adds	r3, #1
 800086a:	187a      	adds	r2, r7, r1
 800086c:	7812      	ldrb	r2, [r2, #0]
 800086e:	701a      	strb	r2, [r3, #0]
	tmp = state[2];
 8000870:	187b      	adds	r3, r7, r1
 8000872:	687a      	ldr	r2, [r7, #4]
 8000874:	7892      	ldrb	r2, [r2, #2]
 8000876:	701a      	strb	r2, [r3, #0]
	state[2] = state[10];
 8000878:	687b      	ldr	r3, [r7, #4]
 800087a:	3302      	adds	r3, #2
 800087c:	687a      	ldr	r2, [r7, #4]
 800087e:	7a92      	ldrb	r2, [r2, #10]
 8000880:	701a      	strb	r2, [r3, #0]
	state[10] = tmp;
 8000882:	687b      	ldr	r3, [r7, #4]
 8000884:	330a      	adds	r3, #10
 8000886:	187a      	adds	r2, r7, r1
 8000888:	7812      	ldrb	r2, [r2, #0]
 800088a:	701a      	strb	r2, [r3, #0]
	tmp = state[6];
 800088c:	187b      	adds	r3, r7, r1
 800088e:	687a      	ldr	r2, [r7, #4]
 8000890:	7992      	ldrb	r2, [r2, #6]
 8000892:	701a      	strb	r2, [r3, #0]
	state[6] = state[14];
 8000894:	687b      	ldr	r3, [r7, #4]
 8000896:	3306      	adds	r3, #6
 8000898:	687a      	ldr	r2, [r7, #4]
 800089a:	7b92      	ldrb	r2, [r2, #14]
 800089c:	701a      	strb	r2, [r3, #0]
	state[14] = tmp;
 800089e:	687b      	ldr	r3, [r7, #4]
 80008a0:	330e      	adds	r3, #14
 80008a2:	187a      	adds	r2, r7, r1
 80008a4:	7812      	ldrb	r2, [r2, #0]
 80008a6:	701a      	strb	r2, [r3, #0]
	tmp = state[3];
 80008a8:	187b      	adds	r3, r7, r1
 80008aa:	687a      	ldr	r2, [r7, #4]
 80008ac:	78d2      	ldrb	r2, [r2, #3]
 80008ae:	701a      	strb	r2, [r3, #0]
	state[3] = state[7];
 80008b0:	687b      	ldr	r3, [r7, #4]
 80008b2:	3303      	adds	r3, #3
 80008b4:	687a      	ldr	r2, [r7, #4]
 80008b6:	79d2      	ldrb	r2, [r2, #7]
 80008b8:	701a      	strb	r2, [r3, #0]
	state[7] = state[11];
 80008ba:	687b      	ldr	r3, [r7, #4]
 80008bc:	3307      	adds	r3, #7
 80008be:	687a      	ldr	r2, [r7, #4]
 80008c0:	7ad2      	ldrb	r2, [r2, #11]
 80008c2:	701a      	strb	r2, [r3, #0]
	state[11] = state[15];
 80008c4:	687b      	ldr	r3, [r7, #4]
 80008c6:	330b      	adds	r3, #11
 80008c8:	687a      	ldr	r2, [r7, #4]
 80008ca:	7bd2      	ldrb	r2, [r2, #15]
 80008cc:	701a      	strb	r2, [r3, #0]
	state[15] = tmp;
 80008ce:	687b      	ldr	r3, [r7, #4]
 80008d0:	330f      	adds	r3, #15
 80008d2:	187a      	adds	r2, r7, r1
 80008d4:	7812      	ldrb	r2, [r2, #0]
 80008d6:	701a      	strb	r2, [r3, #0]
	for (uint8_t i = 0; i < 16; ++i)
 80008d8:	2314      	movs	r3, #20
 80008da:	18fb      	adds	r3, r7, r3
 80008dc:	2200      	movs	r2, #0
 80008de:	701a      	strb	r2, [r3, #0]
 80008e0:	e012      	b.n	8000908 <InvCipher+0x434>
		state[i] = rsbox[state[i]];
 80008e2:	2014      	movs	r0, #20
 80008e4:	183b      	adds	r3, r7, r0
 80008e6:	781b      	ldrb	r3, [r3, #0]
 80008e8:	687a      	ldr	r2, [r7, #4]
 80008ea:	18d3      	adds	r3, r2, r3
 80008ec:	781b      	ldrb	r3, [r3, #0]
 80008ee:	0019      	movs	r1, r3
 80008f0:	183b      	adds	r3, r7, r0
 80008f2:	781b      	ldrb	r3, [r3, #0]
 80008f4:	687a      	ldr	r2, [r7, #4]
 80008f6:	18d3      	adds	r3, r2, r3
 80008f8:	4a19      	ldr	r2, [pc, #100]	@ (8000960 <InvCipher+0x48c>)
 80008fa:	5c52      	ldrb	r2, [r2, r1]
 80008fc:	701a      	strb	r2, [r3, #0]
	for (uint8_t i = 0; i < 16; ++i)
 80008fe:	183b      	adds	r3, r7, r0
 8000900:	183a      	adds	r2, r7, r0
 8000902:	7812      	ldrb	r2, [r2, #0]
 8000904:	3201      	adds	r2, #1
 8000906:	701a      	strb	r2, [r3, #0]
 8000908:	2314      	movs	r3, #20
 800090a:	18fb      	adds	r3, r7, r3
 800090c:	781b      	ldrb	r3, [r3, #0]
 800090e:	2b0f      	cmp	r3, #15
 8000910:	d9e7      	bls.n	80008e2 <InvCipher+0x40e>
	for (uint8_t i = 0; i < 16; ++i)
 8000912:	2313      	movs	r3, #19
 8000914:	18fb      	adds	r3, r7, r3
 8000916:	2200      	movs	r2, #0
 8000918:	701a      	strb	r2, [r3, #0]
 800091a:	e016      	b.n	800094a <InvCipher+0x476>
		state[i] ^= RoundKey[i];
 800091c:	2413      	movs	r4, #19
 800091e:	193b      	adds	r3, r7, r4
 8000920:	781b      	ldrb	r3, [r3, #0]
 8000922:	687a      	ldr	r2, [r7, #4]
 8000924:	18d3      	adds	r3, r2, r3
 8000926:	7819      	ldrb	r1, [r3, #0]
 8000928:	193b      	adds	r3, r7, r4
 800092a:	781b      	ldrb	r3, [r3, #0]
 800092c:	683a      	ldr	r2, [r7, #0]
 800092e:	18d3      	adds	r3, r2, r3
 8000930:	781a      	ldrb	r2, [r3, #0]
 8000932:	193b      	adds	r3, r7, r4
 8000934:	781b      	ldrb	r3, [r3, #0]
 8000936:	6878      	ldr	r0, [r7, #4]
 8000938:	18c3      	adds	r3, r0, r3
 800093a:	404a      	eors	r2, r1
 800093c:	b2d2      	uxtb	r2, r2
 800093e:	701a      	strb	r2, [r3, #0]
	for (uint8_t i = 0; i < 16; ++i)
 8000940:	193b      	adds	r3, r7, r4
 8000942:	193a      	adds	r2, r7, r4
 8000944:	7812      	ldrb	r2, [r2, #0]
 8000946:	3201      	adds	r2, #1
 8000948:	701a      	strb	r2, [r3, #0]
 800094a:	2313      	movs	r3, #19
 800094c:	18fb      	adds	r3, r7, r3
 800094e:	781b      	ldrb	r3, [r3, #0]
 8000950:	2b0f      	cmp	r3, #15
 8000952:	d9e3      	bls.n	800091c <InvCipher+0x448>
}
 8000954:	46c0      	nop			@ (mov r8, r8)
 8000956:	46c0      	nop			@ (mov r8, r8)
 8000958:	46bd      	mov	sp, r7
 800095a:	b009      	add	sp, #36	@ 0x24
 800095c:	bdf0      	pop	{r4, r5, r6, r7, pc}
 800095e:	46c0      	nop			@ (mov r8, r8)
 8000960:	08006e6c 	.word	0x08006e6c

08000964 <AES_init_ctx_iv>:

void AES_init_ctx_iv(struct AES_ctx *ctx, const uint8_t *key, const uint8_t *iv) {
 8000964:	b580      	push	{r7, lr}
 8000966:	b084      	sub	sp, #16
 8000968:	af00      	add	r7, sp, #0
 800096a:	60f8      	str	r0, [r7, #12]
 800096c:	60b9      	str	r1, [r7, #8]
 800096e:	607a      	str	r2, [r7, #4]
	KeyExpansion(ctx->RoundKey, key);
 8000970:	68fb      	ldr	r3, [r7, #12]
 8000972:	68ba      	ldr	r2, [r7, #8]
 8000974:	0011      	movs	r1, r2
 8000976:	0018      	movs	r0, r3
 8000978:	f7ff fc9c 	bl	80002b4 <KeyExpansion>
	memcpy(ctx->Iv, iv, 16);
 800097c:	68fb      	ldr	r3, [r7, #12]
 800097e:	33f0      	adds	r3, #240	@ 0xf0
 8000980:	6879      	ldr	r1, [r7, #4]
 8000982:	2210      	movs	r2, #16
 8000984:	0018      	movs	r0, r3
 8000986:	f006 f9db 	bl	8006d40 <memcpy>
}
 800098a:	46c0      	nop			@ (mov r8, r8)
 800098c:	46bd      	mov	sp, r7
 800098e:	b004      	add	sp, #16
 8000990:	bd80      	pop	{r7, pc}

08000992 <AES_CBC_decrypt_buffer>:

void AES_CBC_decrypt_buffer(struct AES_ctx *ctx, uint8_t *buf, uint32_t length) {
 8000992:	b590      	push	{r4, r7, lr}
 8000994:	b08b      	sub	sp, #44	@ 0x2c
 8000996:	af00      	add	r7, sp, #0
 8000998:	60f8      	str	r0, [r7, #12]
 800099a:	60b9      	str	r1, [r7, #8]
 800099c:	607a      	str	r2, [r7, #4]
	uint8_t next_iv[16];
	for (uint32_t i = 0; i < length; i += 16) {
 800099e:	2300      	movs	r3, #0
 80009a0:	627b      	str	r3, [r7, #36]	@ 0x24
 80009a2:	e047      	b.n	8000a34 <AES_CBC_decrypt_buffer+0xa2>
		memcpy(next_iv, &buf[i], 16);
 80009a4:	68ba      	ldr	r2, [r7, #8]
 80009a6:	6a7b      	ldr	r3, [r7, #36]	@ 0x24
 80009a8:	18d3      	adds	r3, r2, r3
 80009aa:	2210      	movs	r2, #16
 80009ac:	18ba      	adds	r2, r7, r2
 80009ae:	0010      	movs	r0, r2
 80009b0:	0019      	movs	r1, r3
 80009b2:	2310      	movs	r3, #16
 80009b4:	001a      	movs	r2, r3
 80009b6:	f006 f9c3 	bl	8006d40 <memcpy>
		InvCipher(&buf[i], ctx->RoundKey);
 80009ba:	68ba      	ldr	r2, [r7, #8]
 80009bc:	6a7b      	ldr	r3, [r7, #36]	@ 0x24
 80009be:	18d3      	adds	r3, r2, r3
 80009c0:	68fa      	ldr	r2, [r7, #12]
 80009c2:	0011      	movs	r1, r2
 80009c4:	0018      	movs	r0, r3
 80009c6:	f7ff fd85 	bl	80004d4 <InvCipher>
		for (uint8_t j = 0; j < 16; ++j)
 80009ca:	2323      	movs	r3, #35	@ 0x23
 80009cc:	18fb      	adds	r3, r7, r3
 80009ce:	2200      	movs	r2, #0
 80009d0:	701a      	strb	r2, [r3, #0]
 80009d2:	e01c      	b.n	8000a0e <AES_CBC_decrypt_buffer+0x7c>
			buf[i + j] ^= ctx->Iv[j];
 80009d4:	2423      	movs	r4, #35	@ 0x23
 80009d6:	193b      	adds	r3, r7, r4
 80009d8:	781a      	ldrb	r2, [r3, #0]
 80009da:	6a7b      	ldr	r3, [r7, #36]	@ 0x24
 80009dc:	18d3      	adds	r3, r2, r3
 80009de:	68ba      	ldr	r2, [r7, #8]
 80009e0:	18d3      	adds	r3, r2, r3
 80009e2:	7819      	ldrb	r1, [r3, #0]
 80009e4:	193b      	adds	r3, r7, r4
 80009e6:	781b      	ldrb	r3, [r3, #0]
 80009e8:	68fa      	ldr	r2, [r7, #12]
 80009ea:	20f0      	movs	r0, #240	@ 0xf0
 80009ec:	18d3      	adds	r3, r2, r3
 80009ee:	181b      	adds	r3, r3, r0
 80009f0:	781a      	ldrb	r2, [r3, #0]
 80009f2:	193b      	adds	r3, r7, r4
 80009f4:	7818      	ldrb	r0, [r3, #0]
 80009f6:	6a7b      	ldr	r3, [r7, #36]	@ 0x24
 80009f8:	18c3      	adds	r3, r0, r3
 80009fa:	68b8      	ldr	r0, [r7, #8]
 80009fc:	18c3      	adds	r3, r0, r3
 80009fe:	404a      	eors	r2, r1
 8000a00:	b2d2      	uxtb	r2, r2
 8000a02:	701a      	strb	r2, [r3, #0]
		for (uint8_t j = 0; j < 16; ++j)
 8000a04:	193b      	adds	r3, r7, r4
 8000a06:	193a      	adds	r2, r7, r4
 8000a08:	7812      	ldrb	r2, [r2, #0]
 8000a0a:	3201      	adds	r2, #1
 8000a0c:	701a      	strb	r2, [r3, #0]
 8000a0e:	2323      	movs	r3, #35	@ 0x23
 8000a10:	18fb      	adds	r3, r7, r3
 8000a12:	781b      	ldrb	r3, [r3, #0]
 8000a14:	2b0f      	cmp	r3, #15
 8000a16:	d9dd      	bls.n	80009d4 <AES_CBC_decrypt_buffer+0x42>
		memcpy(ctx->Iv, next_iv, 16);
 8000a18:	68fb      	ldr	r3, [r7, #12]
 8000a1a:	33f0      	adds	r3, #240	@ 0xf0
 8000a1c:	001a      	movs	r2, r3
 8000a1e:	2310      	movs	r3, #16
 8000a20:	18fb      	adds	r3, r7, r3
 8000a22:	0010      	movs	r0, r2
 8000a24:	0019      	movs	r1, r3
 8000a26:	2310      	movs	r3, #16
 8000a28:	001a      	movs	r2, r3
 8000a2a:	f006 f989 	bl	8006d40 <memcpy>
	for (uint32_t i = 0; i < length; i += 16) {
 8000a2e:	6a7b      	ldr	r3, [r7, #36]	@ 0x24
 8000a30:	3310      	adds	r3, #16
 8000a32:	627b      	str	r3, [r7, #36]	@ 0x24
 8000a34:	6a7a      	ldr	r2, [r7, #36]	@ 0x24
 8000a36:	687b      	ldr	r3, [r7, #4]
 8000a38:	429a      	cmp	r2, r3
 8000a3a:	d3b3      	bcc.n	80009a4 <AES_CBC_decrypt_buffer+0x12>
	}
}
 8000a3c:	46c0      	nop			@ (mov r8, r8)
 8000a3e:	46c0      	nop			@ (mov r8, r8)
 8000a40:	46bd      	mov	sp, r7
 8000a42:	b00b      	add	sp, #44	@ 0x2c
 8000a44:	bd90      	pop	{r4, r7, pc}

08000a46 <c25519_prepare>:
 *
 * 32 random byte olusturulduktan sonra MUTLAKA bu fonksiyon cagirilmali.
 * Bit maskeleme: alt 3 bit sifirla, bit 255 sifirla, bit 254 set et.
 */
static inline void c25519_prepare(uint8_t *key)
{
 8000a46:	b580      	push	{r7, lr}
 8000a48:	b082      	sub	sp, #8
 8000a4a:	af00      	add	r7, sp, #0
 8000a4c:	6078      	str	r0, [r7, #4]
    key[0]  &= 0xF8; /* Alt 3 bit sifirla (8'in katlari) */
 8000a4e:	687b      	ldr	r3, [r7, #4]
 8000a50:	781b      	ldrb	r3, [r3, #0]
 8000a52:	2207      	movs	r2, #7
 8000a54:	4393      	bics	r3, r2
 8000a56:	b2da      	uxtb	r2, r3
 8000a58:	687b      	ldr	r3, [r7, #4]
 8000a5a:	701a      	strb	r2, [r3, #0]
    key[31] &= 0x7F; /* Bit 255 sifirla */
 8000a5c:	687b      	ldr	r3, [r7, #4]
 8000a5e:	331f      	adds	r3, #31
 8000a60:	781a      	ldrb	r2, [r3, #0]
 8000a62:	687b      	ldr	r3, [r7, #4]
 8000a64:	331f      	adds	r3, #31
 8000a66:	217f      	movs	r1, #127	@ 0x7f
 8000a68:	400a      	ands	r2, r1
 8000a6a:	b2d2      	uxtb	r2, r2
 8000a6c:	701a      	strb	r2, [r3, #0]
    key[31] |= 0x40; /* Bit 254 set et */
 8000a6e:	687b      	ldr	r3, [r7, #4]
 8000a70:	331f      	adds	r3, #31
 8000a72:	781a      	ldrb	r2, [r3, #0]
 8000a74:	687b      	ldr	r3, [r7, #4]
 8000a76:	331f      	adds	r3, #31
 8000a78:	2140      	movs	r1, #64	@ 0x40
 8000a7a:	430a      	orrs	r2, r1
 8000a7c:	b2d2      	uxtb	r2, r2
 8000a7e:	701a      	strb	r2, [r3, #0]
}
 8000a80:	46c0      	nop			@ (mov r8, r8)
 8000a82:	46bd      	mov	sp, r7
 8000a84:	b002      	add	sp, #8
 8000a86:	bd80      	pop	{r7, pc}

08000a88 <jump_to_application>:
 * 3. HAL/SysTick/NVIC temizligi: Bootloader'ın interrupt'larini ve
 *    donanim ayarlarini sifirla ki uygulama temiz baslayabilsin.
 *
 * 4. MSP ayarla ve reset handler'a atla (uygulama baslıyor).
 */
void jump_to_application(void) {
 8000a88:	b580      	push	{r7, lr}
 8000a8a:	b08a      	sub	sp, #40	@ 0x28
 8000a8c:	af00      	add	r7, sp, #0
	uint32_t app_msp = *(volatile uint32_t*) APP_ADDRESS; // APP_ADDRESS ilk word = MSP degeri
 8000a8e:	4b3b      	ldr	r3, [pc, #236]	@ (8000b7c <jump_to_application+0xf4>)
 8000a90:	681b      	ldr	r3, [r3, #0]
 8000a92:	61fb      	str	r3, [r7, #28]

	/* Gecerli uygulama var mi? MSP 0x2000xxxx olmali (SRAM bolgesi) */
	if ((app_msp & 0xFFF00000) != 0x20000000) {
 8000a94:	69fb      	ldr	r3, [r7, #28]
 8000a96:	0d1b      	lsrs	r3, r3, #20
 8000a98:	051a      	lsls	r2, r3, #20
 8000a9a:	2380      	movs	r3, #128	@ 0x80
 8000a9c:	059b      	lsls	r3, r3, #22
 8000a9e:	429a      	cmp	r2, r3
 8000aa0:	d167      	bne.n	8000b72 <jump_to_application+0xea>
		return; // Uygulama yok — bootloader'da kal
	}

	/* Uygulama reset handler adresi (APP_ADDRESS+4'te sakli) */
	uint32_t jump_addr = *(volatile uint32_t*) (APP_ADDRESS + 4);
 8000aa2:	4b37      	ldr	r3, [pc, #220]	@ (8000b80 <jump_to_application+0xf8>)
 8000aa4:	681b      	ldr	r3, [r3, #0]
 8000aa6:	61bb      	str	r3, [r7, #24]
	void (*app_reset_handler)(void) = (void (*)(void))jump_addr;
 8000aa8:	69bb      	ldr	r3, [r7, #24]
 8000aaa:	617b      	str	r3, [r7, #20]

	/* STM32F030'da VTOR yok: vektör tablosunu RAM'e kopyala
	 * SYSCFG ile 0x00000000 → SRAM yonlendirmesi yapilacak */
	volatile uint32_t *dst = (volatile uint32_t*) 0x20000000; // RAM basi
 8000aac:	2380      	movs	r3, #128	@ 0x80
 8000aae:	059b      	lsls	r3, r3, #22
 8000ab0:	613b      	str	r3, [r7, #16]
	volatile uint32_t *src = (volatile uint32_t*) APP_ADDRESS; // App Flash basi
 8000ab2:	4b32      	ldr	r3, [pc, #200]	@ (8000b7c <jump_to_application+0xf4>)
 8000ab4:	60fb      	str	r3, [r7, #12]
	for (uint32_t i = 0; i < 48; i++) { // 48 x 4 byte = 192 byte (vektör tablosu)
 8000ab6:	2300      	movs	r3, #0
 8000ab8:	627b      	str	r3, [r7, #36]	@ 0x24
 8000aba:	e00c      	b.n	8000ad6 <jump_to_application+0x4e>
		dst[i] = src[i];
 8000abc:	6a7b      	ldr	r3, [r7, #36]	@ 0x24
 8000abe:	009b      	lsls	r3, r3, #2
 8000ac0:	68fa      	ldr	r2, [r7, #12]
 8000ac2:	18d2      	adds	r2, r2, r3
 8000ac4:	6a7b      	ldr	r3, [r7, #36]	@ 0x24
 8000ac6:	009b      	lsls	r3, r3, #2
 8000ac8:	6939      	ldr	r1, [r7, #16]
 8000aca:	18cb      	adds	r3, r1, r3
 8000acc:	6812      	ldr	r2, [r2, #0]
 8000ace:	601a      	str	r2, [r3, #0]
	for (uint32_t i = 0; i < 48; i++) { // 48 x 4 byte = 192 byte (vektör tablosu)
 8000ad0:	6a7b      	ldr	r3, [r7, #36]	@ 0x24
 8000ad2:	3301      	adds	r3, #1
 8000ad4:	627b      	str	r3, [r7, #36]	@ 0x24
 8000ad6:	6a7b      	ldr	r3, [r7, #36]	@ 0x24
 8000ad8:	2b2f      	cmp	r3, #47	@ 0x2f
 8000ada:	d9ef      	bls.n	8000abc <jump_to_application+0x34>
	}

	/* SYSCFG saatini ac ve MEM_MODE=11 (SRAM remap) ayarla */
	__HAL_RCC_SYSCFG_CLK_ENABLE();
 8000adc:	4b29      	ldr	r3, [pc, #164]	@ (8000b84 <jump_to_application+0xfc>)
 8000ade:	699a      	ldr	r2, [r3, #24]
 8000ae0:	4b28      	ldr	r3, [pc, #160]	@ (8000b84 <jump_to_application+0xfc>)
 8000ae2:	2101      	movs	r1, #1
 8000ae4:	430a      	orrs	r2, r1
 8000ae6:	619a      	str	r2, [r3, #24]
 8000ae8:	4b26      	ldr	r3, [pc, #152]	@ (8000b84 <jump_to_application+0xfc>)
 8000aea:	699b      	ldr	r3, [r3, #24]
 8000aec:	2201      	movs	r2, #1
 8000aee:	4013      	ands	r3, r2
 8000af0:	607b      	str	r3, [r7, #4]
 8000af2:	687b      	ldr	r3, [r7, #4]
	SYSCFG->CFGR1 = (SYSCFG->CFGR1 & ~SYSCFG_CFGR1_MEM_MODE)
 8000af4:	4b24      	ldr	r3, [pc, #144]	@ (8000b88 <jump_to_application+0x100>)
 8000af6:	681a      	ldr	r2, [r3, #0]
 8000af8:	4b23      	ldr	r3, [pc, #140]	@ (8000b88 <jump_to_application+0x100>)
			| (0x03 << SYSCFG_CFGR1_MEM_MODE_Pos);
 8000afa:	2103      	movs	r1, #3
 8000afc:	430a      	orrs	r2, r1
	SYSCFG->CFGR1 = (SYSCFG->CFGR1 & ~SYSCFG_CFGR1_MEM_MODE)
 8000afe:	601a      	str	r2, [r3, #0]
  \details Disables IRQ interrupts by setting the I-bit in the CPSR.
           Can only be executed in Privileged modes.
 */
__STATIC_FORCEINLINE void __disable_irq(void)
{
  __ASM volatile ("cpsid i" : : : "memory");
 8000b00:	b672      	cpsid	i
}
 8000b02:	46c0      	nop			@ (mov r8, r8)

	/* Interrupt'lari engelle — gecis sirasinda kesme olmamali */
	__disable_irq();

	/* HAL ve saat deinitialize: uygulama kendi saatini ayarlayacak */
	HAL_RCC_DeInit();
 8000b04:	f003 fdf4 	bl	80046f0 <HAL_RCC_DeInit>
	HAL_DeInit();
 8000b08:	f003 f846 	bl	8003b98 <HAL_DeInit>

	/* SysTick durdur: uygulama kendisi baslatiyor */
	SysTick->CTRL = 0;
 8000b0c:	4b1f      	ldr	r3, [pc, #124]	@ (8000b8c <jump_to_application+0x104>)
 8000b0e:	2200      	movs	r2, #0
 8000b10:	601a      	str	r2, [r3, #0]
	SysTick->LOAD = 0;
 8000b12:	4b1e      	ldr	r3, [pc, #120]	@ (8000b8c <jump_to_application+0x104>)
 8000b14:	2200      	movs	r2, #0
 8000b16:	605a      	str	r2, [r3, #4]
	SysTick->VAL = 0;
 8000b18:	4b1c      	ldr	r3, [pc, #112]	@ (8000b8c <jump_to_application+0x104>)
 8000b1a:	2200      	movs	r2, #0
 8000b1c:	609a      	str	r2, [r3, #8]

	/* Tum NVIC interrupt'larini devre disi birak ve bekleyen olanlari temizle */
	for (uint8_t i = 0; i < 8; i++) {
 8000b1e:	2323      	movs	r3, #35	@ 0x23
 8000b20:	18fb      	adds	r3, r7, r3
 8000b22:	2200      	movs	r2, #0
 8000b24:	701a      	strb	r2, [r3, #0]
 8000b26:	e015      	b.n	8000b54 <jump_to_application+0xcc>
		NVIC->ICER[i] = 0xFFFFFFFF; // Interrupt disable
 8000b28:	4919      	ldr	r1, [pc, #100]	@ (8000b90 <jump_to_application+0x108>)
 8000b2a:	2023      	movs	r0, #35	@ 0x23
 8000b2c:	183b      	adds	r3, r7, r0
 8000b2e:	781b      	ldrb	r3, [r3, #0]
 8000b30:	3320      	adds	r3, #32
 8000b32:	009b      	lsls	r3, r3, #2
 8000b34:	2201      	movs	r2, #1
 8000b36:	4252      	negs	r2, r2
 8000b38:	505a      	str	r2, [r3, r1]
		NVIC->ICPR[i] = 0xFFFFFFFF; // Pending temizle
 8000b3a:	4915      	ldr	r1, [pc, #84]	@ (8000b90 <jump_to_application+0x108>)
 8000b3c:	183b      	adds	r3, r7, r0
 8000b3e:	781b      	ldrb	r3, [r3, #0]
 8000b40:	3360      	adds	r3, #96	@ 0x60
 8000b42:	009b      	lsls	r3, r3, #2
 8000b44:	2201      	movs	r2, #1
 8000b46:	4252      	negs	r2, r2
 8000b48:	505a      	str	r2, [r3, r1]
	for (uint8_t i = 0; i < 8; i++) {
 8000b4a:	183b      	adds	r3, r7, r0
 8000b4c:	781a      	ldrb	r2, [r3, #0]
 8000b4e:	183b      	adds	r3, r7, r0
 8000b50:	3201      	adds	r2, #1
 8000b52:	701a      	strb	r2, [r3, #0]
 8000b54:	2323      	movs	r3, #35	@ 0x23
 8000b56:	18fb      	adds	r3, r7, r3
 8000b58:	781b      	ldrb	r3, [r3, #0]
 8000b5a:	2b07      	cmp	r3, #7
 8000b5c:	d9e4      	bls.n	8000b28 <jump_to_application+0xa0>
 8000b5e:	69fb      	ldr	r3, [r7, #28]
 8000b60:	60bb      	str	r3, [r7, #8]
  \details Assigns the given value to the Main Stack Pointer (MSP).
  \param [in]    topOfMainStack  Main Stack Pointer value to set
 */
__STATIC_FORCEINLINE void __set_MSP(uint32_t topOfMainStack)
{
  __ASM volatile ("MSR msp, %0" : : "r" (topOfMainStack) : );
 8000b62:	68bb      	ldr	r3, [r7, #8]
 8000b64:	f383 8808 	msr	MSP, r3
}
 8000b68:	46c0      	nop			@ (mov r8, r8)
	}

	/* MSP'yi uygulamanin MSP'sine ayarla, reset handler'a atla */
	__set_MSP(app_msp);
	app_reset_handler(); // Artik uygulama caliyor
 8000b6a:	697b      	ldr	r3, [r7, #20]
 8000b6c:	4798      	blx	r3

	while (1) {
 8000b6e:	46c0      	nop			@ (mov r8, r8)
 8000b70:	e7fd      	b.n	8000b6e <jump_to_application+0xe6>
		return; // Uygulama yok — bootloader'da kal
 8000b72:	46c0      	nop			@ (mov r8, r8)
	} // Buraya hic ulasılmaz
}
 8000b74:	46bd      	mov	sp, r7
 8000b76:	b00a      	add	sp, #40	@ 0x28
 8000b78:	bd80      	pop	{r7, pc}
 8000b7a:	46c0      	nop			@ (mov r8, r8)
 8000b7c:	08008000 	.word	0x08008000
 8000b80:	08008004 	.word	0x08008004
 8000b84:	40021000 	.word	0x40021000
 8000b88:	40010000 	.word	0x40010000
 8000b8c:	e000e010 	.word	0xe000e010
 8000b90:	e000e100 	.word	0xe000e100

08000b94 <Bootloader_Main>:
 *   ADIM 5: DATA_CHUNK paketlerini al, 4 chunk biriktir
 *   ADIM 6: 4 chunk tamam → CRC-32 dogrula → AES sifre coz → Flash yaz
 *   ADIM 7: Tum paketler bitti → Flash CRC dogrulama
 *   ADIM 8: UPDATE_COMPLETE/FAILED gonder → uygulamaya atla
 */
void Bootloader_Main(void) {
 8000b94:	b5f0      	push	{r4, r5, r6, r7, lr}
 8000b96:	4ce9      	ldr	r4, [pc, #932]	@ (8000f3c <Bootloader_Main+0x3a8>)
 8000b98:	44a5      	add	sp, r4
 8000b9a:	af02      	add	r7, sp, #8
	struct AES_ctx aes_ctx;       // AES context (sifre cozme icin)
	Firmware_Metadata_t metadata; // Gondericiden gelen firmware bilgileri
	uint32_t total_packets = 0;   // Beklenen toplam paket sayisi (metadata'dan)
 8000b9c:	2300      	movs	r3, #0
 8000b9e:	22d7      	movs	r2, #215	@ 0xd7
 8000ba0:	0092      	lsls	r2, r2, #2
 8000ba2:	18ba      	adds	r2, r7, r2
 8000ba4:	6013      	str	r3, [r2, #0]
	/* ── ECDH private/public key uret ──────────────────────────────────────
	 * Her bootloader oturumunda yeni ephemeral key pair olusturulur.
	 * Private key hicbir zaman RF'e gitmez; yalnizca RAM'de yaslanir. */
	uint8_t ecdh_priv[32];
	uint8_t ecdh_pub[32];
	entropy_generate(ecdh_priv, 32); /* UID + ADC + SysTick */
 8000ba6:	24f0      	movs	r4, #240	@ 0xf0
 8000ba8:	0064      	lsls	r4, r4, #1
 8000baa:	193b      	adds	r3, r7, r4
 8000bac:	2120      	movs	r1, #32
 8000bae:	0018      	movs	r0, r3
 8000bb0:	f001 fc66 	bl	8002480 <entropy_generate>
	c25519_prepare(ecdh_priv); /* Bit clamp (Curve25519 gerekliligi) */
 8000bb4:	193b      	adds	r3, r7, r4
 8000bb6:	0018      	movs	r0, r3
 8000bb8:	f7ff ff45 	bl	8000a46 <c25519_prepare>
	c25519_smult(ecdh_pub, c25519_base_x, ecdh_priv); /* pub = priv * G */
 8000bbc:	193a      	adds	r2, r7, r4
 8000bbe:	49e0      	ldr	r1, [pc, #896]	@ (8000f40 <Bootloader_Main+0x3ac>)
 8000bc0:	23e0      	movs	r3, #224	@ 0xe0
 8000bc2:	005b      	lsls	r3, r3, #1
 8000bc4:	18fb      	adds	r3, r7, r3
 8000bc6:	0018      	movs	r0, r3
 8000bc8:	f001 fb3a 	bl	8002240 <c25519_smult>

	/* AES session key baslangic degeri: KEY_STORE varsa kalici key yukle,
	 * yoksa DEFAULT. ECDH tamamlaninca session key ile ezilir. */
	if (!KeyStore_Read(AES_KEY)) {
 8000bcc:	4bdd      	ldr	r3, [pc, #884]	@ (8000f44 <Bootloader_Main+0x3b0>)
 8000bce:	0018      	movs	r0, r3
 8000bd0:	f001 f99c 	bl	8001f0c <KeyStore_Read>
 8000bd4:	1e03      	subs	r3, r0, #0
 8000bd6:	d107      	bne.n	8000be8 <Bootloader_Main+0x54>
		memcpy(AES_KEY, DEFAULT_AES_KEY, 32);
 8000bd8:	4bda      	ldr	r3, [pc, #872]	@ (8000f44 <Bootloader_Main+0x3b0>)
 8000bda:	4adb      	ldr	r2, [pc, #876]	@ (8000f48 <Bootloader_Main+0x3b4>)
 8000bdc:	ca13      	ldmia	r2!, {r0, r1, r4}
 8000bde:	c313      	stmia	r3!, {r0, r1, r4}
 8000be0:	ca13      	ldmia	r2!, {r0, r1, r4}
 8000be2:	c313      	stmia	r3!, {r0, r1, r4}
 8000be4:	ca03      	ldmia	r2!, {r0, r1}
 8000be6:	c303      	stmia	r3!, {r0, r1}
	}

	LED_Bootloader(); // NeoPixel turuncu — bootloader aktif
 8000be8:	f000 fd92 	bl	8001710 <LED_Bootloader>

	/* ===================================================================
	 * ADIM 1: Si4432 RF MODUL BASLATMA
	 * =================================================================== */
	SI4432_Init();
 8000bec:	f002 fbaa 	bl	8003344 <SI4432_Init>
	HAL_Delay(10);
 8000bf0:	200a      	movs	r0, #10
 8000bf2:	f003 f847 	bl	8003c84 <HAL_Delay>

	uint8_t dev = SI4432_ReadReg(0x00); // Device Type reg — 0x08 olmali
 8000bf6:	4dd5      	ldr	r5, [pc, #852]	@ (8000f4c <Bootloader_Main+0x3b8>)
 8000bf8:	197c      	adds	r4, r7, r5
 8000bfa:	2000      	movs	r0, #0
 8000bfc:	f002 fb46 	bl	800328c <SI4432_ReadReg>
 8000c00:	0003      	movs	r3, r0
 8000c02:	7023      	strb	r3, [r4, #0]
	if (dev != 0x08) {
 8000c04:	197b      	adds	r3, r7, r5
 8000c06:	781b      	ldrb	r3, [r3, #0]
 8000c08:	2b08      	cmp	r3, #8
 8000c0a:	d009      	beq.n	8000c20 <Bootloader_Main+0x8c>
		/* Si4432 bulunamadi — kirmizi yanıp sonsun, sonsuz dongu */
		LED_Error();
 8000c0c:	f000 fd8c 	bl	8001728 <LED_Error>
		while (1) {
			HAL_IWDG_Refresh(&hiwdg);
 8000c10:	4bcf      	ldr	r3, [pc, #828]	@ (8000f50 <Bootloader_Main+0x3bc>)
 8000c12:	0018      	movs	r0, r3
 8000c14:	f003 fd5c 	bl	80046d0 <HAL_IWDG_Refresh>
			LED_Error();
 8000c18:	f000 fd86 	bl	8001728 <LED_Error>
			HAL_IWDG_Refresh(&hiwdg);
 8000c1c:	46c0      	nop			@ (mov r8, r8)
 8000c1e:	e7f7      	b.n	8000c10 <Bootloader_Main+0x7c>
	 * Biz BOOT_ACK ile cevap verir, metadata bekliyoruz.
	 * Metadata alininca ACK donderip metadata dongusunden cikiyoruz.
	 * =================================================================== */
	{
		/* Resume noktasini oku (ilk kez ise 0, kaldigi yerden ise N) */
		uint32_t resume_start_packet = Resume_GetStartPacket();
 8000c20:	f000 ffcc 	bl	8001bbc <Resume_GetStartPacket>
 8000c24:	0003      	movs	r3, r0
 8000c26:	20ce      	movs	r0, #206	@ 0xce
 8000c28:	0080      	lsls	r0, r0, #2
 8000c2a:	183a      	adds	r2, r7, r0
 8000c2c:	6013      	str	r3, [r2, #0]
		/* ── BOOT_ACK payload (36 byte) ────────────────────────────────────
		 * [resume_start:4][pub_receiver:32]
		 * pub_receiver = alicinin public key'i (gondericiye, RF uzerinden acik gider)
		 * Gonderici bunu gorur ama shared secret'i hesaplayamaz (ECDLP). */
		uint8_t boot_ack_pld[BOOT_ACK_PLD_SIZE];
		boot_ack_pld[0] = (uint8_t) (resume_start_packet & 0xFF);
 8000c2e:	183b      	adds	r3, r7, r0
 8000c30:	681b      	ldr	r3, [r3, #0]
 8000c32:	b2da      	uxtb	r2, r3
 8000c34:	4bc7      	ldr	r3, [pc, #796]	@ (8000f54 <Bootloader_Main+0x3c0>)
 8000c36:	21d8      	movs	r1, #216	@ 0xd8
 8000c38:	0089      	lsls	r1, r1, #2
 8000c3a:	185b      	adds	r3, r3, r1
 8000c3c:	19db      	adds	r3, r3, r7
 8000c3e:	701a      	strb	r2, [r3, #0]
		boot_ack_pld[1] = (uint8_t) ((resume_start_packet >> 8) & 0xFF);
 8000c40:	183b      	adds	r3, r7, r0
 8000c42:	681b      	ldr	r3, [r3, #0]
 8000c44:	0a1b      	lsrs	r3, r3, #8
 8000c46:	b2da      	uxtb	r2, r3
 8000c48:	4bc2      	ldr	r3, [pc, #776]	@ (8000f54 <Bootloader_Main+0x3c0>)
 8000c4a:	185b      	adds	r3, r3, r1
 8000c4c:	19db      	adds	r3, r3, r7
 8000c4e:	705a      	strb	r2, [r3, #1]
		boot_ack_pld[2] = (uint8_t) ((resume_start_packet >> 16) & 0xFF);
 8000c50:	183b      	adds	r3, r7, r0
 8000c52:	681b      	ldr	r3, [r3, #0]
 8000c54:	0c1b      	lsrs	r3, r3, #16
 8000c56:	b2da      	uxtb	r2, r3
 8000c58:	4bbe      	ldr	r3, [pc, #760]	@ (8000f54 <Bootloader_Main+0x3c0>)
 8000c5a:	185b      	adds	r3, r3, r1
 8000c5c:	19db      	adds	r3, r3, r7
 8000c5e:	709a      	strb	r2, [r3, #2]
		boot_ack_pld[3] = (uint8_t) ((resume_start_packet >> 24) & 0xFF);
 8000c60:	183b      	adds	r3, r7, r0
 8000c62:	681b      	ldr	r3, [r3, #0]
 8000c64:	0e1b      	lsrs	r3, r3, #24
 8000c66:	b2da      	uxtb	r2, r3
 8000c68:	4bba      	ldr	r3, [pc, #744]	@ (8000f54 <Bootloader_Main+0x3c0>)
 8000c6a:	185b      	adds	r3, r3, r1
 8000c6c:	19db      	adds	r3, r3, r7
 8000c6e:	70da      	strb	r2, [r3, #3]
		memcpy(&boot_ack_pld[4], ecdh_pub, 32); /* pub_receiver */
 8000c70:	4bb8      	ldr	r3, [pc, #736]	@ (8000f54 <Bootloader_Main+0x3c0>)
 8000c72:	185b      	adds	r3, r3, r1
 8000c74:	19db      	adds	r3, r3, r7
 8000c76:	4ab8      	ldr	r2, [pc, #736]	@ (8000f58 <Bootloader_Main+0x3c4>)
 8000c78:	1852      	adds	r2, r2, r1
 8000c7a:	19d2      	adds	r2, r2, r7
 8000c7c:	3304      	adds	r3, #4
 8000c7e:	ca13      	ldmia	r2!, {r0, r1, r4}
 8000c80:	c313      	stmia	r3!, {r0, r1, r4}
 8000c82:	ca13      	ldmia	r2!, {r0, r1, r4}
 8000c84:	c313      	stmia	r3!, {r0, r1, r4}
 8000c86:	ca03      	ldmia	r2!, {r0, r1}
 8000c88:	c303      	stmia	r3!, {r0, r1}

		uint8_t rx_type, rx_pld[RF_MAX_PAYLOAD];
		uint16_t rx_seq;
		uint8_t rx_pld_len;
		uint8_t got_metadata = 0;
 8000c8a:	4bb4      	ldr	r3, [pc, #720]	@ (8000f5c <Bootloader_Main+0x3c8>)
 8000c8c:	18fb      	adds	r3, r7, r3
 8000c8e:	2200      	movs	r2, #0
 8000c90:	701a      	strb	r2, [r3, #0]
		uint8_t ecdh_done = 0; /* Session key turetti mi? */
 8000c92:	4bb3      	ldr	r3, [pc, #716]	@ (8000f60 <Bootloader_Main+0x3cc>)
 8000c94:	18fb      	adds	r3, r7, r3
 8000c96:	2200      	movs	r2, #0
 8000c98:	701a      	strb	r2, [r3, #0]

		while (!got_metadata) {
 8000c9a:	e191      	b.n	8000fc0 <Bootloader_Main+0x42c>
			HAL_IWDG_Refresh(&hiwdg);
 8000c9c:	4bac      	ldr	r3, [pc, #688]	@ (8000f50 <Bootloader_Main+0x3bc>)
 8000c9e:	0018      	movs	r0, r3
 8000ca0:	f003 fd16 	bl	80046d0 <HAL_IWDG_Refresh>

			/* BOOT_ACK gonder — 36 byte payload (resume_start + pub_receiver) */
			RF_SendPacket(RF_CMD_BOOT_ACK, rf_seq_counter++, boot_ack_pld,
 8000ca4:	4baf      	ldr	r3, [pc, #700]	@ (8000f64 <Bootloader_Main+0x3d0>)
 8000ca6:	8819      	ldrh	r1, [r3, #0]
 8000ca8:	1c4b      	adds	r3, r1, #1
 8000caa:	b29a      	uxth	r2, r3
 8000cac:	4bad      	ldr	r3, [pc, #692]	@ (8000f64 <Bootloader_Main+0x3d0>)
 8000cae:	801a      	strh	r2, [r3, #0]
 8000cb0:	2324      	movs	r3, #36	@ 0x24
 8000cb2:	18fa      	adds	r2, r7, r3
 8000cb4:	2324      	movs	r3, #36	@ 0x24
 8000cb6:	2002      	movs	r0, #2
 8000cb8:	f000 fda8 	bl	800180c <RF_SendPacket>
					BOOT_ACK_PLD_SIZE);

			NeoPixel_SetAll(255, 80, 0); // Turuncu: bootloader bekleme
 8000cbc:	2200      	movs	r2, #0
 8000cbe:	2150      	movs	r1, #80	@ 0x50
 8000cc0:	20ff      	movs	r0, #255	@ 0xff
 8000cc2:	f002 f9fd 	bl	80030c0 <NeoPixel_SetAll>
			NeoPixel_Show();
 8000cc6:	f002 fa13 	bl	80030f0 <NeoPixel_Show>

			/* 1 saniye paket bekle */
			if (RF_WaitForPacket(&rx_type, &rx_seq, rx_pld, &rx_pld_len,
 8000cca:	23bc      	movs	r3, #188	@ 0xbc
 8000ccc:	33ff      	adds	r3, #255	@ 0xff
 8000cce:	18fc      	adds	r4, r7, r3
 8000cd0:	2348      	movs	r3, #72	@ 0x48
 8000cd2:	18fa      	adds	r2, r7, r3
 8000cd4:	23de      	movs	r3, #222	@ 0xde
 8000cd6:	005b      	lsls	r3, r3, #1
 8000cd8:	18f9      	adds	r1, r7, r3
 8000cda:	23c0      	movs	r3, #192	@ 0xc0
 8000cdc:	33ff      	adds	r3, #255	@ 0xff
 8000cde:	18f8      	adds	r0, r7, r3
 8000ce0:	23fa      	movs	r3, #250	@ 0xfa
 8000ce2:	009b      	lsls	r3, r3, #2
 8000ce4:	9300      	str	r3, [sp, #0]
 8000ce6:	0023      	movs	r3, r4
 8000ce8:	f000 fde2 	bl	80018b0 <RF_WaitForPacket>
 8000cec:	1e03      	subs	r3, r0, #0
 8000cee:	d100      	bne.n	8000cf2 <Bootloader_Main+0x15e>
 8000cf0:	e15f      	b.n	8000fb2 <Bootloader_Main+0x41e>
					1000)) {

				/* ── BOOT_REQUEST ile gelen pub_sender → ECDH tamamla ── */
				if (rx_type == RF_CMD_BOOT_REQUEST
 8000cf2:	4b9d      	ldr	r3, [pc, #628]	@ (8000f68 <Bootloader_Main+0x3d4>)
 8000cf4:	25d8      	movs	r5, #216	@ 0xd8
 8000cf6:	00ad      	lsls	r5, r5, #2
 8000cf8:	195b      	adds	r3, r3, r5
 8000cfa:	19db      	adds	r3, r3, r7
 8000cfc:	781b      	ldrb	r3, [r3, #0]
 8000cfe:	2b01      	cmp	r3, #1
 8000d00:	d13d      	bne.n	8000d7e <Bootloader_Main+0x1ea>
						&& rx_pld_len >= BOOT_REQUEST_PLD_SIZE && !ecdh_done) {
 8000d02:	4b9a      	ldr	r3, [pc, #616]	@ (8000f6c <Bootloader_Main+0x3d8>)
 8000d04:	195b      	adds	r3, r3, r5
 8000d06:	19db      	adds	r3, r3, r7
 8000d08:	781b      	ldrb	r3, [r3, #0]
 8000d0a:	2b1f      	cmp	r3, #31
 8000d0c:	d937      	bls.n	8000d7e <Bootloader_Main+0x1ea>
 8000d0e:	4e94      	ldr	r6, [pc, #592]	@ (8000f60 <Bootloader_Main+0x3cc>)
 8000d10:	19bb      	adds	r3, r7, r6
 8000d12:	781b      	ldrb	r3, [r3, #0]
 8000d14:	2b00      	cmp	r3, #0
 8000d16:	d132      	bne.n	8000d7e <Bootloader_Main+0x1ea>
					/* pub_sender = gondericinin public key'i */
					uint8_t pub_sender[32];
					memcpy(pub_sender, rx_pld, 32);
 8000d18:	4b95      	ldr	r3, [pc, #596]	@ (8000f70 <Bootloader_Main+0x3dc>)
 8000d1a:	195b      	adds	r3, r3, r5
 8000d1c:	19d9      	adds	r1, r3, r7
 8000d1e:	4b95      	ldr	r3, [pc, #596]	@ (8000f74 <Bootloader_Main+0x3e0>)
 8000d20:	195b      	adds	r3, r3, r5
 8000d22:	19da      	adds	r2, r3, r7
 8000d24:	000b      	movs	r3, r1
 8000d26:	ca13      	ldmia	r2!, {r0, r1, r4}
 8000d28:	c313      	stmia	r3!, {r0, r1, r4}
 8000d2a:	ca13      	ldmia	r2!, {r0, r1, r4}
 8000d2c:	c313      	stmia	r3!, {r0, r1, r4}
 8000d2e:	ca03      	ldmia	r2!, {r0, r1}
 8000d30:	c303      	stmia	r3!, {r0, r1}

					/* Shared secret = X25519(own_priv, pub_sender) */
					uint8_t shared[32];
					c25519_smult(shared, pub_sender, ecdh_priv);
 8000d32:	23f0      	movs	r3, #240	@ 0xf0
 8000d34:	005b      	lsls	r3, r3, #1
 8000d36:	18fa      	adds	r2, r7, r3
 8000d38:	1d39      	adds	r1, r7, #4
 8000d3a:	207c      	movs	r0, #124	@ 0x7c
 8000d3c:	183b      	adds	r3, r7, r0
 8000d3e:	0018      	movs	r0, r3
 8000d40:	f001 fa7e 	bl	8002240 <c25519_smult>

					/* Session key = shared secret (AES-256 key olarak kullan) */
					memcpy(AES_KEY, shared, 32);
 8000d44:	497f      	ldr	r1, [pc, #508]	@ (8000f44 <Bootloader_Main+0x3b0>)
 8000d46:	4b8c      	ldr	r3, [pc, #560]	@ (8000f78 <Bootloader_Main+0x3e4>)
 8000d48:	195a      	adds	r2, r3, r5
 8000d4a:	19d2      	adds	r2, r2, r7
 8000d4c:	000b      	movs	r3, r1
 8000d4e:	ca13      	ldmia	r2!, {r0, r1, r4}
 8000d50:	c313      	stmia	r3!, {r0, r1, r4}
 8000d52:	ca13      	ldmia	r2!, {r0, r1, r4}
 8000d54:	c313      	stmia	r3!, {r0, r1, r4}
 8000d56:	ca03      	ldmia	r2!, {r0, r1}
 8000d58:	c303      	stmia	r3!, {r0, r1}

					/* Private key'i RAM'den temizle — artik kullanilmayacak */
					memset(ecdh_priv, 0, 32);
 8000d5a:	23f0      	movs	r3, #240	@ 0xf0
 8000d5c:	005b      	lsls	r3, r3, #1
 8000d5e:	18fb      	adds	r3, r7, r3
 8000d60:	2220      	movs	r2, #32
 8000d62:	2100      	movs	r1, #0
 8000d64:	0018      	movs	r0, r3
 8000d66:	f005 ffbf 	bl	8006ce8 <memset>
					memset(shared, 0, 32);
 8000d6a:	207c      	movs	r0, #124	@ 0x7c
 8000d6c:	183b      	adds	r3, r7, r0
 8000d6e:	2220      	movs	r2, #32
 8000d70:	2100      	movs	r1, #0
 8000d72:	0018      	movs	r0, r3
 8000d74:	f005 ffb8 	bl	8006ce8 <memset>

					ecdh_done = 1;
 8000d78:	19bb      	adds	r3, r7, r6
 8000d7a:	2201      	movs	r2, #1
 8000d7c:	701a      	strb	r2, [r3, #0]
				}

				if (rx_type == RF_CMD_METADATA && rx_pld_len >= 12) {
 8000d7e:	4b7a      	ldr	r3, [pc, #488]	@ (8000f68 <Bootloader_Main+0x3d4>)
 8000d80:	24d8      	movs	r4, #216	@ 0xd8
 8000d82:	00a4      	lsls	r4, r4, #2
 8000d84:	191b      	adds	r3, r3, r4
 8000d86:	19db      	adds	r3, r3, r7
 8000d88:	781b      	ldrb	r3, [r3, #0]
 8000d8a:	2b03      	cmp	r3, #3
 8000d8c:	d129      	bne.n	8000de2 <Bootloader_Main+0x24e>
 8000d8e:	4b77      	ldr	r3, [pc, #476]	@ (8000f6c <Bootloader_Main+0x3d8>)
 8000d90:	191b      	adds	r3, r3, r4
 8000d92:	19db      	adds	r3, r3, r7
 8000d94:	781b      	ldrb	r3, [r3, #0]
 8000d96:	2b0b      	cmp	r3, #11
 8000d98:	d923      	bls.n	8000de2 <Bootloader_Main+0x24e>
					/* Metadata alindi — firmware_size, version, crc32 doldur */
					memcpy(&metadata, rx_pld, sizeof(Firmware_Metadata_t));
 8000d9a:	4b78      	ldr	r3, [pc, #480]	@ (8000f7c <Bootloader_Main+0x3e8>)
 8000d9c:	191b      	adds	r3, r3, r4
 8000d9e:	19da      	adds	r2, r3, r7
 8000da0:	4b74      	ldr	r3, [pc, #464]	@ (8000f74 <Bootloader_Main+0x3e0>)
 8000da2:	191b      	adds	r3, r3, r4
 8000da4:	19db      	adds	r3, r3, r7
 8000da6:	0010      	movs	r0, r2
 8000da8:	0019      	movs	r1, r3
 8000daa:	230c      	movs	r3, #12
 8000dac:	001a      	movs	r2, r3
 8000dae:	f005 ffc7 	bl	8006d40 <memcpy>
					total_packets =
							(metadata.firmware_size + FW_PACKET_SIZE - 1)
 8000db2:	4b72      	ldr	r3, [pc, #456]	@ (8000f7c <Bootloader_Main+0x3e8>)
 8000db4:	0021      	movs	r1, r4
 8000db6:	185b      	adds	r3, r3, r1
 8000db8:	19db      	adds	r3, r3, r7
 8000dba:	681b      	ldr	r3, [r3, #0]
 8000dbc:	337f      	adds	r3, #127	@ 0x7f
					total_packets =
 8000dbe:	09db      	lsrs	r3, r3, #7
 8000dc0:	22d7      	movs	r2, #215	@ 0xd7
 8000dc2:	0092      	lsls	r2, r2, #2
 8000dc4:	18ba      	adds	r2, r7, r2
 8000dc6:	6013      	str	r3, [r2, #0]
									/ FW_PACKET_SIZE;
					got_metadata = 1;
 8000dc8:	4b64      	ldr	r3, [pc, #400]	@ (8000f5c <Bootloader_Main+0x3c8>)
 8000dca:	18fb      	adds	r3, r7, r3
 8000dcc:	2201      	movs	r2, #1
 8000dce:	701a      	strb	r2, [r3, #0]

					RF_SendPacket(RF_CMD_ACK, rx_seq, NULL, 0); // Metadata onaylandi
 8000dd0:	4b6b      	ldr	r3, [pc, #428]	@ (8000f80 <Bootloader_Main+0x3ec>)
 8000dd2:	185b      	adds	r3, r3, r1
 8000dd4:	19db      	adds	r3, r3, r7
 8000dd6:	8819      	ldrh	r1, [r3, #0]
 8000dd8:	2300      	movs	r3, #0
 8000dda:	2200      	movs	r2, #0
 8000ddc:	2010      	movs	r0, #16
 8000dde:	f000 fd15 	bl	800180c <RF_SendPacket>
				}

				/* ── KEY_UPDATE: Yeni master key al ── */
				if (rx_type == RF_CMD_KEY_UPDATE
 8000de2:	4b61      	ldr	r3, [pc, #388]	@ (8000f68 <Bootloader_Main+0x3d4>)
 8000de4:	25d8      	movs	r5, #216	@ 0xd8
 8000de6:	00ad      	lsls	r5, r5, #2
 8000de8:	195b      	adds	r3, r3, r5
 8000dea:	19db      	adds	r3, r3, r7
 8000dec:	781b      	ldrb	r3, [r3, #0]
 8000dee:	2b08      	cmp	r3, #8
 8000df0:	d000      	beq.n	8000df4 <Bootloader_Main+0x260>
 8000df2:	e0de      	b.n	8000fb2 <Bootloader_Main+0x41e>
						&& rx_pld_len >= KEY_UPDATE_PLD_SIZE && ecdh_done) {
 8000df4:	4b5d      	ldr	r3, [pc, #372]	@ (8000f6c <Bootloader_Main+0x3d8>)
 8000df6:	195b      	adds	r3, r3, r5
 8000df8:	19db      	adds	r3, r3, r7
 8000dfa:	781b      	ldrb	r3, [r3, #0]
 8000dfc:	2b20      	cmp	r3, #32
 8000dfe:	d800      	bhi.n	8000e02 <Bootloader_Main+0x26e>
 8000e00:	e0d7      	b.n	8000fb2 <Bootloader_Main+0x41e>
 8000e02:	4b57      	ldr	r3, [pc, #348]	@ (8000f60 <Bootloader_Main+0x3cc>)
 8000e04:	18fb      	adds	r3, r7, r3
 8000e06:	781b      	ldrb	r3, [r3, #0]
 8000e08:	2b00      	cmp	r3, #0
 8000e0a:	d100      	bne.n	8000e0e <Bootloader_Main+0x27a>
 8000e0c:	e0d1      	b.n	8000fb2 <Bootloader_Main+0x41e>
					/* payload: [AES-CBC(session_key, IV=0, new_master_key):32][crc8:1]
					 * Python tarafi IV=0 ile sifreledi; biz de IV=0 ile cozuyoruz.
					 * Session key her seferinde tazedir (ECDH) → IV=0 guvenli. */
					struct AES_ctx kctx;
					uint8_t zero_iv[16] = { 0 };
 8000e0e:	4b5d      	ldr	r3, [pc, #372]	@ (8000f84 <Bootloader_Main+0x3f0>)
 8000e10:	195b      	adds	r3, r3, r5
 8000e12:	19db      	adds	r3, r3, r7
 8000e14:	0018      	movs	r0, r3
 8000e16:	2310      	movs	r3, #16
 8000e18:	001a      	movs	r2, r3
 8000e1a:	2100      	movs	r1, #0
 8000e1c:	f005 ff64 	bl	8006ce8 <memset>
					uint8_t full_new_key[32];
					memcpy(full_new_key, rx_pld, 32);
 8000e20:	4b53      	ldr	r3, [pc, #332]	@ (8000f70 <Bootloader_Main+0x3dc>)
 8000e22:	195b      	adds	r3, r3, r5
 8000e24:	19d9      	adds	r1, r3, r7
 8000e26:	4b53      	ldr	r3, [pc, #332]	@ (8000f74 <Bootloader_Main+0x3e0>)
 8000e28:	195b      	adds	r3, r3, r5
 8000e2a:	19da      	adds	r2, r3, r7
 8000e2c:	000b      	movs	r3, r1
 8000e2e:	ca13      	ldmia	r2!, {r0, r1, r4}
 8000e30:	c313      	stmia	r3!, {r0, r1, r4}
 8000e32:	ca13      	ldmia	r2!, {r0, r1, r4}
 8000e34:	c313      	stmia	r3!, {r0, r1, r4}
 8000e36:	ca03      	ldmia	r2!, {r0, r1}
 8000e38:	c303      	stmia	r3!, {r0, r1}
					AES_init_ctx_iv(&kctx, AES_KEY, zero_iv);
 8000e3a:	23d4      	movs	r3, #212	@ 0xd4
 8000e3c:	005b      	lsls	r3, r3, #1
 8000e3e:	18fa      	adds	r2, r7, r3
 8000e40:	4940      	ldr	r1, [pc, #256]	@ (8000f44 <Bootloader_Main+0x3b0>)
 8000e42:	247c      	movs	r4, #124	@ 0x7c
 8000e44:	193b      	adds	r3, r7, r4
 8000e46:	0018      	movs	r0, r3
 8000e48:	f7ff fd8c 	bl	8000964 <AES_init_ctx_iv>
					AES_CBC_decrypt_buffer(&kctx, full_new_key, 32);
 8000e4c:	1d39      	adds	r1, r7, #4
 8000e4e:	193b      	adds	r3, r7, r4
 8000e50:	2220      	movs	r2, #32
 8000e52:	0018      	movs	r0, r3
 8000e54:	f7ff fd9d 	bl	8000992 <AES_CBC_decrypt_buffer>

					/* CRC-8 dogrula */
					uint8_t recv_crc = rx_pld[32];
 8000e58:	4b4b      	ldr	r3, [pc, #300]	@ (8000f88 <Bootloader_Main+0x3f4>)
 8000e5a:	18fb      	adds	r3, r7, r3
 8000e5c:	4a45      	ldr	r2, [pc, #276]	@ (8000f74 <Bootloader_Main+0x3e0>)
 8000e5e:	1952      	adds	r2, r2, r5
 8000e60:	19d2      	adds	r2, r2, r7
 8000e62:	2120      	movs	r1, #32
 8000e64:	5c52      	ldrb	r2, [r2, r1]
 8000e66:	701a      	strb	r2, [r3, #0]
					/* basit CRC-8 hesapla */
					uint8_t calc_crc = 0xFF;
 8000e68:	4b48      	ldr	r3, [pc, #288]	@ (8000f8c <Bootloader_Main+0x3f8>)
 8000e6a:	18fb      	adds	r3, r7, r3
 8000e6c:	22ff      	movs	r2, #255	@ 0xff
 8000e6e:	701a      	strb	r2, [r3, #0]
					for (int ci = 0; ci < 32; ci++) {
 8000e70:	2300      	movs	r3, #0
 8000e72:	22d5      	movs	r2, #213	@ 0xd5
 8000e74:	0092      	lsls	r2, r2, #2
 8000e76:	18ba      	adds	r2, r7, r2
 8000e78:	6013      	str	r3, [r2, #0]
 8000e7a:	e041      	b.n	8000f00 <Bootloader_Main+0x36c>
						calc_crc ^= full_new_key[ci];
 8000e7c:	4b3c      	ldr	r3, [pc, #240]	@ (8000f70 <Bootloader_Main+0x3dc>)
 8000e7e:	22d8      	movs	r2, #216	@ 0xd8
 8000e80:	0092      	lsls	r2, r2, #2
 8000e82:	189b      	adds	r3, r3, r2
 8000e84:	19da      	adds	r2, r3, r7
 8000e86:	23d5      	movs	r3, #213	@ 0xd5
 8000e88:	009b      	lsls	r3, r3, #2
 8000e8a:	18fb      	adds	r3, r7, r3
 8000e8c:	681b      	ldr	r3, [r3, #0]
 8000e8e:	18d3      	adds	r3, r2, r3
 8000e90:	7819      	ldrb	r1, [r3, #0]
 8000e92:	4a3e      	ldr	r2, [pc, #248]	@ (8000f8c <Bootloader_Main+0x3f8>)
 8000e94:	18bb      	adds	r3, r7, r2
 8000e96:	18ba      	adds	r2, r7, r2
 8000e98:	7812      	ldrb	r2, [r2, #0]
 8000e9a:	404a      	eors	r2, r1
 8000e9c:	701a      	strb	r2, [r3, #0]
						for (int bi = 0; bi < 8; bi++) {
 8000e9e:	2300      	movs	r3, #0
 8000ea0:	22d4      	movs	r2, #212	@ 0xd4
 8000ea2:	0092      	lsls	r2, r2, #2
 8000ea4:	18ba      	adds	r2, r7, r2
 8000ea6:	6013      	str	r3, [r2, #0]
 8000ea8:	e01d      	b.n	8000ee6 <Bootloader_Main+0x352>
							if (calc_crc & 0x80)
 8000eaa:	4938      	ldr	r1, [pc, #224]	@ (8000f8c <Bootloader_Main+0x3f8>)
 8000eac:	187b      	adds	r3, r7, r1
 8000eae:	781b      	ldrb	r3, [r3, #0]
 8000eb0:	b25b      	sxtb	r3, r3
 8000eb2:	2b00      	cmp	r3, #0
 8000eb4:	da0a      	bge.n	8000ecc <Bootloader_Main+0x338>
								calc_crc = (calc_crc << 1) ^ 0x07;
 8000eb6:	187b      	adds	r3, r7, r1
 8000eb8:	781b      	ldrb	r3, [r3, #0]
 8000eba:	b25b      	sxtb	r3, r3
 8000ebc:	18db      	adds	r3, r3, r3
 8000ebe:	b25b      	sxtb	r3, r3
 8000ec0:	2207      	movs	r2, #7
 8000ec2:	4053      	eors	r3, r2
 8000ec4:	b25a      	sxtb	r2, r3
 8000ec6:	187b      	adds	r3, r7, r1
 8000ec8:	701a      	strb	r2, [r3, #0]
 8000eca:	e005      	b.n	8000ed8 <Bootloader_Main+0x344>
							else
								calc_crc <<= 1;
 8000ecc:	4b2f      	ldr	r3, [pc, #188]	@ (8000f8c <Bootloader_Main+0x3f8>)
 8000ece:	18fa      	adds	r2, r7, r3
 8000ed0:	18fb      	adds	r3, r7, r3
 8000ed2:	781b      	ldrb	r3, [r3, #0]
 8000ed4:	18db      	adds	r3, r3, r3
 8000ed6:	7013      	strb	r3, [r2, #0]
						for (int bi = 0; bi < 8; bi++) {
 8000ed8:	22d4      	movs	r2, #212	@ 0xd4
 8000eda:	0092      	lsls	r2, r2, #2
 8000edc:	18bb      	adds	r3, r7, r2
 8000ede:	681b      	ldr	r3, [r3, #0]
 8000ee0:	3301      	adds	r3, #1
 8000ee2:	18ba      	adds	r2, r7, r2
 8000ee4:	6013      	str	r3, [r2, #0]
 8000ee6:	23d4      	movs	r3, #212	@ 0xd4
 8000ee8:	009b      	lsls	r3, r3, #2
 8000eea:	18fb      	adds	r3, r7, r3
 8000eec:	681b      	ldr	r3, [r3, #0]
 8000eee:	2b07      	cmp	r3, #7
 8000ef0:	dddb      	ble.n	8000eaa <Bootloader_Main+0x316>
					for (int ci = 0; ci < 32; ci++) {
 8000ef2:	22d5      	movs	r2, #213	@ 0xd5
 8000ef4:	0092      	lsls	r2, r2, #2
 8000ef6:	18bb      	adds	r3, r7, r2
 8000ef8:	681b      	ldr	r3, [r3, #0]
 8000efa:	3301      	adds	r3, #1
 8000efc:	18ba      	adds	r2, r7, r2
 8000efe:	6013      	str	r3, [r2, #0]
 8000f00:	23d5      	movs	r3, #213	@ 0xd5
 8000f02:	009b      	lsls	r3, r3, #2
 8000f04:	18fb      	adds	r3, r7, r3
 8000f06:	681b      	ldr	r3, [r3, #0]
 8000f08:	2b1f      	cmp	r3, #31
 8000f0a:	ddb7      	ble.n	8000e7c <Bootloader_Main+0x2e8>
						}
					}

					if (calc_crc == recv_crc) {
 8000f0c:	4b1f      	ldr	r3, [pc, #124]	@ (8000f8c <Bootloader_Main+0x3f8>)
 8000f0e:	18fa      	adds	r2, r7, r3
 8000f10:	4b1d      	ldr	r3, [pc, #116]	@ (8000f88 <Bootloader_Main+0x3f4>)
 8000f12:	18fb      	adds	r3, r7, r3
 8000f14:	7812      	ldrb	r2, [r2, #0]
 8000f16:	781b      	ldrb	r3, [r3, #0]
 8000f18:	429a      	cmp	r2, r3
 8000f1a:	d139      	bne.n	8000f90 <Bootloader_Main+0x3fc>
						KeyStore_Write(full_new_key);
 8000f1c:	1d3b      	adds	r3, r7, #4
 8000f1e:	0018      	movs	r0, r3
 8000f20:	f000 ff62 	bl	8001de8 <KeyStore_Write>
						RF_SendPacket(RF_CMD_KEY_UPDATE_ACK, rx_seq, NULL, 0);
 8000f24:	4b16      	ldr	r3, [pc, #88]	@ (8000f80 <Bootloader_Main+0x3ec>)
 8000f26:	22d8      	movs	r2, #216	@ 0xd8
 8000f28:	0092      	lsls	r2, r2, #2
 8000f2a:	189b      	adds	r3, r3, r2
 8000f2c:	19db      	adds	r3, r3, r7
 8000f2e:	8819      	ldrh	r1, [r3, #0]
 8000f30:	2300      	movs	r3, #0
 8000f32:	2200      	movs	r2, #0
 8000f34:	2009      	movs	r0, #9
 8000f36:	f000 fc69 	bl	800180c <RF_SendPacket>
 8000f3a:	e034      	b.n	8000fa6 <Bootloader_Main+0x412>
 8000f3c:	fffffc94 	.word	0xfffffc94
 8000f40:	08006f98 	.word	0x08006f98
 8000f44:	2000002c 	.word	0x2000002c
 8000f48:	08006f78 	.word	0x08006f78
 8000f4c:	0000033d 	.word	0x0000033d
 8000f50:	20000158 	.word	0x20000158
 8000f54:	fffffcc4 	.word	0xfffffcc4
 8000f58:	fffffe60 	.word	0xfffffe60
 8000f5c:	0000035b 	.word	0x0000035b
 8000f60:	0000035a 	.word	0x0000035a
 8000f64:	20000116 	.word	0x20000116
 8000f68:	fffffe5f 	.word	0xfffffe5f
 8000f6c:	fffffe5b 	.word	0xfffffe5b
 8000f70:	fffffca4 	.word	0xfffffca4
 8000f74:	fffffce8 	.word	0xfffffce8
 8000f78:	fffffd1c 	.word	0xfffffd1c
 8000f7c:	fffffea0 	.word	0xfffffea0
 8000f80:	fffffe5c 	.word	0xfffffe5c
 8000f84:	fffffe48 	.word	0xfffffe48
 8000f88:	0000030f 	.word	0x0000030f
 8000f8c:	00000359 	.word	0x00000359
					} else {
						RF_SendPacket(RF_CMD_NACK, rx_seq, NULL, 0);
 8000f90:	4bb4      	ldr	r3, [pc, #720]	@ (8001264 <Bootloader_Main+0x6d0>)
 8000f92:	22d8      	movs	r2, #216	@ 0xd8
 8000f94:	0092      	lsls	r2, r2, #2
 8000f96:	189b      	adds	r3, r3, r2
 8000f98:	19db      	adds	r3, r3, r7
 8000f9a:	8819      	ldrh	r1, [r3, #0]
 8000f9c:	2300      	movs	r3, #0
 8000f9e:	2200      	movs	r2, #0
 8000fa0:	2011      	movs	r0, #17
 8000fa2:	f000 fc33 	bl	800180c <RF_SendPacket>
					}
					memset(full_new_key, 0, 32);
 8000fa6:	1d3b      	adds	r3, r7, #4
 8000fa8:	2220      	movs	r2, #32
 8000faa:	2100      	movs	r1, #0
 8000fac:	0018      	movs	r0, r3
 8000fae:	f005 fe9b 	bl	8006ce8 <memset>
				}
			}

			NeoPixel_Clear(); // LED off
 8000fb2:	f002 f893 	bl	80030dc <NeoPixel_Clear>
			NeoPixel_Show();
 8000fb6:	f002 f89b 	bl	80030f0 <NeoPixel_Show>
			HAL_Delay(200); // Kisa bekleme sonra tekrar BOOT_ACK gonder
 8000fba:	20c8      	movs	r0, #200	@ 0xc8
 8000fbc:	f002 fe62 	bl	8003c84 <HAL_Delay>
		while (!got_metadata) {
 8000fc0:	4ba9      	ldr	r3, [pc, #676]	@ (8001268 <Bootloader_Main+0x6d4>)
 8000fc2:	18fb      	adds	r3, r7, r3
 8000fc4:	781b      	ldrb	r3, [r3, #0]
 8000fc6:	2b00      	cmp	r3, #0
 8000fc8:	d100      	bne.n	8000fcc <Bootloader_Main+0x438>
 8000fca:	e667      	b.n	8000c9c <Bootloader_Main+0x108>
		}

		/* ECDH tamamlanmadiysa (gonderici eski protokol kullaniyorsa) fallback */
		if (!ecdh_done) {
 8000fcc:	4ba7      	ldr	r3, [pc, #668]	@ (800126c <Bootloader_Main+0x6d8>)
 8000fce:	18fb      	adds	r3, r7, r3
 8000fd0:	781b      	ldrb	r3, [r3, #0]
 8000fd2:	2b00      	cmp	r3, #0
 8000fd4:	d10d      	bne.n	8000ff2 <Bootloader_Main+0x45e>
			/* Eski cihazlarla uyumluluk: KEY_STORE yoksa DEFAULT kullan */
			if (!KeyStore_Read(AES_KEY)) {
 8000fd6:	4ba6      	ldr	r3, [pc, #664]	@ (8001270 <Bootloader_Main+0x6dc>)
 8000fd8:	0018      	movs	r0, r3
 8000fda:	f000 ff97 	bl	8001f0c <KeyStore_Read>
 8000fde:	1e03      	subs	r3, r0, #0
 8000fe0:	d107      	bne.n	8000ff2 <Bootloader_Main+0x45e>
				memcpy(AES_KEY, DEFAULT_AES_KEY, 32);
 8000fe2:	4ba3      	ldr	r3, [pc, #652]	@ (8001270 <Bootloader_Main+0x6dc>)
 8000fe4:	4aa3      	ldr	r2, [pc, #652]	@ (8001274 <Bootloader_Main+0x6e0>)
 8000fe6:	ca13      	ldmia	r2!, {r0, r1, r4}
 8000fe8:	c313      	stmia	r3!, {r0, r1, r4}
 8000fea:	ca13      	ldmia	r2!, {r0, r1, r4}
 8000fec:	c313      	stmia	r3!, {r0, r1, r4}
 8000fee:	ca03      	ldmia	r2!, {r0, r1}
 8000ff0:	c303      	stmia	r3!, {r0, r1}
			}
		}

		/* Private key her durumda temizle */
		memset(ecdh_priv, 0, 32);
 8000ff2:	23f0      	movs	r3, #240	@ 0xf0
 8000ff4:	005b      	lsls	r3, r3, #1
 8000ff6:	18fb      	adds	r3, r7, r3
 8000ff8:	2220      	movs	r2, #32
 8000ffa:	2100      	movs	r1, #0
 8000ffc:	0018      	movs	r0, r3
 8000ffe:	f005 fe73 	bl	8006ce8 <memset>

		/* Resume state henuz baslatilmamissa (ilk transfer), simdi baslat.
		 * RESUME_MAGIC zaten yaziliysa (kaldigi yerden devam), dokunma. */
		if (*(volatile uint32_t*) RESUME_STATE_ADDRESS != RESUME_MAGIC) {
 8001002:	4b9d      	ldr	r3, [pc, #628]	@ (8001278 <Bootloader_Main+0x6e4>)
 8001004:	681b      	ldr	r3, [r3, #0]
 8001006:	4a9d      	ldr	r2, [pc, #628]	@ (800127c <Bootloader_Main+0x6e8>)
 8001008:	4293      	cmp	r3, r2
 800100a:	d006      	beq.n	800101a <Bootloader_Main+0x486>
			Resume_Init(total_packets); // Boot flag sayfasina magic + total yaz
 800100c:	23d7      	movs	r3, #215	@ 0xd7
 800100e:	009b      	lsls	r3, r3, #2
 8001010:	18fb      	adds	r3, r7, r3
 8001012:	681b      	ldr	r3, [r3, #0]
 8001014:	0018      	movs	r0, r3
 8001016:	f000 fd7b 	bl	8001b10 <Resume_Init>
	 *   - Kalan sayfalar dokunulmadan kaliyor (resume icin guvenli).
	 *   - Enerji kesintisinde sadece son yarim sayfa etkileniyor.
	 *
	 * FLASH_ERASE_DONE artik "gondermeye hazir" anlamina geliyor.
	 * =================================================================== */
	NeoPixel_SetAll(0, 100, 255); // Acik mavi: hazirlaniliyor
 800101a:	22ff      	movs	r2, #255	@ 0xff
 800101c:	2164      	movs	r1, #100	@ 0x64
 800101e:	2000      	movs	r0, #0
 8001020:	f002 f84e 	bl	80030c0 <NeoPixel_SetAll>
	NeoPixel_Show();
 8001024:	f002 f864 	bl	80030f0 <NeoPixel_Show>
	/* ===================================================================
	 * ADIM 4: FLASH_ERASE_DONE GONDER → ACK BEKLE
	 * Gonderici bu ACK'i alinca paket gondermeye baslar.
	 * =================================================================== */
	{
		uint8_t sent = 0;
 8001028:	4b95      	ldr	r3, [pc, #596]	@ (8001280 <Bootloader_Main+0x6ec>)
 800102a:	18fb      	adds	r3, r7, r3
 800102c:	2200      	movs	r2, #0
 800102e:	701a      	strb	r2, [r3, #0]
		for (uint8_t retry = 0; retry < 10 && !sent; retry++) {
 8001030:	4b94      	ldr	r3, [pc, #592]	@ (8001284 <Bootloader_Main+0x6f0>)
 8001032:	18fb      	adds	r3, r7, r3
 8001034:	2200      	movs	r2, #0
 8001036:	701a      	strb	r2, [r3, #0]
 8001038:	e02f      	b.n	800109a <Bootloader_Main+0x506>
			RF_SendPacket(RF_CMD_FLASH_ERASE_DONE, rf_seq_counter, NULL, 0);
 800103a:	4b93      	ldr	r3, [pc, #588]	@ (8001288 <Bootloader_Main+0x6f4>)
 800103c:	8819      	ldrh	r1, [r3, #0]
 800103e:	2300      	movs	r3, #0
 8001040:	2200      	movs	r2, #0
 8001042:	2005      	movs	r0, #5
 8001044:	f000 fbe2 	bl	800180c <RF_SendPacket>

			uint8_t rx_type, rx_pld[RF_MAX_PAYLOAD];
			uint16_t rx_seq;
			uint8_t rx_pld_len;
			if (RF_WaitForPacket(&rx_type, &rx_seq, rx_pld, &rx_pld_len,
 8001048:	23a4      	movs	r3, #164	@ 0xa4
 800104a:	33ff      	adds	r3, #255	@ 0xff
 800104c:	18fc      	adds	r4, r7, r3
 800104e:	237c      	movs	r3, #124	@ 0x7c
 8001050:	18fa      	adds	r2, r7, r3
 8001052:	23d2      	movs	r3, #210	@ 0xd2
 8001054:	005b      	lsls	r3, r3, #1
 8001056:	18f9      	adds	r1, r7, r3
 8001058:	23a8      	movs	r3, #168	@ 0xa8
 800105a:	33ff      	adds	r3, #255	@ 0xff
 800105c:	18f8      	adds	r0, r7, r3
 800105e:	23fa      	movs	r3, #250	@ 0xfa
 8001060:	00db      	lsls	r3, r3, #3
 8001062:	9300      	str	r3, [sp, #0]
 8001064:	0023      	movs	r3, r4
 8001066:	f000 fc23 	bl	80018b0 <RF_WaitForPacket>
 800106a:	1e03      	subs	r3, r0, #0
 800106c:	d00b      	beq.n	8001086 <Bootloader_Main+0x4f2>
					2000)) {
				if (rx_type == RF_CMD_ACK) {
 800106e:	4b87      	ldr	r3, [pc, #540]	@ (800128c <Bootloader_Main+0x6f8>)
 8001070:	22d8      	movs	r2, #216	@ 0xd8
 8001072:	0092      	lsls	r2, r2, #2
 8001074:	189b      	adds	r3, r3, r2
 8001076:	19db      	adds	r3, r3, r7
 8001078:	781b      	ldrb	r3, [r3, #0]
 800107a:	2b10      	cmp	r3, #16
 800107c:	d103      	bne.n	8001086 <Bootloader_Main+0x4f2>
					sent = 1; // Gonderici hazir mesajini onayladi
 800107e:	4b80      	ldr	r3, [pc, #512]	@ (8001280 <Bootloader_Main+0x6ec>)
 8001080:	18fb      	adds	r3, r7, r3
 8001082:	2201      	movs	r2, #1
 8001084:	701a      	strb	r2, [r3, #0]
				}
			}
			HAL_IWDG_Refresh(&hiwdg);
 8001086:	4b82      	ldr	r3, [pc, #520]	@ (8001290 <Bootloader_Main+0x6fc>)
 8001088:	0018      	movs	r0, r3
 800108a:	f003 fb21 	bl	80046d0 <HAL_IWDG_Refresh>
		for (uint8_t retry = 0; retry < 10 && !sent; retry++) {
 800108e:	497d      	ldr	r1, [pc, #500]	@ (8001284 <Bootloader_Main+0x6f0>)
 8001090:	187b      	adds	r3, r7, r1
 8001092:	781a      	ldrb	r2, [r3, #0]
 8001094:	187b      	adds	r3, r7, r1
 8001096:	3201      	adds	r2, #1
 8001098:	701a      	strb	r2, [r3, #0]
 800109a:	4b7a      	ldr	r3, [pc, #488]	@ (8001284 <Bootloader_Main+0x6f0>)
 800109c:	18fb      	adds	r3, r7, r3
 800109e:	781b      	ldrb	r3, [r3, #0]
 80010a0:	2b09      	cmp	r3, #9
 80010a2:	d804      	bhi.n	80010ae <Bootloader_Main+0x51a>
 80010a4:	4b76      	ldr	r3, [pc, #472]	@ (8001280 <Bootloader_Main+0x6ec>)
 80010a6:	18fb      	adds	r3, r7, r3
 80010a8:	781b      	ldrb	r3, [r3, #0]
 80010aa:	2b00      	cmp	r3, #0
 80010ac:	d0c5      	beq.n	800103a <Bootloader_Main+0x4a6>
		}
		rf_seq_counter++; // Sequence numarasini artir
 80010ae:	4b76      	ldr	r3, [pc, #472]	@ (8001288 <Bootloader_Main+0x6f4>)
 80010b0:	881b      	ldrh	r3, [r3, #0]
 80010b2:	3301      	adds	r3, #1
 80010b4:	b29a      	uxth	r2, r3
 80010b6:	4b74      	ldr	r3, [pc, #464]	@ (8001288 <Bootloader_Main+0x6f4>)
 80010b8:	801a      	strh	r2, [r3, #0]
	 *         noktadan baslar (resume_start_packet). Gonderici de ayni
	 *         noktadan gondermesi nedeniyle senkronize calisir.
	 * =================================================================== */
	{
		/* Resume noktasini tekrar oku (ADIM 2'de ayni deger, tutarlilik icin) */
		uint32_t resume_start = Resume_GetStartPacket();
 80010ba:	f000 fd7f 	bl	8001bbc <Resume_GetStartPacket>
 80010be:	0003      	movs	r3, r0
 80010c0:	22cd      	movs	r2, #205	@ 0xcd
 80010c2:	0092      	lsls	r2, r2, #2
 80010c4:	18b9      	adds	r1, r7, r2
 80010c6:	600b      	str	r3, [r1, #0]
		uint32_t packets_received = resume_start; // Resume noktasindan baslat
 80010c8:	18bb      	adds	r3, r7, r2
 80010ca:	681b      	ldr	r3, [r3, #0]
 80010cc:	21d2      	movs	r1, #210	@ 0xd2
 80010ce:	0089      	lsls	r1, r1, #2
 80010d0:	1879      	adds	r1, r7, r1
 80010d2:	600b      	str	r3, [r1, #0]
		uint32_t current_addr = APP_ADDRESS + resume_start * FW_PACKET_SIZE;
 80010d4:	18bb      	adds	r3, r7, r2
 80010d6:	681b      	ldr	r3, [r3, #0]
 80010d8:	4a6e      	ldr	r2, [pc, #440]	@ (8001294 <Bootloader_Main+0x700>)
 80010da:	4694      	mov	ip, r2
 80010dc:	4463      	add	r3, ip
 80010de:	01db      	lsls	r3, r3, #7
 80010e0:	22d1      	movs	r2, #209	@ 0xd1
 80010e2:	0092      	lsls	r2, r2, #2
 80010e4:	18ba      	adds	r2, r7, r2
 80010e6:	6013      	str	r3, [r2, #0]

		fw_chunks_received = 0;
 80010e8:	4b6b      	ldr	r3, [pc, #428]	@ (8001298 <Bootloader_Main+0x704>)
 80010ea:	2200      	movs	r2, #0
 80010ec:	701a      	strb	r2, [r3, #0]
		memset(fw_assembly_buf, 0, sizeof(fw_assembly_buf));
 80010ee:	4b6b      	ldr	r3, [pc, #428]	@ (800129c <Bootloader_Main+0x708>)
 80010f0:	22c8      	movs	r2, #200	@ 0xc8
 80010f2:	2100      	movs	r1, #0
 80010f4:	0018      	movs	r0, r3
 80010f6:	f005 fdf7 	bl	8006ce8 <memset>

		while (packets_received < total_packets) {
 80010fa:	e1ec      	b.n	80014d6 <Bootloader_Main+0x942>
			HAL_IWDG_Refresh(&hiwdg);
 80010fc:	4b64      	ldr	r3, [pc, #400]	@ (8001290 <Bootloader_Main+0x6fc>)
 80010fe:	0018      	movs	r0, r3
 8001100:	f003 fae6 	bl	80046d0 <HAL_IWDG_Refresh>
			LED_Transfer(packets_received); // Mavi/mor yanip sonsun — transfer gostergesi
 8001104:	23d2      	movs	r3, #210	@ 0xd2
 8001106:	009b      	lsls	r3, r3, #2
 8001108:	18fb      	adds	r3, r7, r3
 800110a:	681b      	ldr	r3, [r3, #0]
 800110c:	0018      	movs	r0, r3
 800110e:	f000 fb5b 	bl	80017c8 <LED_Transfer>
			uint8_t rx_type, rx_pld[RF_MAX_PAYLOAD];
			uint16_t rx_seq;
			uint8_t rx_pld_len;

			/* Paket bekle — RF_UPDATE_TIMEOUT (60sn) icinde gelmezse hata */
			if (!RF_WaitForPacket(&rx_type, &rx_seq, rx_pld, &rx_pld_len,
 8001112:	23a0      	movs	r3, #160	@ 0xa0
 8001114:	33ff      	adds	r3, #255	@ 0xff
 8001116:	18fb      	adds	r3, r7, r3
 8001118:	227c      	movs	r2, #124	@ 0x7c
 800111a:	18ba      	adds	r2, r7, r2
 800111c:	21d0      	movs	r1, #208	@ 0xd0
 800111e:	0049      	lsls	r1, r1, #1
 8001120:	1879      	adds	r1, r7, r1
 8001122:	20d1      	movs	r0, #209	@ 0xd1
 8001124:	0040      	lsls	r0, r0, #1
 8001126:	1838      	adds	r0, r7, r0
 8001128:	4c5d      	ldr	r4, [pc, #372]	@ (80012a0 <Bootloader_Main+0x70c>)
 800112a:	9400      	str	r4, [sp, #0]
 800112c:	f000 fbc0 	bl	80018b0 <RF_WaitForPacket>
 8001130:	1e03      	subs	r3, r0, #0
 8001132:	d116      	bne.n	8001162 <Bootloader_Main+0x5ce>
			RF_UPDATE_TIMEOUT)) {
				/* Zaman asimi — guncelleme basarisiz */
				RF_SendPacket(RF_CMD_UPDATE_FAILED, rf_seq_counter++,
 8001134:	4b54      	ldr	r3, [pc, #336]	@ (8001288 <Bootloader_Main+0x6f4>)
 8001136:	8819      	ldrh	r1, [r3, #0]
 8001138:	1c4b      	adds	r3, r1, #1
 800113a:	b29a      	uxth	r2, r3
 800113c:	4b52      	ldr	r3, [pc, #328]	@ (8001288 <Bootloader_Main+0x6f4>)
 800113e:	801a      	strh	r2, [r3, #0]
						(uint8_t[] ) { RF_ERR_TIMEOUT }, 1);
 8001140:	4b58      	ldr	r3, [pc, #352]	@ (80012a4 <Bootloader_Main+0x710>)
 8001142:	22d8      	movs	r2, #216	@ 0xd8
 8001144:	0092      	lsls	r2, r2, #2
 8001146:	189b      	adds	r3, r3, r2
 8001148:	19db      	adds	r3, r3, r7
 800114a:	2208      	movs	r2, #8
 800114c:	701a      	strb	r2, [r3, #0]
				RF_SendPacket(RF_CMD_UPDATE_FAILED, rf_seq_counter++,
 800114e:	23ce      	movs	r3, #206	@ 0xce
 8001150:	005b      	lsls	r3, r3, #1
 8001152:	18fa      	adds	r2, r7, r3
 8001154:	2301      	movs	r3, #1
 8001156:	2007      	movs	r0, #7
 8001158:	f000 fb58 	bl	800180c <RF_SendPacket>
				LED_Error();
 800115c:	f000 fae4 	bl	8001728 <LED_Error>
 8001160:	e2c6      	b.n	80016f0 <Bootloader_Main+0xb5c>
				return;
			}

			if (rx_type != RF_CMD_DATA_CHUNK) {
 8001162:	4b51      	ldr	r3, [pc, #324]	@ (80012a8 <Bootloader_Main+0x714>)
 8001164:	22d8      	movs	r2, #216	@ 0xd8
 8001166:	0092      	lsls	r2, r2, #2
 8001168:	189b      	adds	r3, r3, r2
 800116a:	19db      	adds	r3, r3, r7
 800116c:	781b      	ldrb	r3, [r3, #0]
 800116e:	2b04      	cmp	r3, #4
 8001170:	d000      	beq.n	8001174 <Bootloader_Main+0x5e0>
 8001172:	e1af      	b.n	80014d4 <Bootloader_Main+0x940>
				continue; // Baska tip paket geldi — yoksay, tekrar bekle
			}

			/* Minimum payload: chunk_idx(1) + chunk_cnt(1) + data(>=1) = 3 byte */
			if (rx_pld_len < 3) {
 8001174:	4b4d      	ldr	r3, [pc, #308]	@ (80012ac <Bootloader_Main+0x718>)
 8001176:	189b      	adds	r3, r3, r2
 8001178:	19db      	adds	r3, r3, r7
 800117a:	781b      	ldrb	r3, [r3, #0]
 800117c:	2b02      	cmp	r3, #2
 800117e:	d809      	bhi.n	8001194 <Bootloader_Main+0x600>
				RF_SendPacket(RF_CMD_NACK, rx_seq, NULL, 0); // Gecersiz paket
 8001180:	4b4b      	ldr	r3, [pc, #300]	@ (80012b0 <Bootloader_Main+0x71c>)
 8001182:	189b      	adds	r3, r3, r2
 8001184:	19db      	adds	r3, r3, r7
 8001186:	8819      	ldrh	r1, [r3, #0]
 8001188:	2300      	movs	r3, #0
 800118a:	2200      	movs	r2, #0
 800118c:	2011      	movs	r0, #17
 800118e:	f000 fb3d 	bl	800180c <RF_SendPacket>
				continue;
 8001192:	e1a0      	b.n	80014d6 <Bootloader_Main+0x942>
			}

			uint8_t chunk_idx = rx_pld[0]; // Bu parcanin numarasi (0, 1, 2, 3)
 8001194:	4847      	ldr	r0, [pc, #284]	@ (80012b4 <Bootloader_Main+0x720>)
 8001196:	183b      	adds	r3, r7, r0
 8001198:	4a47      	ldr	r2, [pc, #284]	@ (80012b8 <Bootloader_Main+0x724>)
 800119a:	21d8      	movs	r1, #216	@ 0xd8
 800119c:	0089      	lsls	r1, r1, #2
 800119e:	1852      	adds	r2, r2, r1
 80011a0:	19d2      	adds	r2, r2, r7
 80011a2:	7812      	ldrb	r2, [r2, #0]
 80011a4:	701a      	strb	r2, [r3, #0]
			uint8_t chunk_cnt = rx_pld[1]; // Toplam parca sayisi (4 olmali)
 80011a6:	4c45      	ldr	r4, [pc, #276]	@ (80012bc <Bootloader_Main+0x728>)
 80011a8:	193b      	adds	r3, r7, r4
 80011aa:	4a43      	ldr	r2, [pc, #268]	@ (80012b8 <Bootloader_Main+0x724>)
 80011ac:	1852      	adds	r2, r2, r1
 80011ae:	19d2      	adds	r2, r2, r7
 80011b0:	7852      	ldrb	r2, [r2, #1]
 80011b2:	701a      	strb	r2, [r3, #0]
			uint8_t data_len = rx_pld_len - 2; // Asil veri uzunlugu
 80011b4:	4b3d      	ldr	r3, [pc, #244]	@ (80012ac <Bootloader_Main+0x718>)
 80011b6:	185b      	adds	r3, r3, r1
 80011b8:	19db      	adds	r3, r3, r7
 80011ba:	781a      	ldrb	r2, [r3, #0]
 80011bc:	4b40      	ldr	r3, [pc, #256]	@ (80012c0 <Bootloader_Main+0x72c>)
 80011be:	18fb      	adds	r3, r7, r3
 80011c0:	3a02      	subs	r2, #2
 80011c2:	701a      	strb	r2, [r3, #0]
			uint8_t *chunk_data = &rx_pld[2];     // Asil veri
 80011c4:	237c      	movs	r3, #124	@ 0x7c
 80011c6:	18fb      	adds	r3, r7, r3
 80011c8:	3302      	adds	r3, #2
 80011ca:	22ca      	movs	r2, #202	@ 0xca
 80011cc:	0092      	lsls	r2, r2, #2
 80011ce:	18ba      	adds	r2, r7, r2
 80011d0:	6013      	str	r3, [r2, #0]

			/* Chunk sirasini kontrol et: sirayla gelmeli (0,1,2,3) */
			if (chunk_idx != fw_chunks_received || chunk_cnt != RF_CHUNKS_PER_PACKET) {
 80011d2:	4b31      	ldr	r3, [pc, #196]	@ (8001298 <Bootloader_Main+0x704>)
 80011d4:	781b      	ldrb	r3, [r3, #0]
 80011d6:	183a      	adds	r2, r7, r0
 80011d8:	7812      	ldrb	r2, [r2, #0]
 80011da:	429a      	cmp	r2, r3
 80011dc:	d103      	bne.n	80011e6 <Bootloader_Main+0x652>
 80011de:	193b      	adds	r3, r7, r4
 80011e0:	781b      	ldrb	r3, [r3, #0]
 80011e2:	2b04      	cmp	r3, #4
 80011e4:	d01e      	beq.n	8001224 <Bootloader_Main+0x690>
				if (chunk_idx == 0 && fw_chunks_received > 0) {
 80011e6:	4b33      	ldr	r3, [pc, #204]	@ (80012b4 <Bootloader_Main+0x720>)
 80011e8:	18fb      	adds	r3, r7, r3
 80011ea:	781b      	ldrb	r3, [r3, #0]
 80011ec:	2b00      	cmp	r3, #0
 80011ee:	d10d      	bne.n	800120c <Bootloader_Main+0x678>
 80011f0:	4b29      	ldr	r3, [pc, #164]	@ (8001298 <Bootloader_Main+0x704>)
 80011f2:	781b      	ldrb	r3, [r3, #0]
 80011f4:	2b00      	cmp	r3, #0
 80011f6:	d009      	beq.n	800120c <Bootloader_Main+0x678>
					/* Gonderici yeniden deneme yapiyor (retry): chunk 0 tekrar geldi.
					 * Sayaci ve tamponu sifirla, chunk 0'i normal islemeye devam et. */
					fw_chunks_received = 0;
 80011f8:	4b27      	ldr	r3, [pc, #156]	@ (8001298 <Bootloader_Main+0x704>)
 80011fa:	2200      	movs	r2, #0
 80011fc:	701a      	strb	r2, [r3, #0]
					memset(fw_assembly_buf, 0, sizeof(fw_assembly_buf));
 80011fe:	4b27      	ldr	r3, [pc, #156]	@ (800129c <Bootloader_Main+0x708>)
 8001200:	22c8      	movs	r2, #200	@ 0xc8
 8001202:	2100      	movs	r1, #0
 8001204:	0018      	movs	r0, r3
 8001206:	f005 fd6f 	bl	8006ce8 <memset>
 800120a:	e00b      	b.n	8001224 <Bootloader_Main+0x690>
					/* fall through — chunk 0 normal islenir */
				} else {
					RF_SendPacket(RF_CMD_NACK, rx_seq, NULL, 0); /* Yanlis sira */
 800120c:	4b28      	ldr	r3, [pc, #160]	@ (80012b0 <Bootloader_Main+0x71c>)
 800120e:	22d8      	movs	r2, #216	@ 0xd8
 8001210:	0092      	lsls	r2, r2, #2
 8001212:	189b      	adds	r3, r3, r2
 8001214:	19db      	adds	r3, r3, r7
 8001216:	8819      	ldrh	r1, [r3, #0]
 8001218:	2300      	movs	r3, #0
 800121a:	2200      	movs	r2, #0
 800121c:	2011      	movs	r0, #17
 800121e:	f000 faf5 	bl	800180c <RF_SendPacket>
					continue;
 8001222:	e158      	b.n	80014d6 <Bootloader_Main+0x942>
				}
			}

			/* Tampon tasmasini kontrol et */
			uint32_t offset = chunk_idx * RF_CHUNK_DATA_SIZE;
 8001224:	4b23      	ldr	r3, [pc, #140]	@ (80012b4 <Bootloader_Main+0x720>)
 8001226:	18fb      	adds	r3, r7, r3
 8001228:	781a      	ldrb	r2, [r3, #0]
 800122a:	0013      	movs	r3, r2
 800122c:	005b      	lsls	r3, r3, #1
 800122e:	189b      	adds	r3, r3, r2
 8001230:	011b      	lsls	r3, r3, #4
 8001232:	21c9      	movs	r1, #201	@ 0xc9
 8001234:	0089      	lsls	r1, r1, #2
 8001236:	187a      	adds	r2, r7, r1
 8001238:	6013      	str	r3, [r2, #0]
			if (offset + data_len > sizeof(fw_assembly_buf)) {
 800123a:	4b21      	ldr	r3, [pc, #132]	@ (80012c0 <Bootloader_Main+0x72c>)
 800123c:	18fb      	adds	r3, r7, r3
 800123e:	781a      	ldrb	r2, [r3, #0]
 8001240:	187b      	adds	r3, r7, r1
 8001242:	681b      	ldr	r3, [r3, #0]
 8001244:	18d3      	adds	r3, r2, r3
 8001246:	2bc8      	cmp	r3, #200	@ 0xc8
 8001248:	d93c      	bls.n	80012c4 <Bootloader_Main+0x730>
				RF_SendPacket(RF_CMD_NACK, rx_seq, NULL, 0);
 800124a:	4b19      	ldr	r3, [pc, #100]	@ (80012b0 <Bootloader_Main+0x71c>)
 800124c:	22d8      	movs	r2, #216	@ 0xd8
 800124e:	0092      	lsls	r2, r2, #2
 8001250:	189b      	adds	r3, r3, r2
 8001252:	19db      	adds	r3, r3, r7
 8001254:	8819      	ldrh	r1, [r3, #0]
 8001256:	2300      	movs	r3, #0
 8001258:	2200      	movs	r2, #0
 800125a:	2011      	movs	r0, #17
 800125c:	f000 fad6 	bl	800180c <RF_SendPacket>
				continue;
 8001260:	e139      	b.n	80014d6 <Bootloader_Main+0x942>
 8001262:	46c0      	nop			@ (mov r8, r8)
 8001264:	fffffe5c 	.word	0xfffffe5c
 8001268:	0000035b 	.word	0x0000035b
 800126c:	0000035a 	.word	0x0000035a
 8001270:	2000002c 	.word	0x2000002c
 8001274:	08006f78 	.word	0x08006f78
 8001278:	0803f80c 	.word	0x0803f80c
 800127c:	12345678 	.word	0x12345678
 8001280:	0000034f 	.word	0x0000034f
 8001284:	0000034e 	.word	0x0000034e
 8001288:	20000116 	.word	0x20000116
 800128c:	fffffe47 	.word	0xfffffe47
 8001290:	20000158 	.word	0x20000158
 8001294:	00100100 	.word	0x00100100
 8001298:	20000114 	.word	0x20000114
 800129c:	2000004c 	.word	0x2000004c
 80012a0:	0000ea60 	.word	0x0000ea60
 80012a4:	fffffe3c 	.word	0xfffffe3c
 80012a8:	fffffe42 	.word	0xfffffe42
 80012ac:	fffffe3f 	.word	0xfffffe3f
 80012b0:	fffffe40 	.word	0xfffffe40
 80012b4:	0000032f 	.word	0x0000032f
 80012b8:	fffffd1c 	.word	0xfffffd1c
 80012bc:	0000032e 	.word	0x0000032e
 80012c0:	0000032d 	.word	0x0000032d
			}

			/* Chunk'u assembly buffer'ına kopyala */
			memcpy(&fw_assembly_buf[offset], chunk_data, data_len);
 80012c4:	23c9      	movs	r3, #201	@ 0xc9
 80012c6:	009b      	lsls	r3, r3, #2
 80012c8:	18fb      	adds	r3, r7, r3
 80012ca:	681a      	ldr	r2, [r3, #0]
 80012cc:	4bd6      	ldr	r3, [pc, #856]	@ (8001628 <Bootloader_Main+0xa94>)
 80012ce:	18d0      	adds	r0, r2, r3
 80012d0:	4bd6      	ldr	r3, [pc, #856]	@ (800162c <Bootloader_Main+0xa98>)
 80012d2:	18fb      	adds	r3, r7, r3
 80012d4:	781a      	ldrb	r2, [r3, #0]
 80012d6:	23ca      	movs	r3, #202	@ 0xca
 80012d8:	009b      	lsls	r3, r3, #2
 80012da:	18fb      	adds	r3, r7, r3
 80012dc:	681b      	ldr	r3, [r3, #0]
 80012de:	0019      	movs	r1, r3
 80012e0:	f005 fd2e 	bl	8006d40 <memcpy>
			fw_chunks_received++;
 80012e4:	4bd2      	ldr	r3, [pc, #840]	@ (8001630 <Bootloader_Main+0xa9c>)
 80012e6:	781b      	ldrb	r3, [r3, #0]
 80012e8:	3301      	adds	r3, #1
 80012ea:	b2da      	uxtb	r2, r3
 80012ec:	4bd0      	ldr	r3, [pc, #832]	@ (8001630 <Bootloader_Main+0xa9c>)
 80012ee:	701a      	strb	r2, [r3, #0]

			RF_SendPacket(RF_CMD_ACK, rx_seq, NULL, 0); // Chunk alindi onaylandi
 80012f0:	4bd0      	ldr	r3, [pc, #832]	@ (8001634 <Bootloader_Main+0xaa0>)
 80012f2:	24d8      	movs	r4, #216	@ 0xd8
 80012f4:	00a4      	lsls	r4, r4, #2
 80012f6:	191b      	adds	r3, r3, r4
 80012f8:	19db      	adds	r3, r3, r7
 80012fa:	8819      	ldrh	r1, [r3, #0]
 80012fc:	2300      	movs	r3, #0
 80012fe:	2200      	movs	r2, #0
 8001300:	2010      	movs	r0, #16
 8001302:	f000 fa83 	bl	800180c <RF_SendPacket>

			/* 4 chunk tamam → 148 byte'i isle */
			if (fw_chunks_received >= RF_CHUNKS_PER_PACKET) {
 8001306:	4bca      	ldr	r3, [pc, #808]	@ (8001630 <Bootloader_Main+0xa9c>)
 8001308:	781b      	ldrb	r3, [r3, #0]
 800130a:	2b03      	cmp	r3, #3
 800130c:	d800      	bhi.n	8001310 <Bootloader_Main+0x77c>
 800130e:	e0e2      	b.n	80014d6 <Bootloader_Main+0x942>
				fw_chunks_received = 0; // Sonraki paket icin sifirla
 8001310:	4bc7      	ldr	r3, [pc, #796]	@ (8001630 <Bootloader_Main+0xa9c>)
 8001312:	2200      	movs	r2, #0
 8001314:	701a      	strb	r2, [r3, #0]

				/* Assembly buffer yapisi:
				 * [0..15]   = IV (AES baslangic vektoru)
				 * [16..143] = AES-256-CBC sifrelenmis veri (128 byte)
				 * [144..147]= CRC-32 (sifrelenmis verinin CRC'si, little-endian) */
				uint8_t *iv_ptr = &fw_assembly_buf[0];
 8001316:	4bc4      	ldr	r3, [pc, #784]	@ (8001628 <Bootloader_Main+0xa94>)
 8001318:	22c8      	movs	r2, #200	@ 0xc8
 800131a:	0092      	lsls	r2, r2, #2
 800131c:	18ba      	adds	r2, r7, r2
 800131e:	6013      	str	r3, [r2, #0]
				uint8_t *encrypted_ptr = &fw_assembly_buf[16];
 8001320:	4bc5      	ldr	r3, [pc, #788]	@ (8001638 <Bootloader_Main+0xaa4>)
 8001322:	21c7      	movs	r1, #199	@ 0xc7
 8001324:	0089      	lsls	r1, r1, #2
 8001326:	187a      	adds	r2, r7, r1
 8001328:	6013      	str	r3, [r2, #0]
				uint32_t received_crc;
				memcpy(&received_crc, &fw_assembly_buf[144], 4); // Little-endian CRC oku
 800132a:	4bbf      	ldr	r3, [pc, #764]	@ (8001628 <Bootloader_Main+0xa94>)
 800132c:	2290      	movs	r2, #144	@ 0x90
 800132e:	589b      	ldr	r3, [r3, r2]
 8001330:	25cc      	movs	r5, #204	@ 0xcc
 8001332:	006d      	lsls	r5, r5, #1
 8001334:	197a      	adds	r2, r7, r5
 8001336:	6013      	str	r3, [r2, #0]

				/* CRC-32 dogrulama: sifrelenmis verinin bozulmadigi kontrol edilir */
				uint32_t computed_crc = Calculate_CRC32(encrypted_ptr, 128);
 8001338:	187b      	adds	r3, r7, r1
 800133a:	681b      	ldr	r3, [r3, #0]
 800133c:	2180      	movs	r1, #128	@ 0x80
 800133e:	0018      	movs	r0, r3
 8001340:	f000 fb10 	bl	8001964 <Calculate_CRC32>
 8001344:	0003      	movs	r3, r0
 8001346:	22c6      	movs	r2, #198	@ 0xc6
 8001348:	0092      	lsls	r2, r2, #2
 800134a:	18b9      	adds	r1, r7, r2
 800134c:	600b      	str	r3, [r1, #0]
				if (computed_crc != received_crc) {
 800134e:	197b      	adds	r3, r7, r5
 8001350:	681b      	ldr	r3, [r3, #0]
 8001352:	18ba      	adds	r2, r7, r2
 8001354:	6812      	ldr	r2, [r2, #0]
 8001356:	429a      	cmp	r2, r3
 8001358:	d01b      	beq.n	8001392 <Bootloader_Main+0x7fe>
					/* RF bozulmasi: UPDATE_FAILED gondermek yerine NACK + sifirla.
					 * Gonderici aldiginda RF_SendChunkReliable basarisiz sayar,
					 * Python'a UART NACK gonderir. Python ayni paketi tekrar
					 * gonderince chunk 0 retry mantigi devreye girer. */
					fw_chunks_received = 0;
 800135a:	4bb5      	ldr	r3, [pc, #724]	@ (8001630 <Bootloader_Main+0xa9c>)
 800135c:	2200      	movs	r2, #0
 800135e:	701a      	strb	r2, [r3, #0]
					memset(fw_assembly_buf, 0, sizeof(fw_assembly_buf));
 8001360:	4bb1      	ldr	r3, [pc, #708]	@ (8001628 <Bootloader_Main+0xa94>)
 8001362:	22c8      	movs	r2, #200	@ 0xc8
 8001364:	2100      	movs	r1, #0
 8001366:	0018      	movs	r0, r3
 8001368:	f005 fcbe 	bl	8006ce8 <memset>
					RF_SendPacket(RF_CMD_NACK, rf_seq_counter++,
 800136c:	4bb3      	ldr	r3, [pc, #716]	@ (800163c <Bootloader_Main+0xaa8>)
 800136e:	8819      	ldrh	r1, [r3, #0]
 8001370:	1c4b      	adds	r3, r1, #1
 8001372:	b29a      	uxth	r2, r3
 8001374:	4bb1      	ldr	r3, [pc, #708]	@ (800163c <Bootloader_Main+0xaa8>)
 8001376:	801a      	strh	r2, [r3, #0]
							(uint8_t[]) { RF_ERR_CRC_FAIL }, 1);
 8001378:	4bb1      	ldr	r3, [pc, #708]	@ (8001640 <Bootloader_Main+0xaac>)
 800137a:	191b      	adds	r3, r3, r4
 800137c:	19db      	adds	r3, r3, r7
 800137e:	2201      	movs	r2, #1
 8001380:	701a      	strb	r2, [r3, #0]
					RF_SendPacket(RF_CMD_NACK, rf_seq_counter++,
 8001382:	23ca      	movs	r3, #202	@ 0xca
 8001384:	005b      	lsls	r3, r3, #1
 8001386:	18fa      	adds	r2, r7, r3
 8001388:	2301      	movs	r3, #1
 800138a:	2011      	movs	r0, #17
 800138c:	f000 fa3e 	bl	800180c <RF_SendPacket>
					continue; /* Yeniden dene — donguden cikma */
 8001390:	e0a1      	b.n	80014d6 <Bootloader_Main+0x942>
				}

				/* AES-256-CBC sifre coz: IV + AES_KEY ile encrypted_ptr'yi yerinde coz */
				AES_init_ctx_iv(&aes_ctx, AES_KEY, iv_ptr);
 8001392:	23c8      	movs	r3, #200	@ 0xc8
 8001394:	009b      	lsls	r3, r3, #2
 8001396:	18fb      	adds	r3, r7, r3
 8001398:	681a      	ldr	r2, [r3, #0]
 800139a:	49aa      	ldr	r1, [pc, #680]	@ (8001644 <Bootloader_Main+0xab0>)
 800139c:	2483      	movs	r4, #131	@ 0x83
 800139e:	00a4      	lsls	r4, r4, #2
 80013a0:	193b      	adds	r3, r7, r4
 80013a2:	0018      	movs	r0, r3
 80013a4:	f7ff fade 	bl	8000964 <AES_init_ctx_iv>
				AES_CBC_decrypt_buffer(&aes_ctx, encrypted_ptr, 128);
 80013a8:	25c7      	movs	r5, #199	@ 0xc7
 80013aa:	00ad      	lsls	r5, r5, #2
 80013ac:	197b      	adds	r3, r7, r5
 80013ae:	6819      	ldr	r1, [r3, #0]
 80013b0:	193b      	adds	r3, r7, r4
 80013b2:	2280      	movs	r2, #128	@ 0x80
 80013b4:	0018      	movs	r0, r3
 80013b6:	f7ff faec 	bl	8000992 <AES_CBC_decrypt_buffer>
				/* NOT: sifre cozme yerinde yapilir — encrypted_ptr artik duz metin */

				/* Ilk pakette MSP gecerliligi kontrol et (yanlis firmware yazma koruması) */
				if (current_addr == APP_ADDRESS) {
 80013ba:	23d1      	movs	r3, #209	@ 0xd1
 80013bc:	009b      	lsls	r3, r3, #2
 80013be:	18fb      	adds	r3, r7, r3
 80013c0:	681b      	ldr	r3, [r3, #0]
 80013c2:	4aa1      	ldr	r2, [pc, #644]	@ (8001648 <Bootloader_Main+0xab4>)
 80013c4:	4293      	cmp	r3, r2
 80013c6:	d125      	bne.n	8001414 <Bootloader_Main+0x880>
					uint32_t msp_val = *(uint32_t*) encrypted_ptr; // Uygulamanin ilk word'u MSP
 80013c8:	197b      	adds	r3, r7, r5
 80013ca:	681b      	ldr	r3, [r3, #0]
 80013cc:	681b      	ldr	r3, [r3, #0]
 80013ce:	22c5      	movs	r2, #197	@ 0xc5
 80013d0:	0092      	lsls	r2, r2, #2
 80013d2:	18b9      	adds	r1, r7, r2
 80013d4:	600b      	str	r3, [r1, #0]
					if ((msp_val & 0xFFF00000) != 0x20000000) {
 80013d6:	18bb      	adds	r3, r7, r2
 80013d8:	681b      	ldr	r3, [r3, #0]
 80013da:	0d1b      	lsrs	r3, r3, #20
 80013dc:	051a      	lsls	r2, r3, #20
 80013de:	2380      	movs	r3, #128	@ 0x80
 80013e0:	059b      	lsls	r3, r3, #22
 80013e2:	429a      	cmp	r2, r3
 80013e4:	d016      	beq.n	8001414 <Bootloader_Main+0x880>
						/* Gecersiz MSP → yanlis firmware veya yanlis hedef cihaz */
						RF_SendPacket(RF_CMD_UPDATE_FAILED, rf_seq_counter++,
 80013e6:	4b95      	ldr	r3, [pc, #596]	@ (800163c <Bootloader_Main+0xaa8>)
 80013e8:	8819      	ldrh	r1, [r3, #0]
 80013ea:	1c4b      	adds	r3, r1, #1
 80013ec:	b29a      	uxth	r2, r3
 80013ee:	4b93      	ldr	r3, [pc, #588]	@ (800163c <Bootloader_Main+0xaa8>)
 80013f0:	801a      	strh	r2, [r3, #0]
								(uint8_t[] ) { RF_ERR_INVALID_MSP }, 1);
 80013f2:	4b96      	ldr	r3, [pc, #600]	@ (800164c <Bootloader_Main+0xab8>)
 80013f4:	22d8      	movs	r2, #216	@ 0xd8
 80013f6:	0092      	lsls	r2, r2, #2
 80013f8:	189b      	adds	r3, r3, r2
 80013fa:	19db      	adds	r3, r3, r7
 80013fc:	2206      	movs	r2, #6
 80013fe:	701a      	strb	r2, [r3, #0]
						RF_SendPacket(RF_CMD_UPDATE_FAILED, rf_seq_counter++,
 8001400:	23c8      	movs	r3, #200	@ 0xc8
 8001402:	005b      	lsls	r3, r3, #1
 8001404:	18fa      	adds	r2, r7, r3
 8001406:	2301      	movs	r3, #1
 8001408:	2007      	movs	r0, #7
 800140a:	f000 f9ff 	bl	800180c <RF_SendPacket>
						LED_Error();
 800140e:	f000 f98b 	bl	8001728 <LED_Error>
 8001412:	e16d      	b.n	80016f0 <Bootloader_Main+0xb5c>
				}

				/* Sayfa basina gelindiyse (her 2KB'de bir) o sayfayi sil.
				 * 128 byte paket boyutu ile 2048 byte sayfa boyutu: 2048/128 = 16 paket/sayfa.
				 * current_addr % FLASH_PAGE_SIZE == 0 kosulu sayfa sinirlarinda saglanir. */
				if (current_addr % FLASH_PAGE_SIZE == 0) {
 8001414:	22d1      	movs	r2, #209	@ 0xd1
 8001416:	0092      	lsls	r2, r2, #2
 8001418:	18bb      	adds	r3, r7, r2
 800141a:	681b      	ldr	r3, [r3, #0]
 800141c:	055b      	lsls	r3, r3, #21
 800141e:	0d5b      	lsrs	r3, r3, #21
 8001420:	d104      	bne.n	800142c <Bootloader_Main+0x898>
					Flash_Erase_Page(current_addr); // Yalnizca bu sayfayi sil (~5ms)
 8001422:	18bb      	adds	r3, r7, r2
 8001424:	681b      	ldr	r3, [r3, #0]
 8001426:	0018      	movs	r0, r3
 8001428:	f000 fb4e 	bl	8001ac8 <Flash_Erase_Page>
				}

				/* Flash'a yaz (sifre cozulmus 128 byte) */
				Flash_Write_Data(current_addr, encrypted_ptr, 128);
 800142c:	24c7      	movs	r4, #199	@ 0xc7
 800142e:	00a4      	lsls	r4, r4, #2
 8001430:	193b      	adds	r3, r7, r4
 8001432:	6819      	ldr	r1, [r3, #0]
 8001434:	25d1      	movs	r5, #209	@ 0xd1
 8001436:	00ad      	lsls	r5, r5, #2
 8001438:	197b      	adds	r3, r7, r5
 800143a:	681b      	ldr	r3, [r3, #0]
 800143c:	2280      	movs	r2, #128	@ 0x80
 800143e:	0018      	movs	r0, r3
 8001440:	f000 fbee 	bl	8001c20 <Flash_Write_Data>

				/* Yaz-oku dogrulama: yazilan veri dogru mu? */
				if (!Flash_Verify_Data(current_addr, encrypted_ptr, 128)) {
 8001444:	193b      	adds	r3, r7, r4
 8001446:	6819      	ldr	r1, [r3, #0]
 8001448:	197b      	adds	r3, r7, r5
 800144a:	681b      	ldr	r3, [r3, #0]
 800144c:	2280      	movs	r2, #128	@ 0x80
 800144e:	0018      	movs	r0, r3
 8001450:	f000 fc32 	bl	8001cb8 <Flash_Verify_Data>
 8001454:	1e03      	subs	r3, r0, #0
 8001456:	d116      	bne.n	8001486 <Bootloader_Main+0x8f2>
					RF_SendPacket(RF_CMD_UPDATE_FAILED, rf_seq_counter++,
 8001458:	4b78      	ldr	r3, [pc, #480]	@ (800163c <Bootloader_Main+0xaa8>)
 800145a:	8819      	ldrh	r1, [r3, #0]
 800145c:	1c4b      	adds	r3, r1, #1
 800145e:	b29a      	uxth	r2, r3
 8001460:	4b76      	ldr	r3, [pc, #472]	@ (800163c <Bootloader_Main+0xaa8>)
 8001462:	801a      	strh	r2, [r3, #0]
							(uint8_t[] ) { RF_ERR_FLASH_VERIFY }, 1);
 8001464:	4b7a      	ldr	r3, [pc, #488]	@ (8001650 <Bootloader_Main+0xabc>)
 8001466:	22d8      	movs	r2, #216	@ 0xd8
 8001468:	0092      	lsls	r2, r2, #2
 800146a:	189b      	adds	r3, r3, r2
 800146c:	19db      	adds	r3, r3, r7
 800146e:	2204      	movs	r2, #4
 8001470:	701a      	strb	r2, [r3, #0]
					RF_SendPacket(RF_CMD_UPDATE_FAILED, rf_seq_counter++,
 8001472:	23c6      	movs	r3, #198	@ 0xc6
 8001474:	005b      	lsls	r3, r3, #1
 8001476:	18fa      	adds	r2, r7, r3
 8001478:	2301      	movs	r3, #1
 800147a:	2007      	movs	r0, #7
 800147c:	f000 f9c6 	bl	800180c <RF_SendPacket>
					LED_Error();
 8001480:	f000 f952 	bl	8001728 <LED_Error>
 8001484:	e134      	b.n	80016f0 <Bootloader_Main+0xb5c>
					return;
				}

				current_addr += FW_PACKET_SIZE; // Sonraki yazma adresi (128 byte ilerle)
 8001486:	22d1      	movs	r2, #209	@ 0xd1
 8001488:	0092      	lsls	r2, r2, #2
 800148a:	18bb      	adds	r3, r7, r2
 800148c:	681b      	ldr	r3, [r3, #0]
 800148e:	3380      	adds	r3, #128	@ 0x80
 8001490:	18ba      	adds	r2, r7, r2
 8001492:	6013      	str	r3, [r2, #0]
				packets_received++;             // Alinan paket sayacini artir
 8001494:	21d2      	movs	r1, #210	@ 0xd2
 8001496:	0089      	lsls	r1, r1, #2
 8001498:	187b      	adds	r3, r7, r1
 800149a:	681b      	ldr	r3, [r3, #0]
 800149c:	3301      	adds	r3, #1
 800149e:	187a      	adds	r2, r7, r1
 80014a0:	6013      	str	r3, [r2, #0]

				/* Her tamamlanan Flash sayfasinda (16 paket = 2KB) resume durumunu kaydet.
				 * Bu sayede cihaz resetlenince kaldigi yerden devam edebilir.
				 * Ornek: packets_received=16 → sayfa 0 tamam → Resume_SavePageDone(0) */
				if (packets_received % PACKETS_PER_PAGE == 0) {
 80014a2:	187b      	adds	r3, r7, r1
 80014a4:	681b      	ldr	r3, [r3, #0]
 80014a6:	220f      	movs	r2, #15
 80014a8:	4013      	ands	r3, r2
 80014aa:	d10c      	bne.n	80014c6 <Bootloader_Main+0x932>
					uint32_t page_done = (packets_received / PACKETS_PER_PAGE)
 80014ac:	187b      	adds	r3, r7, r1
 80014ae:	681b      	ldr	r3, [r3, #0]
 80014b0:	091b      	lsrs	r3, r3, #4
 80014b2:	3b01      	subs	r3, #1
 80014b4:	22c4      	movs	r2, #196	@ 0xc4
 80014b6:	0092      	lsls	r2, r2, #2
 80014b8:	18b9      	adds	r1, r7, r2
 80014ba:	600b      	str	r3, [r1, #0]
							- 1;
					Resume_SavePageDone(page_done); // Bitmap'e 0x0000 yaz
 80014bc:	18bb      	adds	r3, r7, r2
 80014be:	681b      	ldr	r3, [r3, #0]
 80014c0:	0018      	movs	r0, r3
 80014c2:	f000 fb61 	bl	8001b88 <Resume_SavePageDone>
				}

				memset(fw_assembly_buf, 0, sizeof(fw_assembly_buf)); // Tampon temizle
 80014c6:	4b58      	ldr	r3, [pc, #352]	@ (8001628 <Bootloader_Main+0xa94>)
 80014c8:	22c8      	movs	r2, #200	@ 0xc8
 80014ca:	2100      	movs	r1, #0
 80014cc:	0018      	movs	r0, r3
 80014ce:	f005 fc0b 	bl	8006ce8 <memset>
 80014d2:	e000      	b.n	80014d6 <Bootloader_Main+0x942>
				continue; // Baska tip paket geldi — yoksay, tekrar bekle
 80014d4:	46c0      	nop			@ (mov r8, r8)
		while (packets_received < total_packets) {
 80014d6:	23d2      	movs	r3, #210	@ 0xd2
 80014d8:	009b      	lsls	r3, r3, #2
 80014da:	18fb      	adds	r3, r7, r3
 80014dc:	681a      	ldr	r2, [r3, #0]
 80014de:	23d7      	movs	r3, #215	@ 0xd7
 80014e0:	009b      	lsls	r3, r3, #2
 80014e2:	18fb      	adds	r3, r7, r3
 80014e4:	681b      	ldr	r3, [r3, #0]
 80014e6:	429a      	cmp	r2, r3
 80014e8:	d200      	bcs.n	80014ec <Bootloader_Main+0x958>
 80014ea:	e607      	b.n	80010fc <Bootloader_Main+0x568>
	 * ADIM 7: FINAL CRC DOGRULAMA
	 * Tum Flash'a yazilan veriyi bastan CRC-32 hesapla.
	 * metadata.firmware_crc32 ile karsilastir.
	 * Uyusmazlik → guncelleme basarisiz.
	 * =================================================================== */
	NeoPixel_SetAll(0, 200, 200); // Acik mavi: CRC hesaplaniyor
 80014ec:	22c8      	movs	r2, #200	@ 0xc8
 80014ee:	21c8      	movs	r1, #200	@ 0xc8
 80014f0:	2000      	movs	r0, #0
 80014f2:	f001 fde5 	bl	80030c0 <NeoPixel_SetAll>
	NeoPixel_Show();
 80014f6:	f001 fdfb 	bl	80030f0 <NeoPixel_Show>

	uint32_t flash_crc = Calculate_Flash_CRC32(APP_ADDRESS,
 80014fa:	4b56      	ldr	r3, [pc, #344]	@ (8001654 <Bootloader_Main+0xac0>)
 80014fc:	24d8      	movs	r4, #216	@ 0xd8
 80014fe:	00a4      	lsls	r4, r4, #2
 8001500:	191b      	adds	r3, r3, r4
 8001502:	19db      	adds	r3, r3, r7
 8001504:	681b      	ldr	r3, [r3, #0]
 8001506:	4a50      	ldr	r2, [pc, #320]	@ (8001648 <Bootloader_Main+0xab4>)
 8001508:	0019      	movs	r1, r3
 800150a:	0010      	movs	r0, r2
 800150c:	f000 fa62 	bl	80019d4 <Calculate_Flash_CRC32>
 8001510:	0003      	movs	r3, r0
 8001512:	22cc      	movs	r2, #204	@ 0xcc
 8001514:	0092      	lsls	r2, r2, #2
 8001516:	18b9      	adds	r1, r7, r2
 8001518:	600b      	str	r3, [r1, #0]
			metadata.firmware_size);

	if (flash_crc != metadata.firmware_crc32) {
 800151a:	4b4e      	ldr	r3, [pc, #312]	@ (8001654 <Bootloader_Main+0xac0>)
 800151c:	191b      	adds	r3, r3, r4
 800151e:	19db      	adds	r3, r3, r7
 8001520:	689b      	ldr	r3, [r3, #8]
 8001522:	18ba      	adds	r2, r7, r2
 8001524:	6812      	ldr	r2, [r2, #0]
 8001526:	429a      	cmp	r2, r3
 8001528:	d06d      	beq.n	8001606 <Bootloader_Main+0xa72>
		/* CRC uyusmazligi — Flash'a yanlis veri yazılmis veya bozulmus */
		for (int i = 0; i < 5; i++) {
 800152a:	2300      	movs	r3, #0
 800152c:	22d0      	movs	r2, #208	@ 0xd0
 800152e:	0092      	lsls	r2, r2, #2
 8001530:	18ba      	adds	r2, r7, r2
 8001532:	6013      	str	r3, [r2, #0]
 8001534:	e01b      	b.n	800156e <Bootloader_Main+0x9da>
			NeoPixel_SetAll(255, 0, 128); // Pembe: CRC hatası
 8001536:	2280      	movs	r2, #128	@ 0x80
 8001538:	2100      	movs	r1, #0
 800153a:	20ff      	movs	r0, #255	@ 0xff
 800153c:	f001 fdc0 	bl	80030c0 <NeoPixel_SetAll>
			NeoPixel_Show();
 8001540:	f001 fdd6 	bl	80030f0 <NeoPixel_Show>
			HAL_Delay(150);
 8001544:	2096      	movs	r0, #150	@ 0x96
 8001546:	f002 fb9d 	bl	8003c84 <HAL_Delay>
			NeoPixel_Clear();
 800154a:	f001 fdc7 	bl	80030dc <NeoPixel_Clear>
			NeoPixel_Show();
 800154e:	f001 fdcf 	bl	80030f0 <NeoPixel_Show>
			HAL_Delay(150);
 8001552:	2096      	movs	r0, #150	@ 0x96
 8001554:	f002 fb96 	bl	8003c84 <HAL_Delay>
			HAL_IWDG_Refresh(&hiwdg);
 8001558:	4b3f      	ldr	r3, [pc, #252]	@ (8001658 <Bootloader_Main+0xac4>)
 800155a:	0018      	movs	r0, r3
 800155c:	f003 f8b8 	bl	80046d0 <HAL_IWDG_Refresh>
		for (int i = 0; i < 5; i++) {
 8001560:	22d0      	movs	r2, #208	@ 0xd0
 8001562:	0092      	lsls	r2, r2, #2
 8001564:	18bb      	adds	r3, r7, r2
 8001566:	681b      	ldr	r3, [r3, #0]
 8001568:	3301      	adds	r3, #1
 800156a:	18ba      	adds	r2, r7, r2
 800156c:	6013      	str	r3, [r2, #0]
 800156e:	23d0      	movs	r3, #208	@ 0xd0
 8001570:	009b      	lsls	r3, r3, #2
 8001572:	18fb      	adds	r3, r7, r3
 8001574:	681b      	ldr	r3, [r3, #0]
 8001576:	2b04      	cmp	r3, #4
 8001578:	dddd      	ble.n	8001536 <Bootloader_Main+0x9a2>
		}

		/* Gondericiye hatayi bildir — 10 kez dene, ACK gelince dur */
		for (uint8_t i = 0; i < 10; i++) {
 800157a:	4b38      	ldr	r3, [pc, #224]	@ (800165c <Bootloader_Main+0xac8>)
 800157c:	18fb      	adds	r3, r7, r3
 800157e:	2200      	movs	r2, #0
 8001580:	701a      	strb	r2, [r3, #0]
 8001582:	e030      	b.n	80015e6 <Bootloader_Main+0xa52>
			RF_SendPacket(RF_CMD_UPDATE_FAILED, rf_seq_counter, (uint8_t[] ) {
 8001584:	4b2d      	ldr	r3, [pc, #180]	@ (800163c <Bootloader_Main+0xaa8>)
 8001586:	8819      	ldrh	r1, [r3, #0]
 8001588:	4b35      	ldr	r3, [pc, #212]	@ (8001660 <Bootloader_Main+0xacc>)
 800158a:	25d8      	movs	r5, #216	@ 0xd8
 800158c:	00ad      	lsls	r5, r5, #2
 800158e:	195b      	adds	r3, r3, r5
 8001590:	19db      	adds	r3, r3, r7
 8001592:	2207      	movs	r2, #7
 8001594:	701a      	strb	r2, [r3, #0]
 8001596:	23c4      	movs	r3, #196	@ 0xc4
 8001598:	005b      	lsls	r3, r3, #1
 800159a:	18fa      	adds	r2, r7, r3
 800159c:	2301      	movs	r3, #1
 800159e:	2007      	movs	r0, #7
 80015a0:	f000 f934 	bl	800180c <RF_SendPacket>
							RF_ERR_FW_CRC_MISMATCH }, 1);

			uint8_t rx_type, rx_pld[RF_MAX_PAYLOAD];
			uint16_t rx_seq;
			uint8_t rx_pld_len;
			if (RF_WaitForPacket(&rx_type, &rx_seq, rx_pld, &rx_pld_len,
 80015a4:	2384      	movs	r3, #132	@ 0x84
 80015a6:	33ff      	adds	r3, #255	@ 0xff
 80015a8:	18fb      	adds	r3, r7, r3
 80015aa:	227c      	movs	r2, #124	@ 0x7c
 80015ac:	18ba      	adds	r2, r7, r2
 80015ae:	21c2      	movs	r1, #194	@ 0xc2
 80015b0:	0049      	lsls	r1, r1, #1
 80015b2:	1879      	adds	r1, r7, r1
 80015b4:	2088      	movs	r0, #136	@ 0x88
 80015b6:	30ff      	adds	r0, #255	@ 0xff
 80015b8:	1838      	adds	r0, r7, r0
 80015ba:	4c2a      	ldr	r4, [pc, #168]	@ (8001664 <Bootloader_Main+0xad0>)
 80015bc:	9400      	str	r4, [sp, #0]
 80015be:	f000 f977 	bl	80018b0 <RF_WaitForPacket>
 80015c2:	1e03      	subs	r3, r0, #0
 80015c4:	d005      	beq.n	80015d2 <Bootloader_Main+0xa3e>
					3000)) {
				if (rx_type == RF_CMD_ACK) {
 80015c6:	4b28      	ldr	r3, [pc, #160]	@ (8001668 <Bootloader_Main+0xad4>)
 80015c8:	195b      	adds	r3, r3, r5
 80015ca:	19db      	adds	r3, r3, r7
 80015cc:	781b      	ldrb	r3, [r3, #0]
 80015ce:	2b10      	cmp	r3, #16
 80015d0:	d00f      	beq.n	80015f2 <Bootloader_Main+0xa5e>
					break; // Gonderici mesaji aldi
				}
			}
			HAL_IWDG_Refresh(&hiwdg);
 80015d2:	4b21      	ldr	r3, [pc, #132]	@ (8001658 <Bootloader_Main+0xac4>)
 80015d4:	0018      	movs	r0, r3
 80015d6:	f003 f87b 	bl	80046d0 <HAL_IWDG_Refresh>
		for (uint8_t i = 0; i < 10; i++) {
 80015da:	4920      	ldr	r1, [pc, #128]	@ (800165c <Bootloader_Main+0xac8>)
 80015dc:	187b      	adds	r3, r7, r1
 80015de:	781a      	ldrb	r2, [r3, #0]
 80015e0:	187b      	adds	r3, r7, r1
 80015e2:	3201      	adds	r2, #1
 80015e4:	701a      	strb	r2, [r3, #0]
 80015e6:	4b1d      	ldr	r3, [pc, #116]	@ (800165c <Bootloader_Main+0xac8>)
 80015e8:	18fb      	adds	r3, r7, r3
 80015ea:	781b      	ldrb	r3, [r3, #0]
 80015ec:	2b09      	cmp	r3, #9
 80015ee:	d9c9      	bls.n	8001584 <Bootloader_Main+0x9f0>
 80015f0:	e000      	b.n	80015f4 <Bootloader_Main+0xa60>
					break; // Gonderici mesaji aldi
 80015f2:	46c0      	nop			@ (mov r8, r8)
		}
		rf_seq_counter++;
 80015f4:	4b11      	ldr	r3, [pc, #68]	@ (800163c <Bootloader_Main+0xaa8>)
 80015f6:	881b      	ldrh	r3, [r3, #0]
 80015f8:	3301      	adds	r3, #1
 80015fa:	b29a      	uxth	r2, r3
 80015fc:	4b0f      	ldr	r3, [pc, #60]	@ (800163c <Bootloader_Main+0xaa8>)
 80015fe:	801a      	strh	r2, [r3, #0]
		LED_Error();
 8001600:	f000 f892 	bl	8001728 <LED_Error>
		return; // Guncelleme basarisiz — bootloader'da kal
 8001604:	e074      	b.n	80016f0 <Bootloader_Main+0xb5c>
	 * ADIM 8: BASARILI TAMAMLAMA
	 * - Boot flag'ini temizle (bir sonraki reset'te uygulamaya gecilecek)
	 * - Firmware versiyonunu Flash'a kaydet
	 * - UPDATE_COMPLETE gonder, uygulamaya atla
	 * =================================================================== */
	clear_boot_flag(); // Boot flag sayfasini sil — bir sonraki boot'ta app calisir
 8001606:	f000 fa43 	bl	8001a90 <clear_boot_flag>

	Flash_Write_Version(metadata.firmware_version); // Versiyonu Flash'a kaydet
 800160a:	4b12      	ldr	r3, [pc, #72]	@ (8001654 <Bootloader_Main+0xac0>)
 800160c:	22d8      	movs	r2, #216	@ 0xd8
 800160e:	0092      	lsls	r2, r2, #2
 8001610:	189b      	adds	r3, r3, r2
 8001612:	19db      	adds	r3, r3, r7
 8001614:	685b      	ldr	r3, [r3, #4]
 8001616:	0018      	movs	r0, r3
 8001618:	f000 fb72 	bl	8001d00 <Flash_Write_Version>

	/* UPDATE_COMPLETE gonder — 10 kez dene, ACK gelince dur */
	for (uint8_t i = 0; i < 10; i++) {
 800161c:	4b13      	ldr	r3, [pc, #76]	@ (800166c <Bootloader_Main+0xad8>)
 800161e:	18fb      	adds	r3, r7, r3
 8001620:	2200      	movs	r2, #0
 8001622:	701a      	strb	r2, [r3, #0]
 8001624:	e04e      	b.n	80016c4 <Bootloader_Main+0xb30>
 8001626:	46c0      	nop			@ (mov r8, r8)
 8001628:	2000004c 	.word	0x2000004c
 800162c:	0000032d 	.word	0x0000032d
 8001630:	20000114 	.word	0x20000114
 8001634:	fffffe40 	.word	0xfffffe40
 8001638:	2000005c 	.word	0x2000005c
 800163c:	20000116 	.word	0x20000116
 8001640:	fffffe34 	.word	0xfffffe34
 8001644:	2000002c 	.word	0x2000002c
 8001648:	08008000 	.word	0x08008000
 800164c:	fffffe30 	.word	0xfffffe30
 8001650:	fffffe2c 	.word	0xfffffe2c
 8001654:	fffffea0 	.word	0xfffffea0
 8001658:	20000158 	.word	0x20000158
 800165c:	0000033f 	.word	0x0000033f
 8001660:	fffffe28 	.word	0xfffffe28
 8001664:	00000bb8 	.word	0x00000bb8
 8001668:	fffffe27 	.word	0xfffffe27
 800166c:	0000033e 	.word	0x0000033e
		RF_SendPacket(RF_CMD_UPDATE_COMPLETE, rf_seq_counter, NULL, 0);
 8001670:	4b22      	ldr	r3, [pc, #136]	@ (80016fc <Bootloader_Main+0xb68>)
 8001672:	8819      	ldrh	r1, [r3, #0]
 8001674:	2300      	movs	r3, #0
 8001676:	2200      	movs	r2, #0
 8001678:	2006      	movs	r0, #6
 800167a:	f000 f8c7 	bl	800180c <RF_SendPacket>

		uint8_t rx_type, rx_pld[RF_MAX_PAYLOAD];
		uint16_t rx_seq;
		uint8_t rx_pld_len;
		if (RF_WaitForPacket(&rx_type, &rx_seq, rx_pld, &rx_pld_len, 3000)) {
 800167e:	2380      	movs	r3, #128	@ 0x80
 8001680:	33ff      	adds	r3, #255	@ 0xff
 8001682:	18fb      	adds	r3, r7, r3
 8001684:	227c      	movs	r2, #124	@ 0x7c
 8001686:	18ba      	adds	r2, r7, r2
 8001688:	21c0      	movs	r1, #192	@ 0xc0
 800168a:	0049      	lsls	r1, r1, #1
 800168c:	1879      	adds	r1, r7, r1
 800168e:	20c1      	movs	r0, #193	@ 0xc1
 8001690:	0040      	lsls	r0, r0, #1
 8001692:	1838      	adds	r0, r7, r0
 8001694:	4c1a      	ldr	r4, [pc, #104]	@ (8001700 <Bootloader_Main+0xb6c>)
 8001696:	9400      	str	r4, [sp, #0]
 8001698:	f000 f90a 	bl	80018b0 <RF_WaitForPacket>
 800169c:	1e03      	subs	r3, r0, #0
 800169e:	d007      	beq.n	80016b0 <Bootloader_Main+0xb1c>
			if (rx_type == RF_CMD_ACK) {
 80016a0:	4b18      	ldr	r3, [pc, #96]	@ (8001704 <Bootloader_Main+0xb70>)
 80016a2:	22d8      	movs	r2, #216	@ 0xd8
 80016a4:	0092      	lsls	r2, r2, #2
 80016a6:	189b      	adds	r3, r3, r2
 80016a8:	19db      	adds	r3, r3, r7
 80016aa:	781b      	ldrb	r3, [r3, #0]
 80016ac:	2b10      	cmp	r3, #16
 80016ae:	d00f      	beq.n	80016d0 <Bootloader_Main+0xb3c>
				break; // Gonderici tamamlama mesajini aldi
			}
		}
		HAL_IWDG_Refresh(&hiwdg);
 80016b0:	4b15      	ldr	r3, [pc, #84]	@ (8001708 <Bootloader_Main+0xb74>)
 80016b2:	0018      	movs	r0, r3
 80016b4:	f003 f80c 	bl	80046d0 <HAL_IWDG_Refresh>
	for (uint8_t i = 0; i < 10; i++) {
 80016b8:	4914      	ldr	r1, [pc, #80]	@ (800170c <Bootloader_Main+0xb78>)
 80016ba:	187b      	adds	r3, r7, r1
 80016bc:	781a      	ldrb	r2, [r3, #0]
 80016be:	187b      	adds	r3, r7, r1
 80016c0:	3201      	adds	r2, #1
 80016c2:	701a      	strb	r2, [r3, #0]
 80016c4:	4b11      	ldr	r3, [pc, #68]	@ (800170c <Bootloader_Main+0xb78>)
 80016c6:	18fb      	adds	r3, r7, r3
 80016c8:	781b      	ldrb	r3, [r3, #0]
 80016ca:	2b09      	cmp	r3, #9
 80016cc:	d9d0      	bls.n	8001670 <Bootloader_Main+0xadc>
 80016ce:	e000      	b.n	80016d2 <Bootloader_Main+0xb3e>
				break; // Gonderici tamamlama mesajini aldi
 80016d0:	46c0      	nop			@ (mov r8, r8)
	}
	rf_seq_counter++;
 80016d2:	4b0a      	ldr	r3, [pc, #40]	@ (80016fc <Bootloader_Main+0xb68>)
 80016d4:	881b      	ldrh	r3, [r3, #0]
 80016d6:	3301      	adds	r3, #1
 80016d8:	b29a      	uxth	r2, r3
 80016da:	4b08      	ldr	r3, [pc, #32]	@ (80016fc <Bootloader_Main+0xb68>)
 80016dc:	801a      	strh	r2, [r3, #0]

	LED_Success(); // Yesil yanip sonsun — basarili guncelleme
 80016de:	f000 f84b 	bl	8001778 <LED_Success>
	HAL_Delay(1000);
 80016e2:	23fa      	movs	r3, #250	@ 0xfa
 80016e4:	009b      	lsls	r3, r3, #2
 80016e6:	0018      	movs	r0, r3
 80016e8:	f002 facc 	bl	8003c84 <HAL_Delay>

	jump_to_application(); // Yeni firmware'i calistir
 80016ec:	f7ff f9cc 	bl	8000a88 <jump_to_application>
}
 80016f0:	46bd      	mov	sp, r7
 80016f2:	23d9      	movs	r3, #217	@ 0xd9
 80016f4:	009b      	lsls	r3, r3, #2
 80016f6:	449d      	add	sp, r3
 80016f8:	bdf0      	pop	{r4, r5, r6, r7, pc}
 80016fa:	46c0      	nop			@ (mov r8, r8)
 80016fc:	20000116 	.word	0x20000116
 8001700:	00000bb8 	.word	0x00000bb8
 8001704:	fffffe22 	.word	0xfffffe22
 8001708:	20000158 	.word	0x20000158
 800170c:	0000033e 	.word	0x0000033e

08001710 <LED_Bootloader>:
#include "iwdg.h"
#include "main.h"
#include "neopixel.h"

/* Turuncu — bootloader aktif, gonderici bekleniyor */
void LED_Bootloader(void) {
 8001710:	b580      	push	{r7, lr}
 8001712:	af00      	add	r7, sp, #0
	NeoPixel_SetAll(255, 80, 0);
 8001714:	2200      	movs	r2, #0
 8001716:	2150      	movs	r1, #80	@ 0x50
 8001718:	20ff      	movs	r0, #255	@ 0xff
 800171a:	f001 fcd1 	bl	80030c0 <NeoPixel_SetAll>
	NeoPixel_Show();
 800171e:	f001 fce7 	bl	80030f0 <NeoPixel_Show>
}
 8001722:	46c0      	nop			@ (mov r8, r8)
 8001724:	46bd      	mov	sp, r7
 8001726:	bd80      	pop	{r7, pc}

08001728 <LED_Error>:

/* Kirmizi yanip sonme (5 kez) — hata durumu */
void LED_Error(void) {
 8001728:	b580      	push	{r7, lr}
 800172a:	b082      	sub	sp, #8
 800172c:	af00      	add	r7, sp, #0
	for (int i = 0; i < 5; i++) {
 800172e:	2300      	movs	r3, #0
 8001730:	607b      	str	r3, [r7, #4]
 8001732:	e017      	b.n	8001764 <LED_Error+0x3c>
		NeoPixel_SetAll(255, 0, 0); // Kirmizi
 8001734:	2200      	movs	r2, #0
 8001736:	2100      	movs	r1, #0
 8001738:	20ff      	movs	r0, #255	@ 0xff
 800173a:	f001 fcc1 	bl	80030c0 <NeoPixel_SetAll>
		NeoPixel_Show();
 800173e:	f001 fcd7 	bl	80030f0 <NeoPixel_Show>
		HAL_Delay(150);
 8001742:	2096      	movs	r0, #150	@ 0x96
 8001744:	f002 fa9e 	bl	8003c84 <HAL_Delay>
		NeoPixel_Clear();           // Kapat
 8001748:	f001 fcc8 	bl	80030dc <NeoPixel_Clear>
		NeoPixel_Show();
 800174c:	f001 fcd0 	bl	80030f0 <NeoPixel_Show>
		HAL_Delay(150);
 8001750:	2096      	movs	r0, #150	@ 0x96
 8001752:	f002 fa97 	bl	8003c84 <HAL_Delay>
		HAL_IWDG_Refresh(&hiwdg);   // Uzun yanip sonme icin watchdog sifirla
 8001756:	4b07      	ldr	r3, [pc, #28]	@ (8001774 <LED_Error+0x4c>)
 8001758:	0018      	movs	r0, r3
 800175a:	f002 ffb9 	bl	80046d0 <HAL_IWDG_Refresh>
	for (int i = 0; i < 5; i++) {
 800175e:	687b      	ldr	r3, [r7, #4]
 8001760:	3301      	adds	r3, #1
 8001762:	607b      	str	r3, [r7, #4]
 8001764:	687b      	ldr	r3, [r7, #4]
 8001766:	2b04      	cmp	r3, #4
 8001768:	dde4      	ble.n	8001734 <LED_Error+0xc>
	}
}
 800176a:	46c0      	nop			@ (mov r8, r8)
 800176c:	46c0      	nop			@ (mov r8, r8)
 800176e:	46bd      	mov	sp, r7
 8001770:	b002      	add	sp, #8
 8001772:	bd80      	pop	{r7, pc}
 8001774:	20000158 	.word	0x20000158

08001778 <LED_Success>:

/* Yesil yanip sonme (3 kez) — basarili guncelleme */
void LED_Success(void) {
 8001778:	b580      	push	{r7, lr}
 800177a:	b082      	sub	sp, #8
 800177c:	af00      	add	r7, sp, #0
	for (int i = 0; i < 3; i++) {
 800177e:	2300      	movs	r3, #0
 8001780:	607b      	str	r3, [r7, #4]
 8001782:	e017      	b.n	80017b4 <LED_Success+0x3c>
		NeoPixel_SetAll(0, 255, 0); // Yesil
 8001784:	2200      	movs	r2, #0
 8001786:	21ff      	movs	r1, #255	@ 0xff
 8001788:	2000      	movs	r0, #0
 800178a:	f001 fc99 	bl	80030c0 <NeoPixel_SetAll>
		NeoPixel_Show();
 800178e:	f001 fcaf 	bl	80030f0 <NeoPixel_Show>
		HAL_Delay(200);
 8001792:	20c8      	movs	r0, #200	@ 0xc8
 8001794:	f002 fa76 	bl	8003c84 <HAL_Delay>
		NeoPixel_Clear();
 8001798:	f001 fca0 	bl	80030dc <NeoPixel_Clear>
		NeoPixel_Show();
 800179c:	f001 fca8 	bl	80030f0 <NeoPixel_Show>
		HAL_Delay(200);
 80017a0:	20c8      	movs	r0, #200	@ 0xc8
 80017a2:	f002 fa6f 	bl	8003c84 <HAL_Delay>
		HAL_IWDG_Refresh(&hiwdg);
 80017a6:	4b07      	ldr	r3, [pc, #28]	@ (80017c4 <LED_Success+0x4c>)
 80017a8:	0018      	movs	r0, r3
 80017aa:	f002 ff91 	bl	80046d0 <HAL_IWDG_Refresh>
	for (int i = 0; i < 3; i++) {
 80017ae:	687b      	ldr	r3, [r7, #4]
 80017b0:	3301      	adds	r3, #1
 80017b2:	607b      	str	r3, [r7, #4]
 80017b4:	687b      	ldr	r3, [r7, #4]
 80017b6:	2b02      	cmp	r3, #2
 80017b8:	dde4      	ble.n	8001784 <LED_Success+0xc>
	}
}
 80017ba:	46c0      	nop			@ (mov r8, r8)
 80017bc:	46c0      	nop			@ (mov r8, r8)
 80017be:	46bd      	mov	sp, r7
 80017c0:	b002      	add	sp, #8
 80017c2:	bd80      	pop	{r7, pc}
 80017c4:	20000158 	.word	0x20000158

080017c8 <LED_Transfer>:

/* Mavi/mor renk degistirme — firmware transfer ilerlemesi
 * packet_num cift: mavi, tek: mor → gorunur gecisin gostergesi */
void LED_Transfer(uint32_t packet_num) {
 80017c8:	b580      	push	{r7, lr}
 80017ca:	b082      	sub	sp, #8
 80017cc:	af00      	add	r7, sp, #0
 80017ce:	6078      	str	r0, [r7, #4]
	if (packet_num % 2 == 0) {
 80017d0:	687b      	ldr	r3, [r7, #4]
 80017d2:	2201      	movs	r2, #1
 80017d4:	4013      	ands	r3, r2
 80017d6:	d105      	bne.n	80017e4 <LED_Transfer+0x1c>
		NeoPixel_SetAll(0, 0, 200);    // Mavi (cift paket)
 80017d8:	22c8      	movs	r2, #200	@ 0xc8
 80017da:	2100      	movs	r1, #0
 80017dc:	2000      	movs	r0, #0
 80017de:	f001 fc6f 	bl	80030c0 <NeoPixel_SetAll>
 80017e2:	e004      	b.n	80017ee <LED_Transfer+0x26>
	} else {
		NeoPixel_SetAll(128, 0, 200);  // Mor (tek paket)
 80017e4:	22c8      	movs	r2, #200	@ 0xc8
 80017e6:	2100      	movs	r1, #0
 80017e8:	2080      	movs	r0, #128	@ 0x80
 80017ea:	f001 fc69 	bl	80030c0 <NeoPixel_SetAll>
	}
	NeoPixel_Show();
 80017ee:	f001 fc7f 	bl	80030f0 <NeoPixel_Show>
}
 80017f2:	46c0      	nop			@ (mov r8, r8)
 80017f4:	46bd      	mov	sp, r7
 80017f6:	b002      	add	sp, #8
 80017f8:	bd80      	pop	{r7, pc}

080017fa <LED_Off>:

/* Tum LED'leri kapat */
void LED_Off(void) {
 80017fa:	b580      	push	{r7, lr}
 80017fc:	af00      	add	r7, sp, #0
	NeoPixel_Clear();
 80017fe:	f001 fc6d 	bl	80030dc <NeoPixel_Clear>
	NeoPixel_Show();
 8001802:	f001 fc75 	bl	80030f0 <NeoPixel_Show>
}
 8001806:	46c0      	nop			@ (mov r8, r8)
 8001808:	46bd      	mov	sp, r7
 800180a:	bd80      	pop	{r7, pc}

0800180c <RF_SendPacket>:
 *
 * payload NULL veya payload_len 0 ise sadece 3 byte baslik gonderilir.
 * payload_len RF_MAX_PAYLOAD'u asarsa kisaltilir.
 */
void RF_SendPacket(uint8_t type, uint16_t seq, const uint8_t *payload,
		uint8_t payload_len) {
 800180c:	b590      	push	{r4, r7, lr}
 800180e:	b091      	sub	sp, #68	@ 0x44
 8001810:	af00      	add	r7, sp, #0
 8001812:	0004      	movs	r4, r0
 8001814:	0008      	movs	r0, r1
 8001816:	603a      	str	r2, [r7, #0]
 8001818:	0019      	movs	r1, r3
 800181a:	1dfb      	adds	r3, r7, #7
 800181c:	1c22      	adds	r2, r4, #0
 800181e:	701a      	strb	r2, [r3, #0]
 8001820:	1d3b      	adds	r3, r7, #4
 8001822:	1c02      	adds	r2, r0, #0
 8001824:	801a      	strh	r2, [r3, #0]
 8001826:	1dbb      	adds	r3, r7, #6
 8001828:	1c0a      	adds	r2, r1, #0
 800182a:	701a      	strb	r2, [r3, #0]
	uint8_t pkt[RF_MAX_PACKET_SIZE];
	uint8_t total_len = RF_HEADER_SIZE; // Baslangicta sadece baslik (3 byte)
 800182c:	233f      	movs	r3, #63	@ 0x3f
 800182e:	18fb      	adds	r3, r7, r3
 8001830:	2203      	movs	r2, #3
 8001832:	701a      	strb	r2, [r3, #0]

	pkt[0] = type;                   // Paket tipi (RF_CMD_xxx)
 8001834:	2108      	movs	r1, #8
 8001836:	187b      	adds	r3, r7, r1
 8001838:	1dfa      	adds	r2, r7, #7
 800183a:	7812      	ldrb	r2, [r2, #0]
 800183c:	701a      	strb	r2, [r3, #0]
	pkt[1] = (uint8_t) (seq >> 8);    // Sequence number — yuksek byte
 800183e:	1d3b      	adds	r3, r7, #4
 8001840:	881b      	ldrh	r3, [r3, #0]
 8001842:	0a1b      	lsrs	r3, r3, #8
 8001844:	b29b      	uxth	r3, r3
 8001846:	b2da      	uxtb	r2, r3
 8001848:	187b      	adds	r3, r7, r1
 800184a:	705a      	strb	r2, [r3, #1]
	pkt[2] = (uint8_t) (seq & 0xFF);  // Sequence number — dusuk byte
 800184c:	1d3b      	adds	r3, r7, #4
 800184e:	881b      	ldrh	r3, [r3, #0]
 8001850:	b2da      	uxtb	r2, r3
 8001852:	187b      	adds	r3, r7, r1
 8001854:	709a      	strb	r2, [r3, #2]

	if (payload && payload_len > 0) {
 8001856:	683b      	ldr	r3, [r7, #0]
 8001858:	2b00      	cmp	r3, #0
 800185a:	d01b      	beq.n	8001894 <RF_SendPacket+0x88>
 800185c:	1dbb      	adds	r3, r7, #6
 800185e:	781b      	ldrb	r3, [r3, #0]
 8001860:	2b00      	cmp	r3, #0
 8001862:	d017      	beq.n	8001894 <RF_SendPacket+0x88>
		if (payload_len > RF_MAX_PAYLOAD) {
 8001864:	1dbb      	adds	r3, r7, #6
 8001866:	781b      	ldrb	r3, [r3, #0]
 8001868:	2b32      	cmp	r3, #50	@ 0x32
 800186a:	d902      	bls.n	8001872 <RF_SendPacket+0x66>
			payload_len = RF_MAX_PAYLOAD; // FIFO sinirini asma
 800186c:	1dbb      	adds	r3, r7, #6
 800186e:	2232      	movs	r2, #50	@ 0x32
 8001870:	701a      	strb	r2, [r3, #0]
		}

		memcpy(&pkt[3], payload, payload_len);
 8001872:	1dbb      	adds	r3, r7, #6
 8001874:	781a      	ldrb	r2, [r3, #0]
 8001876:	6839      	ldr	r1, [r7, #0]
 8001878:	2308      	movs	r3, #8
 800187a:	18fb      	adds	r3, r7, r3
 800187c:	3303      	adds	r3, #3
 800187e:	0018      	movs	r0, r3
 8001880:	f005 fa5e 	bl	8006d40 <memcpy>
		total_len += payload_len;
 8001884:	223f      	movs	r2, #63	@ 0x3f
 8001886:	18bb      	adds	r3, r7, r2
 8001888:	18b9      	adds	r1, r7, r2
 800188a:	1dba      	adds	r2, r7, #6
 800188c:	7809      	ldrb	r1, [r1, #0]
 800188e:	7812      	ldrb	r2, [r2, #0]
 8001890:	188a      	adds	r2, r1, r2
 8001892:	701a      	strb	r2, [r3, #0]
	}

	SI4432_SendPacket(pkt, total_len); // Fiziksel gonderim (si4432.c)
 8001894:	233f      	movs	r3, #63	@ 0x3f
 8001896:	18fb      	adds	r3, r7, r3
 8001898:	781a      	ldrb	r2, [r3, #0]
 800189a:	2308      	movs	r3, #8
 800189c:	18fb      	adds	r3, r7, r3
 800189e:	0011      	movs	r1, r2
 80018a0:	0018      	movs	r0, r3
 80018a2:	f001 fe31 	bl	8003508 <SI4432_SendPacket>
}
 80018a6:	46c0      	nop			@ (mov r8, r8)
 80018a8:	46bd      	mov	sp, r7
 80018aa:	b011      	add	sp, #68	@ 0x44
 80018ac:	bd90      	pop	{r4, r7, pc}
	...

080018b0 <RF_WaitForPacket>:
 *
 * Donus: 1 = paket alindi, 0 = zaman asimi
 * Paket alindiysa *type, *seq, payload[], *payload_len doldurulur.
 */
uint8_t RF_WaitForPacket(uint8_t *type, uint16_t *seq, uint8_t *payload,
		uint8_t *payload_len, uint32_t timeout_ms) {
 80018b0:	b5b0      	push	{r4, r5, r7, lr}
 80018b2:	b086      	sub	sp, #24
 80018b4:	af00      	add	r7, sp, #0
 80018b6:	60f8      	str	r0, [r7, #12]
 80018b8:	60b9      	str	r1, [r7, #8]
 80018ba:	607a      	str	r2, [r7, #4]
 80018bc:	603b      	str	r3, [r7, #0]
	uint32_t start = HAL_GetTick();
 80018be:	f002 f9d7 	bl	8003c70 <HAL_GetTick>
 80018c2:	0003      	movs	r3, r0
 80018c4:	617b      	str	r3, [r7, #20]

	SI4432_StartRx(); // Si4432'yi alici moduna al, RX FIFO'yu temizle
 80018c6:	f001 fe8a 	bl	80035de <SI4432_StartRx>

	while ((HAL_GetTick() - start) < timeout_ms) {
 80018ca:	e038      	b.n	800193e <RF_WaitForPacket+0x8e>
		HAL_IWDG_Refresh(&hiwdg); // Watchdog — uzun bekleme sureleri icin kritik
 80018cc:	4b22      	ldr	r3, [pc, #136]	@ (8001958 <RF_WaitForPacket+0xa8>)
 80018ce:	0018      	movs	r0, r3
 80018d0:	f002 fefe 	bl	80046d0 <HAL_IWDG_Refresh>

		uint8_t len = SI4432_CheckRx(rf_rx_buf); // nIRQ kontrol et, paket varsa oku
 80018d4:	2513      	movs	r5, #19
 80018d6:	197c      	adds	r4, r7, r5
 80018d8:	4b20      	ldr	r3, [pc, #128]	@ (800195c <RF_WaitForPacket+0xac>)
 80018da:	0018      	movs	r0, r3
 80018dc:	f001 fe9c 	bl	8003618 <SI4432_CheckRx>
 80018e0:	0003      	movs	r3, r0
 80018e2:	7023      	strb	r3, [r4, #0]
		if (len >= RF_HEADER_SIZE) {  // En az baslik kadar veri = gecerli paket
 80018e4:	0029      	movs	r1, r5
 80018e6:	187b      	adds	r3, r7, r1
 80018e8:	781b      	ldrb	r3, [r3, #0]
 80018ea:	2b02      	cmp	r3, #2
 80018ec:	d927      	bls.n	800193e <RF_WaitForPacket+0x8e>
			*type = rf_rx_buf[0];                                  // Paket tipi
 80018ee:	4b1b      	ldr	r3, [pc, #108]	@ (800195c <RF_WaitForPacket+0xac>)
 80018f0:	781a      	ldrb	r2, [r3, #0]
 80018f2:	68fb      	ldr	r3, [r7, #12]
 80018f4:	701a      	strb	r2, [r3, #0]
			*seq = ((uint16_t) rf_rx_buf[1] << 8) | rf_rx_buf[2]; // Sequence number
 80018f6:	4b19      	ldr	r3, [pc, #100]	@ (800195c <RF_WaitForPacket+0xac>)
 80018f8:	785b      	ldrb	r3, [r3, #1]
 80018fa:	b21b      	sxth	r3, r3
 80018fc:	021b      	lsls	r3, r3, #8
 80018fe:	b21a      	sxth	r2, r3
 8001900:	4b16      	ldr	r3, [pc, #88]	@ (800195c <RF_WaitForPacket+0xac>)
 8001902:	789b      	ldrb	r3, [r3, #2]
 8001904:	b21b      	sxth	r3, r3
 8001906:	4313      	orrs	r3, r2
 8001908:	b21b      	sxth	r3, r3
 800190a:	b29a      	uxth	r2, r3
 800190c:	68bb      	ldr	r3, [r7, #8]
 800190e:	801a      	strh	r2, [r3, #0]
			*payload_len = len - RF_HEADER_SIZE;             // Payload uzunlugu
 8001910:	187b      	adds	r3, r7, r1
 8001912:	781b      	ldrb	r3, [r3, #0]
 8001914:	3b03      	subs	r3, #3
 8001916:	b2da      	uxtb	r2, r3
 8001918:	683b      	ldr	r3, [r7, #0]
 800191a:	701a      	strb	r2, [r3, #0]

			if (*payload_len > 0 && payload) {
 800191c:	683b      	ldr	r3, [r7, #0]
 800191e:	781b      	ldrb	r3, [r3, #0]
 8001920:	2b00      	cmp	r3, #0
 8001922:	d00a      	beq.n	800193a <RF_WaitForPacket+0x8a>
 8001924:	687b      	ldr	r3, [r7, #4]
 8001926:	2b00      	cmp	r3, #0
 8001928:	d007      	beq.n	800193a <RF_WaitForPacket+0x8a>
				memcpy(payload, &rf_rx_buf[3], *payload_len);
 800192a:	683b      	ldr	r3, [r7, #0]
 800192c:	781b      	ldrb	r3, [r3, #0]
 800192e:	001a      	movs	r2, r3
 8001930:	490b      	ldr	r1, [pc, #44]	@ (8001960 <RF_WaitForPacket+0xb0>)
 8001932:	687b      	ldr	r3, [r7, #4]
 8001934:	0018      	movs	r0, r3
 8001936:	f005 fa03 	bl	8006d40 <memcpy>
			}

			return 1; // Basarili
 800193a:	2301      	movs	r3, #1
 800193c:	e008      	b.n	8001950 <RF_WaitForPacket+0xa0>
	while ((HAL_GetTick() - start) < timeout_ms) {
 800193e:	f002 f997 	bl	8003c70 <HAL_GetTick>
 8001942:	0002      	movs	r2, r0
 8001944:	697b      	ldr	r3, [r7, #20]
 8001946:	1ad3      	subs	r3, r2, r3
 8001948:	6aba      	ldr	r2, [r7, #40]	@ 0x28
 800194a:	429a      	cmp	r2, r3
 800194c:	d8be      	bhi.n	80018cc <RF_WaitForPacket+0x1c>
		}
	}

	return 0; // Zaman asimi — paket gelmedi
 800194e:	2300      	movs	r3, #0
}
 8001950:	0018      	movs	r0, r3
 8001952:	46bd      	mov	sp, r7
 8001954:	b006      	add	sp, #24
 8001956:	bdb0      	pop	{r4, r5, r7, pc}
 8001958:	20000158 	.word	0x20000158
 800195c:	20000118 	.word	0x20000118
 8001960:	2000011b 	.word	0x2000011b

08001964 <Calculate_CRC32>:
 * CRC-32/ISO-HDLC algoritması (polinom 0xEDB88320, reversed).
 * zlib ve Python'un zlib.crc32() ile ayni sonucu verir.
 * Bu fonksiyon firmware paketinin sifrelenmis bolumunu dogrulamak icin
 * kullanilir (her 128 byte sifrelenmis veri geldiginde).
 */
uint32_t Calculate_CRC32(const uint8_t *data, uint32_t length) {
 8001964:	b580      	push	{r7, lr}
 8001966:	b086      	sub	sp, #24
 8001968:	af00      	add	r7, sp, #0
 800196a:	6078      	str	r0, [r7, #4]
 800196c:	6039      	str	r1, [r7, #0]
  uint32_t crc = 0xFFFFFFFF; // Baslangiç degeri
 800196e:	2301      	movs	r3, #1
 8001970:	425b      	negs	r3, r3
 8001972:	617b      	str	r3, [r7, #20]

  for (uint32_t i = 0; i < length; i++) {
 8001974:	2300      	movs	r3, #0
 8001976:	613b      	str	r3, [r7, #16]
 8001978:	e020      	b.n	80019bc <Calculate_CRC32+0x58>
    crc ^= data[i]; // Byte XOR
 800197a:	687a      	ldr	r2, [r7, #4]
 800197c:	693b      	ldr	r3, [r7, #16]
 800197e:	18d3      	adds	r3, r2, r3
 8001980:	781b      	ldrb	r3, [r3, #0]
 8001982:	001a      	movs	r2, r3
 8001984:	697b      	ldr	r3, [r7, #20]
 8001986:	4053      	eors	r3, r2
 8001988:	617b      	str	r3, [r7, #20]

    /* 8 bit isleme (bit-by-bit) */
    for (int j = 0; j < 8; j++) {
 800198a:	2300      	movs	r3, #0
 800198c:	60fb      	str	r3, [r7, #12]
 800198e:	e00f      	b.n	80019b0 <Calculate_CRC32+0x4c>
      if (crc & 1) {
 8001990:	697b      	ldr	r3, [r7, #20]
 8001992:	2201      	movs	r2, #1
 8001994:	4013      	ands	r3, r2
 8001996:	d005      	beq.n	80019a4 <Calculate_CRC32+0x40>
        crc = (crc >> 1) ^ 0xEDB88320; // CRC-32 polinom (reversed)
 8001998:	697b      	ldr	r3, [r7, #20]
 800199a:	085b      	lsrs	r3, r3, #1
 800199c:	4a0c      	ldr	r2, [pc, #48]	@ (80019d0 <Calculate_CRC32+0x6c>)
 800199e:	4053      	eors	r3, r2
 80019a0:	617b      	str	r3, [r7, #20]
 80019a2:	e002      	b.n	80019aa <Calculate_CRC32+0x46>
      } else {
        crc >>= 1;
 80019a4:	697b      	ldr	r3, [r7, #20]
 80019a6:	085b      	lsrs	r3, r3, #1
 80019a8:	617b      	str	r3, [r7, #20]
    for (int j = 0; j < 8; j++) {
 80019aa:	68fb      	ldr	r3, [r7, #12]
 80019ac:	3301      	adds	r3, #1
 80019ae:	60fb      	str	r3, [r7, #12]
 80019b0:	68fb      	ldr	r3, [r7, #12]
 80019b2:	2b07      	cmp	r3, #7
 80019b4:	ddec      	ble.n	8001990 <Calculate_CRC32+0x2c>
  for (uint32_t i = 0; i < length; i++) {
 80019b6:	693b      	ldr	r3, [r7, #16]
 80019b8:	3301      	adds	r3, #1
 80019ba:	613b      	str	r3, [r7, #16]
 80019bc:	693a      	ldr	r2, [r7, #16]
 80019be:	683b      	ldr	r3, [r7, #0]
 80019c0:	429a      	cmp	r2, r3
 80019c2:	d3da      	bcc.n	800197a <Calculate_CRC32+0x16>
      }
    }
  }

  return crc ^ 0xFFFFFFFF; // Final XOR
 80019c4:	697b      	ldr	r3, [r7, #20]
 80019c6:	43db      	mvns	r3, r3
}
 80019c8:	0018      	movs	r0, r3
 80019ca:	46bd      	mov	sp, r7
 80019cc:	b006      	add	sp, #24
 80019ce:	bd80      	pop	{r7, pc}
 80019d0:	edb88320 	.word	0xedb88320

080019d4 <Calculate_Flash_CRC32>:
 * her 4096 byte'ta bir HAL_IWDG_Refresh cagirilir.
 *
 * Kullanim: Tum transfer bittikten sonra Flash CRC'si metadata
 *           firmware_crc32 ile karsilastirilir.
 */
uint32_t Calculate_Flash_CRC32(uint32_t start_addr, uint32_t length) {
 80019d4:	b580      	push	{r7, lr}
 80019d6:	b086      	sub	sp, #24
 80019d8:	af00      	add	r7, sp, #0
 80019da:	6078      	str	r0, [r7, #4]
 80019dc:	6039      	str	r1, [r7, #0]
  uint32_t crc = 0xFFFFFFFF;
 80019de:	2301      	movs	r3, #1
 80019e0:	425b      	negs	r3, r3
 80019e2:	617b      	str	r3, [r7, #20]
  uint8_t *ptr = (uint8_t *)start_addr; // Flash dogrudan pointer ile okunabilir
 80019e4:	687b      	ldr	r3, [r7, #4]
 80019e6:	60bb      	str	r3, [r7, #8]

  for (uint32_t i = 0; i < length; i++) {
 80019e8:	2300      	movs	r3, #0
 80019ea:	613b      	str	r3, [r7, #16]
 80019ec:	e028      	b.n	8001a40 <Calculate_Flash_CRC32+0x6c>
    crc ^= ptr[i];
 80019ee:	68ba      	ldr	r2, [r7, #8]
 80019f0:	693b      	ldr	r3, [r7, #16]
 80019f2:	18d3      	adds	r3, r2, r3
 80019f4:	781b      	ldrb	r3, [r3, #0]
 80019f6:	001a      	movs	r2, r3
 80019f8:	697b      	ldr	r3, [r7, #20]
 80019fa:	4053      	eors	r3, r2
 80019fc:	617b      	str	r3, [r7, #20]
    for (int j = 0; j < 8; j++) {
 80019fe:	2300      	movs	r3, #0
 8001a00:	60fb      	str	r3, [r7, #12]
 8001a02:	e00f      	b.n	8001a24 <Calculate_Flash_CRC32+0x50>
      if (crc & 1) {
 8001a04:	697b      	ldr	r3, [r7, #20]
 8001a06:	2201      	movs	r2, #1
 8001a08:	4013      	ands	r3, r2
 8001a0a:	d005      	beq.n	8001a18 <Calculate_Flash_CRC32+0x44>
        crc = (crc >> 1) ^ 0xEDB88320;
 8001a0c:	697b      	ldr	r3, [r7, #20]
 8001a0e:	085b      	lsrs	r3, r3, #1
 8001a10:	4a10      	ldr	r2, [pc, #64]	@ (8001a54 <Calculate_Flash_CRC32+0x80>)
 8001a12:	4053      	eors	r3, r2
 8001a14:	617b      	str	r3, [r7, #20]
 8001a16:	e002      	b.n	8001a1e <Calculate_Flash_CRC32+0x4a>
      } else {
        crc >>= 1;
 8001a18:	697b      	ldr	r3, [r7, #20]
 8001a1a:	085b      	lsrs	r3, r3, #1
 8001a1c:	617b      	str	r3, [r7, #20]
    for (int j = 0; j < 8; j++) {
 8001a1e:	68fb      	ldr	r3, [r7, #12]
 8001a20:	3301      	adds	r3, #1
 8001a22:	60fb      	str	r3, [r7, #12]
 8001a24:	68fb      	ldr	r3, [r7, #12]
 8001a26:	2b07      	cmp	r3, #7
 8001a28:	ddec      	ble.n	8001a04 <Calculate_Flash_CRC32+0x30>
      }
    }

    /* Her 4096 byte'ta watchdog sifirla — CRC uzun sure alabilir */
    if (i % 4096 == 0) {
 8001a2a:	693b      	ldr	r3, [r7, #16]
 8001a2c:	051b      	lsls	r3, r3, #20
 8001a2e:	0d1b      	lsrs	r3, r3, #20
 8001a30:	d103      	bne.n	8001a3a <Calculate_Flash_CRC32+0x66>
      HAL_IWDG_Refresh(&hiwdg);
 8001a32:	4b09      	ldr	r3, [pc, #36]	@ (8001a58 <Calculate_Flash_CRC32+0x84>)
 8001a34:	0018      	movs	r0, r3
 8001a36:	f002 fe4b 	bl	80046d0 <HAL_IWDG_Refresh>
  for (uint32_t i = 0; i < length; i++) {
 8001a3a:	693b      	ldr	r3, [r7, #16]
 8001a3c:	3301      	adds	r3, #1
 8001a3e:	613b      	str	r3, [r7, #16]
 8001a40:	693a      	ldr	r2, [r7, #16]
 8001a42:	683b      	ldr	r3, [r7, #0]
 8001a44:	429a      	cmp	r2, r3
 8001a46:	d3d2      	bcc.n	80019ee <Calculate_Flash_CRC32+0x1a>
    }
  }

  return crc ^ 0xFFFFFFFF;
 8001a48:	697b      	ldr	r3, [r7, #20]
 8001a4a:	43db      	mvns	r3, r3
}
 8001a4c:	0018      	movs	r0, r3
 8001a4e:	46bd      	mov	sp, r7
 8001a50:	b006      	add	sp, #24
 8001a52:	bd80      	pop	{r7, pc}
 8001a54:	edb88320 	.word	0xedb88320
 8001a58:	20000158 	.word	0x20000158

08001a5c <check_boot_flag>:
 * check_boot_flag — Boot flag sayfasini kontrol et
 *
 * BOOT_FLAG_ADDRESS'de MAGIC + REQUEST varsa 1 don.
 * main.c bu fonksiyon ile uygulama mı, bootloader mı calısacak karar verir.
 */
uint8_t check_boot_flag(void) {
 8001a5c:	b580      	push	{r7, lr}
 8001a5e:	b082      	sub	sp, #8
 8001a60:	af00      	add	r7, sp, #0
  volatile uint32_t *ptr = (volatile uint32_t *)BOOT_FLAG_ADDRESS;
 8001a62:	4b09      	ldr	r3, [pc, #36]	@ (8001a88 <check_boot_flag+0x2c>)
 8001a64:	607b      	str	r3, [r7, #4]
  if (ptr[0] == BOOT_FLAG_MAGIC && ptr[1] == BOOT_FLAG_REQUEST) {
 8001a66:	687b      	ldr	r3, [r7, #4]
 8001a68:	681b      	ldr	r3, [r3, #0]
 8001a6a:	4a08      	ldr	r2, [pc, #32]	@ (8001a8c <check_boot_flag+0x30>)
 8001a6c:	4293      	cmp	r3, r2
 8001a6e:	d106      	bne.n	8001a7e <check_boot_flag+0x22>
 8001a70:	687b      	ldr	r3, [r7, #4]
 8001a72:	3304      	adds	r3, #4
 8001a74:	681b      	ldr	r3, [r3, #0]
 8001a76:	2b01      	cmp	r3, #1
 8001a78:	d101      	bne.n	8001a7e <check_boot_flag+0x22>
    return 1; // Boot flag set — bootloader moduna gec
 8001a7a:	2301      	movs	r3, #1
 8001a7c:	e000      	b.n	8001a80 <check_boot_flag+0x24>
  }
  return 0; // Flag yok — normal boot
 8001a7e:	2300      	movs	r3, #0
}
 8001a80:	0018      	movs	r0, r3
 8001a82:	46bd      	mov	sp, r7
 8001a84:	b002      	add	sp, #8
 8001a86:	bd80      	pop	{r7, pc}
 8001a88:	0803f800 	.word	0x0803f800
 8001a8c:	b007b007 	.word	0xb007b007

08001a90 <clear_boot_flag>:
 *
 * Flash silme sonrası sayfa 0xFF ile dolu olur.
 * check_boot_flag 0xFF != MAGIC sartini saglamayacagindan flag temizlenmis sayilir.
 * Basarili guncellemenin sonunda cagrilir.
 */
void clear_boot_flag(void) {
 8001a90:	b580      	push	{r7, lr}
 8001a92:	b084      	sub	sp, #16
 8001a94:	af00      	add	r7, sp, #0
  HAL_FLASH_Unlock();
 8001a96:	f002 fa8d 	bl	8003fb4 <HAL_FLASH_Unlock>

  FLASH_EraseInitTypeDef erase;
  erase.TypeErase = FLASH_TYPEERASE_PAGES;
 8001a9a:	1d3b      	adds	r3, r7, #4
 8001a9c:	2200      	movs	r2, #0
 8001a9e:	601a      	str	r2, [r3, #0]
  erase.PageAddress = BOOT_FLAG_ADDRESS;
 8001aa0:	1d3b      	adds	r3, r7, #4
 8001aa2:	4a08      	ldr	r2, [pc, #32]	@ (8001ac4 <clear_boot_flag+0x34>)
 8001aa4:	605a      	str	r2, [r3, #4]
  erase.NbPages = 1;
 8001aa6:	1d3b      	adds	r3, r7, #4
 8001aa8:	2201      	movs	r2, #1
 8001aaa:	609a      	str	r2, [r3, #8]
  uint32_t error;
  HAL_FLASHEx_Erase(&erase, &error); // Sayfayi sil — 0xFF ile dolar
 8001aac:	003a      	movs	r2, r7
 8001aae:	1d3b      	adds	r3, r7, #4
 8001ab0:	0011      	movs	r1, r2
 8001ab2:	0018      	movs	r0, r3
 8001ab4:	f002 fb3e 	bl	8004134 <HAL_FLASHEx_Erase>

  HAL_FLASH_Lock();
 8001ab8:	f002 faa2 	bl	8004000 <HAL_FLASH_Lock>
}
 8001abc:	46c0      	nop			@ (mov r8, r8)
 8001abe:	46bd      	mov	sp, r7
 8001ac0:	b004      	add	sp, #16
 8001ac2:	bd80      	pop	{r7, pc}
 8001ac4:	0803f800 	.word	0x0803f800

08001ac8 <Flash_Erase_Page>:
 *
 * page_addr: silinecek sayfanin baslangic adresi (2KB hizali olmali)
 *
 * Kullanim yeri: boot_flow.c — Data chunk yazma dongusu
 */
void Flash_Erase_Page(uint32_t page_addr) {
 8001ac8:	b580      	push	{r7, lr}
 8001aca:	b086      	sub	sp, #24
 8001acc:	af00      	add	r7, sp, #0
 8001ace:	6078      	str	r0, [r7, #4]
  HAL_FLASH_Unlock();
 8001ad0:	f002 fa70 	bl	8003fb4 <HAL_FLASH_Unlock>

  FLASH_EraseInitTypeDef erase;
  erase.TypeErase   = FLASH_TYPEERASE_PAGES;
 8001ad4:	210c      	movs	r1, #12
 8001ad6:	187b      	adds	r3, r7, r1
 8001ad8:	2200      	movs	r2, #0
 8001ada:	601a      	str	r2, [r3, #0]
  erase.PageAddress = page_addr;
 8001adc:	187b      	adds	r3, r7, r1
 8001ade:	687a      	ldr	r2, [r7, #4]
 8001ae0:	605a      	str	r2, [r3, #4]
  erase.NbPages     = 1;
 8001ae2:	187b      	adds	r3, r7, r1
 8001ae4:	2201      	movs	r2, #1
 8001ae6:	609a      	str	r2, [r3, #8]

  uint32_t error;
  HAL_FLASHEx_Erase(&erase, &error);
 8001ae8:	2308      	movs	r3, #8
 8001aea:	18fa      	adds	r2, r7, r3
 8001aec:	187b      	adds	r3, r7, r1
 8001aee:	0011      	movs	r1, r2
 8001af0:	0018      	movs	r0, r3
 8001af2:	f002 fb1f 	bl	8004134 <HAL_FLASHEx_Erase>
  HAL_IWDG_Refresh(&hiwdg); // Sayfa silme sirasinda watchdog sifirla
 8001af6:	4b05      	ldr	r3, [pc, #20]	@ (8001b0c <Flash_Erase_Page+0x44>)
 8001af8:	0018      	movs	r0, r3
 8001afa:	f002 fde9 	bl	80046d0 <HAL_IWDG_Refresh>

  HAL_FLASH_Lock();
 8001afe:	f002 fa7f 	bl	8004000 <HAL_FLASH_Lock>
}
 8001b02:	46c0      	nop			@ (mov r8, r8)
 8001b04:	46bd      	mov	sp, r7
 8001b06:	b006      	add	sp, #24
 8001b08:	bd80      	pop	{r7, pc}
 8001b0a:	46c0      	nop			@ (mov r8, r8)
 8001b0c:	20000158 	.word	0x20000158

08001b10 <Resume_Init>:
 * DIKKAT: Bu fonksiyon yalnizca ONCE cagrilmali (resume state yokken).
 *         Resume state zaten varsa (RESUME_MAGIC yaziliysa) cagirma.
 *
 * total_packets: metadata'dan gelen toplam 128-byte paket sayisi
 */
void Resume_Init(uint32_t total_packets) {
 8001b10:	b5b0      	push	{r4, r5, r7, lr}
 8001b12:	b084      	sub	sp, #16
 8001b14:	af00      	add	r7, sp, #0
 8001b16:	60f8      	str	r0, [r7, #12]
  HAL_FLASH_Unlock();
 8001b18:	f002 fa4c 	bl	8003fb4 <HAL_FLASH_Unlock>

  /* RESUME_MAGIC yaz (offset +12): resume durumu artik gecerli */
  HAL_FLASH_Program(FLASH_TYPEPROGRAM_HALFWORD, RESUME_STATE_ADDRESS,
 8001b1c:	4a14      	ldr	r2, [pc, #80]	@ (8001b70 <Resume_Init+0x60>)
 8001b1e:	2300      	movs	r3, #0
 8001b20:	4914      	ldr	r1, [pc, #80]	@ (8001b74 <Resume_Init+0x64>)
 8001b22:	2001      	movs	r0, #1
 8001b24:	f002 f9b0 	bl	8003e88 <HAL_FLASH_Program>
                    (uint16_t)(RESUME_MAGIC & 0xFFFF));
  HAL_FLASH_Program(FLASH_TYPEPROGRAM_HALFWORD, RESUME_STATE_ADDRESS + 2,
 8001b28:	4a13      	ldr	r2, [pc, #76]	@ (8001b78 <Resume_Init+0x68>)
 8001b2a:	2300      	movs	r3, #0
 8001b2c:	4913      	ldr	r1, [pc, #76]	@ (8001b7c <Resume_Init+0x6c>)
 8001b2e:	2001      	movs	r0, #1
 8001b30:	f002 f9aa 	bl	8003e88 <HAL_FLASH_Program>
                    (uint16_t)((RESUME_MAGIC >> 16) & 0xFFFF));

  /* Toplam paket sayisini yaz (offset +16) */
  HAL_FLASH_Program(FLASH_TYPEPROGRAM_HALFWORD, RESUME_TOTAL_OFFSET,
                    (uint16_t)(total_packets & 0xFFFF));
 8001b34:	68fb      	ldr	r3, [r7, #12]
 8001b36:	b29b      	uxth	r3, r3
  HAL_FLASH_Program(FLASH_TYPEPROGRAM_HALFWORD, RESUME_TOTAL_OFFSET,
 8001b38:	603b      	str	r3, [r7, #0]
 8001b3a:	2300      	movs	r3, #0
 8001b3c:	607b      	str	r3, [r7, #4]
 8001b3e:	4910      	ldr	r1, [pc, #64]	@ (8001b80 <Resume_Init+0x70>)
 8001b40:	683a      	ldr	r2, [r7, #0]
 8001b42:	687b      	ldr	r3, [r7, #4]
 8001b44:	2001      	movs	r0, #1
 8001b46:	f002 f99f 	bl	8003e88 <HAL_FLASH_Program>
  HAL_FLASH_Program(FLASH_TYPEPROGRAM_HALFWORD, RESUME_TOTAL_OFFSET + 2,
                    (uint16_t)((total_packets >> 16) & 0xFFFF));
 8001b4a:	68fb      	ldr	r3, [r7, #12]
 8001b4c:	0c1b      	lsrs	r3, r3, #16
 8001b4e:	b29b      	uxth	r3, r3
  HAL_FLASH_Program(FLASH_TYPEPROGRAM_HALFWORD, RESUME_TOTAL_OFFSET + 2,
 8001b50:	001c      	movs	r4, r3
 8001b52:	2300      	movs	r3, #0
 8001b54:	001d      	movs	r5, r3
 8001b56:	490b      	ldr	r1, [pc, #44]	@ (8001b84 <Resume_Init+0x74>)
 8001b58:	0022      	movs	r2, r4
 8001b5a:	002b      	movs	r3, r5
 8001b5c:	2001      	movs	r0, #1
 8001b5e:	f002 f993 	bl	8003e88 <HAL_FLASH_Program>

  HAL_FLASH_Lock();
 8001b62:	f002 fa4d 	bl	8004000 <HAL_FLASH_Lock>
}
 8001b66:	46c0      	nop			@ (mov r8, r8)
 8001b68:	46bd      	mov	sp, r7
 8001b6a:	b004      	add	sp, #16
 8001b6c:	bdb0      	pop	{r4, r5, r7, pc}
 8001b6e:	46c0      	nop			@ (mov r8, r8)
 8001b70:	00005678 	.word	0x00005678
 8001b74:	0803f80c 	.word	0x0803f80c
 8001b78:	00001234 	.word	0x00001234
 8001b7c:	0803f80e 	.word	0x0803f80e
 8001b80:	0803f810 	.word	0x0803f810
 8001b84:	0803f812 	.word	0x0803f812

08001b88 <Resume_SavePageDone>:
 *
 * Cagri zamani: Her 16 paket (1 Flash sayfasi = 2KB) tamamlaninca.
 *
 * page_idx: 0..110 (APP_PAGES - 1)
 */
void Resume_SavePageDone(uint32_t page_idx) {
 8001b88:	b580      	push	{r7, lr}
 8001b8a:	b084      	sub	sp, #16
 8001b8c:	af00      	add	r7, sp, #0
 8001b8e:	6078      	str	r0, [r7, #4]
  uint32_t addr = RESUME_PAGE_MAP_ADDRESS + (page_idx * 2); // Her giris 2 byte (halfword)
 8001b90:	687b      	ldr	r3, [r7, #4]
 8001b92:	4a09      	ldr	r2, [pc, #36]	@ (8001bb8 <Resume_SavePageDone+0x30>)
 8001b94:	4694      	mov	ip, r2
 8001b96:	4463      	add	r3, ip
 8001b98:	005b      	lsls	r3, r3, #1
 8001b9a:	60fb      	str	r3, [r7, #12]
  HAL_FLASH_Unlock();
 8001b9c:	f002 fa0a 	bl	8003fb4 <HAL_FLASH_Unlock>
  HAL_FLASH_Program(FLASH_TYPEPROGRAM_HALFWORD, addr, 0x0000); // 0xFFFF → 0x0000
 8001ba0:	68f9      	ldr	r1, [r7, #12]
 8001ba2:	2200      	movs	r2, #0
 8001ba4:	2300      	movs	r3, #0
 8001ba6:	2001      	movs	r0, #1
 8001ba8:	f002 f96e 	bl	8003e88 <HAL_FLASH_Program>
  HAL_FLASH_Lock();
 8001bac:	f002 fa28 	bl	8004000 <HAL_FLASH_Lock>
}
 8001bb0:	46c0      	nop			@ (mov r8, r8)
 8001bb2:	46bd      	mov	sp, r7
 8001bb4:	b004      	add	sp, #16
 8001bb6:	bd80      	pop	{r7, pc}
 8001bb8:	0401fc0a 	.word	0x0401fc0a

08001bbc <Resume_GetStartPacket>:
 * Donus: resume_start_packet = pages_done * PACKETS_PER_PAGE
 *        Resume state yoksa (RESUME_MAGIC eslesmiyor) → 0 doner
 *
 * Ornek: sayfa 0, 1, 2 bitti (0x0000) → 3. sayfa bitmemis → 3*16=48 doner
 */
uint32_t Resume_GetStartPacket(void) {
 8001bbc:	b580      	push	{r7, lr}
 8001bbe:	b084      	sub	sp, #16
 8001bc0:	af00      	add	r7, sp, #0
  volatile uint32_t *magic_ptr = (volatile uint32_t *)RESUME_STATE_ADDRESS;
 8001bc2:	4b14      	ldr	r3, [pc, #80]	@ (8001c14 <Resume_GetStartPacket+0x58>)
 8001bc4:	607b      	str	r3, [r7, #4]

  /* Resume state gecerli mi? */
  if (magic_ptr[0] != RESUME_MAGIC) {
 8001bc6:	687b      	ldr	r3, [r7, #4]
 8001bc8:	681b      	ldr	r3, [r3, #0]
 8001bca:	4a13      	ldr	r2, [pc, #76]	@ (8001c18 <Resume_GetStartPacket+0x5c>)
 8001bcc:	4293      	cmp	r3, r2
 8001bce:	d001      	beq.n	8001bd4 <Resume_GetStartPacket+0x18>
    return 0; // Ilk kez baslatiliyor — bastan basla
 8001bd0:	2300      	movs	r3, #0
 8001bd2:	e01b      	b.n	8001c0c <Resume_GetStartPacket+0x50>
  }

  /* Bitmap'te basa gore kac sayfa tamamlandi? */
  uint32_t pages_done = 0;
 8001bd4:	2300      	movs	r3, #0
 8001bd6:	60fb      	str	r3, [r7, #12]
  volatile uint16_t *bitmap = (volatile uint16_t *)RESUME_PAGE_MAP_ADDRESS;
 8001bd8:	4b10      	ldr	r3, [pc, #64]	@ (8001c1c <Resume_GetStartPacket+0x60>)
 8001bda:	603b      	str	r3, [r7, #0]

  for (uint32_t i = 0; i < APP_PAGES; i++) {
 8001bdc:	2300      	movs	r3, #0
 8001bde:	60bb      	str	r3, [r7, #8]
 8001be0:	e00d      	b.n	8001bfe <Resume_GetStartPacket+0x42>
    if (bitmap[i] == 0x0000) {
 8001be2:	68bb      	ldr	r3, [r7, #8]
 8001be4:	005b      	lsls	r3, r3, #1
 8001be6:	683a      	ldr	r2, [r7, #0]
 8001be8:	18d3      	adds	r3, r2, r3
 8001bea:	881b      	ldrh	r3, [r3, #0]
 8001bec:	b29b      	uxth	r3, r3
 8001bee:	2b00      	cmp	r3, #0
 8001bf0:	d109      	bne.n	8001c06 <Resume_GetStartPacket+0x4a>
      pages_done++; // Bu sayfa tamam
 8001bf2:	68fb      	ldr	r3, [r7, #12]
 8001bf4:	3301      	adds	r3, #1
 8001bf6:	60fb      	str	r3, [r7, #12]
  for (uint32_t i = 0; i < APP_PAGES; i++) {
 8001bf8:	68bb      	ldr	r3, [r7, #8]
 8001bfa:	3301      	adds	r3, #1
 8001bfc:	60bb      	str	r3, [r7, #8]
 8001bfe:	68bb      	ldr	r3, [r7, #8]
 8001c00:	2b6e      	cmp	r3, #110	@ 0x6e
 8001c02:	d9ee      	bls.n	8001be2 <Resume_GetStartPacket+0x26>
 8001c04:	e000      	b.n	8001c08 <Resume_GetStartPacket+0x4c>
    } else {
      break; // Ilk eksik sayfa = resume noktasi
 8001c06:	46c0      	nop			@ (mov r8, r8)
    }
  }

  return pages_done * PACKETS_PER_PAGE; // Paket numarasina cevir
 8001c08:	68fb      	ldr	r3, [r7, #12]
 8001c0a:	011b      	lsls	r3, r3, #4
}
 8001c0c:	0018      	movs	r0, r3
 8001c0e:	46bd      	mov	sp, r7
 8001c10:	b004      	add	sp, #16
 8001c12:	bd80      	pop	{r7, pc}
 8001c14:	0803f80c 	.word	0x0803f80c
 8001c18:	12345678 	.word	0x12345678
 8001c1c:	0803f814 	.word	0x0803f814

08001c20 <Flash_Write_Data>:
 *
 * addr: yazma baslangic adresi (cift olmali)
 * data: yazilacak veri
 * len : byte sayisi
 */
void Flash_Write_Data(uint32_t addr, const uint8_t *data, uint32_t len) {
 8001c20:	b5b0      	push	{r4, r5, r7, lr}
 8001c22:	b086      	sub	sp, #24
 8001c24:	af00      	add	r7, sp, #0
 8001c26:	60f8      	str	r0, [r7, #12]
 8001c28:	60b9      	str	r1, [r7, #8]
 8001c2a:	607a      	str	r2, [r7, #4]
  HAL_FLASH_Unlock();
 8001c2c:	f002 f9c2 	bl	8003fb4 <HAL_FLASH_Unlock>

  for (uint32_t i = 0; i < len; i += 2) {
 8001c30:	2300      	movs	r3, #0
 8001c32:	617b      	str	r3, [r7, #20]
 8001c34:	e034      	b.n	8001ca0 <Flash_Write_Data+0x80>
    uint16_t half_word;

    if (i + 1 < len) {
 8001c36:	697b      	ldr	r3, [r7, #20]
 8001c38:	3301      	adds	r3, #1
 8001c3a:	687a      	ldr	r2, [r7, #4]
 8001c3c:	429a      	cmp	r2, r3
 8001c3e:	d912      	bls.n	8001c66 <Flash_Write_Data+0x46>
      /* Normal: iki byte birlesik (little-endian) */
      half_word = (uint16_t)data[i] | ((uint16_t)data[i + 1] << 8);
 8001c40:	68ba      	ldr	r2, [r7, #8]
 8001c42:	697b      	ldr	r3, [r7, #20]
 8001c44:	18d3      	adds	r3, r2, r3
 8001c46:	781b      	ldrb	r3, [r3, #0]
 8001c48:	b21a      	sxth	r2, r3
 8001c4a:	697b      	ldr	r3, [r7, #20]
 8001c4c:	3301      	adds	r3, #1
 8001c4e:	68b9      	ldr	r1, [r7, #8]
 8001c50:	18cb      	adds	r3, r1, r3
 8001c52:	781b      	ldrb	r3, [r3, #0]
 8001c54:	b21b      	sxth	r3, r3
 8001c56:	021b      	lsls	r3, r3, #8
 8001c58:	b21b      	sxth	r3, r3
 8001c5a:	4313      	orrs	r3, r2
 8001c5c:	b21a      	sxth	r2, r3
 8001c5e:	2312      	movs	r3, #18
 8001c60:	18fb      	adds	r3, r7, r3
 8001c62:	801a      	strh	r2, [r3, #0]
 8001c64:	e00a      	b.n	8001c7c <Flash_Write_Data+0x5c>
    } else {
      /* Son tek byte: yuksek byte 0xFF ile doldur */
      half_word = (uint16_t)data[i] | 0xFF00;
 8001c66:	68ba      	ldr	r2, [r7, #8]
 8001c68:	697b      	ldr	r3, [r7, #20]
 8001c6a:	18d3      	adds	r3, r2, r3
 8001c6c:	781b      	ldrb	r3, [r3, #0]
 8001c6e:	b21b      	sxth	r3, r3
 8001c70:	4a10      	ldr	r2, [pc, #64]	@ (8001cb4 <Flash_Write_Data+0x94>)
 8001c72:	4313      	orrs	r3, r2
 8001c74:	b21a      	sxth	r2, r3
 8001c76:	2312      	movs	r3, #18
 8001c78:	18fb      	adds	r3, r7, r3
 8001c7a:	801a      	strh	r2, [r3, #0]
    }

    HAL_FLASH_Program(FLASH_TYPEPROGRAM_HALFWORD, addr + i, half_word);
 8001c7c:	68fa      	ldr	r2, [r7, #12]
 8001c7e:	697b      	ldr	r3, [r7, #20]
 8001c80:	18d1      	adds	r1, r2, r3
 8001c82:	2312      	movs	r3, #18
 8001c84:	18fb      	adds	r3, r7, r3
 8001c86:	881b      	ldrh	r3, [r3, #0]
 8001c88:	b29b      	uxth	r3, r3
 8001c8a:	001c      	movs	r4, r3
 8001c8c:	2300      	movs	r3, #0
 8001c8e:	001d      	movs	r5, r3
 8001c90:	0022      	movs	r2, r4
 8001c92:	002b      	movs	r3, r5
 8001c94:	2001      	movs	r0, #1
 8001c96:	f002 f8f7 	bl	8003e88 <HAL_FLASH_Program>
  for (uint32_t i = 0; i < len; i += 2) {
 8001c9a:	697b      	ldr	r3, [r7, #20]
 8001c9c:	3302      	adds	r3, #2
 8001c9e:	617b      	str	r3, [r7, #20]
 8001ca0:	697a      	ldr	r2, [r7, #20]
 8001ca2:	687b      	ldr	r3, [r7, #4]
 8001ca4:	429a      	cmp	r2, r3
 8001ca6:	d3c6      	bcc.n	8001c36 <Flash_Write_Data+0x16>
  }

  HAL_FLASH_Lock();
 8001ca8:	f002 f9aa 	bl	8004000 <HAL_FLASH_Lock>
}
 8001cac:	46c0      	nop			@ (mov r8, r8)
 8001cae:	46bd      	mov	sp, r7
 8001cb0:	b006      	add	sp, #24
 8001cb2:	bdb0      	pop	{r4, r5, r7, pc}
 8001cb4:	ffffff00 	.word	0xffffff00

08001cb8 <Flash_Verify_Data>:
 * Flash adresi dogrudan okunabilir (memory-mapped).
 * Yazma sonrasi her byte karsilastirilir.
 *
 * Donus: 1 = uyusuyor (basarili), 0 = fark var (hata)
 */
uint8_t Flash_Verify_Data(uint32_t addr, const uint8_t *data, uint32_t len) {
 8001cb8:	b580      	push	{r7, lr}
 8001cba:	b086      	sub	sp, #24
 8001cbc:	af00      	add	r7, sp, #0
 8001cbe:	60f8      	str	r0, [r7, #12]
 8001cc0:	60b9      	str	r1, [r7, #8]
 8001cc2:	607a      	str	r2, [r7, #4]
  uint8_t *flash_ptr = (uint8_t *)addr; // Flash dogrudan pointer ile okunur
 8001cc4:	68fb      	ldr	r3, [r7, #12]
 8001cc6:	613b      	str	r3, [r7, #16]

  for (uint32_t i = 0; i < len; i++) {
 8001cc8:	2300      	movs	r3, #0
 8001cca:	617b      	str	r3, [r7, #20]
 8001ccc:	e00e      	b.n	8001cec <Flash_Verify_Data+0x34>
    if (flash_ptr[i] != data[i]) {
 8001cce:	693a      	ldr	r2, [r7, #16]
 8001cd0:	697b      	ldr	r3, [r7, #20]
 8001cd2:	18d3      	adds	r3, r2, r3
 8001cd4:	781a      	ldrb	r2, [r3, #0]
 8001cd6:	68b9      	ldr	r1, [r7, #8]
 8001cd8:	697b      	ldr	r3, [r7, #20]
 8001cda:	18cb      	adds	r3, r1, r3
 8001cdc:	781b      	ldrb	r3, [r3, #0]
 8001cde:	429a      	cmp	r2, r3
 8001ce0:	d001      	beq.n	8001ce6 <Flash_Verify_Data+0x2e>
      return 0; // Fark bulundu — yazma basarisiz
 8001ce2:	2300      	movs	r3, #0
 8001ce4:	e007      	b.n	8001cf6 <Flash_Verify_Data+0x3e>
  for (uint32_t i = 0; i < len; i++) {
 8001ce6:	697b      	ldr	r3, [r7, #20]
 8001ce8:	3301      	adds	r3, #1
 8001cea:	617b      	str	r3, [r7, #20]
 8001cec:	697a      	ldr	r2, [r7, #20]
 8001cee:	687b      	ldr	r3, [r7, #4]
 8001cf0:	429a      	cmp	r2, r3
 8001cf2:	d3ec      	bcc.n	8001cce <Flash_Verify_Data+0x16>
    }
  }

  return 1; // Tum byte'lar eslesdi — basarili
 8001cf4:	2301      	movs	r3, #1
}
 8001cf6:	0018      	movs	r0, r3
 8001cf8:	46bd      	mov	sp, r7
 8001cfa:	b006      	add	sp, #24
 8001cfc:	bd80      	pop	{r7, pc}
	...

08001d00 <Flash_Write_Version>:
 *
 * Boot flag sayfasindaki VERSION_ADDRESS konumuna yazar.
 * Sayfa silinmemis olmali — clear_boot_flag() cagrilirsa versiyon silinir!
 * Bu yuzden Bootloader_Main'de clear_boot_flag ONCA cagrilir, SONRA versiyon yazilir.
 */
void Flash_Write_Version(uint32_t version) {
 8001d00:	b5b0      	push	{r4, r5, r7, lr}
 8001d02:	b084      	sub	sp, #16
 8001d04:	af00      	add	r7, sp, #0
 8001d06:	60f8      	str	r0, [r7, #12]
  HAL_FLASH_Unlock();
 8001d08:	f002 f954 	bl	8003fb4 <HAL_FLASH_Unlock>
  /* 32-bit degeri iki halfword yazmasi ile kaydet */
  HAL_FLASH_Program(FLASH_TYPEPROGRAM_HALFWORD, VERSION_ADDRESS,
                    (uint16_t)(version & 0xFFFF));
 8001d0c:	68fb      	ldr	r3, [r7, #12]
 8001d0e:	b29b      	uxth	r3, r3
  HAL_FLASH_Program(FLASH_TYPEPROGRAM_HALFWORD, VERSION_ADDRESS,
 8001d10:	603b      	str	r3, [r7, #0]
 8001d12:	2300      	movs	r3, #0
 8001d14:	607b      	str	r3, [r7, #4]
 8001d16:	490c      	ldr	r1, [pc, #48]	@ (8001d48 <Flash_Write_Version+0x48>)
 8001d18:	683a      	ldr	r2, [r7, #0]
 8001d1a:	687b      	ldr	r3, [r7, #4]
 8001d1c:	2001      	movs	r0, #1
 8001d1e:	f002 f8b3 	bl	8003e88 <HAL_FLASH_Program>
  HAL_FLASH_Program(FLASH_TYPEPROGRAM_HALFWORD, VERSION_ADDRESS + 2,
                    (uint16_t)((version >> 16) & 0xFFFF));
 8001d22:	68fb      	ldr	r3, [r7, #12]
 8001d24:	0c1b      	lsrs	r3, r3, #16
 8001d26:	b29b      	uxth	r3, r3
  HAL_FLASH_Program(FLASH_TYPEPROGRAM_HALFWORD, VERSION_ADDRESS + 2,
 8001d28:	001c      	movs	r4, r3
 8001d2a:	2300      	movs	r3, #0
 8001d2c:	001d      	movs	r5, r3
 8001d2e:	4907      	ldr	r1, [pc, #28]	@ (8001d4c <Flash_Write_Version+0x4c>)
 8001d30:	0022      	movs	r2, r4
 8001d32:	002b      	movs	r3, r5
 8001d34:	2001      	movs	r0, #1
 8001d36:	f002 f8a7 	bl	8003e88 <HAL_FLASH_Program>
  HAL_FLASH_Lock();
 8001d3a:	f002 f961 	bl	8004000 <HAL_FLASH_Lock>
}
 8001d3e:	46c0      	nop			@ (mov r8, r8)
 8001d40:	46bd      	mov	sp, r7
 8001d42:	b004      	add	sp, #16
 8001d44:	bdb0      	pop	{r4, r5, r7, pc}
 8001d46:	46c0      	nop			@ (mov r8, r8)
 8001d48:	0803f808 	.word	0x0803f808
 8001d4c:	0803f80a 	.word	0x0803f80a

08001d50 <keystore_crc8>:
 *   +36 [1B] : key_crc8 (32 byte key uzerinde basit CRC-8)
 * ========================================================================= */

/* Yerel yardimci: 8-bit CRC (polinom 0x07, SMBUS uyumlu) */
static uint8_t keystore_crc8(const uint8_t *data, uint32_t len)
{
 8001d50:	b580      	push	{r7, lr}
 8001d52:	b086      	sub	sp, #24
 8001d54:	af00      	add	r7, sp, #0
 8001d56:	6078      	str	r0, [r7, #4]
 8001d58:	6039      	str	r1, [r7, #0]
  uint8_t crc = 0xFF;
 8001d5a:	2317      	movs	r3, #23
 8001d5c:	18fb      	adds	r3, r7, r3
 8001d5e:	22ff      	movs	r2, #255	@ 0xff
 8001d60:	701a      	strb	r2, [r3, #0]
  uint32_t i;
  for (i = 0; i < len; i++) {
 8001d62:	2300      	movs	r3, #0
 8001d64:	613b      	str	r3, [r7, #16]
 8001d66:	e033      	b.n	8001dd0 <keystore_crc8+0x80>
    uint8_t j;
    crc ^= data[i];
 8001d68:	687a      	ldr	r2, [r7, #4]
 8001d6a:	693b      	ldr	r3, [r7, #16]
 8001d6c:	18d3      	adds	r3, r2, r3
 8001d6e:	7819      	ldrb	r1, [r3, #0]
 8001d70:	2217      	movs	r2, #23
 8001d72:	18bb      	adds	r3, r7, r2
 8001d74:	18ba      	adds	r2, r7, r2
 8001d76:	7812      	ldrb	r2, [r2, #0]
 8001d78:	404a      	eors	r2, r1
 8001d7a:	701a      	strb	r2, [r3, #0]
    for (j = 0; j < 8; j++) {
 8001d7c:	230f      	movs	r3, #15
 8001d7e:	18fb      	adds	r3, r7, r3
 8001d80:	2200      	movs	r2, #0
 8001d82:	701a      	strb	r2, [r3, #0]
 8001d84:	e01c      	b.n	8001dc0 <keystore_crc8+0x70>
      if (crc & 0x80)
 8001d86:	2117      	movs	r1, #23
 8001d88:	187b      	adds	r3, r7, r1
 8001d8a:	781b      	ldrb	r3, [r3, #0]
 8001d8c:	b25b      	sxtb	r3, r3
 8001d8e:	2b00      	cmp	r3, #0
 8001d90:	da0a      	bge.n	8001da8 <keystore_crc8+0x58>
        crc = (crc << 1) ^ 0x07;
 8001d92:	187b      	adds	r3, r7, r1
 8001d94:	781b      	ldrb	r3, [r3, #0]
 8001d96:	b25b      	sxtb	r3, r3
 8001d98:	18db      	adds	r3, r3, r3
 8001d9a:	b25b      	sxtb	r3, r3
 8001d9c:	2207      	movs	r2, #7
 8001d9e:	4053      	eors	r3, r2
 8001da0:	b25a      	sxtb	r2, r3
 8001da2:	187b      	adds	r3, r7, r1
 8001da4:	701a      	strb	r2, [r3, #0]
 8001da6:	e005      	b.n	8001db4 <keystore_crc8+0x64>
      else
        crc <<= 1;
 8001da8:	2317      	movs	r3, #23
 8001daa:	18fa      	adds	r2, r7, r3
 8001dac:	18fb      	adds	r3, r7, r3
 8001dae:	781b      	ldrb	r3, [r3, #0]
 8001db0:	18db      	adds	r3, r3, r3
 8001db2:	7013      	strb	r3, [r2, #0]
    for (j = 0; j < 8; j++) {
 8001db4:	210f      	movs	r1, #15
 8001db6:	187b      	adds	r3, r7, r1
 8001db8:	781a      	ldrb	r2, [r3, #0]
 8001dba:	187b      	adds	r3, r7, r1
 8001dbc:	3201      	adds	r2, #1
 8001dbe:	701a      	strb	r2, [r3, #0]
 8001dc0:	230f      	movs	r3, #15
 8001dc2:	18fb      	adds	r3, r7, r3
 8001dc4:	781b      	ldrb	r3, [r3, #0]
 8001dc6:	2b07      	cmp	r3, #7
 8001dc8:	d9dd      	bls.n	8001d86 <keystore_crc8+0x36>
  for (i = 0; i < len; i++) {
 8001dca:	693b      	ldr	r3, [r7, #16]
 8001dcc:	3301      	adds	r3, #1
 8001dce:	613b      	str	r3, [r7, #16]
 8001dd0:	693a      	ldr	r2, [r7, #16]
 8001dd2:	683b      	ldr	r3, [r7, #0]
 8001dd4:	429a      	cmp	r2, r3
 8001dd6:	d3c7      	bcc.n	8001d68 <keystore_crc8+0x18>
    }
  }
  return crc;
 8001dd8:	2317      	movs	r3, #23
 8001dda:	18fb      	adds	r3, r7, r3
 8001ddc:	781b      	ldrb	r3, [r3, #0]
}
 8001dde:	0018      	movs	r0, r3
 8001de0:	46bd      	mov	sp, r7
 8001de2:	b006      	add	sp, #24
 8001de4:	bd80      	pop	{r7, pc}
	...

08001de8 <KeyStore_Write>:
 *   2. KEY_STORE_MAGIC yaz (+0)
 *   3. 32 byte key yaz (+4)
 *   4. CRC-8 yaz (+36)
 */
void KeyStore_Write(const uint8_t *key)
{
 8001de8:	b5f0      	push	{r4, r5, r6, r7, lr}
 8001dea:	b091      	sub	sp, #68	@ 0x44
 8001dec:	af00      	add	r7, sp, #0
 8001dee:	61f8      	str	r0, [r7, #28]
  uint32_t addr = KEY_STORE_ADDRESS;
 8001df0:	4b44      	ldr	r3, [pc, #272]	@ (8001f04 <KeyStore_Write+0x11c>)
 8001df2:	63bb      	str	r3, [r7, #56]	@ 0x38
  uint32_t magic = KEY_STORE_MAGIC;
 8001df4:	4b44      	ldr	r3, [pc, #272]	@ (8001f08 <KeyStore_Write+0x120>)
 8001df6:	637b      	str	r3, [r7, #52]	@ 0x34
  uint8_t crc = keystore_crc8(key, 32);
 8001df8:	231b      	movs	r3, #27
 8001dfa:	2018      	movs	r0, #24
 8001dfc:	181b      	adds	r3, r3, r0
 8001dfe:	19de      	adds	r6, r3, r7
 8001e00:	69fb      	ldr	r3, [r7, #28]
 8001e02:	2120      	movs	r1, #32
 8001e04:	0018      	movs	r0, r3
 8001e06:	f7ff ffa3 	bl	8001d50 <keystore_crc8>
 8001e0a:	0003      	movs	r3, r0
 8001e0c:	7033      	strb	r3, [r6, #0]
  uint32_t i;

  HAL_FLASH_Unlock();
 8001e0e:	f002 f8d1 	bl	8003fb4 <HAL_FLASH_Unlock>

  /* Sayfa 15'i sil */
  FLASH_EraseInitTypeDef erase;
  erase.TypeErase   = FLASH_TYPEERASE_PAGES;
 8001e12:	210c      	movs	r1, #12
 8001e14:	2018      	movs	r0, #24
 8001e16:	180b      	adds	r3, r1, r0
 8001e18:	19db      	adds	r3, r3, r7
 8001e1a:	2200      	movs	r2, #0
 8001e1c:	601a      	str	r2, [r3, #0]
  erase.PageAddress = KEY_STORE_ADDRESS;
 8001e1e:	180b      	adds	r3, r1, r0
 8001e20:	19db      	adds	r3, r3, r7
 8001e22:	4a38      	ldr	r2, [pc, #224]	@ (8001f04 <KeyStore_Write+0x11c>)
 8001e24:	605a      	str	r2, [r3, #4]
  erase.NbPages     = 1;
 8001e26:	180b      	adds	r3, r1, r0
 8001e28:	19db      	adds	r3, r3, r7
 8001e2a:	2201      	movs	r2, #1
 8001e2c:	609a      	str	r2, [r3, #8]
  uint32_t error;
  HAL_FLASHEx_Erase(&erase, &error);
 8001e2e:	2308      	movs	r3, #8
 8001e30:	181b      	adds	r3, r3, r0
 8001e32:	19da      	adds	r2, r3, r7
 8001e34:	180b      	adds	r3, r1, r0
 8001e36:	19db      	adds	r3, r3, r7
 8001e38:	0011      	movs	r1, r2
 8001e3a:	0018      	movs	r0, r3
 8001e3c:	f002 f97a 	bl	8004134 <HAL_FLASHEx_Erase>

  /* MAGIC yaz (4 byte = 2 halfword) */
  HAL_FLASH_Program(FLASH_TYPEPROGRAM_HALFWORD, addr,
                    (uint16_t)(magic & 0xFFFF));
 8001e40:	6b7b      	ldr	r3, [r7, #52]	@ 0x34
 8001e42:	b29b      	uxth	r3, r3
  HAL_FLASH_Program(FLASH_TYPEPROGRAM_HALFWORD, addr,
 8001e44:	613b      	str	r3, [r7, #16]
 8001e46:	2300      	movs	r3, #0
 8001e48:	617b      	str	r3, [r7, #20]
 8001e4a:	6bb9      	ldr	r1, [r7, #56]	@ 0x38
 8001e4c:	693a      	ldr	r2, [r7, #16]
 8001e4e:	697b      	ldr	r3, [r7, #20]
 8001e50:	2001      	movs	r0, #1
 8001e52:	f002 f819 	bl	8003e88 <HAL_FLASH_Program>
  HAL_FLASH_Program(FLASH_TYPEPROGRAM_HALFWORD, addr + 2,
 8001e56:	6bbb      	ldr	r3, [r7, #56]	@ 0x38
 8001e58:	1c99      	adds	r1, r3, #2
                    (uint16_t)((magic >> 16) & 0xFFFF));
 8001e5a:	6b7b      	ldr	r3, [r7, #52]	@ 0x34
 8001e5c:	0c1b      	lsrs	r3, r3, #16
 8001e5e:	b29b      	uxth	r3, r3
  HAL_FLASH_Program(FLASH_TYPEPROGRAM_HALFWORD, addr + 2,
 8001e60:	60bb      	str	r3, [r7, #8]
 8001e62:	2300      	movs	r3, #0
 8001e64:	60fb      	str	r3, [r7, #12]
 8001e66:	68ba      	ldr	r2, [r7, #8]
 8001e68:	68fb      	ldr	r3, [r7, #12]
 8001e6a:	2001      	movs	r0, #1
 8001e6c:	f002 f80c 	bl	8003e88 <HAL_FLASH_Program>

  /* 32 byte key yaz (2 byte adimlarla) */
  addr += 4;
 8001e70:	6bbb      	ldr	r3, [r7, #56]	@ 0x38
 8001e72:	3304      	adds	r3, #4
 8001e74:	63bb      	str	r3, [r7, #56]	@ 0x38
  for (i = 0; i < 32; i += 2) {
 8001e76:	2300      	movs	r3, #0
 8001e78:	63fb      	str	r3, [r7, #60]	@ 0x3c
 8001e7a:	e025      	b.n	8001ec8 <KeyStore_Write+0xe0>
    uint16_t hw = (uint16_t)key[i] | ((uint16_t)key[i + 1] << 8);
 8001e7c:	69fa      	ldr	r2, [r7, #28]
 8001e7e:	6bfb      	ldr	r3, [r7, #60]	@ 0x3c
 8001e80:	18d3      	adds	r3, r2, r3
 8001e82:	781b      	ldrb	r3, [r3, #0]
 8001e84:	b21a      	sxth	r2, r3
 8001e86:	6bfb      	ldr	r3, [r7, #60]	@ 0x3c
 8001e88:	3301      	adds	r3, #1
 8001e8a:	69f9      	ldr	r1, [r7, #28]
 8001e8c:	18cb      	adds	r3, r1, r3
 8001e8e:	781b      	ldrb	r3, [r3, #0]
 8001e90:	b21b      	sxth	r3, r3
 8001e92:	021b      	lsls	r3, r3, #8
 8001e94:	b21b      	sxth	r3, r3
 8001e96:	4313      	orrs	r3, r2
 8001e98:	b21a      	sxth	r2, r3
 8001e9a:	2018      	movs	r0, #24
 8001e9c:	2618      	movs	r6, #24
 8001e9e:	1983      	adds	r3, r0, r6
 8001ea0:	19db      	adds	r3, r3, r7
 8001ea2:	801a      	strh	r2, [r3, #0]
    HAL_FLASH_Program(FLASH_TYPEPROGRAM_HALFWORD, addr + i, hw);
 8001ea4:	6bba      	ldr	r2, [r7, #56]	@ 0x38
 8001ea6:	6bfb      	ldr	r3, [r7, #60]	@ 0x3c
 8001ea8:	18d1      	adds	r1, r2, r3
 8001eaa:	1983      	adds	r3, r0, r6
 8001eac:	19db      	adds	r3, r3, r7
 8001eae:	881b      	ldrh	r3, [r3, #0]
 8001eb0:	b29b      	uxth	r3, r3
 8001eb2:	603b      	str	r3, [r7, #0]
 8001eb4:	2300      	movs	r3, #0
 8001eb6:	607b      	str	r3, [r7, #4]
 8001eb8:	683a      	ldr	r2, [r7, #0]
 8001eba:	687b      	ldr	r3, [r7, #4]
 8001ebc:	2001      	movs	r0, #1
 8001ebe:	f001 ffe3 	bl	8003e88 <HAL_FLASH_Program>
  for (i = 0; i < 32; i += 2) {
 8001ec2:	6bfb      	ldr	r3, [r7, #60]	@ 0x3c
 8001ec4:	3302      	adds	r3, #2
 8001ec6:	63fb      	str	r3, [r7, #60]	@ 0x3c
 8001ec8:	6bfb      	ldr	r3, [r7, #60]	@ 0x3c
 8001eca:	2b1f      	cmp	r3, #31
 8001ecc:	d9d6      	bls.n	8001e7c <KeyStore_Write+0x94>
  }

  /* CRC-8 yaz (1 byte + 0xFF pad = halfword) */
  addr += 32;
 8001ece:	6bbb      	ldr	r3, [r7, #56]	@ 0x38
 8001ed0:	3320      	adds	r3, #32
 8001ed2:	63bb      	str	r3, [r7, #56]	@ 0x38
  HAL_FLASH_Program(FLASH_TYPEPROGRAM_HALFWORD, addr,
                    (uint16_t)crc | 0xFF00);
 8001ed4:	231b      	movs	r3, #27
 8001ed6:	2218      	movs	r2, #24
 8001ed8:	189b      	adds	r3, r3, r2
 8001eda:	19db      	adds	r3, r3, r7
 8001edc:	781b      	ldrb	r3, [r3, #0]
 8001ede:	22ff      	movs	r2, #255	@ 0xff
 8001ee0:	0212      	lsls	r2, r2, #8
 8001ee2:	4313      	orrs	r3, r2
  HAL_FLASH_Program(FLASH_TYPEPROGRAM_HALFWORD, addr,
 8001ee4:	001c      	movs	r4, r3
 8001ee6:	17db      	asrs	r3, r3, #31
 8001ee8:	001d      	movs	r5, r3
 8001eea:	6bb9      	ldr	r1, [r7, #56]	@ 0x38
 8001eec:	0022      	movs	r2, r4
 8001eee:	002b      	movs	r3, r5
 8001ef0:	2001      	movs	r0, #1
 8001ef2:	f001 ffc9 	bl	8003e88 <HAL_FLASH_Program>

  HAL_FLASH_Lock();
 8001ef6:	f002 f883 	bl	8004000 <HAL_FLASH_Lock>
}
 8001efa:	46c0      	nop			@ (mov r8, r8)
 8001efc:	46bd      	mov	sp, r7
 8001efe:	b011      	add	sp, #68	@ 0x44
 8001f00:	bdf0      	pop	{r4, r5, r6, r7, pc}
 8001f02:	46c0      	nop			@ (mov r8, r8)
 8001f04:	08007800 	.word	0x08007800
 8001f08:	ae5cafe5 	.word	0xae5cafe5

08001f0c <KeyStore_Read>:
 *
 * Donus: 1 = gecerli key bulundu ve kopyalandi
 *         0 = KEY_STORE bos veya bozuk (DEFAULT_AES_KEY kullan)
 */
uint8_t KeyStore_Read(uint8_t *key_out)
{
 8001f0c:	b5b0      	push	{r4, r5, r7, lr}
 8001f0e:	b090      	sub	sp, #64	@ 0x40
 8001f10:	af00      	add	r7, sp, #0
 8001f12:	6078      	str	r0, [r7, #4]
  volatile uint32_t *magic_ptr = (volatile uint32_t *)KEY_STORE_ADDRESS;
 8001f14:	4b23      	ldr	r3, [pc, #140]	@ (8001fa4 <KeyStore_Read+0x98>)
 8001f16:	63bb      	str	r3, [r7, #56]	@ 0x38
  volatile uint8_t  *key_ptr   = (volatile uint8_t *)(KEY_STORE_ADDRESS + 4);
 8001f18:	4b23      	ldr	r3, [pc, #140]	@ (8001fa8 <KeyStore_Read+0x9c>)
 8001f1a:	637b      	str	r3, [r7, #52]	@ 0x34
  volatile uint8_t  *crc_ptr   = (volatile uint8_t *)(KEY_STORE_ADDRESS + 36);
 8001f1c:	4b23      	ldr	r3, [pc, #140]	@ (8001fac <KeyStore_Read+0xa0>)
 8001f1e:	633b      	str	r3, [r7, #48]	@ 0x30

  /* Magic kontrol */
  if (magic_ptr[0] != KEY_STORE_MAGIC) {
 8001f20:	6bbb      	ldr	r3, [r7, #56]	@ 0x38
 8001f22:	681b      	ldr	r3, [r3, #0]
 8001f24:	4a22      	ldr	r2, [pc, #136]	@ (8001fb0 <KeyStore_Read+0xa4>)
 8001f26:	4293      	cmp	r3, r2
 8001f28:	d001      	beq.n	8001f2e <KeyStore_Read+0x22>
    return 0; /* KEY_STORE bos veya bozuk */
 8001f2a:	2300      	movs	r3, #0
 8001f2c:	e035      	b.n	8001f9a <KeyStore_Read+0x8e>
  }

  /* CRC-8 dogrulama */
  uint8_t stored_crc  = *crc_ptr;
 8001f2e:	232f      	movs	r3, #47	@ 0x2f
 8001f30:	18fb      	adds	r3, r7, r3
 8001f32:	6b3a      	ldr	r2, [r7, #48]	@ 0x30
 8001f34:	7812      	ldrb	r2, [r2, #0]
 8001f36:	701a      	strb	r2, [r3, #0]
  uint8_t local_buf[32];
  uint32_t i;
  for (i = 0; i < 32; i++) {
 8001f38:	2300      	movs	r3, #0
 8001f3a:	63fb      	str	r3, [r7, #60]	@ 0x3c
 8001f3c:	e00d      	b.n	8001f5a <KeyStore_Read+0x4e>
    local_buf[i] = key_ptr[i];
 8001f3e:	6b7a      	ldr	r2, [r7, #52]	@ 0x34
 8001f40:	6bfb      	ldr	r3, [r7, #60]	@ 0x3c
 8001f42:	18d3      	adds	r3, r2, r3
 8001f44:	781b      	ldrb	r3, [r3, #0]
 8001f46:	b2d9      	uxtb	r1, r3
 8001f48:	230c      	movs	r3, #12
 8001f4a:	18fa      	adds	r2, r7, r3
 8001f4c:	6bfb      	ldr	r3, [r7, #60]	@ 0x3c
 8001f4e:	18d3      	adds	r3, r2, r3
 8001f50:	1c0a      	adds	r2, r1, #0
 8001f52:	701a      	strb	r2, [r3, #0]
  for (i = 0; i < 32; i++) {
 8001f54:	6bfb      	ldr	r3, [r7, #60]	@ 0x3c
 8001f56:	3301      	adds	r3, #1
 8001f58:	63fb      	str	r3, [r7, #60]	@ 0x3c
 8001f5a:	6bfb      	ldr	r3, [r7, #60]	@ 0x3c
 8001f5c:	2b1f      	cmp	r3, #31
 8001f5e:	d9ee      	bls.n	8001f3e <KeyStore_Read+0x32>
  }
  uint8_t computed_crc = keystore_crc8(local_buf, 32);
 8001f60:	252e      	movs	r5, #46	@ 0x2e
 8001f62:	197c      	adds	r4, r7, r5
 8001f64:	230c      	movs	r3, #12
 8001f66:	18fb      	adds	r3, r7, r3
 8001f68:	2120      	movs	r1, #32
 8001f6a:	0018      	movs	r0, r3
 8001f6c:	f7ff fef0 	bl	8001d50 <keystore_crc8>
 8001f70:	0003      	movs	r3, r0
 8001f72:	7023      	strb	r3, [r4, #0]

  if (computed_crc != stored_crc) {
 8001f74:	197a      	adds	r2, r7, r5
 8001f76:	232f      	movs	r3, #47	@ 0x2f
 8001f78:	18fb      	adds	r3, r7, r3
 8001f7a:	7812      	ldrb	r2, [r2, #0]
 8001f7c:	781b      	ldrb	r3, [r3, #0]
 8001f7e:	429a      	cmp	r2, r3
 8001f80:	d001      	beq.n	8001f86 <KeyStore_Read+0x7a>
    return 0; /* CRC tutarsizligi — KEY_STORE bozuk */
 8001f82:	2300      	movs	r3, #0
 8001f84:	e009      	b.n	8001f9a <KeyStore_Read+0x8e>
  }

  /* Gecerli key — kopyala */
  memcpy(key_out, local_buf, 32);
 8001f86:	687a      	ldr	r2, [r7, #4]
 8001f88:	230c      	movs	r3, #12
 8001f8a:	18fb      	adds	r3, r7, r3
 8001f8c:	0010      	movs	r0, r2
 8001f8e:	0019      	movs	r1, r3
 8001f90:	2320      	movs	r3, #32
 8001f92:	001a      	movs	r2, r3
 8001f94:	f004 fed4 	bl	8006d40 <memcpy>
  return 1;
 8001f98:	2301      	movs	r3, #1
}
 8001f9a:	0018      	movs	r0, r3
 8001f9c:	46bd      	mov	sp, r7
 8001f9e:	b010      	add	sp, #64	@ 0x40
 8001fa0:	bdb0      	pop	{r4, r5, r7, pc}
 8001fa2:	46c0      	nop			@ (mov r8, r8)
 8001fa4:	08007800 	.word	0x08007800
 8001fa8:	08007804 	.word	0x08007804
 8001fac:	08007824 	.word	0x08007824
 8001fb0:	ae5cafe5 	.word	0xae5cafe5

08001fb4 <f25519_copy>:
extern const uint8_t f25519_one[F25519_SIZE];

void f25519_load(uint8_t *x, uint32_t c);

static inline void f25519_copy(uint8_t *x, const uint8_t *a)
{
 8001fb4:	b580      	push	{r7, lr}
 8001fb6:	b082      	sub	sp, #8
 8001fb8:	af00      	add	r7, sp, #0
 8001fba:	6078      	str	r0, [r7, #4]
 8001fbc:	6039      	str	r1, [r7, #0]
    memcpy(x, a, F25519_SIZE);
 8001fbe:	6839      	ldr	r1, [r7, #0]
 8001fc0:	687b      	ldr	r3, [r7, #4]
 8001fc2:	2220      	movs	r2, #32
 8001fc4:	0018      	movs	r0, r3
 8001fc6:	f004 febb 	bl	8006d40 <memcpy>
}
 8001fca:	46c0      	nop			@ (mov r8, r8)
 8001fcc:	46bd      	mov	sp, r7
 8001fce:	b002      	add	sp, #8
 8001fd0:	bd80      	pop	{r7, pc}
	...

08001fd4 <xc_double>:
 *   Z3 = 4*X1*Z1 * (X1^2 + A*X1*Z1 + Z1^2)
 * A = 486662 (Curve25519 katsayısı)
 */
static void xc_double(uint8_t *x3, uint8_t *z3,
                      const uint8_t *x1, const uint8_t *z1)
{
 8001fd4:	b5f0      	push	{r4, r5, r6, r7, lr}
 8001fd6:	b0a5      	sub	sp, #148	@ 0x94
 8001fd8:	af00      	add	r7, sp, #0
 8001fda:	60f8      	str	r0, [r7, #12]
 8001fdc:	60b9      	str	r1, [r7, #8]
 8001fde:	607a      	str	r2, [r7, #4]
 8001fe0:	603b      	str	r3, [r7, #0]
    uint8_t x1sq[F25519_SIZE];
    uint8_t z1sq[F25519_SIZE];
    uint8_t x1z1[F25519_SIZE];
    uint8_t a[F25519_SIZE];

    f25519_mul__distinct(x1sq, x1, x1);
 8001fe2:	687a      	ldr	r2, [r7, #4]
 8001fe4:	6879      	ldr	r1, [r7, #4]
 8001fe6:	2570      	movs	r5, #112	@ 0x70
 8001fe8:	197b      	adds	r3, r7, r5
 8001fea:	0018      	movs	r0, r3
 8001fec:	f000 fcc3 	bl	8002976 <f25519_mul__distinct>
    f25519_mul__distinct(z1sq, z1, z1);
 8001ff0:	683a      	ldr	r2, [r7, #0]
 8001ff2:	6839      	ldr	r1, [r7, #0]
 8001ff4:	2650      	movs	r6, #80	@ 0x50
 8001ff6:	19bb      	adds	r3, r7, r6
 8001ff8:	0018      	movs	r0, r3
 8001ffa:	f000 fcbc 	bl	8002976 <f25519_mul__distinct>
    f25519_mul__distinct(x1z1, x1, z1);
 8001ffe:	683a      	ldr	r2, [r7, #0]
 8002000:	6879      	ldr	r1, [r7, #4]
 8002002:	2330      	movs	r3, #48	@ 0x30
 8002004:	18fb      	adds	r3, r7, r3
 8002006:	0018      	movs	r0, r3
 8002008:	f000 fcb5 	bl	8002976 <f25519_mul__distinct>

    f25519_sub(a, x1sq, z1sq);
 800200c:	19ba      	adds	r2, r7, r6
 800200e:	1979      	adds	r1, r7, r5
 8002010:	2410      	movs	r4, #16
 8002012:	193b      	adds	r3, r7, r4
 8002014:	0018      	movs	r0, r3
 8002016:	f000 fc47 	bl	80028a8 <f25519_sub>
    f25519_mul__distinct(x3, a, a);
 800201a:	193a      	adds	r2, r7, r4
 800201c:	1939      	adds	r1, r7, r4
 800201e:	68fb      	ldr	r3, [r7, #12]
 8002020:	0018      	movs	r0, r3
 8002022:	f000 fca8 	bl	8002976 <f25519_mul__distinct>

    f25519_mul_c(a, x1z1, 486662);
 8002026:	4a14      	ldr	r2, [pc, #80]	@ (8002078 <xc_double+0xa4>)
 8002028:	2330      	movs	r3, #48	@ 0x30
 800202a:	18f9      	adds	r1, r7, r3
 800202c:	193b      	adds	r3, r7, r4
 800202e:	0018      	movs	r0, r3
 8002030:	f000 fd20 	bl	8002a74 <f25519_mul_c>
    f25519_add(a, x1sq, a);
 8002034:	0023      	movs	r3, r4
 8002036:	193a      	adds	r2, r7, r4
 8002038:	1979      	adds	r1, r7, r5
 800203a:	001c      	movs	r4, r3
 800203c:	18fb      	adds	r3, r7, r3
 800203e:	0018      	movs	r0, r3
 8002040:	f000 fbc8 	bl	80027d4 <f25519_add>
    f25519_add(a, z1sq, a);
 8002044:	0023      	movs	r3, r4
 8002046:	18fa      	adds	r2, r7, r3
 8002048:	19b9      	adds	r1, r7, r6
 800204a:	001c      	movs	r4, r3
 800204c:	18fb      	adds	r3, r7, r3
 800204e:	0018      	movs	r0, r3
 8002050:	f000 fbc0 	bl	80027d4 <f25519_add>
    f25519_mul__distinct(x1sq, x1z1, a);
 8002054:	193a      	adds	r2, r7, r4
 8002056:	2330      	movs	r3, #48	@ 0x30
 8002058:	18f9      	adds	r1, r7, r3
 800205a:	197b      	adds	r3, r7, r5
 800205c:	0018      	movs	r0, r3
 800205e:	f000 fc8a 	bl	8002976 <f25519_mul__distinct>
    f25519_mul_c(z3, x1sq, 4);
 8002062:	1979      	adds	r1, r7, r5
 8002064:	68bb      	ldr	r3, [r7, #8]
 8002066:	2204      	movs	r2, #4
 8002068:	0018      	movs	r0, r3
 800206a:	f000 fd03 	bl	8002a74 <f25519_mul_c>
}
 800206e:	46c0      	nop			@ (mov r8, r8)
 8002070:	46bd      	mov	sp, r7
 8002072:	b025      	add	sp, #148	@ 0x94
 8002074:	bdf0      	pop	{r4, r5, r6, r7, pc}
 8002076:	46c0      	nop			@ (mov r8, r8)
 8002078:	00076d06 	.word	0x00076d06

0800207c <xc_diffadd>:
 */
static void xc_diffadd(uint8_t *x5, uint8_t *z5,
                       const uint8_t *x1, const uint8_t *z1,
                       const uint8_t *x2, const uint8_t *z2,
                       const uint8_t *x3, const uint8_t *z3)
{
 800207c:	b5f0      	push	{r4, r5, r6, r7, lr}
 800207e:	b0a5      	sub	sp, #148	@ 0x94
 8002080:	af00      	add	r7, sp, #0
 8002082:	60f8      	str	r0, [r7, #12]
 8002084:	60b9      	str	r1, [r7, #8]
 8002086:	607a      	str	r2, [r7, #4]
 8002088:	603b      	str	r3, [r7, #0]
    uint8_t da[F25519_SIZE];
    uint8_t cb[F25519_SIZE];
    uint8_t a[F25519_SIZE];
    uint8_t b[F25519_SIZE];

    f25519_add(a, x2, z2);
 800208a:	239c      	movs	r3, #156	@ 0x9c
 800208c:	2510      	movs	r5, #16
 800208e:	195b      	adds	r3, r3, r5
 8002090:	19da      	adds	r2, r3, r7
 8002092:	6812      	ldr	r2, [r2, #0]
 8002094:	2198      	movs	r1, #152	@ 0x98
 8002096:	194b      	adds	r3, r1, r5
 8002098:	19d8      	adds	r0, r3, r7
 800209a:	6801      	ldr	r1, [r0, #0]
 800209c:	2430      	movs	r4, #48	@ 0x30
 800209e:	193b      	adds	r3, r7, r4
 80020a0:	0018      	movs	r0, r3
 80020a2:	f000 fb97 	bl	80027d4 <f25519_add>
    f25519_sub(b, x3, z3);
 80020a6:	22a4      	movs	r2, #164	@ 0xa4
 80020a8:	1953      	adds	r3, r2, r5
 80020aa:	19d8      	adds	r0, r3, r7
 80020ac:	6802      	ldr	r2, [r0, #0]
 80020ae:	20a0      	movs	r0, #160	@ 0xa0
 80020b0:	1943      	adds	r3, r0, r5
 80020b2:	19dd      	adds	r5, r3, r7
 80020b4:	6829      	ldr	r1, [r5, #0]
 80020b6:	2510      	movs	r5, #16
 80020b8:	197b      	adds	r3, r7, r5
 80020ba:	0018      	movs	r0, r3
 80020bc:	f000 fbf4 	bl	80028a8 <f25519_sub>
    f25519_mul__distinct(da, a, b);
 80020c0:	197a      	adds	r2, r7, r5
 80020c2:	1939      	adds	r1, r7, r4
 80020c4:	2670      	movs	r6, #112	@ 0x70
 80020c6:	19bb      	adds	r3, r7, r6
 80020c8:	0018      	movs	r0, r3
 80020ca:	f000 fc54 	bl	8002976 <f25519_mul__distinct>

    f25519_sub(b, x2, z2);
 80020ce:	239c      	movs	r3, #156	@ 0x9c
 80020d0:	2010      	movs	r0, #16
 80020d2:	181b      	adds	r3, r3, r0
 80020d4:	19db      	adds	r3, r3, r7
 80020d6:	681a      	ldr	r2, [r3, #0]
 80020d8:	2198      	movs	r1, #152	@ 0x98
 80020da:	180b      	adds	r3, r1, r0
 80020dc:	19db      	adds	r3, r3, r7
 80020de:	6819      	ldr	r1, [r3, #0]
 80020e0:	197b      	adds	r3, r7, r5
 80020e2:	0018      	movs	r0, r3
 80020e4:	f000 fbe0 	bl	80028a8 <f25519_sub>
    f25519_add(a, x3, z3);
 80020e8:	22a4      	movs	r2, #164	@ 0xa4
 80020ea:	2110      	movs	r1, #16
 80020ec:	1853      	adds	r3, r2, r1
 80020ee:	19db      	adds	r3, r3, r7
 80020f0:	681a      	ldr	r2, [r3, #0]
 80020f2:	20a0      	movs	r0, #160	@ 0xa0
 80020f4:	1843      	adds	r3, r0, r1
 80020f6:	19db      	adds	r3, r3, r7
 80020f8:	6819      	ldr	r1, [r3, #0]
 80020fa:	193b      	adds	r3, r7, r4
 80020fc:	0018      	movs	r0, r3
 80020fe:	f000 fb69 	bl	80027d4 <f25519_add>
    f25519_mul__distinct(cb, a, b);
 8002102:	197a      	adds	r2, r7, r5
 8002104:	1939      	adds	r1, r7, r4
 8002106:	2350      	movs	r3, #80	@ 0x50
 8002108:	18fb      	adds	r3, r7, r3
 800210a:	0018      	movs	r0, r3
 800210c:	f000 fc33 	bl	8002976 <f25519_mul__distinct>

    f25519_add(a, da, cb);
 8002110:	2350      	movs	r3, #80	@ 0x50
 8002112:	18fa      	adds	r2, r7, r3
 8002114:	19b9      	adds	r1, r7, r6
 8002116:	193b      	adds	r3, r7, r4
 8002118:	0018      	movs	r0, r3
 800211a:	f000 fb5b 	bl	80027d4 <f25519_add>
    f25519_mul__distinct(b, a, a);
 800211e:	193a      	adds	r2, r7, r4
 8002120:	1939      	adds	r1, r7, r4
 8002122:	197b      	adds	r3, r7, r5
 8002124:	0018      	movs	r0, r3
 8002126:	f000 fc26 	bl	8002976 <f25519_mul__distinct>
    f25519_mul__distinct(x5, z1, b);
 800212a:	197a      	adds	r2, r7, r5
 800212c:	6839      	ldr	r1, [r7, #0]
 800212e:	68fb      	ldr	r3, [r7, #12]
 8002130:	0018      	movs	r0, r3
 8002132:	f000 fc20 	bl	8002976 <f25519_mul__distinct>

    f25519_sub(a, da, cb);
 8002136:	2350      	movs	r3, #80	@ 0x50
 8002138:	18fa      	adds	r2, r7, r3
 800213a:	19b9      	adds	r1, r7, r6
 800213c:	193b      	adds	r3, r7, r4
 800213e:	0018      	movs	r0, r3
 8002140:	f000 fbb2 	bl	80028a8 <f25519_sub>
    f25519_mul__distinct(b, a, a);
 8002144:	193a      	adds	r2, r7, r4
 8002146:	1939      	adds	r1, r7, r4
 8002148:	197b      	adds	r3, r7, r5
 800214a:	0018      	movs	r0, r3
 800214c:	f000 fc13 	bl	8002976 <f25519_mul__distinct>
    f25519_mul__distinct(z5, x1, b);
 8002150:	197a      	adds	r2, r7, r5
 8002152:	6879      	ldr	r1, [r7, #4]
 8002154:	68bb      	ldr	r3, [r7, #8]
 8002156:	0018      	movs	r0, r3
 8002158:	f000 fc0d 	bl	8002976 <f25519_mul__distinct>
}
 800215c:	46c0      	nop			@ (mov r8, r8)
 800215e:	46bd      	mov	sp, r7
 8002160:	b025      	add	sp, #148	@ 0x94
 8002162:	bdf0      	pop	{r4, r5, r6, r7, pc}

08002164 <projective_ladder>:
 * Constant-time: f25519_select ile dallanma yok.
 */
static void projective_ladder(uint8_t *xm,  uint8_t *zm,
                               uint8_t *xm1, uint8_t *zm1,
                               const uint8_t *q, const uint8_t *e)
{
 8002164:	b5f0      	push	{r4, r5, r6, r7, lr}
 8002166:	b09b      	sub	sp, #108	@ 0x6c
 8002168:	af04      	add	r7, sp, #16
 800216a:	60f8      	str	r0, [r7, #12]
 800216c:	60b9      	str	r1, [r7, #8]
 800216e:	607a      	str	r2, [r7, #4]
 8002170:	603b      	str	r3, [r7, #0]
    int i;

    f25519_copy(xm, q);
 8002172:	6f3a      	ldr	r2, [r7, #112]	@ 0x70
 8002174:	68fb      	ldr	r3, [r7, #12]
 8002176:	0011      	movs	r1, r2
 8002178:	0018      	movs	r0, r3
 800217a:	f7ff ff1b 	bl	8001fb4 <f25519_copy>

    for (i = 253; i >= 0; i--) {
 800217e:	23fd      	movs	r3, #253	@ 0xfd
 8002180:	657b      	str	r3, [r7, #84]	@ 0x54
 8002182:	e053      	b.n	800222c <projective_ladder+0xc8>
        const int bit = (e[i >> 3] >> (i & 7)) & 1;
 8002184:	6d7b      	ldr	r3, [r7, #84]	@ 0x54
 8002186:	10db      	asrs	r3, r3, #3
 8002188:	001a      	movs	r2, r3
 800218a:	6f7b      	ldr	r3, [r7, #116]	@ 0x74
 800218c:	189b      	adds	r3, r3, r2
 800218e:	781b      	ldrb	r3, [r3, #0]
 8002190:	0019      	movs	r1, r3
 8002192:	6d7b      	ldr	r3, [r7, #84]	@ 0x54
 8002194:	2207      	movs	r2, #7
 8002196:	4013      	ands	r3, r2
 8002198:	4119      	asrs	r1, r3
 800219a:	000b      	movs	r3, r1
 800219c:	2201      	movs	r2, #1
 800219e:	4013      	ands	r3, r2
 80021a0:	653b      	str	r3, [r7, #80]	@ 0x50
        uint8_t xms[F25519_SIZE];
        uint8_t zms[F25519_SIZE];

        xc_diffadd(xm1, zm1, q, f25519_one, xm, zm, xm1, zm1);
 80021a2:	4c26      	ldr	r4, [pc, #152]	@ (800223c <projective_ladder+0xd8>)
 80021a4:	6f3a      	ldr	r2, [r7, #112]	@ 0x70
 80021a6:	6839      	ldr	r1, [r7, #0]
 80021a8:	6878      	ldr	r0, [r7, #4]
 80021aa:	683b      	ldr	r3, [r7, #0]
 80021ac:	9303      	str	r3, [sp, #12]
 80021ae:	687b      	ldr	r3, [r7, #4]
 80021b0:	9302      	str	r3, [sp, #8]
 80021b2:	68bb      	ldr	r3, [r7, #8]
 80021b4:	9301      	str	r3, [sp, #4]
 80021b6:	68fb      	ldr	r3, [r7, #12]
 80021b8:	9300      	str	r3, [sp, #0]
 80021ba:	0023      	movs	r3, r4
 80021bc:	f7ff ff5e 	bl	800207c <xc_diffadd>
        xc_double(xm, zm, xm, zm);
 80021c0:	68bb      	ldr	r3, [r7, #8]
 80021c2:	68fa      	ldr	r2, [r7, #12]
 80021c4:	68b9      	ldr	r1, [r7, #8]
 80021c6:	68f8      	ldr	r0, [r7, #12]
 80021c8:	f7ff ff04 	bl	8001fd4 <xc_double>

        xc_diffadd(xms, zms, xm1, zm1, xm, zm, q, f25519_one);
 80021cc:	683c      	ldr	r4, [r7, #0]
 80021ce:	687a      	ldr	r2, [r7, #4]
 80021d0:	2530      	movs	r5, #48	@ 0x30
 80021d2:	1979      	adds	r1, r7, r5
 80021d4:	2610      	movs	r6, #16
 80021d6:	19b8      	adds	r0, r7, r6
 80021d8:	4b18      	ldr	r3, [pc, #96]	@ (800223c <projective_ladder+0xd8>)
 80021da:	9303      	str	r3, [sp, #12]
 80021dc:	6f3b      	ldr	r3, [r7, #112]	@ 0x70
 80021de:	9302      	str	r3, [sp, #8]
 80021e0:	68bb      	ldr	r3, [r7, #8]
 80021e2:	9301      	str	r3, [sp, #4]
 80021e4:	68fb      	ldr	r3, [r7, #12]
 80021e6:	9300      	str	r3, [sp, #0]
 80021e8:	0023      	movs	r3, r4
 80021ea:	f7ff ff47 	bl	800207c <xc_diffadd>

        f25519_select(xm1, xm1, xm,  bit);
 80021ee:	6d3b      	ldr	r3, [r7, #80]	@ 0x50
 80021f0:	b2db      	uxtb	r3, r3
 80021f2:	68fa      	ldr	r2, [r7, #12]
 80021f4:	6879      	ldr	r1, [r7, #4]
 80021f6:	6878      	ldr	r0, [r7, #4]
 80021f8:	f000 fab6 	bl	8002768 <f25519_select>
        f25519_select(zm1, zm1, zm,  bit);
 80021fc:	6d3b      	ldr	r3, [r7, #80]	@ 0x50
 80021fe:	b2db      	uxtb	r3, r3
 8002200:	68ba      	ldr	r2, [r7, #8]
 8002202:	6839      	ldr	r1, [r7, #0]
 8002204:	6838      	ldr	r0, [r7, #0]
 8002206:	f000 faaf 	bl	8002768 <f25519_select>
        f25519_select(xm,  xm,  xms, bit);
 800220a:	6d3b      	ldr	r3, [r7, #80]	@ 0x50
 800220c:	b2db      	uxtb	r3, r3
 800220e:	19ba      	adds	r2, r7, r6
 8002210:	68f9      	ldr	r1, [r7, #12]
 8002212:	68f8      	ldr	r0, [r7, #12]
 8002214:	f000 faa8 	bl	8002768 <f25519_select>
        f25519_select(zm,  zm,  zms, bit);
 8002218:	6d3b      	ldr	r3, [r7, #80]	@ 0x50
 800221a:	b2db      	uxtb	r3, r3
 800221c:	197a      	adds	r2, r7, r5
 800221e:	68b9      	ldr	r1, [r7, #8]
 8002220:	68b8      	ldr	r0, [r7, #8]
 8002222:	f000 faa1 	bl	8002768 <f25519_select>
    for (i = 253; i >= 0; i--) {
 8002226:	6d7b      	ldr	r3, [r7, #84]	@ 0x54
 8002228:	3b01      	subs	r3, #1
 800222a:	657b      	str	r3, [r7, #84]	@ 0x54
 800222c:	6d7b      	ldr	r3, [r7, #84]	@ 0x54
 800222e:	2b00      	cmp	r3, #0
 8002230:	daa8      	bge.n	8002184 <projective_ladder+0x20>
    }
}
 8002232:	46c0      	nop			@ (mov r8, r8)
 8002234:	46c0      	nop			@ (mov r8, r8)
 8002236:	46bd      	mov	sp, r7
 8002238:	b017      	add	sp, #92	@ 0x5c
 800223a:	bdf0      	pop	{r4, r5, r6, r7, pc}
 800223c:	08006fb8 	.word	0x08006fb8

08002240 <c25519_smult>:
/* ───────────────────────────────────────────────────────────────
 * Genel API
 * ─────────────────────────────────────────────────────────────── */

void c25519_smult(uint8_t *result, const uint8_t *q, const uint8_t *e)
{
 8002240:	b5f0      	push	{r4, r5, r6, r7, lr}
 8002242:	b0a7      	sub	sp, #156	@ 0x9c
 8002244:	af02      	add	r7, sp, #8
 8002246:	60f8      	str	r0, [r7, #12]
 8002248:	60b9      	str	r1, [r7, #8]
 800224a:	607a      	str	r2, [r7, #4]
    uint8_t xm[F25519_SIZE];
    uint8_t zm[F25519_SIZE]  = {1};
 800224c:	2650      	movs	r6, #80	@ 0x50
 800224e:	19bb      	adds	r3, r7, r6
 8002250:	2201      	movs	r2, #1
 8002252:	601a      	str	r2, [r3, #0]
 8002254:	3304      	adds	r3, #4
 8002256:	221c      	movs	r2, #28
 8002258:	2100      	movs	r1, #0
 800225a:	0018      	movs	r0, r3
 800225c:	f004 fd44 	bl	8006ce8 <memset>
    uint8_t xm1[F25519_SIZE] = {1};
 8002260:	2330      	movs	r3, #48	@ 0x30
 8002262:	18fb      	adds	r3, r7, r3
 8002264:	2201      	movs	r2, #1
 8002266:	601a      	str	r2, [r3, #0]
 8002268:	3304      	adds	r3, #4
 800226a:	221c      	movs	r2, #28
 800226c:	2100      	movs	r1, #0
 800226e:	0018      	movs	r0, r3
 8002270:	f004 fd3a 	bl	8006ce8 <memset>
    uint8_t zm1[F25519_SIZE] = {0};
 8002274:	2510      	movs	r5, #16
 8002276:	197b      	adds	r3, r7, r5
 8002278:	0018      	movs	r0, r3
 800227a:	2320      	movs	r3, #32
 800227c:	001a      	movs	r2, r3
 800227e:	2100      	movs	r1, #0
 8002280:	f004 fd32 	bl	8006ce8 <memset>

    projective_ladder(xm, zm, xm1, zm1, q, e);
 8002284:	197c      	adds	r4, r7, r5
 8002286:	2330      	movs	r3, #48	@ 0x30
 8002288:	18fa      	adds	r2, r7, r3
 800228a:	19b9      	adds	r1, r7, r6
 800228c:	2370      	movs	r3, #112	@ 0x70
 800228e:	18f8      	adds	r0, r7, r3
 8002290:	687b      	ldr	r3, [r7, #4]
 8002292:	9301      	str	r3, [sp, #4]
 8002294:	68bb      	ldr	r3, [r7, #8]
 8002296:	9300      	str	r3, [sp, #0]
 8002298:	0023      	movs	r3, r4
 800229a:	f7ff ff63 	bl	8002164 <projective_ladder>

    /* Projektif → affin: result = xm / zm */
    f25519_inv__distinct(zm1, zm);
 800229e:	19ba      	adds	r2, r7, r6
 80022a0:	197b      	adds	r3, r7, r5
 80022a2:	0011      	movs	r1, r2
 80022a4:	0018      	movs	r0, r3
 80022a6:	f000 fc3b 	bl	8002b20 <f25519_inv__distinct>
    f25519_mul__distinct(result, zm1, xm);
 80022aa:	2370      	movs	r3, #112	@ 0x70
 80022ac:	18fa      	adds	r2, r7, r3
 80022ae:	1979      	adds	r1, r7, r5
 80022b0:	68fb      	ldr	r3, [r7, #12]
 80022b2:	0018      	movs	r0, r3
 80022b4:	f000 fb5f 	bl	8002976 <f25519_mul__distinct>
    f25519_normalize(result);
 80022b8:	68fb      	ldr	r3, [r7, #12]
 80022ba:	0018      	movs	r0, r3
 80022bc:	f000 f9d0 	bl	8002660 <f25519_normalize>
}
 80022c0:	46c0      	nop			@ (mov r8, r8)
 80022c2:	46bd      	mov	sp, r7
 80022c4:	b025      	add	sp, #148	@ 0x94
 80022c6:	bdf0      	pop	{r4, r5, r6, r7, pc}

080022c8 <fnv1a_mix>:
 *
 * Her byte'i 32-byte havuza XOR sonrasi FNV prime ile carp.
 * Butun havuz bit duzeyi etkilenir → avalanche.
 * ───────────────────────────────────────────────────────────── */
static void fnv1a_mix(uint8_t *pool, uint8_t new_byte)
{
 80022c8:	b580      	push	{r7, lr}
 80022ca:	b084      	sub	sp, #16
 80022cc:	af00      	add	r7, sp, #0
 80022ce:	6078      	str	r0, [r7, #4]
 80022d0:	000a      	movs	r2, r1
 80022d2:	1cfb      	adds	r3, r7, #3
 80022d4:	701a      	strb	r2, [r3, #0]
    /* FNV-1a 32-bit: her havuz byte'ini yeni byte ile karistir */
    uint32_t h = 2166136261UL; /* FNV offset basis */
 80022d6:	4b21      	ldr	r3, [pc, #132]	@ (800235c <fnv1a_mix+0x94>)
 80022d8:	60fb      	str	r3, [r7, #12]
    int i;

    /* once yeni byte'i havuza XOR et */
    pool[0] ^= new_byte;
 80022da:	687b      	ldr	r3, [r7, #4]
 80022dc:	781a      	ldrb	r2, [r3, #0]
 80022de:	1cfb      	adds	r3, r7, #3
 80022e0:	781b      	ldrb	r3, [r3, #0]
 80022e2:	4053      	eors	r3, r2
 80022e4:	b2da      	uxtb	r2, r3
 80022e6:	687b      	ldr	r3, [r7, #4]
 80022e8:	701a      	strb	r2, [r3, #0]

    /* sonra tum havuz uzerinde FNV-1a uygula (circular) */
    for (i = 0; i < 32; i++) {
 80022ea:	2300      	movs	r3, #0
 80022ec:	60bb      	str	r3, [r7, #8]
 80022ee:	e02c      	b.n	800234a <fnv1a_mix+0x82>
        h ^= (uint32_t)pool[i];
 80022f0:	68bb      	ldr	r3, [r7, #8]
 80022f2:	687a      	ldr	r2, [r7, #4]
 80022f4:	18d3      	adds	r3, r2, r3
 80022f6:	781b      	ldrb	r3, [r3, #0]
 80022f8:	001a      	movs	r2, r3
 80022fa:	68fb      	ldr	r3, [r7, #12]
 80022fc:	4053      	eors	r3, r2
 80022fe:	60fb      	str	r3, [r7, #12]
        h *= 16777619UL; /* FNV prime */
 8002300:	68fa      	ldr	r2, [r7, #12]
 8002302:	0013      	movs	r3, r2
 8002304:	041b      	lsls	r3, r3, #16
 8002306:	189b      	adds	r3, r3, r2
 8002308:	005b      	lsls	r3, r3, #1
 800230a:	189b      	adds	r3, r3, r2
 800230c:	00db      	lsls	r3, r3, #3
 800230e:	189b      	adds	r3, r3, r2
 8002310:	00db      	lsls	r3, r3, #3
 8002312:	189b      	adds	r3, r3, r2
 8002314:	005b      	lsls	r3, r3, #1
 8002316:	189b      	adds	r3, r3, r2
 8002318:	60fb      	str	r3, [r7, #12]
        pool[i] = (uint8_t)(h ^ (h >> 8) ^ (h >> 16) ^ (h >> 24));
 800231a:	68fb      	ldr	r3, [r7, #12]
 800231c:	b2da      	uxtb	r2, r3
 800231e:	68fb      	ldr	r3, [r7, #12]
 8002320:	0a1b      	lsrs	r3, r3, #8
 8002322:	b2db      	uxtb	r3, r3
 8002324:	4053      	eors	r3, r2
 8002326:	b2da      	uxtb	r2, r3
 8002328:	68fb      	ldr	r3, [r7, #12]
 800232a:	0c1b      	lsrs	r3, r3, #16
 800232c:	b2db      	uxtb	r3, r3
 800232e:	4053      	eors	r3, r2
 8002330:	b2d9      	uxtb	r1, r3
 8002332:	68fb      	ldr	r3, [r7, #12]
 8002334:	0e1b      	lsrs	r3, r3, #24
 8002336:	b2da      	uxtb	r2, r3
 8002338:	68bb      	ldr	r3, [r7, #8]
 800233a:	6878      	ldr	r0, [r7, #4]
 800233c:	18c3      	adds	r3, r0, r3
 800233e:	404a      	eors	r2, r1
 8002340:	b2d2      	uxtb	r2, r2
 8002342:	701a      	strb	r2, [r3, #0]
    for (i = 0; i < 32; i++) {
 8002344:	68bb      	ldr	r3, [r7, #8]
 8002346:	3301      	adds	r3, #1
 8002348:	60bb      	str	r3, [r7, #8]
 800234a:	68bb      	ldr	r3, [r7, #8]
 800234c:	2b1f      	cmp	r3, #31
 800234e:	ddcf      	ble.n	80022f0 <fnv1a_mix+0x28>
    }
}
 8002350:	46c0      	nop			@ (mov r8, r8)
 8002352:	46c0      	nop			@ (mov r8, r8)
 8002354:	46bd      	mov	sp, r7
 8002356:	b004      	add	sp, #16
 8002358:	bd80      	pop	{r7, pc}
 800235a:	46c0      	nop			@ (mov r8, r8)
 800235c:	811c9dc5 	.word	0x811c9dc5

08002360 <adc_read_channel>:
 * Bu fonksiyon:
 *   - ADC'yi acık bulursa doğrudan kanal secer ve okur
 *   - ADC kapali ise Nothing (guvenli degrade)
 * ───────────────────────────────────────────────────────────── */
static uint16_t adc_read_channel(uint32_t channel)
{
 8002360:	b580      	push	{r7, lr}
 8002362:	b084      	sub	sp, #16
 8002364:	af00      	add	r7, sp, #0
 8002366:	6078      	str	r0, [r7, #4]
    /* Kanal sec (SQR3[4:0] = kanal numarası, tek donusum) */
    ADC1->CHSELR = (1UL << channel);
 8002368:	4b13      	ldr	r3, [pc, #76]	@ (80023b8 <adc_read_channel+0x58>)
 800236a:	2101      	movs	r1, #1
 800236c:	687a      	ldr	r2, [r7, #4]
 800236e:	4091      	lsls	r1, r2
 8002370:	000a      	movs	r2, r1
 8002372:	629a      	str	r2, [r3, #40]	@ 0x28

    /* Donusumu bashat */
    ADC1->CR |= ADC_CR_ADSTART;
 8002374:	4b10      	ldr	r3, [pc, #64]	@ (80023b8 <adc_read_channel+0x58>)
 8002376:	689a      	ldr	r2, [r3, #8]
 8002378:	4b0f      	ldr	r3, [pc, #60]	@ (80023b8 <adc_read_channel+0x58>)
 800237a:	2104      	movs	r1, #4
 800237c:	430a      	orrs	r2, r1
 800237e:	609a      	str	r2, [r3, #8]

    /* Bitmesini bekle (max ~14µs @ 24MHz, ADC clock = 4MHz) */
    uint32_t timeout = 10000;
 8002380:	4b0e      	ldr	r3, [pc, #56]	@ (80023bc <adc_read_channel+0x5c>)
 8002382:	60fb      	str	r3, [r7, #12]
    while (!(ADC1->ISR & ADC_ISR_EOC) && timeout--)
 8002384:	46c0      	nop			@ (mov r8, r8)
 8002386:	4b0c      	ldr	r3, [pc, #48]	@ (80023b8 <adc_read_channel+0x58>)
 8002388:	681b      	ldr	r3, [r3, #0]
 800238a:	2204      	movs	r2, #4
 800238c:	4013      	ands	r3, r2
 800238e:	d104      	bne.n	800239a <adc_read_channel+0x3a>
 8002390:	68fb      	ldr	r3, [r7, #12]
 8002392:	1e5a      	subs	r2, r3, #1
 8002394:	60fa      	str	r2, [r7, #12]
 8002396:	2b00      	cmp	r3, #0
 8002398:	d1f5      	bne.n	8002386 <adc_read_channel+0x26>
        ;

    uint16_t val = (uint16_t)(ADC1->DR & 0x0FFF);
 800239a:	4b07      	ldr	r3, [pc, #28]	@ (80023b8 <adc_read_channel+0x58>)
 800239c:	6c1b      	ldr	r3, [r3, #64]	@ 0x40
 800239e:	b29a      	uxth	r2, r3
 80023a0:	210a      	movs	r1, #10
 80023a2:	187b      	adds	r3, r7, r1
 80023a4:	0512      	lsls	r2, r2, #20
 80023a6:	0d12      	lsrs	r2, r2, #20
 80023a8:	801a      	strh	r2, [r3, #0]
    return val;
 80023aa:	187b      	adds	r3, r7, r1
 80023ac:	881b      	ldrh	r3, [r3, #0]
}
 80023ae:	0018      	movs	r0, r3
 80023b0:	46bd      	mov	sp, r7
 80023b2:	b004      	add	sp, #16
 80023b4:	bd80      	pop	{r7, pc}
 80023b6:	46c0      	nop			@ (mov r8, r8)
 80023b8:	40012400 	.word	0x40012400
 80023bc:	00002710 	.word	0x00002710

080023c0 <adc_entropy_init>:

/* ─────────────────────────────────────────────────────────────
 * ADC başlatma (geçici, bootloader başında bir kez)
 * ───────────────────────────────────────────────────────────── */
static void adc_entropy_init(void)
{
 80023c0:	b580      	push	{r7, lr}
 80023c2:	af00      	add	r7, sp, #0
    /* ADC saat etkinlestir */
    RCC->APB2ENR |= RCC_APB2ENR_ADCEN;
 80023c4:	4b1a      	ldr	r3, [pc, #104]	@ (8002430 <adc_entropy_init+0x70>)
 80023c6:	699a      	ldr	r2, [r3, #24]
 80023c8:	4b19      	ldr	r3, [pc, #100]	@ (8002430 <adc_entropy_init+0x70>)
 80023ca:	2180      	movs	r1, #128	@ 0x80
 80023cc:	0089      	lsls	r1, r1, #2
 80023ce:	430a      	orrs	r2, r1
 80023d0:	619a      	str	r2, [r3, #24]

    /* ADC kalibrasyonu (cihaz resetinden sonra onerilen) */
    ADC1->CR &= ~ADC_CR_ADEN;       /* Once kapat */
 80023d2:	4b18      	ldr	r3, [pc, #96]	@ (8002434 <adc_entropy_init+0x74>)
 80023d4:	689a      	ldr	r2, [r3, #8]
 80023d6:	4b17      	ldr	r3, [pc, #92]	@ (8002434 <adc_entropy_init+0x74>)
 80023d8:	2101      	movs	r1, #1
 80023da:	438a      	bics	r2, r1
 80023dc:	609a      	str	r2, [r3, #8]
    ADC1->CR |= ADC_CR_ADCAL;       /* Kalibrasyon baslat */
 80023de:	4b15      	ldr	r3, [pc, #84]	@ (8002434 <adc_entropy_init+0x74>)
 80023e0:	689a      	ldr	r2, [r3, #8]
 80023e2:	4b14      	ldr	r3, [pc, #80]	@ (8002434 <adc_entropy_init+0x74>)
 80023e4:	2180      	movs	r1, #128	@ 0x80
 80023e6:	0609      	lsls	r1, r1, #24
 80023e8:	430a      	orrs	r2, r1
 80023ea:	609a      	str	r2, [r3, #8]
    while (ADC1->CR & ADC_CR_ADCAL) /* Bitmesini bekle */
 80023ec:	46c0      	nop			@ (mov r8, r8)
 80023ee:	4b11      	ldr	r3, [pc, #68]	@ (8002434 <adc_entropy_init+0x74>)
 80023f0:	689b      	ldr	r3, [r3, #8]
 80023f2:	2b00      	cmp	r3, #0
 80023f4:	dbfb      	blt.n	80023ee <adc_entropy_init+0x2e>
        ;

    /* Tek donusum modu, en yavaş örnekleme (239.5 cycle = max gurultu) */
    ADC1->CFGR1 = 0; /* Tek donusum, 12-bit */
 80023f6:	4b0f      	ldr	r3, [pc, #60]	@ (8002434 <adc_entropy_init+0x74>)
 80023f8:	2200      	movs	r2, #0
 80023fa:	60da      	str	r2, [r3, #12]
    ADC1->SMPR  = ADC_SMPR_SMP_2 | ADC_SMPR_SMP_1 | ADC_SMPR_SMP_0; /* 239.5 cycle */
 80023fc:	4b0d      	ldr	r3, [pc, #52]	@ (8002434 <adc_entropy_init+0x74>)
 80023fe:	2207      	movs	r2, #7
 8002400:	615a      	str	r2, [r3, #20]

    /* Ic sensörler etkinlestir (sicaklik + Vrefint) */
    ADC->CCR |= ADC_CCR_TSEN | ADC_CCR_VREFEN;
 8002402:	4b0d      	ldr	r3, [pc, #52]	@ (8002438 <adc_entropy_init+0x78>)
 8002404:	681a      	ldr	r2, [r3, #0]
 8002406:	4b0c      	ldr	r3, [pc, #48]	@ (8002438 <adc_entropy_init+0x78>)
 8002408:	21c0      	movs	r1, #192	@ 0xc0
 800240a:	0409      	lsls	r1, r1, #16
 800240c:	430a      	orrs	r2, r1
 800240e:	601a      	str	r2, [r3, #0]

    /* ADC ac */
    ADC1->CR |= ADC_CR_ADEN;
 8002410:	4b08      	ldr	r3, [pc, #32]	@ (8002434 <adc_entropy_init+0x74>)
 8002412:	689a      	ldr	r2, [r3, #8]
 8002414:	4b07      	ldr	r3, [pc, #28]	@ (8002434 <adc_entropy_init+0x74>)
 8002416:	2101      	movs	r1, #1
 8002418:	430a      	orrs	r2, r1
 800241a:	609a      	str	r2, [r3, #8]
    while (!(ADC1->ISR & ADC_ISR_ADRDY))  /* Hazir olmasini bekle */
 800241c:	46c0      	nop			@ (mov r8, r8)
 800241e:	4b05      	ldr	r3, [pc, #20]	@ (8002434 <adc_entropy_init+0x74>)
 8002420:	681b      	ldr	r3, [r3, #0]
 8002422:	2201      	movs	r2, #1
 8002424:	4013      	ands	r3, r2
 8002426:	d0fa      	beq.n	800241e <adc_entropy_init+0x5e>
        ;
}
 8002428:	46c0      	nop			@ (mov r8, r8)
 800242a:	46c0      	nop			@ (mov r8, r8)
 800242c:	46bd      	mov	sp, r7
 800242e:	bd80      	pop	{r7, pc}
 8002430:	40021000 	.word	0x40021000
 8002434:	40012400 	.word	0x40012400
 8002438:	40012708 	.word	0x40012708

0800243c <adc_entropy_deinit>:

/* ─────────────────────────────────────────────────────────────
 * ADC durdur (entropi toplandiktan sonra)
 * ───────────────────────────────────────────────────────────── */
static void adc_entropy_deinit(void)
{
 800243c:	b580      	push	{r7, lr}
 800243e:	af00      	add	r7, sp, #0
    ADC1->CR &= ~ADC_CR_ADEN;
 8002440:	4b0a      	ldr	r3, [pc, #40]	@ (800246c <adc_entropy_deinit+0x30>)
 8002442:	689a      	ldr	r2, [r3, #8]
 8002444:	4b09      	ldr	r3, [pc, #36]	@ (800246c <adc_entropy_deinit+0x30>)
 8002446:	2101      	movs	r1, #1
 8002448:	438a      	bics	r2, r1
 800244a:	609a      	str	r2, [r3, #8]
    ADC->CCR &= ~(ADC_CCR_TSEN | ADC_CCR_VREFEN);
 800244c:	4b08      	ldr	r3, [pc, #32]	@ (8002470 <adc_entropy_deinit+0x34>)
 800244e:	681a      	ldr	r2, [r3, #0]
 8002450:	4b07      	ldr	r3, [pc, #28]	@ (8002470 <adc_entropy_deinit+0x34>)
 8002452:	4908      	ldr	r1, [pc, #32]	@ (8002474 <adc_entropy_deinit+0x38>)
 8002454:	400a      	ands	r2, r1
 8002456:	601a      	str	r2, [r3, #0]
    RCC->APB2ENR &= ~RCC_APB2ENR_ADCEN;
 8002458:	4b07      	ldr	r3, [pc, #28]	@ (8002478 <adc_entropy_deinit+0x3c>)
 800245a:	699a      	ldr	r2, [r3, #24]
 800245c:	4b06      	ldr	r3, [pc, #24]	@ (8002478 <adc_entropy_deinit+0x3c>)
 800245e:	4907      	ldr	r1, [pc, #28]	@ (800247c <adc_entropy_deinit+0x40>)
 8002460:	400a      	ands	r2, r1
 8002462:	619a      	str	r2, [r3, #24]
}
 8002464:	46c0      	nop			@ (mov r8, r8)
 8002466:	46bd      	mov	sp, r7
 8002468:	bd80      	pop	{r7, pc}
 800246a:	46c0      	nop			@ (mov r8, r8)
 800246c:	40012400 	.word	0x40012400
 8002470:	40012708 	.word	0x40012708
 8002474:	ff3fffff 	.word	0xff3fffff
 8002478:	40021000 	.word	0x40021000
 800247c:	fffffdff 	.word	0xfffffdff

08002480 <entropy_generate>:

/* ─────────────────────────────────────────────────────────────
 * entropy_generate — Ana fonksiyon
 * ───────────────────────────────────────────────────────────── */
void entropy_generate(uint8_t *buf, uint16_t len)
{
 8002480:	b5f0      	push	{r4, r5, r6, r7, lr}
 8002482:	b093      	sub	sp, #76	@ 0x4c
 8002484:	af00      	add	r7, sp, #0
 8002486:	6078      	str	r0, [r7, #4]
 8002488:	000a      	movs	r2, r1
 800248a:	1cbb      	adds	r3, r7, #2
 800248c:	801a      	strh	r2, [r3, #0]
    uint8_t pool[32];
    int i;

    /* ── Katman 1: UID (12 byte, her cihaza ozel) ── */
    uint32_t uid0 = *(volatile uint32_t *)UID_ADDR_W0;
 800248e:	4b6f      	ldr	r3, [pc, #444]	@ (800264c <entropy_generate+0x1cc>)
 8002490:	681b      	ldr	r3, [r3, #0]
 8002492:	617b      	str	r3, [r7, #20]
    uint32_t uid1 = *(volatile uint32_t *)UID_ADDR_W1;
 8002494:	4b6e      	ldr	r3, [pc, #440]	@ (8002650 <entropy_generate+0x1d0>)
 8002496:	681b      	ldr	r3, [r3, #0]
 8002498:	613b      	str	r3, [r7, #16]
    uint32_t uid2 = *(volatile uint32_t *)UID_ADDR_W2;
 800249a:	4b6e      	ldr	r3, [pc, #440]	@ (8002654 <entropy_generate+0x1d4>)
 800249c:	681b      	ldr	r3, [r3, #0]
 800249e:	60fb      	str	r3, [r7, #12]

    /* UID'yi havuza dagit */
    memcpy(pool,      &uid0, 4);
 80024a0:	2314      	movs	r3, #20
 80024a2:	18f9      	adds	r1, r7, r3
 80024a4:	2418      	movs	r4, #24
 80024a6:	193b      	adds	r3, r7, r4
 80024a8:	2204      	movs	r2, #4
 80024aa:	0018      	movs	r0, r3
 80024ac:	f004 fc48 	bl	8006d40 <memcpy>
    memcpy(pool + 4,  &uid1, 4);
 80024b0:	193b      	adds	r3, r7, r4
 80024b2:	3304      	adds	r3, #4
 80024b4:	2210      	movs	r2, #16
 80024b6:	18b9      	adds	r1, r7, r2
 80024b8:	2204      	movs	r2, #4
 80024ba:	0018      	movs	r0, r3
 80024bc:	f004 fc40 	bl	8006d40 <memcpy>
    memcpy(pool + 8,  &uid2, 4);
 80024c0:	193b      	adds	r3, r7, r4
 80024c2:	3308      	adds	r3, #8
 80024c4:	220c      	movs	r2, #12
 80024c6:	18b9      	adds	r1, r7, r2
 80024c8:	2204      	movs	r2, #4
 80024ca:	0018      	movs	r0, r3
 80024cc:	f004 fc38 	bl	8006d40 <memcpy>
    /* Kalan 20 byte sifir — ADC tur'ları doldurur */
    memset(pool + 12, 0, 20);
 80024d0:	193b      	adds	r3, r7, r4
 80024d2:	330c      	adds	r3, #12
 80024d4:	2214      	movs	r2, #20
 80024d6:	2100      	movs	r1, #0
 80024d8:	0018      	movs	r0, r3
 80024da:	f004 fc05 	bl	8006ce8 <memset>

    /* UID uzerinde ilk karistirma */
    for (i = 0; i < 12; i++) {
 80024de:	2300      	movs	r3, #0
 80024e0:	647b      	str	r3, [r7, #68]	@ 0x44
 80024e2:	e00c      	b.n	80024fe <entropy_generate+0x7e>
        fnv1a_mix(pool, pool[i]);
 80024e4:	2118      	movs	r1, #24
 80024e6:	187a      	adds	r2, r7, r1
 80024e8:	6c7b      	ldr	r3, [r7, #68]	@ 0x44
 80024ea:	18d3      	adds	r3, r2, r3
 80024ec:	781a      	ldrb	r2, [r3, #0]
 80024ee:	187b      	adds	r3, r7, r1
 80024f0:	0011      	movs	r1, r2
 80024f2:	0018      	movs	r0, r3
 80024f4:	f7ff fee8 	bl	80022c8 <fnv1a_mix>
    for (i = 0; i < 12; i++) {
 80024f8:	6c7b      	ldr	r3, [r7, #68]	@ 0x44
 80024fa:	3301      	adds	r3, #1
 80024fc:	647b      	str	r3, [r7, #68]	@ 0x44
 80024fe:	6c7b      	ldr	r3, [r7, #68]	@ 0x44
 8002500:	2b0b      	cmp	r3, #11
 8002502:	ddef      	ble.n	80024e4 <entropy_generate+0x64>
    }

    /* ── Katman 2 + 3: ADC + SysTick (32 tur) ── */
    adc_entropy_init();
 8002504:	f7ff ff5c 	bl	80023c0 <adc_entropy_init>

    for (i = 0; i < 32; i++) {
 8002508:	2300      	movs	r3, #0
 800250a:	647b      	str	r3, [r7, #68]	@ 0x44
 800250c:	e054      	b.n	80025b8 <entropy_generate+0x138>
        /* Ic sicaklik sensoru: her okuma farkli analog gurultu */
        uint16_t temp_raw = adc_read_channel(ADC_CHAN_TEMP);
 800250e:	2542      	movs	r5, #66	@ 0x42
 8002510:	197c      	adds	r4, r7, r5
 8002512:	2010      	movs	r0, #16
 8002514:	f7ff ff24 	bl	8002360 <adc_read_channel>
 8002518:	0003      	movs	r3, r0
 800251a:	8023      	strh	r3, [r4, #0]

        /* SysTick: ADC okuma arasindaki zamanlama jitter'i */
        uint32_t tick = SysTick->VAL;
 800251c:	4b4e      	ldr	r3, [pc, #312]	@ (8002658 <entropy_generate+0x1d8>)
 800251e:	689b      	ldr	r3, [r3, #8]
 8002520:	63fb      	str	r3, [r7, #60]	@ 0x3c

        /* Her iki kaynagi havuza karistir */
        fnv1a_mix(pool, (uint8_t)(temp_raw & 0xFF));
 8002522:	197b      	adds	r3, r7, r5
 8002524:	881b      	ldrh	r3, [r3, #0]
 8002526:	b2da      	uxtb	r2, r3
 8002528:	2418      	movs	r4, #24
 800252a:	193b      	adds	r3, r7, r4
 800252c:	0011      	movs	r1, r2
 800252e:	0018      	movs	r0, r3
 8002530:	f7ff feca 	bl	80022c8 <fnv1a_mix>
        fnv1a_mix(pool, (uint8_t)(temp_raw >> 8));
 8002534:	197b      	adds	r3, r7, r5
 8002536:	881b      	ldrh	r3, [r3, #0]
 8002538:	0a1b      	lsrs	r3, r3, #8
 800253a:	b29b      	uxth	r3, r3
 800253c:	b2da      	uxtb	r2, r3
 800253e:	0025      	movs	r5, r4
 8002540:	197b      	adds	r3, r7, r5
 8002542:	0011      	movs	r1, r2
 8002544:	0018      	movs	r0, r3
 8002546:	f7ff febf 	bl	80022c8 <fnv1a_mix>
        fnv1a_mix(pool, (uint8_t)(tick & 0xFF));
 800254a:	6bfb      	ldr	r3, [r7, #60]	@ 0x3c
 800254c:	b2da      	uxtb	r2, r3
 800254e:	197b      	adds	r3, r7, r5
 8002550:	0011      	movs	r1, r2
 8002552:	0018      	movs	r0, r3
 8002554:	f7ff feb8 	bl	80022c8 <fnv1a_mix>
        fnv1a_mix(pool, (uint8_t)((tick >> 8) & 0xFF));
 8002558:	6bfb      	ldr	r3, [r7, #60]	@ 0x3c
 800255a:	0a1b      	lsrs	r3, r3, #8
 800255c:	b2da      	uxtb	r2, r3
 800255e:	197b      	adds	r3, r7, r5
 8002560:	0011      	movs	r1, r2
 8002562:	0018      	movs	r0, r3
 8002564:	f7ff feb0 	bl	80022c8 <fnv1a_mix>

        /* Tur sayisini da karıştır (havuz belirleyiciligi arttirir) */
        fnv1a_mix(pool, (uint8_t)i);
 8002568:	6c7b      	ldr	r3, [r7, #68]	@ 0x44
 800256a:	b2da      	uxtb	r2, r3
 800256c:	197b      	adds	r3, r7, r5
 800256e:	0011      	movs	r1, r2
 8002570:	0018      	movs	r0, r3
 8002572:	f7ff fea9 	bl	80022c8 <fnv1a_mix>

        /* Vrefint: ek analog gurultu (her 4 turda bir) */
        if ((i & 3) == 0) {
 8002576:	6c7b      	ldr	r3, [r7, #68]	@ 0x44
 8002578:	2203      	movs	r2, #3
 800257a:	4013      	ands	r3, r2
 800257c:	d119      	bne.n	80025b2 <entropy_generate+0x132>
            uint16_t vref_raw = adc_read_channel(ADC_CHAN_VREFINT);
 800257e:	263a      	movs	r6, #58	@ 0x3a
 8002580:	19bc      	adds	r4, r7, r6
 8002582:	2011      	movs	r0, #17
 8002584:	f7ff feec 	bl	8002360 <adc_read_channel>
 8002588:	0003      	movs	r3, r0
 800258a:	8023      	strh	r3, [r4, #0]
            fnv1a_mix(pool, (uint8_t)(vref_raw & 0xFF));
 800258c:	0034      	movs	r4, r6
 800258e:	193b      	adds	r3, r7, r4
 8002590:	881b      	ldrh	r3, [r3, #0]
 8002592:	b2da      	uxtb	r2, r3
 8002594:	197b      	adds	r3, r7, r5
 8002596:	0011      	movs	r1, r2
 8002598:	0018      	movs	r0, r3
 800259a:	f7ff fe95 	bl	80022c8 <fnv1a_mix>
            fnv1a_mix(pool, (uint8_t)(vref_raw >> 8));
 800259e:	193b      	adds	r3, r7, r4
 80025a0:	881b      	ldrh	r3, [r3, #0]
 80025a2:	0a1b      	lsrs	r3, r3, #8
 80025a4:	b29b      	uxth	r3, r3
 80025a6:	b2da      	uxtb	r2, r3
 80025a8:	197b      	adds	r3, r7, r5
 80025aa:	0011      	movs	r1, r2
 80025ac:	0018      	movs	r0, r3
 80025ae:	f7ff fe8b 	bl	80022c8 <fnv1a_mix>
    for (i = 0; i < 32; i++) {
 80025b2:	6c7b      	ldr	r3, [r7, #68]	@ 0x44
 80025b4:	3301      	adds	r3, #1
 80025b6:	647b      	str	r3, [r7, #68]	@ 0x44
 80025b8:	6c7b      	ldr	r3, [r7, #68]	@ 0x44
 80025ba:	2b1f      	cmp	r3, #31
 80025bc:	dda7      	ble.n	800250e <entropy_generate+0x8e>
        }
    }

    adc_entropy_deinit();
 80025be:	f7ff ff3d 	bl	800243c <adc_entropy_deinit>

    /* ── Çıkış: istenen uzunlukta byte kopyala ── */
    if (len <= 32) {
 80025c2:	1cbb      	adds	r3, r7, #2
 80025c4:	881b      	ldrh	r3, [r3, #0]
 80025c6:	2b20      	cmp	r3, #32
 80025c8:	d808      	bhi.n	80025dc <entropy_generate+0x15c>
        memcpy(buf, pool, len);
 80025ca:	1cbb      	adds	r3, r7, #2
 80025cc:	881a      	ldrh	r2, [r3, #0]
 80025ce:	2318      	movs	r3, #24
 80025d0:	18f9      	adds	r1, r7, r3
 80025d2:	687b      	ldr	r3, [r7, #4]
 80025d4:	0018      	movs	r0, r3
 80025d6:	f004 fbb3 	bl	8006d40 <memcpy>
 80025da:	e02c      	b.n	8002636 <entropy_generate+0x1b6>
    } else {
        /* len > 32 ise: ilk 32 byte kopyala, kalanı için havuzu yeniden karistir */
        memcpy(buf, pool, 32);
 80025dc:	687a      	ldr	r2, [r7, #4]
 80025de:	2318      	movs	r3, #24
 80025e0:	18fb      	adds	r3, r7, r3
 80025e2:	0010      	movs	r0, r2
 80025e4:	0019      	movs	r1, r3
 80025e6:	2320      	movs	r3, #32
 80025e8:	001a      	movs	r2, r3
 80025ea:	f004 fba9 	bl	8006d40 <memcpy>
        for (i = 32; i < len; i++) {
 80025ee:	2320      	movs	r3, #32
 80025f0:	647b      	str	r3, [r7, #68]	@ 0x44
 80025f2:	e01b      	b.n	800262c <entropy_generate+0x1ac>
            fnv1a_mix(pool, (uint8_t)i);
 80025f4:	6c7b      	ldr	r3, [r7, #68]	@ 0x44
 80025f6:	b2da      	uxtb	r2, r3
 80025f8:	2318      	movs	r3, #24
 80025fa:	18fb      	adds	r3, r7, r3
 80025fc:	0011      	movs	r1, r2
 80025fe:	0018      	movs	r0, r3
 8002600:	f7ff fe62 	bl	80022c8 <fnv1a_mix>
            buf[i] = pool[i % 32];
 8002604:	6c7b      	ldr	r3, [r7, #68]	@ 0x44
 8002606:	4a15      	ldr	r2, [pc, #84]	@ (800265c <entropy_generate+0x1dc>)
 8002608:	4013      	ands	r3, r2
 800260a:	d504      	bpl.n	8002616 <entropy_generate+0x196>
 800260c:	3b01      	subs	r3, #1
 800260e:	2220      	movs	r2, #32
 8002610:	4252      	negs	r2, r2
 8002612:	4313      	orrs	r3, r2
 8002614:	3301      	adds	r3, #1
 8002616:	0019      	movs	r1, r3
 8002618:	6c7b      	ldr	r3, [r7, #68]	@ 0x44
 800261a:	687a      	ldr	r2, [r7, #4]
 800261c:	18d3      	adds	r3, r2, r3
 800261e:	2218      	movs	r2, #24
 8002620:	18ba      	adds	r2, r7, r2
 8002622:	5c52      	ldrb	r2, [r2, r1]
 8002624:	701a      	strb	r2, [r3, #0]
        for (i = 32; i < len; i++) {
 8002626:	6c7b      	ldr	r3, [r7, #68]	@ 0x44
 8002628:	3301      	adds	r3, #1
 800262a:	647b      	str	r3, [r7, #68]	@ 0x44
 800262c:	1cbb      	adds	r3, r7, #2
 800262e:	881b      	ldrh	r3, [r3, #0]
 8002630:	6c7a      	ldr	r2, [r7, #68]	@ 0x44
 8002632:	429a      	cmp	r2, r3
 8002634:	dbde      	blt.n	80025f4 <entropy_generate+0x174>
        }
    }

    /* Temizle — private key verisini Stack'te birakma */
    memset(pool, 0, sizeof(pool));
 8002636:	2318      	movs	r3, #24
 8002638:	18fb      	adds	r3, r7, r3
 800263a:	2220      	movs	r2, #32
 800263c:	2100      	movs	r1, #0
 800263e:	0018      	movs	r0, r3
 8002640:	f004 fb52 	bl	8006ce8 <memset>
}
 8002644:	46c0      	nop			@ (mov r8, r8)
 8002646:	46bd      	mov	sp, r7
 8002648:	b013      	add	sp, #76	@ 0x4c
 800264a:	bdf0      	pop	{r4, r5, r6, r7, pc}
 800264c:	1ffff7ac 	.word	0x1ffff7ac
 8002650:	1ffff7b0 	.word	0x1ffff7b0
 8002654:	1ffff7b4 	.word	0x1ffff7b4
 8002658:	e000e010 	.word	0xe000e010
 800265c:	8000001f 	.word	0x8000001f

08002660 <f25519_normalize>:
    for (; i < F25519_SIZE; i++)
        x[i] = 0;
}

void f25519_normalize(uint8_t *x)
{
 8002660:	b580      	push	{r7, lr}
 8002662:	b08c      	sub	sp, #48	@ 0x30
 8002664:	af00      	add	r7, sp, #0
 8002666:	6078      	str	r0, [r7, #4]
    uint8_t minusp[F25519_SIZE];
    uint16_t c;
    int i;

    c = (x[31] >> 7) * 19;
 8002668:	687b      	ldr	r3, [r7, #4]
 800266a:	331f      	adds	r3, #31
 800266c:	781b      	ldrb	r3, [r3, #0]
 800266e:	09db      	lsrs	r3, r3, #7
 8002670:	b2db      	uxtb	r3, r3
 8002672:	222e      	movs	r2, #46	@ 0x2e
 8002674:	18b9      	adds	r1, r7, r2
 8002676:	1c1a      	adds	r2, r3, #0
 8002678:	00d2      	lsls	r2, r2, #3
 800267a:	18d2      	adds	r2, r2, r3
 800267c:	1892      	adds	r2, r2, r2
 800267e:	18d3      	adds	r3, r2, r3
 8002680:	800b      	strh	r3, [r1, #0]
    x[31] &= 127;
 8002682:	687b      	ldr	r3, [r7, #4]
 8002684:	331f      	adds	r3, #31
 8002686:	781a      	ldrb	r2, [r3, #0]
 8002688:	687b      	ldr	r3, [r7, #4]
 800268a:	331f      	adds	r3, #31
 800268c:	217f      	movs	r1, #127	@ 0x7f
 800268e:	400a      	ands	r2, r1
 8002690:	b2d2      	uxtb	r2, r2
 8002692:	701a      	strb	r2, [r3, #0]

    for (i = 0; i < F25519_SIZE; i++) {
 8002694:	2300      	movs	r3, #0
 8002696:	62bb      	str	r3, [r7, #40]	@ 0x28
 8002698:	e019      	b.n	80026ce <f25519_normalize+0x6e>
        c += x[i];
 800269a:	6abb      	ldr	r3, [r7, #40]	@ 0x28
 800269c:	687a      	ldr	r2, [r7, #4]
 800269e:	18d3      	adds	r3, r2, r3
 80026a0:	781b      	ldrb	r3, [r3, #0]
 80026a2:	0019      	movs	r1, r3
 80026a4:	202e      	movs	r0, #46	@ 0x2e
 80026a6:	183b      	adds	r3, r7, r0
 80026a8:	183a      	adds	r2, r7, r0
 80026aa:	8812      	ldrh	r2, [r2, #0]
 80026ac:	188a      	adds	r2, r1, r2
 80026ae:	801a      	strh	r2, [r3, #0]
        x[i] = c;
 80026b0:	6abb      	ldr	r3, [r7, #40]	@ 0x28
 80026b2:	687a      	ldr	r2, [r7, #4]
 80026b4:	18d3      	adds	r3, r2, r3
 80026b6:	183a      	adds	r2, r7, r0
 80026b8:	8812      	ldrh	r2, [r2, #0]
 80026ba:	b2d2      	uxtb	r2, r2
 80026bc:	701a      	strb	r2, [r3, #0]
        c >>= 8;
 80026be:	183b      	adds	r3, r7, r0
 80026c0:	183a      	adds	r2, r7, r0
 80026c2:	8812      	ldrh	r2, [r2, #0]
 80026c4:	0a12      	lsrs	r2, r2, #8
 80026c6:	801a      	strh	r2, [r3, #0]
    for (i = 0; i < F25519_SIZE; i++) {
 80026c8:	6abb      	ldr	r3, [r7, #40]	@ 0x28
 80026ca:	3301      	adds	r3, #1
 80026cc:	62bb      	str	r3, [r7, #40]	@ 0x28
 80026ce:	6abb      	ldr	r3, [r7, #40]	@ 0x28
 80026d0:	2b1f      	cmp	r3, #31
 80026d2:	dde2      	ble.n	800269a <f25519_normalize+0x3a>
    }

    c = 19;
 80026d4:	232e      	movs	r3, #46	@ 0x2e
 80026d6:	18fb      	adds	r3, r7, r3
 80026d8:	2213      	movs	r2, #19
 80026da:	801a      	strh	r2, [r3, #0]
    for (i = 0; i + 1 < F25519_SIZE; i++) {
 80026dc:	2300      	movs	r3, #0
 80026de:	62bb      	str	r3, [r7, #40]	@ 0x28
 80026e0:	e01b      	b.n	800271a <f25519_normalize+0xba>
        c += x[i];
 80026e2:	6abb      	ldr	r3, [r7, #40]	@ 0x28
 80026e4:	687a      	ldr	r2, [r7, #4]
 80026e6:	18d3      	adds	r3, r2, r3
 80026e8:	781b      	ldrb	r3, [r3, #0]
 80026ea:	0019      	movs	r1, r3
 80026ec:	202e      	movs	r0, #46	@ 0x2e
 80026ee:	183b      	adds	r3, r7, r0
 80026f0:	183a      	adds	r2, r7, r0
 80026f2:	8812      	ldrh	r2, [r2, #0]
 80026f4:	188a      	adds	r2, r1, r2
 80026f6:	801a      	strh	r2, [r3, #0]
        minusp[i] = c;
 80026f8:	183b      	adds	r3, r7, r0
 80026fa:	881b      	ldrh	r3, [r3, #0]
 80026fc:	b2d9      	uxtb	r1, r3
 80026fe:	2308      	movs	r3, #8
 8002700:	18fa      	adds	r2, r7, r3
 8002702:	6abb      	ldr	r3, [r7, #40]	@ 0x28
 8002704:	18d3      	adds	r3, r2, r3
 8002706:	1c0a      	adds	r2, r1, #0
 8002708:	701a      	strb	r2, [r3, #0]
        c >>= 8;
 800270a:	183b      	adds	r3, r7, r0
 800270c:	183a      	adds	r2, r7, r0
 800270e:	8812      	ldrh	r2, [r2, #0]
 8002710:	0a12      	lsrs	r2, r2, #8
 8002712:	801a      	strh	r2, [r3, #0]
    for (i = 0; i + 1 < F25519_SIZE; i++) {
 8002714:	6abb      	ldr	r3, [r7, #40]	@ 0x28
 8002716:	3301      	adds	r3, #1
 8002718:	62bb      	str	r3, [r7, #40]	@ 0x28
 800271a:	6abb      	ldr	r3, [r7, #40]	@ 0x28
 800271c:	2b1e      	cmp	r3, #30
 800271e:	dde0      	ble.n	80026e2 <f25519_normalize+0x82>
    }
    c += ((uint16_t)x[i]) - 128;
 8002720:	6abb      	ldr	r3, [r7, #40]	@ 0x28
 8002722:	687a      	ldr	r2, [r7, #4]
 8002724:	18d3      	adds	r3, r2, r3
 8002726:	781b      	ldrb	r3, [r3, #0]
 8002728:	001a      	movs	r2, r3
 800272a:	212e      	movs	r1, #46	@ 0x2e
 800272c:	187b      	adds	r3, r7, r1
 800272e:	881b      	ldrh	r3, [r3, #0]
 8002730:	18d3      	adds	r3, r2, r3
 8002732:	b29a      	uxth	r2, r3
 8002734:	187b      	adds	r3, r7, r1
 8002736:	3a80      	subs	r2, #128	@ 0x80
 8002738:	801a      	strh	r2, [r3, #0]
    minusp[31] = c;
 800273a:	187b      	adds	r3, r7, r1
 800273c:	881b      	ldrh	r3, [r3, #0]
 800273e:	b2da      	uxtb	r2, r3
 8002740:	2008      	movs	r0, #8
 8002742:	183b      	adds	r3, r7, r0
 8002744:	77da      	strb	r2, [r3, #31]

    f25519_select(x, minusp, x, (c >> 15) & 1);
 8002746:	187b      	adds	r3, r7, r1
 8002748:	881b      	ldrh	r3, [r3, #0]
 800274a:	0bdb      	lsrs	r3, r3, #15
 800274c:	b29b      	uxth	r3, r3
 800274e:	b2db      	uxtb	r3, r3
 8002750:	2201      	movs	r2, #1
 8002752:	4013      	ands	r3, r2
 8002754:	b2db      	uxtb	r3, r3
 8002756:	687a      	ldr	r2, [r7, #4]
 8002758:	1839      	adds	r1, r7, r0
 800275a:	6878      	ldr	r0, [r7, #4]
 800275c:	f000 f804 	bl	8002768 <f25519_select>
}
 8002760:	46c0      	nop			@ (mov r8, r8)
 8002762:	46bd      	mov	sp, r7
 8002764:	b00c      	add	sp, #48	@ 0x30
 8002766:	bd80      	pop	{r7, pc}

08002768 <f25519_select>:
}

void f25519_select(uint8_t *dst,
                   const uint8_t *zero, const uint8_t *one,
                   uint8_t condition)
{
 8002768:	b580      	push	{r7, lr}
 800276a:	b086      	sub	sp, #24
 800276c:	af00      	add	r7, sp, #0
 800276e:	60f8      	str	r0, [r7, #12]
 8002770:	60b9      	str	r1, [r7, #8]
 8002772:	607a      	str	r2, [r7, #4]
 8002774:	001a      	movs	r2, r3
 8002776:	1cfb      	adds	r3, r7, #3
 8002778:	701a      	strb	r2, [r3, #0]
    const uint8_t mask = -condition;
 800277a:	2313      	movs	r3, #19
 800277c:	18fb      	adds	r3, r7, r3
 800277e:	1cfa      	adds	r2, r7, #3
 8002780:	7812      	ldrb	r2, [r2, #0]
 8002782:	4252      	negs	r2, r2
 8002784:	701a      	strb	r2, [r3, #0]
    int i;
    for (i = 0; i < F25519_SIZE; i++)
 8002786:	2300      	movs	r3, #0
 8002788:	617b      	str	r3, [r7, #20]
 800278a:	e01b      	b.n	80027c4 <f25519_select+0x5c>
        dst[i] = zero[i] ^ (mask & (one[i] ^ zero[i]));
 800278c:	697b      	ldr	r3, [r7, #20]
 800278e:	68ba      	ldr	r2, [r7, #8]
 8002790:	18d3      	adds	r3, r2, r3
 8002792:	7819      	ldrb	r1, [r3, #0]
 8002794:	697b      	ldr	r3, [r7, #20]
 8002796:	687a      	ldr	r2, [r7, #4]
 8002798:	18d3      	adds	r3, r2, r3
 800279a:	781a      	ldrb	r2, [r3, #0]
 800279c:	697b      	ldr	r3, [r7, #20]
 800279e:	68b8      	ldr	r0, [r7, #8]
 80027a0:	18c3      	adds	r3, r0, r3
 80027a2:	781b      	ldrb	r3, [r3, #0]
 80027a4:	4053      	eors	r3, r2
 80027a6:	b2db      	uxtb	r3, r3
 80027a8:	2213      	movs	r2, #19
 80027aa:	18ba      	adds	r2, r7, r2
 80027ac:	7812      	ldrb	r2, [r2, #0]
 80027ae:	4013      	ands	r3, r2
 80027b0:	b2da      	uxtb	r2, r3
 80027b2:	697b      	ldr	r3, [r7, #20]
 80027b4:	68f8      	ldr	r0, [r7, #12]
 80027b6:	18c3      	adds	r3, r0, r3
 80027b8:	404a      	eors	r2, r1
 80027ba:	b2d2      	uxtb	r2, r2
 80027bc:	701a      	strb	r2, [r3, #0]
    for (i = 0; i < F25519_SIZE; i++)
 80027be:	697b      	ldr	r3, [r7, #20]
 80027c0:	3301      	adds	r3, #1
 80027c2:	617b      	str	r3, [r7, #20]
 80027c4:	697b      	ldr	r3, [r7, #20]
 80027c6:	2b1f      	cmp	r3, #31
 80027c8:	dde0      	ble.n	800278c <f25519_select+0x24>
}
 80027ca:	46c0      	nop			@ (mov r8, r8)
 80027cc:	46c0      	nop			@ (mov r8, r8)
 80027ce:	46bd      	mov	sp, r7
 80027d0:	b006      	add	sp, #24
 80027d2:	bd80      	pop	{r7, pc}

080027d4 <f25519_add>:

void f25519_add(uint8_t *r, const uint8_t *a, const uint8_t *b)
{
 80027d4:	b580      	push	{r7, lr}
 80027d6:	b086      	sub	sp, #24
 80027d8:	af00      	add	r7, sp, #0
 80027da:	60f8      	str	r0, [r7, #12]
 80027dc:	60b9      	str	r1, [r7, #8]
 80027de:	607a      	str	r2, [r7, #4]
    uint16_t c = 0;
 80027e0:	2316      	movs	r3, #22
 80027e2:	18fb      	adds	r3, r7, r3
 80027e4:	2200      	movs	r2, #0
 80027e6:	801a      	strh	r2, [r3, #0]
    int i;

    for (i = 0; i < F25519_SIZE; i++) {
 80027e8:	2300      	movs	r3, #0
 80027ea:	613b      	str	r3, [r7, #16]
 80027ec:	e01f      	b.n	800282e <f25519_add+0x5a>
        c >>= 8;
 80027ee:	2016      	movs	r0, #22
 80027f0:	183b      	adds	r3, r7, r0
 80027f2:	183a      	adds	r2, r7, r0
 80027f4:	8812      	ldrh	r2, [r2, #0]
 80027f6:	0a12      	lsrs	r2, r2, #8
 80027f8:	801a      	strh	r2, [r3, #0]
        c += ((uint16_t)a[i]) + ((uint16_t)b[i]);
 80027fa:	693b      	ldr	r3, [r7, #16]
 80027fc:	68ba      	ldr	r2, [r7, #8]
 80027fe:	18d3      	adds	r3, r2, r3
 8002800:	781b      	ldrb	r3, [r3, #0]
 8002802:	0019      	movs	r1, r3
 8002804:	693b      	ldr	r3, [r7, #16]
 8002806:	687a      	ldr	r2, [r7, #4]
 8002808:	18d3      	adds	r3, r2, r3
 800280a:	781b      	ldrb	r3, [r3, #0]
 800280c:	18cb      	adds	r3, r1, r3
 800280e:	b299      	uxth	r1, r3
 8002810:	183b      	adds	r3, r7, r0
 8002812:	183a      	adds	r2, r7, r0
 8002814:	8812      	ldrh	r2, [r2, #0]
 8002816:	188a      	adds	r2, r1, r2
 8002818:	801a      	strh	r2, [r3, #0]
        r[i] = c;
 800281a:	693b      	ldr	r3, [r7, #16]
 800281c:	68fa      	ldr	r2, [r7, #12]
 800281e:	18d3      	adds	r3, r2, r3
 8002820:	183a      	adds	r2, r7, r0
 8002822:	8812      	ldrh	r2, [r2, #0]
 8002824:	b2d2      	uxtb	r2, r2
 8002826:	701a      	strb	r2, [r3, #0]
    for (i = 0; i < F25519_SIZE; i++) {
 8002828:	693b      	ldr	r3, [r7, #16]
 800282a:	3301      	adds	r3, #1
 800282c:	613b      	str	r3, [r7, #16]
 800282e:	693b      	ldr	r3, [r7, #16]
 8002830:	2b1f      	cmp	r3, #31
 8002832:	dddc      	ble.n	80027ee <f25519_add+0x1a>
    }

    r[31] &= 127;
 8002834:	68fb      	ldr	r3, [r7, #12]
 8002836:	331f      	adds	r3, #31
 8002838:	781a      	ldrb	r2, [r3, #0]
 800283a:	68fb      	ldr	r3, [r7, #12]
 800283c:	331f      	adds	r3, #31
 800283e:	217f      	movs	r1, #127	@ 0x7f
 8002840:	400a      	ands	r2, r1
 8002842:	b2d2      	uxtb	r2, r2
 8002844:	701a      	strb	r2, [r3, #0]
    c = (c >> 7) * 19;
 8002846:	2216      	movs	r2, #22
 8002848:	18bb      	adds	r3, r7, r2
 800284a:	881b      	ldrh	r3, [r3, #0]
 800284c:	09db      	lsrs	r3, r3, #7
 800284e:	b29b      	uxth	r3, r3
 8002850:	18b9      	adds	r1, r7, r2
 8002852:	1c1a      	adds	r2, r3, #0
 8002854:	00d2      	lsls	r2, r2, #3
 8002856:	18d2      	adds	r2, r2, r3
 8002858:	1892      	adds	r2, r2, r2
 800285a:	18d3      	adds	r3, r2, r3
 800285c:	800b      	strh	r3, [r1, #0]

    for (i = 0; i < F25519_SIZE; i++) {
 800285e:	2300      	movs	r3, #0
 8002860:	613b      	str	r3, [r7, #16]
 8002862:	e019      	b.n	8002898 <f25519_add+0xc4>
        c += r[i];
 8002864:	693b      	ldr	r3, [r7, #16]
 8002866:	68fa      	ldr	r2, [r7, #12]
 8002868:	18d3      	adds	r3, r2, r3
 800286a:	781b      	ldrb	r3, [r3, #0]
 800286c:	0019      	movs	r1, r3
 800286e:	2016      	movs	r0, #22
 8002870:	183b      	adds	r3, r7, r0
 8002872:	183a      	adds	r2, r7, r0
 8002874:	8812      	ldrh	r2, [r2, #0]
 8002876:	188a      	adds	r2, r1, r2
 8002878:	801a      	strh	r2, [r3, #0]
        r[i] = c;
 800287a:	693b      	ldr	r3, [r7, #16]
 800287c:	68fa      	ldr	r2, [r7, #12]
 800287e:	18d3      	adds	r3, r2, r3
 8002880:	183a      	adds	r2, r7, r0
 8002882:	8812      	ldrh	r2, [r2, #0]
 8002884:	b2d2      	uxtb	r2, r2
 8002886:	701a      	strb	r2, [r3, #0]
        c >>= 8;
 8002888:	183b      	adds	r3, r7, r0
 800288a:	183a      	adds	r2, r7, r0
 800288c:	8812      	ldrh	r2, [r2, #0]
 800288e:	0a12      	lsrs	r2, r2, #8
 8002890:	801a      	strh	r2, [r3, #0]
    for (i = 0; i < F25519_SIZE; i++) {
 8002892:	693b      	ldr	r3, [r7, #16]
 8002894:	3301      	adds	r3, #1
 8002896:	613b      	str	r3, [r7, #16]
 8002898:	693b      	ldr	r3, [r7, #16]
 800289a:	2b1f      	cmp	r3, #31
 800289c:	dde2      	ble.n	8002864 <f25519_add+0x90>
    }
}
 800289e:	46c0      	nop			@ (mov r8, r8)
 80028a0:	46c0      	nop			@ (mov r8, r8)
 80028a2:	46bd      	mov	sp, r7
 80028a4:	b006      	add	sp, #24
 80028a6:	bd80      	pop	{r7, pc}

080028a8 <f25519_sub>:

void f25519_sub(uint8_t *r, const uint8_t *a, const uint8_t *b)
{
 80028a8:	b580      	push	{r7, lr}
 80028aa:	b086      	sub	sp, #24
 80028ac:	af00      	add	r7, sp, #0
 80028ae:	60f8      	str	r0, [r7, #12]
 80028b0:	60b9      	str	r1, [r7, #8]
 80028b2:	607a      	str	r2, [r7, #4]
    uint32_t c = 0;
 80028b4:	2300      	movs	r3, #0
 80028b6:	617b      	str	r3, [r7, #20]
    int i;

    c = 218;
 80028b8:	23da      	movs	r3, #218	@ 0xda
 80028ba:	617b      	str	r3, [r7, #20]
    for (i = 0; i + 1 < F25519_SIZE; i++) {
 80028bc:	2300      	movs	r3, #0
 80028be:	613b      	str	r3, [r7, #16]
 80028c0:	e01c      	b.n	80028fc <f25519_sub+0x54>
        c += 65280 + ((uint32_t)a[i]) - ((uint32_t)b[i]);
 80028c2:	693b      	ldr	r3, [r7, #16]
 80028c4:	68ba      	ldr	r2, [r7, #8]
 80028c6:	18d3      	adds	r3, r2, r3
 80028c8:	781b      	ldrb	r3, [r3, #0]
 80028ca:	0019      	movs	r1, r3
 80028cc:	693b      	ldr	r3, [r7, #16]
 80028ce:	687a      	ldr	r2, [r7, #4]
 80028d0:	18d3      	adds	r3, r2, r3
 80028d2:	781b      	ldrb	r3, [r3, #0]
 80028d4:	1aca      	subs	r2, r1, r3
 80028d6:	697b      	ldr	r3, [r7, #20]
 80028d8:	18d3      	adds	r3, r2, r3
 80028da:	22ff      	movs	r2, #255	@ 0xff
 80028dc:	0212      	lsls	r2, r2, #8
 80028de:	4694      	mov	ip, r2
 80028e0:	4463      	add	r3, ip
 80028e2:	617b      	str	r3, [r7, #20]
        r[i] = c;
 80028e4:	693b      	ldr	r3, [r7, #16]
 80028e6:	68fa      	ldr	r2, [r7, #12]
 80028e8:	18d3      	adds	r3, r2, r3
 80028ea:	697a      	ldr	r2, [r7, #20]
 80028ec:	b2d2      	uxtb	r2, r2
 80028ee:	701a      	strb	r2, [r3, #0]
        c >>= 8;
 80028f0:	697b      	ldr	r3, [r7, #20]
 80028f2:	0a1b      	lsrs	r3, r3, #8
 80028f4:	617b      	str	r3, [r7, #20]
    for (i = 0; i + 1 < F25519_SIZE; i++) {
 80028f6:	693b      	ldr	r3, [r7, #16]
 80028f8:	3301      	adds	r3, #1
 80028fa:	613b      	str	r3, [r7, #16]
 80028fc:	693b      	ldr	r3, [r7, #16]
 80028fe:	2b1e      	cmp	r3, #30
 8002900:	dddf      	ble.n	80028c2 <f25519_sub+0x1a>
    }

    c += ((uint32_t)a[31]) - ((uint32_t)b[31]);
 8002902:	68bb      	ldr	r3, [r7, #8]
 8002904:	331f      	adds	r3, #31
 8002906:	781b      	ldrb	r3, [r3, #0]
 8002908:	001a      	movs	r2, r3
 800290a:	687b      	ldr	r3, [r7, #4]
 800290c:	331f      	adds	r3, #31
 800290e:	781b      	ldrb	r3, [r3, #0]
 8002910:	1ad3      	subs	r3, r2, r3
 8002912:	697a      	ldr	r2, [r7, #20]
 8002914:	18d3      	adds	r3, r2, r3
 8002916:	617b      	str	r3, [r7, #20]
    r[31] = c & 127;
 8002918:	697b      	ldr	r3, [r7, #20]
 800291a:	b2da      	uxtb	r2, r3
 800291c:	68fb      	ldr	r3, [r7, #12]
 800291e:	331f      	adds	r3, #31
 8002920:	217f      	movs	r1, #127	@ 0x7f
 8002922:	400a      	ands	r2, r1
 8002924:	b2d2      	uxtb	r2, r2
 8002926:	701a      	strb	r2, [r3, #0]
    c = (c >> 7) * 19;
 8002928:	697b      	ldr	r3, [r7, #20]
 800292a:	09da      	lsrs	r2, r3, #7
 800292c:	0013      	movs	r3, r2
 800292e:	00db      	lsls	r3, r3, #3
 8002930:	189b      	adds	r3, r3, r2
 8002932:	005b      	lsls	r3, r3, #1
 8002934:	189b      	adds	r3, r3, r2
 8002936:	617b      	str	r3, [r7, #20]

    for (i = 0; i < F25519_SIZE; i++) {
 8002938:	2300      	movs	r3, #0
 800293a:	613b      	str	r3, [r7, #16]
 800293c:	e013      	b.n	8002966 <f25519_sub+0xbe>
        c += r[i];
 800293e:	693b      	ldr	r3, [r7, #16]
 8002940:	68fa      	ldr	r2, [r7, #12]
 8002942:	18d3      	adds	r3, r2, r3
 8002944:	781b      	ldrb	r3, [r3, #0]
 8002946:	001a      	movs	r2, r3
 8002948:	697b      	ldr	r3, [r7, #20]
 800294a:	189b      	adds	r3, r3, r2
 800294c:	617b      	str	r3, [r7, #20]
        r[i] = c;
 800294e:	693b      	ldr	r3, [r7, #16]
 8002950:	68fa      	ldr	r2, [r7, #12]
 8002952:	18d3      	adds	r3, r2, r3
 8002954:	697a      	ldr	r2, [r7, #20]
 8002956:	b2d2      	uxtb	r2, r2
 8002958:	701a      	strb	r2, [r3, #0]
        c >>= 8;
 800295a:	697b      	ldr	r3, [r7, #20]
 800295c:	0a1b      	lsrs	r3, r3, #8
 800295e:	617b      	str	r3, [r7, #20]
    for (i = 0; i < F25519_SIZE; i++) {
 8002960:	693b      	ldr	r3, [r7, #16]
 8002962:	3301      	adds	r3, #1
 8002964:	613b      	str	r3, [r7, #16]
 8002966:	693b      	ldr	r3, [r7, #16]
 8002968:	2b1f      	cmp	r3, #31
 800296a:	dde8      	ble.n	800293e <f25519_sub+0x96>
    }
}
 800296c:	46c0      	nop			@ (mov r8, r8)
 800296e:	46c0      	nop			@ (mov r8, r8)
 8002970:	46bd      	mov	sp, r7
 8002972:	b006      	add	sp, #24
 8002974:	bd80      	pop	{r7, pc}

08002976 <f25519_mul__distinct>:
        c >>= 8;
    }
}

void f25519_mul__distinct(uint8_t *r, const uint8_t *a, const uint8_t *b)
{
 8002976:	b580      	push	{r7, lr}
 8002978:	b088      	sub	sp, #32
 800297a:	af00      	add	r7, sp, #0
 800297c:	60f8      	str	r0, [r7, #12]
 800297e:	60b9      	str	r1, [r7, #8]
 8002980:	607a      	str	r2, [r7, #4]
    uint32_t c = 0;
 8002982:	2300      	movs	r3, #0
 8002984:	61fb      	str	r3, [r7, #28]
    int i;

    for (i = 0; i < F25519_SIZE; i++) {
 8002986:	2300      	movs	r3, #0
 8002988:	61bb      	str	r3, [r7, #24]
 800298a:	e040      	b.n	8002a0e <f25519_mul__distinct+0x98>
        int j;
        c >>= 8;
 800298c:	69fb      	ldr	r3, [r7, #28]
 800298e:	0a1b      	lsrs	r3, r3, #8
 8002990:	61fb      	str	r3, [r7, #28]
        for (j = 0; j <= i; j++)
 8002992:	2300      	movs	r3, #0
 8002994:	617b      	str	r3, [r7, #20]
 8002996:	e012      	b.n	80029be <f25519_mul__distinct+0x48>
            c += ((uint32_t)a[j]) * ((uint32_t)b[i - j]);
 8002998:	697b      	ldr	r3, [r7, #20]
 800299a:	68ba      	ldr	r2, [r7, #8]
 800299c:	18d3      	adds	r3, r2, r3
 800299e:	781b      	ldrb	r3, [r3, #0]
 80029a0:	0019      	movs	r1, r3
 80029a2:	69ba      	ldr	r2, [r7, #24]
 80029a4:	697b      	ldr	r3, [r7, #20]
 80029a6:	1ad3      	subs	r3, r2, r3
 80029a8:	001a      	movs	r2, r3
 80029aa:	687b      	ldr	r3, [r7, #4]
 80029ac:	189b      	adds	r3, r3, r2
 80029ae:	781b      	ldrb	r3, [r3, #0]
 80029b0:	434b      	muls	r3, r1
 80029b2:	69fa      	ldr	r2, [r7, #28]
 80029b4:	18d3      	adds	r3, r2, r3
 80029b6:	61fb      	str	r3, [r7, #28]
        for (j = 0; j <= i; j++)
 80029b8:	697b      	ldr	r3, [r7, #20]
 80029ba:	3301      	adds	r3, #1
 80029bc:	617b      	str	r3, [r7, #20]
 80029be:	697a      	ldr	r2, [r7, #20]
 80029c0:	69bb      	ldr	r3, [r7, #24]
 80029c2:	429a      	cmp	r2, r3
 80029c4:	dde8      	ble.n	8002998 <f25519_mul__distinct+0x22>
        for (; j < F25519_SIZE; j++)
 80029c6:	e016      	b.n	80029f6 <f25519_mul__distinct+0x80>
            c += ((uint32_t)a[j]) * ((uint32_t)b[i + F25519_SIZE - j]) * 38;
 80029c8:	697b      	ldr	r3, [r7, #20]
 80029ca:	68ba      	ldr	r2, [r7, #8]
 80029cc:	18d3      	adds	r3, r2, r3
 80029ce:	781b      	ldrb	r3, [r3, #0]
 80029d0:	0019      	movs	r1, r3
 80029d2:	69bb      	ldr	r3, [r7, #24]
 80029d4:	3320      	adds	r3, #32
 80029d6:	001a      	movs	r2, r3
 80029d8:	697b      	ldr	r3, [r7, #20]
 80029da:	1ad3      	subs	r3, r2, r3
 80029dc:	001a      	movs	r2, r3
 80029de:	687b      	ldr	r3, [r7, #4]
 80029e0:	189b      	adds	r3, r3, r2
 80029e2:	781b      	ldrb	r3, [r3, #0]
 80029e4:	434b      	muls	r3, r1
 80029e6:	2226      	movs	r2, #38	@ 0x26
 80029e8:	4353      	muls	r3, r2
 80029ea:	69fa      	ldr	r2, [r7, #28]
 80029ec:	18d3      	adds	r3, r2, r3
 80029ee:	61fb      	str	r3, [r7, #28]
        for (; j < F25519_SIZE; j++)
 80029f0:	697b      	ldr	r3, [r7, #20]
 80029f2:	3301      	adds	r3, #1
 80029f4:	617b      	str	r3, [r7, #20]
 80029f6:	697b      	ldr	r3, [r7, #20]
 80029f8:	2b1f      	cmp	r3, #31
 80029fa:	dde5      	ble.n	80029c8 <f25519_mul__distinct+0x52>
        r[i] = c;
 80029fc:	69bb      	ldr	r3, [r7, #24]
 80029fe:	68fa      	ldr	r2, [r7, #12]
 8002a00:	18d3      	adds	r3, r2, r3
 8002a02:	69fa      	ldr	r2, [r7, #28]
 8002a04:	b2d2      	uxtb	r2, r2
 8002a06:	701a      	strb	r2, [r3, #0]
    for (i = 0; i < F25519_SIZE; i++) {
 8002a08:	69bb      	ldr	r3, [r7, #24]
 8002a0a:	3301      	adds	r3, #1
 8002a0c:	61bb      	str	r3, [r7, #24]
 8002a0e:	69bb      	ldr	r3, [r7, #24]
 8002a10:	2b1f      	cmp	r3, #31
 8002a12:	ddbb      	ble.n	800298c <f25519_mul__distinct+0x16>
    }

    r[31] &= 127;
 8002a14:	68fb      	ldr	r3, [r7, #12]
 8002a16:	331f      	adds	r3, #31
 8002a18:	781a      	ldrb	r2, [r3, #0]
 8002a1a:	68fb      	ldr	r3, [r7, #12]
 8002a1c:	331f      	adds	r3, #31
 8002a1e:	217f      	movs	r1, #127	@ 0x7f
 8002a20:	400a      	ands	r2, r1
 8002a22:	b2d2      	uxtb	r2, r2
 8002a24:	701a      	strb	r2, [r3, #0]
    c = (c >> 7) * 19;
 8002a26:	69fb      	ldr	r3, [r7, #28]
 8002a28:	09da      	lsrs	r2, r3, #7
 8002a2a:	0013      	movs	r3, r2
 8002a2c:	00db      	lsls	r3, r3, #3
 8002a2e:	189b      	adds	r3, r3, r2
 8002a30:	005b      	lsls	r3, r3, #1
 8002a32:	189b      	adds	r3, r3, r2
 8002a34:	61fb      	str	r3, [r7, #28]

    for (i = 0; i < F25519_SIZE; i++) {
 8002a36:	2300      	movs	r3, #0
 8002a38:	61bb      	str	r3, [r7, #24]
 8002a3a:	e013      	b.n	8002a64 <f25519_mul__distinct+0xee>
        c += r[i];
 8002a3c:	69bb      	ldr	r3, [r7, #24]
 8002a3e:	68fa      	ldr	r2, [r7, #12]
 8002a40:	18d3      	adds	r3, r2, r3
 8002a42:	781b      	ldrb	r3, [r3, #0]
 8002a44:	001a      	movs	r2, r3
 8002a46:	69fb      	ldr	r3, [r7, #28]
 8002a48:	189b      	adds	r3, r3, r2
 8002a4a:	61fb      	str	r3, [r7, #28]
        r[i] = c;
 8002a4c:	69bb      	ldr	r3, [r7, #24]
 8002a4e:	68fa      	ldr	r2, [r7, #12]
 8002a50:	18d3      	adds	r3, r2, r3
 8002a52:	69fa      	ldr	r2, [r7, #28]
 8002a54:	b2d2      	uxtb	r2, r2
 8002a56:	701a      	strb	r2, [r3, #0]
        c >>= 8;
 8002a58:	69fb      	ldr	r3, [r7, #28]
 8002a5a:	0a1b      	lsrs	r3, r3, #8
 8002a5c:	61fb      	str	r3, [r7, #28]
    for (i = 0; i < F25519_SIZE; i++) {
 8002a5e:	69bb      	ldr	r3, [r7, #24]
 8002a60:	3301      	adds	r3, #1
 8002a62:	61bb      	str	r3, [r7, #24]
 8002a64:	69bb      	ldr	r3, [r7, #24]
 8002a66:	2b1f      	cmp	r3, #31
 8002a68:	dde8      	ble.n	8002a3c <f25519_mul__distinct+0xc6>
    }
}
 8002a6a:	46c0      	nop			@ (mov r8, r8)
 8002a6c:	46c0      	nop			@ (mov r8, r8)
 8002a6e:	46bd      	mov	sp, r7
 8002a70:	b008      	add	sp, #32
 8002a72:	bd80      	pop	{r7, pc}

08002a74 <f25519_mul_c>:
    f25519_mul__distinct(tmp, a, b);
    f25519_copy(r, tmp);
}

void f25519_mul_c(uint8_t *r, const uint8_t *a, uint32_t b)
{
 8002a74:	b580      	push	{r7, lr}
 8002a76:	b086      	sub	sp, #24
 8002a78:	af00      	add	r7, sp, #0
 8002a7a:	60f8      	str	r0, [r7, #12]
 8002a7c:	60b9      	str	r1, [r7, #8]
 8002a7e:	607a      	str	r2, [r7, #4]
    uint32_t c = 0;
 8002a80:	2300      	movs	r3, #0
 8002a82:	617b      	str	r3, [r7, #20]
    int i;

    for (i = 0; i < F25519_SIZE; i++) {
 8002a84:	2300      	movs	r3, #0
 8002a86:	613b      	str	r3, [r7, #16]
 8002a88:	e015      	b.n	8002ab6 <f25519_mul_c+0x42>
        c >>= 8;
 8002a8a:	697b      	ldr	r3, [r7, #20]
 8002a8c:	0a1b      	lsrs	r3, r3, #8
 8002a8e:	617b      	str	r3, [r7, #20]
        c += b * ((uint32_t)a[i]);
 8002a90:	693b      	ldr	r3, [r7, #16]
 8002a92:	68ba      	ldr	r2, [r7, #8]
 8002a94:	18d3      	adds	r3, r2, r3
 8002a96:	781b      	ldrb	r3, [r3, #0]
 8002a98:	001a      	movs	r2, r3
 8002a9a:	687b      	ldr	r3, [r7, #4]
 8002a9c:	4353      	muls	r3, r2
 8002a9e:	697a      	ldr	r2, [r7, #20]
 8002aa0:	18d3      	adds	r3, r2, r3
 8002aa2:	617b      	str	r3, [r7, #20]
        r[i] = c;
 8002aa4:	693b      	ldr	r3, [r7, #16]
 8002aa6:	68fa      	ldr	r2, [r7, #12]
 8002aa8:	18d3      	adds	r3, r2, r3
 8002aaa:	697a      	ldr	r2, [r7, #20]
 8002aac:	b2d2      	uxtb	r2, r2
 8002aae:	701a      	strb	r2, [r3, #0]
    for (i = 0; i < F25519_SIZE; i++) {
 8002ab0:	693b      	ldr	r3, [r7, #16]
 8002ab2:	3301      	adds	r3, #1
 8002ab4:	613b      	str	r3, [r7, #16]
 8002ab6:	693b      	ldr	r3, [r7, #16]
 8002ab8:	2b1f      	cmp	r3, #31
 8002aba:	dde6      	ble.n	8002a8a <f25519_mul_c+0x16>
    }

    r[31] &= 127;
 8002abc:	68fb      	ldr	r3, [r7, #12]
 8002abe:	331f      	adds	r3, #31
 8002ac0:	781a      	ldrb	r2, [r3, #0]
 8002ac2:	68fb      	ldr	r3, [r7, #12]
 8002ac4:	331f      	adds	r3, #31
 8002ac6:	217f      	movs	r1, #127	@ 0x7f
 8002ac8:	400a      	ands	r2, r1
 8002aca:	b2d2      	uxtb	r2, r2
 8002acc:	701a      	strb	r2, [r3, #0]
    c >>= 7;
 8002ace:	697b      	ldr	r3, [r7, #20]
 8002ad0:	09db      	lsrs	r3, r3, #7
 8002ad2:	617b      	str	r3, [r7, #20]
    c *= 19;
 8002ad4:	697a      	ldr	r2, [r7, #20]
 8002ad6:	0013      	movs	r3, r2
 8002ad8:	00db      	lsls	r3, r3, #3
 8002ada:	189b      	adds	r3, r3, r2
 8002adc:	005b      	lsls	r3, r3, #1
 8002ade:	189b      	adds	r3, r3, r2
 8002ae0:	617b      	str	r3, [r7, #20]

    for (i = 0; i < F25519_SIZE; i++) {
 8002ae2:	2300      	movs	r3, #0
 8002ae4:	613b      	str	r3, [r7, #16]
 8002ae6:	e013      	b.n	8002b10 <f25519_mul_c+0x9c>
        c += r[i];
 8002ae8:	693b      	ldr	r3, [r7, #16]
 8002aea:	68fa      	ldr	r2, [r7, #12]
 8002aec:	18d3      	adds	r3, r2, r3
 8002aee:	781b      	ldrb	r3, [r3, #0]
 8002af0:	001a      	movs	r2, r3
 8002af2:	697b      	ldr	r3, [r7, #20]
 8002af4:	189b      	adds	r3, r3, r2
 8002af6:	617b      	str	r3, [r7, #20]
        r[i] = c;
 8002af8:	693b      	ldr	r3, [r7, #16]
 8002afa:	68fa      	ldr	r2, [r7, #12]
 8002afc:	18d3      	adds	r3, r2, r3
 8002afe:	697a      	ldr	r2, [r7, #20]
 8002b00:	b2d2      	uxtb	r2, r2
 8002b02:	701a      	strb	r2, [r3, #0]
        c >>= 8;
 8002b04:	697b      	ldr	r3, [r7, #20]
 8002b06:	0a1b      	lsrs	r3, r3, #8
 8002b08:	617b      	str	r3, [r7, #20]
    for (i = 0; i < F25519_SIZE; i++) {
 8002b0a:	693b      	ldr	r3, [r7, #16]
 8002b0c:	3301      	adds	r3, #1
 8002b0e:	613b      	str	r3, [r7, #16]
 8002b10:	693b      	ldr	r3, [r7, #16]
 8002b12:	2b1f      	cmp	r3, #31
 8002b14:	dde8      	ble.n	8002ae8 <f25519_mul_c+0x74>
    }
}
 8002b16:	46c0      	nop			@ (mov r8, r8)
 8002b18:	46c0      	nop			@ (mov r8, r8)
 8002b1a:	46bd      	mov	sp, r7
 8002b1c:	b006      	add	sp, #24
 8002b1e:	bd80      	pop	{r7, pc}

08002b20 <f25519_inv__distinct>:

void f25519_inv__distinct(uint8_t *r, const uint8_t *x)
{
 8002b20:	b590      	push	{r4, r7, lr}
 8002b22:	b08d      	sub	sp, #52	@ 0x34
 8002b24:	af00      	add	r7, sp, #0
 8002b26:	6078      	str	r0, [r7, #4]
 8002b28:	6039      	str	r1, [r7, #0]
    uint8_t s[F25519_SIZE];
    int i;

    /* x^(p-2) = x^(2^255-21) icin ikili zincir:
     * 11111111... 01011 (bit temsilinde) */
    f25519_mul__distinct(s, x, x);
 8002b2a:	683a      	ldr	r2, [r7, #0]
 8002b2c:	6839      	ldr	r1, [r7, #0]
 8002b2e:	240c      	movs	r4, #12
 8002b30:	193b      	adds	r3, r7, r4
 8002b32:	0018      	movs	r0, r3
 8002b34:	f7ff ff1f 	bl	8002976 <f25519_mul__distinct>
    f25519_mul__distinct(r, s, x);
 8002b38:	683a      	ldr	r2, [r7, #0]
 8002b3a:	1939      	adds	r1, r7, r4
 8002b3c:	687b      	ldr	r3, [r7, #4]
 8002b3e:	0018      	movs	r0, r3
 8002b40:	f7ff ff19 	bl	8002976 <f25519_mul__distinct>

    for (i = 0; i < 248; i++) {
 8002b44:	2300      	movs	r3, #0
 8002b46:	62fb      	str	r3, [r7, #44]	@ 0x2c
 8002b48:	e00f      	b.n	8002b6a <f25519_inv__distinct+0x4a>
        f25519_mul__distinct(s, r, r);
 8002b4a:	687a      	ldr	r2, [r7, #4]
 8002b4c:	6879      	ldr	r1, [r7, #4]
 8002b4e:	240c      	movs	r4, #12
 8002b50:	193b      	adds	r3, r7, r4
 8002b52:	0018      	movs	r0, r3
 8002b54:	f7ff ff0f 	bl	8002976 <f25519_mul__distinct>
        f25519_mul__distinct(r, s, x);
 8002b58:	683a      	ldr	r2, [r7, #0]
 8002b5a:	1939      	adds	r1, r7, r4
 8002b5c:	687b      	ldr	r3, [r7, #4]
 8002b5e:	0018      	movs	r0, r3
 8002b60:	f7ff ff09 	bl	8002976 <f25519_mul__distinct>
    for (i = 0; i < 248; i++) {
 8002b64:	6afb      	ldr	r3, [r7, #44]	@ 0x2c
 8002b66:	3301      	adds	r3, #1
 8002b68:	62fb      	str	r3, [r7, #44]	@ 0x2c
 8002b6a:	6afb      	ldr	r3, [r7, #44]	@ 0x2c
 8002b6c:	2bf7      	cmp	r3, #247	@ 0xf7
 8002b6e:	ddec      	ble.n	8002b4a <f25519_inv__distinct+0x2a>
    }

    f25519_mul__distinct(s, r, r);
 8002b70:	687a      	ldr	r2, [r7, #4]
 8002b72:	6879      	ldr	r1, [r7, #4]
 8002b74:	240c      	movs	r4, #12
 8002b76:	193b      	adds	r3, r7, r4
 8002b78:	0018      	movs	r0, r3
 8002b7a:	f7ff fefc 	bl	8002976 <f25519_mul__distinct>

    f25519_mul__distinct(r, s, s);
 8002b7e:	193a      	adds	r2, r7, r4
 8002b80:	1939      	adds	r1, r7, r4
 8002b82:	687b      	ldr	r3, [r7, #4]
 8002b84:	0018      	movs	r0, r3
 8002b86:	f7ff fef6 	bl	8002976 <f25519_mul__distinct>
    f25519_mul__distinct(s, r, x);
 8002b8a:	683a      	ldr	r2, [r7, #0]
 8002b8c:	6879      	ldr	r1, [r7, #4]
 8002b8e:	193b      	adds	r3, r7, r4
 8002b90:	0018      	movs	r0, r3
 8002b92:	f7ff fef0 	bl	8002976 <f25519_mul__distinct>

    f25519_mul__distinct(r, s, s);
 8002b96:	193a      	adds	r2, r7, r4
 8002b98:	1939      	adds	r1, r7, r4
 8002b9a:	687b      	ldr	r3, [r7, #4]
 8002b9c:	0018      	movs	r0, r3
 8002b9e:	f7ff feea 	bl	8002976 <f25519_mul__distinct>

    f25519_mul__distinct(s, r, r);
 8002ba2:	687a      	ldr	r2, [r7, #4]
 8002ba4:	6879      	ldr	r1, [r7, #4]
 8002ba6:	193b      	adds	r3, r7, r4
 8002ba8:	0018      	movs	r0, r3
 8002baa:	f7ff fee4 	bl	8002976 <f25519_mul__distinct>
    f25519_mul__distinct(r, s, x);
 8002bae:	683a      	ldr	r2, [r7, #0]
 8002bb0:	1939      	adds	r1, r7, r4
 8002bb2:	687b      	ldr	r3, [r7, #4]
 8002bb4:	0018      	movs	r0, r3
 8002bb6:	f7ff fede 	bl	8002976 <f25519_mul__distinct>

    f25519_mul__distinct(s, r, r);
 8002bba:	687a      	ldr	r2, [r7, #4]
 8002bbc:	6879      	ldr	r1, [r7, #4]
 8002bbe:	193b      	adds	r3, r7, r4
 8002bc0:	0018      	movs	r0, r3
 8002bc2:	f7ff fed8 	bl	8002976 <f25519_mul__distinct>
    f25519_mul__distinct(r, s, x);
 8002bc6:	683a      	ldr	r2, [r7, #0]
 8002bc8:	1939      	adds	r1, r7, r4
 8002bca:	687b      	ldr	r3, [r7, #4]
 8002bcc:	0018      	movs	r0, r3
 8002bce:	f7ff fed2 	bl	8002976 <f25519_mul__distinct>
}
 8002bd2:	46c0      	nop			@ (mov r8, r8)
 8002bd4:	46bd      	mov	sp, r7
 8002bd6:	b00d      	add	sp, #52	@ 0x34
 8002bd8:	bd90      	pop	{r4, r7, pc}
	...

08002bdc <MX_GPIO_Init>:
 * Input
 * Output
 * EVENT_OUT
 * EXTI
 */
void MX_GPIO_Init(void) {
 8002bdc:	b590      	push	{r4, r7, lr}
 8002bde:	b089      	sub	sp, #36	@ 0x24
 8002be0:	af00      	add	r7, sp, #0

	GPIO_InitTypeDef GPIO_InitStruct = { 0 };
 8002be2:	240c      	movs	r4, #12
 8002be4:	193b      	adds	r3, r7, r4
 8002be6:	0018      	movs	r0, r3
 8002be8:	2314      	movs	r3, #20
 8002bea:	001a      	movs	r2, r3
 8002bec:	2100      	movs	r1, #0
 8002bee:	f004 f87b 	bl	8006ce8 <memset>

	/* GPIO Ports Clock Enable */
	__HAL_RCC_GPIOC_CLK_ENABLE();
 8002bf2:	4b5c      	ldr	r3, [pc, #368]	@ (8002d64 <MX_GPIO_Init+0x188>)
 8002bf4:	695a      	ldr	r2, [r3, #20]
 8002bf6:	4b5b      	ldr	r3, [pc, #364]	@ (8002d64 <MX_GPIO_Init+0x188>)
 8002bf8:	2180      	movs	r1, #128	@ 0x80
 8002bfa:	0309      	lsls	r1, r1, #12
 8002bfc:	430a      	orrs	r2, r1
 8002bfe:	615a      	str	r2, [r3, #20]
 8002c00:	4b58      	ldr	r3, [pc, #352]	@ (8002d64 <MX_GPIO_Init+0x188>)
 8002c02:	695a      	ldr	r2, [r3, #20]
 8002c04:	2380      	movs	r3, #128	@ 0x80
 8002c06:	031b      	lsls	r3, r3, #12
 8002c08:	4013      	ands	r3, r2
 8002c0a:	60bb      	str	r3, [r7, #8]
 8002c0c:	68bb      	ldr	r3, [r7, #8]
	__HAL_RCC_GPIOB_CLK_ENABLE();
 8002c0e:	4b55      	ldr	r3, [pc, #340]	@ (8002d64 <MX_GPIO_Init+0x188>)
 8002c10:	695a      	ldr	r2, [r3, #20]
 8002c12:	4b54      	ldr	r3, [pc, #336]	@ (8002d64 <MX_GPIO_Init+0x188>)
 8002c14:	2180      	movs	r1, #128	@ 0x80
 8002c16:	02c9      	lsls	r1, r1, #11
 8002c18:	430a      	orrs	r2, r1
 8002c1a:	615a      	str	r2, [r3, #20]
 8002c1c:	4b51      	ldr	r3, [pc, #324]	@ (8002d64 <MX_GPIO_Init+0x188>)
 8002c1e:	695a      	ldr	r2, [r3, #20]
 8002c20:	2380      	movs	r3, #128	@ 0x80
 8002c22:	02db      	lsls	r3, r3, #11
 8002c24:	4013      	ands	r3, r2
 8002c26:	607b      	str	r3, [r7, #4]
 8002c28:	687b      	ldr	r3, [r7, #4]
	__HAL_RCC_GPIOA_CLK_ENABLE();
 8002c2a:	4b4e      	ldr	r3, [pc, #312]	@ (8002d64 <MX_GPIO_Init+0x188>)
 8002c2c:	695a      	ldr	r2, [r3, #20]
 8002c2e:	4b4d      	ldr	r3, [pc, #308]	@ (8002d64 <MX_GPIO_Init+0x188>)
 8002c30:	2180      	movs	r1, #128	@ 0x80
 8002c32:	0289      	lsls	r1, r1, #10
 8002c34:	430a      	orrs	r2, r1
 8002c36:	615a      	str	r2, [r3, #20]
 8002c38:	4b4a      	ldr	r3, [pc, #296]	@ (8002d64 <MX_GPIO_Init+0x188>)
 8002c3a:	695a      	ldr	r2, [r3, #20]
 8002c3c:	2380      	movs	r3, #128	@ 0x80
 8002c3e:	029b      	lsls	r3, r3, #10
 8002c40:	4013      	ands	r3, r2
 8002c42:	603b      	str	r3, [r7, #0]
 8002c44:	683b      	ldr	r3, [r7, #0]

	/*Configure GPIO pin Output Level */
	HAL_GPIO_WritePin(GPIOB, NEOPIXEL_BTN_Pin | RLY1_Pin, GPIO_PIN_RESET);
 8002c46:	4b48      	ldr	r3, [pc, #288]	@ (8002d68 <MX_GPIO_Init+0x18c>)
 8002c48:	2200      	movs	r2, #0
 8002c4a:	2109      	movs	r1, #9
 8002c4c:	0018      	movs	r0, r3
 8002c4e:	f001 fcaa 	bl	80045a6 <HAL_GPIO_WritePin>

	/*Configure GPIO pin Output Level */
	HAL_GPIO_WritePin(SI4432_CE_GPIO_Port, SI4432_CE_Pin, GPIO_PIN_SET);
 8002c52:	2380      	movs	r3, #128	@ 0x80
 8002c54:	015b      	lsls	r3, r3, #5
 8002c56:	4844      	ldr	r0, [pc, #272]	@ (8002d68 <MX_GPIO_Init+0x18c>)
 8002c58:	2201      	movs	r2, #1
 8002c5a:	0019      	movs	r1, r3
 8002c5c:	f001 fca3 	bl	80045a6 <HAL_GPIO_WritePin>

	/*Configure GPIO pin Output Level */
	HAL_GPIO_WritePin(SI4432_SDN_GPIO_Port, SI4432_SDN_Pin, GPIO_PIN_SET);
 8002c60:	2380      	movs	r3, #128	@ 0x80
 8002c62:	0119      	lsls	r1, r3, #4
 8002c64:	2390      	movs	r3, #144	@ 0x90
 8002c66:	05db      	lsls	r3, r3, #23
 8002c68:	2201      	movs	r2, #1
 8002c6a:	0018      	movs	r0, r3
 8002c6c:	f001 fc9b 	bl	80045a6 <HAL_GPIO_WritePin>

	/*Configure GPIO pin : BUTTON_Pin */
	GPIO_InitStruct.Pin = BUTTON_Pin;
 8002c70:	193b      	adds	r3, r7, r4
 8002c72:	2280      	movs	r2, #128	@ 0x80
 8002c74:	0192      	lsls	r2, r2, #6
 8002c76:	601a      	str	r2, [r3, #0]
	GPIO_InitStruct.Mode = GPIO_MODE_INPUT;
 8002c78:	193b      	adds	r3, r7, r4
 8002c7a:	2200      	movs	r2, #0
 8002c7c:	605a      	str	r2, [r3, #4]
	GPIO_InitStruct.Pull = GPIO_NOPULL;
 8002c7e:	193b      	adds	r3, r7, r4
 8002c80:	2200      	movs	r2, #0
 8002c82:	609a      	str	r2, [r3, #8]
	HAL_GPIO_Init(BUTTON_GPIO_Port, &GPIO_InitStruct);
 8002c84:	193b      	adds	r3, r7, r4
 8002c86:	4a39      	ldr	r2, [pc, #228]	@ (8002d6c <MX_GPIO_Init+0x190>)
 8002c88:	0019      	movs	r1, r3
 8002c8a:	0010      	movs	r0, r2
 8002c8c:	f001 fafe 	bl	800428c <HAL_GPIO_Init>

	/*Configure GPIO pins : NEOPIXEL_BTN_Pin SI4432_CE_Pin RLY1_Pin */
	GPIO_InitStruct.Pin = NEOPIXEL_BTN_Pin | SI4432_CE_Pin | RLY1_Pin;
 8002c90:	193b      	adds	r3, r7, r4
 8002c92:	4a37      	ldr	r2, [pc, #220]	@ (8002d70 <MX_GPIO_Init+0x194>)
 8002c94:	601a      	str	r2, [r3, #0]
	GPIO_InitStruct.Mode = GPIO_MODE_OUTPUT_PP;
 8002c96:	193b      	adds	r3, r7, r4
 8002c98:	2201      	movs	r2, #1
 8002c9a:	605a      	str	r2, [r3, #4]
	GPIO_InitStruct.Pull = GPIO_NOPULL;
 8002c9c:	193b      	adds	r3, r7, r4
 8002c9e:	2200      	movs	r2, #0
 8002ca0:	609a      	str	r2, [r3, #8]
	GPIO_InitStruct.Speed = GPIO_SPEED_FREQ_LOW;
 8002ca2:	193b      	adds	r3, r7, r4
 8002ca4:	2200      	movs	r2, #0
 8002ca6:	60da      	str	r2, [r3, #12]
	HAL_GPIO_Init(GPIOB, &GPIO_InitStruct);
 8002ca8:	193b      	adds	r3, r7, r4
 8002caa:	4a2f      	ldr	r2, [pc, #188]	@ (8002d68 <MX_GPIO_Init+0x18c>)
 8002cac:	0019      	movs	r1, r3
 8002cae:	0010      	movs	r0, r2
 8002cb0:	f001 faec 	bl	800428c <HAL_GPIO_Init>

	/*Configure GPIO pins : SI4432_CCA1_Pin SI4432_CCA2_Pin */
	GPIO_InitStruct.Pin = SI4432_CCA1_Pin | SI4432_CCA2_Pin;
 8002cb4:	0021      	movs	r1, r4
 8002cb6:	187b      	adds	r3, r7, r1
 8002cb8:	22c0      	movs	r2, #192	@ 0xc0
 8002cba:	0112      	lsls	r2, r2, #4
 8002cbc:	601a      	str	r2, [r3, #0]
	GPIO_InitStruct.Mode = GPIO_MODE_INPUT;
 8002cbe:	000c      	movs	r4, r1
 8002cc0:	193b      	adds	r3, r7, r4
 8002cc2:	2200      	movs	r2, #0
 8002cc4:	605a      	str	r2, [r3, #4]
	GPIO_InitStruct.Pull = GPIO_NOPULL;
 8002cc6:	193b      	adds	r3, r7, r4
 8002cc8:	2200      	movs	r2, #0
 8002cca:	609a      	str	r2, [r3, #8]
	HAL_GPIO_Init(GPIOB, &GPIO_InitStruct);
 8002ccc:	193b      	adds	r3, r7, r4
 8002cce:	4a26      	ldr	r2, [pc, #152]	@ (8002d68 <MX_GPIO_Init+0x18c>)
 8002cd0:	0019      	movs	r1, r3
 8002cd2:	0010      	movs	r0, r2
 8002cd4:	f001 fada 	bl	800428c <HAL_GPIO_Init>

	/*Configure GPIO pin : SI4432_IRQ_Pin */
	GPIO_InitStruct.Pin = SI4432_IRQ_Pin;
 8002cd8:	193b      	adds	r3, r7, r4
 8002cda:	2280      	movs	r2, #128	@ 0x80
 8002cdc:	0052      	lsls	r2, r2, #1
 8002cde:	601a      	str	r2, [r3, #0]
	GPIO_InitStruct.Mode = GPIO_MODE_IT_RISING_FALLING;
 8002ce0:	193b      	adds	r3, r7, r4
 8002ce2:	22c4      	movs	r2, #196	@ 0xc4
 8002ce4:	0392      	lsls	r2, r2, #14
 8002ce6:	605a      	str	r2, [r3, #4]
	GPIO_InitStruct.Pull = GPIO_PULLUP;
 8002ce8:	193b      	adds	r3, r7, r4
 8002cea:	2201      	movs	r2, #1
 8002cec:	609a      	str	r2, [r3, #8]
	HAL_GPIO_Init(SI4432_IRQ_GPIO_Port, &GPIO_InitStruct);
 8002cee:	193a      	adds	r2, r7, r4
 8002cf0:	2390      	movs	r3, #144	@ 0x90
 8002cf2:	05db      	lsls	r3, r3, #23
 8002cf4:	0011      	movs	r1, r2
 8002cf6:	0018      	movs	r0, r3
 8002cf8:	f001 fac8 	bl	800428c <HAL_GPIO_Init>

	/*Configure GPIO pin : SI4432_SDN_Pin */
	GPIO_InitStruct.Pin = SI4432_SDN_Pin;
 8002cfc:	0021      	movs	r1, r4
 8002cfe:	187b      	adds	r3, r7, r1
 8002d00:	2280      	movs	r2, #128	@ 0x80
 8002d02:	0112      	lsls	r2, r2, #4
 8002d04:	601a      	str	r2, [r3, #0]
	GPIO_InitStruct.Mode = GPIO_MODE_OUTPUT_PP;
 8002d06:	000c      	movs	r4, r1
 8002d08:	193b      	adds	r3, r7, r4
 8002d0a:	2201      	movs	r2, #1
 8002d0c:	605a      	str	r2, [r3, #4]
	GPIO_InitStruct.Pull = GPIO_NOPULL;
 8002d0e:	193b      	adds	r3, r7, r4
 8002d10:	2200      	movs	r2, #0
 8002d12:	609a      	str	r2, [r3, #8]
	GPIO_InitStruct.Speed = GPIO_SPEED_FREQ_HIGH;
 8002d14:	193b      	adds	r3, r7, r4
 8002d16:	2203      	movs	r2, #3
 8002d18:	60da      	str	r2, [r3, #12]
	HAL_GPIO_Init(SI4432_SDN_GPIO_Port, &GPIO_InitStruct);
 8002d1a:	193a      	adds	r2, r7, r4
 8002d1c:	2390      	movs	r3, #144	@ 0x90
 8002d1e:	05db      	lsls	r3, r3, #23
 8002d20:	0011      	movs	r1, r2
 8002d22:	0018      	movs	r0, r3
 8002d24:	f001 fab2 	bl	800428c <HAL_GPIO_Init>

	/*Configure GPIO pin : DS18B20_Pin */
	GPIO_InitStruct.Pin = DS18B20_Pin;
 8002d28:	0021      	movs	r1, r4
 8002d2a:	187b      	adds	r3, r7, r1
 8002d2c:	2280      	movs	r2, #128	@ 0x80
 8002d2e:	0212      	lsls	r2, r2, #8
 8002d30:	601a      	str	r2, [r3, #0]
	GPIO_InitStruct.Mode = GPIO_MODE_INPUT;
 8002d32:	187b      	adds	r3, r7, r1
 8002d34:	2200      	movs	r2, #0
 8002d36:	605a      	str	r2, [r3, #4]
	GPIO_InitStruct.Pull = GPIO_NOPULL;
 8002d38:	187b      	adds	r3, r7, r1
 8002d3a:	2200      	movs	r2, #0
 8002d3c:	609a      	str	r2, [r3, #8]
	HAL_GPIO_Init(DS18B20_GPIO_Port, &GPIO_InitStruct);
 8002d3e:	187a      	adds	r2, r7, r1
 8002d40:	2390      	movs	r3, #144	@ 0x90
 8002d42:	05db      	lsls	r3, r3, #23
 8002d44:	0011      	movs	r1, r2
 8002d46:	0018      	movs	r0, r3
 8002d48:	f001 faa0 	bl	800428c <HAL_GPIO_Init>

	/* EXTI interrupt init*/
	HAL_NVIC_SetPriority(EXTI4_15_IRQn, 2, 0);
 8002d4c:	2200      	movs	r2, #0
 8002d4e:	2102      	movs	r1, #2
 8002d50:	2007      	movs	r0, #7
 8002d52:	f001 f867 	bl	8003e24 <HAL_NVIC_SetPriority>
	HAL_NVIC_EnableIRQ(EXTI4_15_IRQn);
 8002d56:	2007      	movs	r0, #7
 8002d58:	f001 f879 	bl	8003e4e <HAL_NVIC_EnableIRQ>

}
 8002d5c:	46c0      	nop			@ (mov r8, r8)
 8002d5e:	46bd      	mov	sp, r7
 8002d60:	b009      	add	sp, #36	@ 0x24
 8002d62:	bd90      	pop	{r4, r7, pc}
 8002d64:	40021000 	.word	0x40021000
 8002d68:	48000400 	.word	0x48000400
 8002d6c:	48000800 	.word	0x48000800
 8002d70:	00001009 	.word	0x00001009

08002d74 <MX_IWDG_Init>:
/* USER CODE END 0 */

IWDG_HandleTypeDef hiwdg;

/* IWDG init function */
void MX_IWDG_Init(void) {
 8002d74:	b580      	push	{r7, lr}
 8002d76:	af00      	add	r7, sp, #0
	/* USER CODE END IWDG_Init 0 */

	/* USER CODE BEGIN IWDG_Init 1 */

	/* USER CODE END IWDG_Init 1 */
	hiwdg.Instance = IWDG;
 8002d78:	4b0b      	ldr	r3, [pc, #44]	@ (8002da8 <MX_IWDG_Init+0x34>)
 8002d7a:	4a0c      	ldr	r2, [pc, #48]	@ (8002dac <MX_IWDG_Init+0x38>)
 8002d7c:	601a      	str	r2, [r3, #0]
	hiwdg.Init.Prescaler = IWDG_PRESCALER_128;
 8002d7e:	4b0a      	ldr	r3, [pc, #40]	@ (8002da8 <MX_IWDG_Init+0x34>)
 8002d80:	2205      	movs	r2, #5
 8002d82:	605a      	str	r2, [r3, #4]
	hiwdg.Init.Window = 4095;
 8002d84:	4b08      	ldr	r3, [pc, #32]	@ (8002da8 <MX_IWDG_Init+0x34>)
 8002d86:	4a0a      	ldr	r2, [pc, #40]	@ (8002db0 <MX_IWDG_Init+0x3c>)
 8002d88:	60da      	str	r2, [r3, #12]
	hiwdg.Init.Reload = 4095;
 8002d8a:	4b07      	ldr	r3, [pc, #28]	@ (8002da8 <MX_IWDG_Init+0x34>)
 8002d8c:	4a08      	ldr	r2, [pc, #32]	@ (8002db0 <MX_IWDG_Init+0x3c>)
 8002d8e:	609a      	str	r2, [r3, #8]
	if (HAL_IWDG_Init(&hiwdg) != HAL_OK) {
 8002d90:	4b05      	ldr	r3, [pc, #20]	@ (8002da8 <MX_IWDG_Init+0x34>)
 8002d92:	0018      	movs	r0, r3
 8002d94:	f001 fc4a 	bl	800462c <HAL_IWDG_Init>
 8002d98:	1e03      	subs	r3, r0, #0
 8002d9a:	d001      	beq.n	8002da0 <MX_IWDG_Init+0x2c>
		Error_Handler();
 8002d9c:	f000 f8fd 	bl	8002f9a <Error_Handler>
	}
	/* USER CODE BEGIN IWDG_Init 2 */

	/* USER CODE END IWDG_Init 2 */

}
 8002da0:	46c0      	nop			@ (mov r8, r8)
 8002da2:	46bd      	mov	sp, r7
 8002da4:	bd80      	pop	{r7, pc}
 8002da6:	46c0      	nop			@ (mov r8, r8)
 8002da8:	20000158 	.word	0x20000158
 8002dac:	40003000 	.word	0x40003000
 8002db0:	00000fff 	.word	0x00000fff

08002db4 <__NVIC_SystemReset>:
/**
  \brief   System Reset
  \details Initiates a system reset request to reset the MCU.
 */
__NO_RETURN __STATIC_INLINE void __NVIC_SystemReset(void)
{
 8002db4:	b580      	push	{r7, lr}
 8002db6:	af00      	add	r7, sp, #0
  \details Acts as a special kind of Data Memory Barrier.
           It completes when all explicit memory accesses before this instruction complete.
 */
__STATIC_FORCEINLINE void __DSB(void)
{
  __ASM volatile ("dsb 0xF":::"memory");
 8002db8:	f3bf 8f4f 	dsb	sy
}
 8002dbc:	46c0      	nop			@ (mov r8, r8)
  __DSB();                                                          /* Ensure all outstanding memory accesses included
                                                                       buffered write are completed before reset */
  SCB->AIRCR  = ((0x5FAUL << SCB_AIRCR_VECTKEY_Pos) |
 8002dbe:	4b04      	ldr	r3, [pc, #16]	@ (8002dd0 <__NVIC_SystemReset+0x1c>)
 8002dc0:	4a04      	ldr	r2, [pc, #16]	@ (8002dd4 <__NVIC_SystemReset+0x20>)
 8002dc2:	60da      	str	r2, [r3, #12]
  __ASM volatile ("dsb 0xF":::"memory");
 8002dc4:	f3bf 8f4f 	dsb	sy
}
 8002dc8:	46c0      	nop			@ (mov r8, r8)
                 SCB_AIRCR_SYSRESETREQ_Msk);
  __DSB();                                                          /* Ensure completion of memory access */

  for(;;)                                                           /* wait until reset */
  {
    __NOP();
 8002dca:	46c0      	nop			@ (mov r8, r8)
 8002dcc:	e7fd      	b.n	8002dca <__NVIC_SystemReset+0x16>
 8002dce:	46c0      	nop			@ (mov r8, r8)
 8002dd0:	e000ed00 	.word	0xe000ed00
 8002dd4:	05fa0004 	.word	0x05fa0004

08002dd8 <main>:
/* USER CODE END PFP */

/* USER CODE BEGIN 0 */
/* USER CODE END 0 */

int main(void) {
 8002dd8:	b5b0      	push	{r4, r5, r7, lr}
 8002dda:	b092      	sub	sp, #72	@ 0x48
 8002ddc:	af02      	add	r7, sp, #8
	/* HAL ve sistem saatini baslat */
	HAL_Init();
 8002dde:	f000 fec7 	bl	8003b70 <HAL_Init>
	SystemClock_Config(); // HSI x6 PLL = 24 MHz (alici daha dusuk hizda)
 8002de2:	f000 f873 	bl	8002ecc <SystemClock_Config>

	/* Cevresel birim baslatma */
	MX_GPIO_Init();        // GPIO — Si4432 CS/SDN/IRQ, NeoPixel vb.
 8002de6:	f7ff fef9 	bl	8002bdc <MX_GPIO_Init>
	MX_SPI2_Init();        // Si4432 SPI baglantisi
 8002dea:	f000 fc85 	bl	80036f8 <MX_SPI2_Init>
	MX_IWDG_Init();        // Watchdog — sonsuz dongu koruması
 8002dee:	f7ff ffc1 	bl	8002d74 <MX_IWDG_Init>
	MX_TIM17_Init();       // NeoPixel zamanlayicisi (tim.c)
 8002df2:	f000 fe05 	bl	8003a00 <MX_TIM17_Init>
	MX_TIM6_Init();        // NeoPixel IC zamanlayicisi
 8002df6:	f000 fdb9 	bl	800396c <MX_TIM6_Init>
	MX_TIM16_Init();       // Timer (rezerve)
 8002dfa:	f000 fdd9 	bl	80039b0 <MX_TIM16_Init>
	MX_TIM3_Init();        // Timer (rezerve)
 8002dfe:	f000 fd61 	bl	80038c4 <MX_TIM3_Init>
	MX_RTC_Init();         // RTC — LSI ile calisiyor (IWDG icin)
 8002e02:	f000 f995 	bl	8003130 <MX_RTC_Init>

	/* NeoPixel LED baslatma */
	NeoPixel_Init();
 8002e06:	f000 f92d 	bl	8003064 <NeoPixel_Init>

	/* Beyaz kisa flas — MCU ayaga kalktı, diger kontroller baslamadan */
	NeoPixel_SetAll(100, 100, 100); // Beyaz
 8002e0a:	2264      	movs	r2, #100	@ 0x64
 8002e0c:	2164      	movs	r1, #100	@ 0x64
 8002e0e:	2064      	movs	r0, #100	@ 0x64
 8002e10:	f000 f956 	bl	80030c0 <NeoPixel_SetAll>
	NeoPixel_Show();
 8002e14:	f000 f96c 	bl	80030f0 <NeoPixel_Show>
	HAL_Delay(300);
 8002e18:	2396      	movs	r3, #150	@ 0x96
 8002e1a:	005b      	lsls	r3, r3, #1
 8002e1c:	0018      	movs	r0, r3
 8002e1e:	f000 ff31 	bl	8003c84 <HAL_Delay>
	NeoPixel_Clear();
 8002e22:	f000 f95b 	bl	80030dc <NeoPixel_Clear>
	NeoPixel_Show();
 8002e26:	f000 f963 	bl	80030f0 <NeoPixel_Show>
	 *      - Gelmezse → uygulamaya atla
	 *   3. Gecerli uygulama yoksa → bootloader (ilk programlama)
	 * =================================================================== */

	/* 1. Boot flag kontrolu */
	if (check_boot_flag()) {
 8002e2a:	f7fe fe17 	bl	8001a5c <check_boot_flag>
 8002e2e:	1e03      	subs	r3, r0, #0
 8002e30:	d003      	beq.n	8002e3a <main+0x62>
		/* BOOT_FLAG_ADDRESS'de MAGIC + REQUEST var → bootloader moduna gec */
		Bootloader_Main();   // RF uzerinden firmware guncelle
 8002e32:	f7fd feaf 	bl	8000b94 <Bootloader_Main>
		NVIC_SystemReset();  // Bittikten sonra sistemi yeniden basla
 8002e36:	f7ff ffbd 	bl	8002db4 <__NVIC_SystemReset>
	}

	/* 2. Gecerli uygulama var mi? (MSP'nin 0x2000xxxx olmasi gerekiyor) */
	uint32_t app_msp = *(volatile uint32_t*) APP_ADDRESS;
 8002e3a:	4b22      	ldr	r3, [pc, #136]	@ (8002ec4 <main+0xec>)
 8002e3c:	681b      	ldr	r3, [r3, #0]
 8002e3e:	63fb      	str	r3, [r7, #60]	@ 0x3c
	if ((app_msp & 0xFFF00000) == 0x20000000) {
 8002e40:	6bfb      	ldr	r3, [r7, #60]	@ 0x3c
 8002e42:	0d1b      	lsrs	r3, r3, #20
 8002e44:	051a      	lsls	r2, r3, #20
 8002e46:	2380      	movs	r3, #128	@ 0x80
 8002e48:	059b      	lsls	r3, r3, #22
 8002e4a:	429a      	cmp	r2, r3
 8002e4c:	d136      	bne.n	8002ebc <main+0xe4>
		/* Gecerli uygulama var — ama once 3 saniye RF dinle */
		/* Bu sayede gonderici uzaktan bootloader'i tetikleyebilir */
		SI4432_Init();
 8002e4e:	f000 fa79 	bl	8003344 <SI4432_Init>
		HAL_Delay(10);
 8002e52:	200a      	movs	r0, #10
 8002e54:	f000 ff16 	bl	8003c84 <HAL_Delay>

		uint8_t dev_check = SI4432_ReadReg(0x00); // Device Type reg = 0x08 olmali
 8002e58:	253b      	movs	r5, #59	@ 0x3b
 8002e5a:	197c      	adds	r4, r7, r5
 8002e5c:	2000      	movs	r0, #0
 8002e5e:	f000 fa15 	bl	800328c <SI4432_ReadReg>
 8002e62:	0003      	movs	r3, r0
 8002e64:	7023      	strb	r3, [r4, #0]
		if (dev_check == 0x08) {
 8002e66:	197b      	adds	r3, r7, r5
 8002e68:	781b      	ldrb	r3, [r3, #0]
 8002e6a:	2b08      	cmp	r3, #8
 8002e6c:	d122      	bne.n	8002eb4 <main+0xdc>
			NeoPixel_SetAll(0, 0, 100); // Mavi — RF dinliyor
 8002e6e:	2264      	movs	r2, #100	@ 0x64
 8002e70:	2100      	movs	r1, #0
 8002e72:	2000      	movs	r0, #0
 8002e74:	f000 f924 	bl	80030c0 <NeoPixel_SetAll>
			NeoPixel_Show();
 8002e78:	f000 f93a 	bl	80030f0 <NeoPixel_Show>
			uint8_t rx_type, rx_pld[RF_MAX_PAYLOAD];
			uint16_t rx_seq;
			uint8_t rx_pld_len;

			/* 3 saniye BOOT_REQUEST bekle */
			if (RF_WaitForPacket(&rx_type, &rx_seq, rx_pld, &rx_pld_len,
 8002e7c:	2337      	movs	r3, #55	@ 0x37
 8002e7e:	18fb      	adds	r3, r7, r3
 8002e80:	1d3a      	adds	r2, r7, #4
 8002e82:	2138      	movs	r1, #56	@ 0x38
 8002e84:	1879      	adds	r1, r7, r1
 8002e86:	253a      	movs	r5, #58	@ 0x3a
 8002e88:	1978      	adds	r0, r7, r5
 8002e8a:	4c0f      	ldr	r4, [pc, #60]	@ (8002ec8 <main+0xf0>)
 8002e8c:	9400      	str	r4, [sp, #0]
 8002e8e:	f7fe fd0f 	bl	80018b0 <RF_WaitForPacket>
 8002e92:	1e03      	subs	r3, r0, #0
 8002e94:	d00e      	beq.n	8002eb4 <main+0xdc>
					3000)) {
				if (rx_type == RF_CMD_BOOT_REQUEST) {
 8002e96:	197b      	adds	r3, r7, r5
 8002e98:	781b      	ldrb	r3, [r3, #0]
 8002e9a:	2b01      	cmp	r3, #1
 8002e9c:	d10a      	bne.n	8002eb4 <main+0xdc>
					/* Gonderici bootloader istiyor → bootloader moduna gec */
					NeoPixel_SetAll(255, 128, 0); // Turuncu — bootloader'a geciliyor
 8002e9e:	2200      	movs	r2, #0
 8002ea0:	2180      	movs	r1, #128	@ 0x80
 8002ea2:	20ff      	movs	r0, #255	@ 0xff
 8002ea4:	f000 f90c 	bl	80030c0 <NeoPixel_SetAll>
					NeoPixel_Show();
 8002ea8:	f000 f922 	bl	80030f0 <NeoPixel_Show>
					Bootloader_Main();
 8002eac:	f7fd fe72 	bl	8000b94 <Bootloader_Main>
					NVIC_SystemReset();
 8002eb0:	f7ff ff80 	bl	8002db4 <__NVIC_SystemReset>
			}
			/* Baska tip paket geldi veya timeout → uygulamaya gec */
		}

		/* BOOT_REQUEST gelmedi veya Si4432 yok → uygulamaya atla */
		LED_Off();
 8002eb4:	f7fe fca1 	bl	80017fa <LED_Off>
		jump_to_application(); // boot_flow.c — MSP + SYSCFG remap + atla
 8002eb8:	f7fd fde6 	bl	8000a88 <jump_to_application>
	}

	/* 3. Gecerli uygulama yok → bootloader'da kal (ilk programlama) */
	Bootloader_Main();
 8002ebc:	f7fd fe6a 	bl	8000b94 <Bootloader_Main>
	NVIC_SystemReset();
 8002ec0:	f7ff ff78 	bl	8002db4 <__NVIC_SystemReset>
 8002ec4:	08008000 	.word	0x08008000
 8002ec8:	00000bb8 	.word	0x00000bb8

08002ecc <SystemClock_Config>:
	while (1) {
		HAL_IWDG_Refresh(&hiwdg);
	}
}

void SystemClock_Config(void) {
 8002ecc:	b590      	push	{r4, r7, lr}
 8002ece:	b095      	sub	sp, #84	@ 0x54
 8002ed0:	af00      	add	r7, sp, #0
	RCC_OscInitTypeDef RCC_OscInitStruct = { 0 };
 8002ed2:	2420      	movs	r4, #32
 8002ed4:	193b      	adds	r3, r7, r4
 8002ed6:	0018      	movs	r0, r3
 8002ed8:	2330      	movs	r3, #48	@ 0x30
 8002eda:	001a      	movs	r2, r3
 8002edc:	2100      	movs	r1, #0
 8002ede:	f003 ff03 	bl	8006ce8 <memset>
	RCC_ClkInitTypeDef RCC_ClkInitStruct = { 0 };
 8002ee2:	2310      	movs	r3, #16
 8002ee4:	18fb      	adds	r3, r7, r3
 8002ee6:	0018      	movs	r0, r3
 8002ee8:	2310      	movs	r3, #16
 8002eea:	001a      	movs	r2, r3
 8002eec:	2100      	movs	r1, #0
 8002eee:	f003 fefb 	bl	8006ce8 <memset>
	RCC_PeriphCLKInitTypeDef PeriphClkInit = { 0 };
 8002ef2:	003b      	movs	r3, r7
 8002ef4:	0018      	movs	r0, r3
 8002ef6:	2310      	movs	r3, #16
 8002ef8:	001a      	movs	r2, r3
 8002efa:	2100      	movs	r1, #0
 8002efc:	f003 fef4 	bl	8006ce8 <memset>

	RCC_OscInitStruct.OscillatorType =
 8002f00:	0021      	movs	r1, r4
 8002f02:	187b      	adds	r3, r7, r1
 8002f04:	220a      	movs	r2, #10
 8002f06:	601a      	str	r2, [r3, #0]
	RCC_OSCILLATORTYPE_HSI | RCC_OSCILLATORTYPE_LSI;
	RCC_OscInitStruct.HSIState = RCC_HSI_ON;
 8002f08:	187b      	adds	r3, r7, r1
 8002f0a:	2201      	movs	r2, #1
 8002f0c:	60da      	str	r2, [r3, #12]
	RCC_OscInitStruct.HSICalibrationValue = RCC_HSICALIBRATION_DEFAULT;
 8002f0e:	187b      	adds	r3, r7, r1
 8002f10:	2210      	movs	r2, #16
 8002f12:	611a      	str	r2, [r3, #16]
	RCC_OscInitStruct.LSIState = RCC_LSI_ON;
 8002f14:	187b      	adds	r3, r7, r1
 8002f16:	2201      	movs	r2, #1
 8002f18:	61da      	str	r2, [r3, #28]
	RCC_OscInitStruct.PLL.PLLState = RCC_PLL_ON;
 8002f1a:	187b      	adds	r3, r7, r1
 8002f1c:	2202      	movs	r2, #2
 8002f1e:	621a      	str	r2, [r3, #32]
	RCC_OscInitStruct.PLL.PLLSource = RCC_PLLSOURCE_HSI;
 8002f20:	187b      	adds	r3, r7, r1
 8002f22:	2280      	movs	r2, #128	@ 0x80
 8002f24:	0212      	lsls	r2, r2, #8
 8002f26:	625a      	str	r2, [r3, #36]	@ 0x24
	RCC_OscInitStruct.PLL.PLLMUL = RCC_PLL_MUL6;
 8002f28:	187b      	adds	r3, r7, r1
 8002f2a:	2280      	movs	r2, #128	@ 0x80
 8002f2c:	0352      	lsls	r2, r2, #13
 8002f2e:	629a      	str	r2, [r3, #40]	@ 0x28
	RCC_OscInitStruct.PLL.PREDIV = RCC_PREDIV_DIV1;
 8002f30:	187b      	adds	r3, r7, r1
 8002f32:	2200      	movs	r2, #0
 8002f34:	62da      	str	r2, [r3, #44]	@ 0x2c
	if (HAL_RCC_OscConfig(&RCC_OscInitStruct) != HAL_OK)
 8002f36:	187b      	adds	r3, r7, r1
 8002f38:	0018      	movs	r0, r3
 8002f3a:	f001 fc5f 	bl	80047fc <HAL_RCC_OscConfig>
 8002f3e:	1e03      	subs	r3, r0, #0
 8002f40:	d001      	beq.n	8002f46 <SystemClock_Config+0x7a>
		Error_Handler();
 8002f42:	f000 f82a 	bl	8002f9a <Error_Handler>

	RCC_ClkInitStruct.ClockType =
 8002f46:	2110      	movs	r1, #16
 8002f48:	187b      	adds	r3, r7, r1
 8002f4a:	2207      	movs	r2, #7
 8002f4c:	601a      	str	r2, [r3, #0]
	RCC_CLOCKTYPE_HCLK | RCC_CLOCKTYPE_SYSCLK | RCC_CLOCKTYPE_PCLK1;
	RCC_ClkInitStruct.SYSCLKSource = RCC_SYSCLKSOURCE_PLLCLK;
 8002f4e:	187b      	adds	r3, r7, r1
 8002f50:	2202      	movs	r2, #2
 8002f52:	605a      	str	r2, [r3, #4]
	RCC_ClkInitStruct.AHBCLKDivider = RCC_SYSCLK_DIV1;
 8002f54:	187b      	adds	r3, r7, r1
 8002f56:	2200      	movs	r2, #0
 8002f58:	609a      	str	r2, [r3, #8]
	RCC_ClkInitStruct.APB1CLKDivider = RCC_HCLK_DIV1;
 8002f5a:	187b      	adds	r3, r7, r1
 8002f5c:	2200      	movs	r2, #0
 8002f5e:	60da      	str	r2, [r3, #12]
	if (HAL_RCC_ClockConfig(&RCC_ClkInitStruct, FLASH_LATENCY_1) != HAL_OK)
 8002f60:	187b      	adds	r3, r7, r1
 8002f62:	2101      	movs	r1, #1
 8002f64:	0018      	movs	r0, r3
 8002f66:	f001 ff67 	bl	8004e38 <HAL_RCC_ClockConfig>
 8002f6a:	1e03      	subs	r3, r0, #0
 8002f6c:	d001      	beq.n	8002f72 <SystemClock_Config+0xa6>
		Error_Handler();
 8002f6e:	f000 f814 	bl	8002f9a <Error_Handler>

	PeriphClkInit.PeriphClockSelection = RCC_PERIPHCLK_RTC;
 8002f72:	003b      	movs	r3, r7
 8002f74:	2280      	movs	r2, #128	@ 0x80
 8002f76:	0252      	lsls	r2, r2, #9
 8002f78:	601a      	str	r2, [r3, #0]
	PeriphClkInit.RTCClockSelection = RCC_RTCCLKSOURCE_LSI;
 8002f7a:	003b      	movs	r3, r7
 8002f7c:	2280      	movs	r2, #128	@ 0x80
 8002f7e:	0092      	lsls	r2, r2, #2
 8002f80:	605a      	str	r2, [r3, #4]
	if (HAL_RCCEx_PeriphCLKConfig(&PeriphClkInit) != HAL_OK)
 8002f82:	003b      	movs	r3, r7
 8002f84:	0018      	movs	r0, r3
 8002f86:	f002 f87d 	bl	8005084 <HAL_RCCEx_PeriphCLKConfig>
 8002f8a:	1e03      	subs	r3, r0, #0
 8002f8c:	d001      	beq.n	8002f92 <SystemClock_Config+0xc6>
		Error_Handler();
 8002f8e:	f000 f804 	bl	8002f9a <Error_Handler>
}
 8002f92:	46c0      	nop			@ (mov r8, r8)
 8002f94:	46bd      	mov	sp, r7
 8002f96:	b015      	add	sp, #84	@ 0x54
 8002f98:	bd90      	pop	{r4, r7, pc}

08002f9a <Error_Handler>:

void Error_Handler(void) {
 8002f9a:	b580      	push	{r7, lr}
 8002f9c:	af00      	add	r7, sp, #0
  __ASM volatile ("cpsid i" : : : "memory");
 8002f9e:	b672      	cpsid	i
}
 8002fa0:	46c0      	nop			@ (mov r8, r8)
	__disable_irq();
	while (1) {
 8002fa2:	46c0      	nop			@ (mov r8, r8)
 8002fa4:	e7fd      	b.n	8002fa2 <Error_Handler+0x8>
	...

08002fa8 <neopixel_send_byte>:

/**
 * Send a single byte (MSB first) over the NeoPixel data line.
 * Must be called with interrupts disabled.
 */
static void neopixel_send_byte(uint8_t byte) {
 8002fa8:	b530      	push	{r4, r5, lr}
			/* T0H ≈ 0.40 µs → ~19 cycles (subtract overhead ≈ 8) → 11 NOPs */
			NOP10
			;
			NOP1;

			*bsrr = pin_reset;
 8002faa:	2580      	movs	r5, #128	@ 0x80
		if (byte & (1 << bit)) {
 8002fac:	2307      	movs	r3, #7
 8002fae:	2201      	movs	r2, #1
			*bsrr = pin_set;
 8002fb0:	492b      	ldr	r1, [pc, #172]	@ (8003060 <neopixel_send_byte+0xb8>)
			*bsrr = pin_reset;
 8002fb2:	026d      	lsls	r5, r5, #9
 8002fb4:	e02e      	b.n	8003014 <neopixel_send_byte+0x6c>
			NOP10
 8002fb6:	46c0      	nop			@ (mov r8, r8)
 8002fb8:	46c0      	nop			@ (mov r8, r8)
 8002fba:	46c0      	nop			@ (mov r8, r8)
 8002fbc:	46c0      	nop			@ (mov r8, r8)
 8002fbe:	46c0      	nop			@ (mov r8, r8)
 8002fc0:	46c0      	nop			@ (mov r8, r8)
 8002fc2:	46c0      	nop			@ (mov r8, r8)
 8002fc4:	46c0      	nop			@ (mov r8, r8)
 8002fc6:	46c0      	nop			@ (mov r8, r8)
 8002fc8:	46c0      	nop			@ (mov r8, r8)
			NOP10
 8002fca:	46c0      	nop			@ (mov r8, r8)
 8002fcc:	46c0      	nop			@ (mov r8, r8)
 8002fce:	46c0      	nop			@ (mov r8, r8)
 8002fd0:	46c0      	nop			@ (mov r8, r8)
 8002fd2:	46c0      	nop			@ (mov r8, r8)
 8002fd4:	46c0      	nop			@ (mov r8, r8)
 8002fd6:	46c0      	nop			@ (mov r8, r8)
 8002fd8:	46c0      	nop			@ (mov r8, r8)
 8002fda:	46c0      	nop			@ (mov r8, r8)
 8002fdc:	46c0      	nop			@ (mov r8, r8)
			NOP10
 8002fde:	46c0      	nop			@ (mov r8, r8)
 8002fe0:	46c0      	nop			@ (mov r8, r8)
 8002fe2:	46c0      	nop			@ (mov r8, r8)
 8002fe4:	46c0      	nop			@ (mov r8, r8)
 8002fe6:	46c0      	nop			@ (mov r8, r8)
 8002fe8:	46c0      	nop			@ (mov r8, r8)
 8002fea:	46c0      	nop			@ (mov r8, r8)
 8002fec:	46c0      	nop			@ (mov r8, r8)
 8002fee:	46c0      	nop			@ (mov r8, r8)
 8002ff0:	46c0      	nop			@ (mov r8, r8)
			*bsrr = pin_reset;
 8002ff2:	600d      	str	r5, [r1, #0]
			/* T0L ≈ 0.85 µs → ~41 cycles (subtract overhead ≈ 8) → 33 NOPs */
			NOP10
			;
			NOP10
 8002ff4:	46c0      	nop			@ (mov r8, r8)
			;
			NOP10
 8002ff6:	46c0      	nop			@ (mov r8, r8)
 8002ff8:	46c0      	nop			@ (mov r8, r8)
 8002ffa:	46c0      	nop			@ (mov r8, r8)
 8002ffc:	46c0      	nop			@ (mov r8, r8)
 8002ffe:	46c0      	nop			@ (mov r8, r8)
 8003000:	46c0      	nop			@ (mov r8, r8)
 8003002:	46c0      	nop			@ (mov r8, r8)
 8003004:	46c0      	nop			@ (mov r8, r8)
 8003006:	46c0      	nop			@ (mov r8, r8)
 8003008:	46c0      	nop			@ (mov r8, r8)
			;
			NOP1;
 800300a:	46c0      	nop			@ (mov r8, r8)
			NOP1;
 800300c:	46c0      	nop			@ (mov r8, r8)
			NOP1;
 800300e:	46c0      	nop			@ (mov r8, r8)
	for (int8_t bit = 7; bit >= 0; bit--) {
 8003010:	3b01      	subs	r3, #1
 8003012:	d324      	bcc.n	800305e <neopixel_send_byte+0xb6>
		if (byte & (1 << bit)) {
 8003014:	0004      	movs	r4, r0
 8003016:	411c      	asrs	r4, r3
			*bsrr = pin_set;
 8003018:	600a      	str	r2, [r1, #0]
		if (byte & (1 << bit)) {
 800301a:	4222      	tst	r2, r4
 800301c:	d1cb      	bne.n	8002fb6 <neopixel_send_byte+0xe>
			NOP10
 800301e:	46c0      	nop			@ (mov r8, r8)
 8003020:	46c0      	nop			@ (mov r8, r8)
 8003022:	46c0      	nop			@ (mov r8, r8)
 8003024:	46c0      	nop			@ (mov r8, r8)
 8003026:	46c0      	nop			@ (mov r8, r8)
 8003028:	46c0      	nop			@ (mov r8, r8)
 800302a:	46c0      	nop			@ (mov r8, r8)
 800302c:	46c0      	nop			@ (mov r8, r8)
 800302e:	46c0      	nop			@ (mov r8, r8)
 8003030:	46c0      	nop			@ (mov r8, r8)
			NOP1;
 8003032:	46c0      	nop			@ (mov r8, r8)
			*bsrr = pin_reset;
 8003034:	600d      	str	r5, [r1, #0]
			NOP10
 8003036:	46c0      	nop			@ (mov r8, r8)
 8003038:	46c0      	nop			@ (mov r8, r8)
 800303a:	46c0      	nop			@ (mov r8, r8)
 800303c:	46c0      	nop			@ (mov r8, r8)
 800303e:	46c0      	nop			@ (mov r8, r8)
 8003040:	46c0      	nop			@ (mov r8, r8)
 8003042:	46c0      	nop			@ (mov r8, r8)
 8003044:	46c0      	nop			@ (mov r8, r8)
 8003046:	46c0      	nop			@ (mov r8, r8)
 8003048:	46c0      	nop			@ (mov r8, r8)
			NOP10
 800304a:	46c0      	nop			@ (mov r8, r8)
 800304c:	46c0      	nop			@ (mov r8, r8)
 800304e:	46c0      	nop			@ (mov r8, r8)
 8003050:	46c0      	nop			@ (mov r8, r8)
 8003052:	46c0      	nop			@ (mov r8, r8)
 8003054:	46c0      	nop			@ (mov r8, r8)
 8003056:	46c0      	nop			@ (mov r8, r8)
 8003058:	46c0      	nop			@ (mov r8, r8)
 800305a:	46c0      	nop			@ (mov r8, r8)
 800305c:	e7ca      	b.n	8002ff4 <neopixel_send_byte+0x4c>
		}
	}
}
 800305e:	bd30      	pop	{r4, r5, pc}
 8003060:	48000418 	.word	0x48000418

08003064 <NeoPixel_Init>:

/* ---------- Public API ---------- */

void NeoPixel_Init(void) {
 8003064:	b510      	push	{r4, lr}
 8003066:	b086      	sub	sp, #24
	GPIO_InitTypeDef gpio = { 0 };
 8003068:	220c      	movs	r2, #12
 800306a:	2100      	movs	r1, #0
 800306c:	a802      	add	r0, sp, #8
 800306e:	f003 fe3b 	bl	8006ce8 <memset>
	gpio.Pin = NEOPIXEL_PIN;
 8003072:	2001      	movs	r0, #1
 8003074:	2101      	movs	r1, #1
	gpio.Mode = GPIO_MODE_OUTPUT_PP;
	gpio.Pull = GPIO_NOPULL;
	gpio.Speed = GPIO_SPEED_FREQ_HIGH;
 8003076:	2303      	movs	r3, #3
	HAL_GPIO_Init(NEOPIXEL_PORT, &gpio);
 8003078:	4c09      	ldr	r4, [pc, #36]	@ (80030a0 <NeoPixel_Init+0x3c>)
	gpio.Pin = NEOPIXEL_PIN;
 800307a:	9000      	str	r0, [sp, #0]
 800307c:	9101      	str	r1, [sp, #4]
	HAL_GPIO_Init(NEOPIXEL_PORT, &gpio);
 800307e:	4669      	mov	r1, sp
 8003080:	0020      	movs	r0, r4
	gpio.Speed = GPIO_SPEED_FREQ_HIGH;
 8003082:	9303      	str	r3, [sp, #12]
	HAL_GPIO_Init(NEOPIXEL_PORT, &gpio);
 8003084:	f001 f902 	bl	800428c <HAL_GPIO_Init>

	/* Make sure pin starts LOW (reset state for WS2812). */
	HAL_GPIO_WritePin(NEOPIXEL_PORT, NEOPIXEL_PIN, GPIO_PIN_RESET);
 8003088:	2200      	movs	r2, #0
 800308a:	2101      	movs	r1, #1
 800308c:	0020      	movs	r0, r4
 800308e:	f001 fa8a 	bl	80045a6 <HAL_GPIO_WritePin>

	/* Clear the buffer and push to LEDs */
	NeoPixel_Clear();
 8003092:	f000 f823 	bl	80030dc <NeoPixel_Clear>
	NeoPixel_Show();
 8003096:	f000 f82b 	bl	80030f0 <NeoPixel_Show>
}
 800309a:	b006      	add	sp, #24
 800309c:	bd10      	pop	{r4, pc}
 800309e:	46c0      	nop			@ (mov r8, r8)
 80030a0:	48000400 	.word	0x48000400

080030a4 <NeoPixel_SetColor>:

void NeoPixel_SetColor(uint8_t led, uint8_t r, uint8_t g, uint8_t b) {
 80030a4:	b530      	push	{r4, r5, lr}
	if (led >= NEOPIXEL_NUM_LEDS)
 80030a6:	2802      	cmp	r0, #2
 80030a8:	d806      	bhi.n	80030b8 <NeoPixel_SetColor+0x14>
		return;
	uint16_t idx = (uint16_t) led * 3;
	pixel_buf[idx + 0] = g; /* WS2812 expects GRB order */
 80030aa:	4c04      	ldr	r4, [pc, #16]	@ (80030bc <NeoPixel_SetColor+0x18>)
	uint16_t idx = (uint16_t) led * 3;
 80030ac:	0045      	lsls	r5, r0, #1
	pixel_buf[idx + 0] = g; /* WS2812 expects GRB order */
 80030ae:	1940      	adds	r0, r0, r5
 80030b0:	5422      	strb	r2, [r4, r0]
	pixel_buf[idx + 1] = r;
 80030b2:	1820      	adds	r0, r4, r0
 80030b4:	7041      	strb	r1, [r0, #1]
	pixel_buf[idx + 2] = b;
 80030b6:	7083      	strb	r3, [r0, #2]
}
 80030b8:	bd30      	pop	{r4, r5, pc}
 80030ba:	46c0      	nop			@ (mov r8, r8)
 80030bc:	20000168 	.word	0x20000168

080030c0 <NeoPixel_SetAll>:

void NeoPixel_SetAll(uint8_t r, uint8_t g, uint8_t b) {
 80030c0:	b570      	push	{r4, r5, r6, lr}
 80030c2:	000d      	movs	r5, r1
 80030c4:	0013      	movs	r3, r2
	for (uint8_t i = 0; i < NEOPIXEL_NUM_LEDS; i++)
 80030c6:	2400      	movs	r4, #0
void NeoPixel_SetAll(uint8_t r, uint8_t g, uint8_t b) {
 80030c8:	0001      	movs	r1, r0
 80030ca:	002a      	movs	r2, r5
		NeoPixel_SetColor(i, r, g, b);
 80030cc:	0020      	movs	r0, r4
	for (uint8_t i = 0; i < NEOPIXEL_NUM_LEDS; i++)
 80030ce:	3401      	adds	r4, #1
 80030d0:	b2e4      	uxtb	r4, r4
		NeoPixel_SetColor(i, r, g, b);
 80030d2:	f7ff ffe7 	bl	80030a4 <NeoPixel_SetColor>
	for (uint8_t i = 0; i < NEOPIXEL_NUM_LEDS; i++)
 80030d6:	2c03      	cmp	r4, #3
 80030d8:	d1f8      	bne.n	80030cc <NeoPixel_SetAll+0xc>
}
 80030da:	bd70      	pop	{r4, r5, r6, pc}

080030dc <NeoPixel_Clear>:

void NeoPixel_Clear(void) {
 80030dc:	b510      	push	{r4, lr}
	for (uint8_t i = 0; i < sizeof(pixel_buf); i++)
		pixel_buf[i] = 0;
 80030de:	2209      	movs	r2, #9
 80030e0:	2100      	movs	r1, #0
 80030e2:	4802      	ldr	r0, [pc, #8]	@ (80030ec <NeoPixel_Clear+0x10>)
 80030e4:	f003 fe00 	bl	8006ce8 <memset>
}
 80030e8:	bd10      	pop	{r4, pc}
 80030ea:	46c0      	nop			@ (mov r8, r8)
 80030ec:	20000168 	.word	0x20000168

080030f0 <NeoPixel_Show>:

void NeoPixel_Show(void) {
 80030f0:	b530      	push	{r4, r5, lr}
 80030f2:	b083      	sub	sp, #12
  __ASM volatile ("cpsid i" : : : "memory");
 80030f4:	b672      	cpsid	i
	__disable_irq();

	for (uint8_t i = 0; i < sizeof(pixel_buf); i++)
 80030f6:	4c0d      	ldr	r4, [pc, #52]	@ (800312c <NeoPixel_Show+0x3c>)
 80030f8:	0025      	movs	r5, r4
 80030fa:	3509      	adds	r5, #9
		neopixel_send_byte(pixel_buf[i]);
 80030fc:	7820      	ldrb	r0, [r4, #0]
	for (uint8_t i = 0; i < sizeof(pixel_buf); i++)
 80030fe:	3401      	adds	r4, #1
		neopixel_send_byte(pixel_buf[i]);
 8003100:	f7ff ff52 	bl	8002fa8 <neopixel_send_byte>
	for (uint8_t i = 0; i < sizeof(pixel_buf); i++)
 8003104:	42ac      	cmp	r4, r5
 8003106:	d1f9      	bne.n	80030fc <NeoPixel_Show+0xc>
  __ASM volatile ("cpsie i" : : : "memory");
 8003108:	b662      	cpsie	i
	__enable_irq();

	/* Reset pulse: data line LOW for ≥ 50 µs.
	 * Pin is already LOW after last bit; just wait.  */
	/* Use a rough loop: 50 µs × 48 MHz = 2400 cycles */
	for (volatile uint32_t t = 0; t < 800; t++)
 800310a:	2300      	movs	r3, #0
 800310c:	22c8      	movs	r2, #200	@ 0xc8
 800310e:	9301      	str	r3, [sp, #4]
 8003110:	9b01      	ldr	r3, [sp, #4]
 8003112:	0092      	lsls	r2, r2, #2
 8003114:	4293      	cmp	r3, r2
 8003116:	d206      	bcs.n	8003126 <NeoPixel_Show+0x36>
		__asm volatile("nop");
 8003118:	46c0      	nop			@ (mov r8, r8)
	for (volatile uint32_t t = 0; t < 800; t++)
 800311a:	9b01      	ldr	r3, [sp, #4]
 800311c:	3301      	adds	r3, #1
 800311e:	9301      	str	r3, [sp, #4]
 8003120:	9b01      	ldr	r3, [sp, #4]
 8003122:	4293      	cmp	r3, r2
 8003124:	d3f8      	bcc.n	8003118 <NeoPixel_Show+0x28>
}
 8003126:	b003      	add	sp, #12
 8003128:	bd30      	pop	{r4, r5, pc}
 800312a:	46c0      	nop			@ (mov r8, r8)
 800312c:	20000168 	.word	0x20000168

08003130 <MX_RTC_Init>:
/* USER CODE END 0 */

RTC_HandleTypeDef hrtc;

/* RTC init function */
void MX_RTC_Init(void) {
 8003130:	b580      	push	{r7, lr}
 8003132:	b086      	sub	sp, #24
 8003134:	af00      	add	r7, sp, #0

	/* USER CODE BEGIN RTC_Init 0 */

	/* USER CODE END RTC_Init 0 */

	RTC_TimeTypeDef sTime = { 0 };
 8003136:	1d3b      	adds	r3, r7, #4
 8003138:	0018      	movs	r0, r3
 800313a:	2314      	movs	r3, #20
 800313c:	001a      	movs	r2, r3
 800313e:	2100      	movs	r1, #0
 8003140:	f003 fdd2 	bl	8006ce8 <memset>
	RTC_DateTypeDef sDate = { 0 };
 8003144:	003b      	movs	r3, r7
 8003146:	2200      	movs	r2, #0
 8003148:	601a      	str	r2, [r3, #0]

	/* USER CODE END RTC_Init 1 */

	/** Initialize RTC Only
	 */
	hrtc.Instance = RTC;
 800314a:	4b28      	ldr	r3, [pc, #160]	@ (80031ec <MX_RTC_Init+0xbc>)
 800314c:	4a28      	ldr	r2, [pc, #160]	@ (80031f0 <MX_RTC_Init+0xc0>)
 800314e:	601a      	str	r2, [r3, #0]
	hrtc.Init.HourFormat = RTC_HOURFORMAT_24;
 8003150:	4b26      	ldr	r3, [pc, #152]	@ (80031ec <MX_RTC_Init+0xbc>)
 8003152:	2200      	movs	r2, #0
 8003154:	605a      	str	r2, [r3, #4]
	hrtc.Init.AsynchPrediv = 100;
 8003156:	4b25      	ldr	r3, [pc, #148]	@ (80031ec <MX_RTC_Init+0xbc>)
 8003158:	2264      	movs	r2, #100	@ 0x64
 800315a:	609a      	str	r2, [r3, #8]
	hrtc.Init.SynchPrediv = 520;
 800315c:	4b23      	ldr	r3, [pc, #140]	@ (80031ec <MX_RTC_Init+0xbc>)
 800315e:	2282      	movs	r2, #130	@ 0x82
 8003160:	0092      	lsls	r2, r2, #2
 8003162:	60da      	str	r2, [r3, #12]
	hrtc.Init.OutPut = RTC_OUTPUT_DISABLE;
 8003164:	4b21      	ldr	r3, [pc, #132]	@ (80031ec <MX_RTC_Init+0xbc>)
 8003166:	2200      	movs	r2, #0
 8003168:	611a      	str	r2, [r3, #16]
	hrtc.Init.OutPutPolarity = RTC_OUTPUT_POLARITY_HIGH;
 800316a:	4b20      	ldr	r3, [pc, #128]	@ (80031ec <MX_RTC_Init+0xbc>)
 800316c:	2200      	movs	r2, #0
 800316e:	615a      	str	r2, [r3, #20]
	hrtc.Init.OutPutType = RTC_OUTPUT_TYPE_OPENDRAIN;
 8003170:	4b1e      	ldr	r3, [pc, #120]	@ (80031ec <MX_RTC_Init+0xbc>)
 8003172:	2200      	movs	r2, #0
 8003174:	619a      	str	r2, [r3, #24]
	if (HAL_RTC_Init(&hrtc) != HAL_OK) {
 8003176:	4b1d      	ldr	r3, [pc, #116]	@ (80031ec <MX_RTC_Init+0xbc>)
 8003178:	0018      	movs	r0, r3
 800317a:	f002 f851 	bl	8005220 <HAL_RTC_Init>
 800317e:	1e03      	subs	r3, r0, #0
 8003180:	d001      	beq.n	8003186 <MX_RTC_Init+0x56>
		Error_Handler();
 8003182:	f7ff ff0a 	bl	8002f9a <Error_Handler>

	/* USER CODE END Check_RTC_BKUP */

	/** Initialize RTC and set the Time and Date
	 */
	sTime.Hours = 0x9;
 8003186:	1d3b      	adds	r3, r7, #4
 8003188:	2209      	movs	r2, #9
 800318a:	701a      	strb	r2, [r3, #0]
	sTime.Minutes = 0x45;
 800318c:	1d3b      	adds	r3, r7, #4
 800318e:	2245      	movs	r2, #69	@ 0x45
 8003190:	705a      	strb	r2, [r3, #1]
	sTime.Seconds = 0x0;
 8003192:	1d3b      	adds	r3, r7, #4
 8003194:	2200      	movs	r2, #0
 8003196:	709a      	strb	r2, [r3, #2]
	sTime.DayLightSaving = RTC_DAYLIGHTSAVING_NONE;
 8003198:	1d3b      	adds	r3, r7, #4
 800319a:	2200      	movs	r2, #0
 800319c:	60da      	str	r2, [r3, #12]
	sTime.StoreOperation = RTC_STOREOPERATION_RESET;
 800319e:	1d3b      	adds	r3, r7, #4
 80031a0:	2200      	movs	r2, #0
 80031a2:	611a      	str	r2, [r3, #16]
	if (HAL_RTC_SetTime(&hrtc, &sTime, RTC_FORMAT_BCD) != HAL_OK) {
 80031a4:	1d39      	adds	r1, r7, #4
 80031a6:	4b11      	ldr	r3, [pc, #68]	@ (80031ec <MX_RTC_Init+0xbc>)
 80031a8:	2201      	movs	r2, #1
 80031aa:	0018      	movs	r0, r3
 80031ac:	f002 f8d0 	bl	8005350 <HAL_RTC_SetTime>
 80031b0:	1e03      	subs	r3, r0, #0
 80031b2:	d001      	beq.n	80031b8 <MX_RTC_Init+0x88>
		Error_Handler();
 80031b4:	f7ff fef1 	bl	8002f9a <Error_Handler>
	}
	sDate.WeekDay = RTC_WEEKDAY_WEDNESDAY;
 80031b8:	003b      	movs	r3, r7
 80031ba:	2203      	movs	r2, #3
 80031bc:	701a      	strb	r2, [r3, #0]
	sDate.Month = RTC_MONTH_JANUARY;
 80031be:	003b      	movs	r3, r7
 80031c0:	2201      	movs	r2, #1
 80031c2:	705a      	strb	r2, [r3, #1]
	sDate.Date = 0x17;
 80031c4:	003b      	movs	r3, r7
 80031c6:	2217      	movs	r2, #23
 80031c8:	709a      	strb	r2, [r3, #2]
	sDate.Year = 0x24;
 80031ca:	003b      	movs	r3, r7
 80031cc:	2224      	movs	r2, #36	@ 0x24
 80031ce:	70da      	strb	r2, [r3, #3]

	if (HAL_RTC_SetDate(&hrtc, &sDate, RTC_FORMAT_BCD) != HAL_OK) {
 80031d0:	0039      	movs	r1, r7
 80031d2:	4b06      	ldr	r3, [pc, #24]	@ (80031ec <MX_RTC_Init+0xbc>)
 80031d4:	2201      	movs	r2, #1
 80031d6:	0018      	movs	r0, r3
 80031d8:	f002 f960 	bl	800549c <HAL_RTC_SetDate>
 80031dc:	1e03      	subs	r3, r0, #0
 80031de:	d001      	beq.n	80031e4 <MX_RTC_Init+0xb4>
		Error_Handler();
 80031e0:	f7ff fedb 	bl	8002f9a <Error_Handler>
	}
	/* USER CODE BEGIN RTC_Init 2 */

	/* USER CODE END RTC_Init 2 */

}
 80031e4:	46c0      	nop			@ (mov r8, r8)
 80031e6:	46bd      	mov	sp, r7
 80031e8:	b006      	add	sp, #24
 80031ea:	bd80      	pop	{r7, pc}
 80031ec:	20000174 	.word	0x20000174
 80031f0:	40002800 	.word	0x40002800

080031f4 <HAL_RTC_MspInit>:

void HAL_RTC_MspInit(RTC_HandleTypeDef *rtcHandle) {
 80031f4:	b580      	push	{r7, lr}
 80031f6:	b082      	sub	sp, #8
 80031f8:	af00      	add	r7, sp, #0
 80031fa:	6078      	str	r0, [r7, #4]

	if (rtcHandle->Instance == RTC) {
 80031fc:	687b      	ldr	r3, [r7, #4]
 80031fe:	681b      	ldr	r3, [r3, #0]
 8003200:	4a06      	ldr	r2, [pc, #24]	@ (800321c <HAL_RTC_MspInit+0x28>)
 8003202:	4293      	cmp	r3, r2
 8003204:	d106      	bne.n	8003214 <HAL_RTC_MspInit+0x20>
		/* USER CODE BEGIN RTC_MspInit 0 */

		/* USER CODE END RTC_MspInit 0 */
		/* RTC clock enable */
		__HAL_RCC_RTC_ENABLE();
 8003206:	4b06      	ldr	r3, [pc, #24]	@ (8003220 <HAL_RTC_MspInit+0x2c>)
 8003208:	6a1a      	ldr	r2, [r3, #32]
 800320a:	4b05      	ldr	r3, [pc, #20]	@ (8003220 <HAL_RTC_MspInit+0x2c>)
 800320c:	2180      	movs	r1, #128	@ 0x80
 800320e:	0209      	lsls	r1, r1, #8
 8003210:	430a      	orrs	r2, r1
 8003212:	621a      	str	r2, [r3, #32]
		/* USER CODE BEGIN RTC_MspInit 1 */

		/* USER CODE END RTC_MspInit 1 */
	}
}
 8003214:	46c0      	nop			@ (mov r8, r8)
 8003216:	46bd      	mov	sp, r7
 8003218:	b002      	add	sp, #8
 800321a:	bd80      	pop	{r7, pc}
 800321c:	40002800 	.word	0x40002800
 8003220:	40021000 	.word	0x40021000

08003224 <SI4432_WriteReg>:
  (HAL_GPIO_ReadPin(SI4432_IRQ_GPIO_Port, SI4432_IRQ_Pin) == GPIO_PIN_RESET)

// =========================================================================
// SPI Register Okuma/Yazma
// =========================================================================
void SI4432_WriteReg(uint8_t reg, uint8_t value) {
 8003224:	b580      	push	{r7, lr}
 8003226:	b084      	sub	sp, #16
 8003228:	af00      	add	r7, sp, #0
 800322a:	0002      	movs	r2, r0
 800322c:	1dfb      	adds	r3, r7, #7
 800322e:	701a      	strb	r2, [r3, #0]
 8003230:	1dbb      	adds	r3, r7, #6
 8003232:	1c0a      	adds	r2, r1, #0
 8003234:	701a      	strb	r2, [r3, #0]
	CS_LOW();
 8003236:	2380      	movs	r3, #128	@ 0x80
 8003238:	015b      	lsls	r3, r3, #5
 800323a:	4812      	ldr	r0, [pc, #72]	@ (8003284 <SI4432_WriteReg+0x60>)
 800323c:	2200      	movs	r2, #0
 800323e:	0019      	movs	r1, r3
 8003240:	f001 f9b1 	bl	80045a6 <HAL_GPIO_WritePin>
	uint8_t addr = reg | 0x80; // MSB=1 → write
 8003244:	1dfb      	adds	r3, r7, #7
 8003246:	781b      	ldrb	r3, [r3, #0]
 8003248:	2280      	movs	r2, #128	@ 0x80
 800324a:	4252      	negs	r2, r2
 800324c:	4313      	orrs	r3, r2
 800324e:	b2da      	uxtb	r2, r3
 8003250:	210f      	movs	r1, #15
 8003252:	187b      	adds	r3, r7, r1
 8003254:	701a      	strb	r2, [r3, #0]
	HAL_SPI_Transmit(&hspi2, &addr, 1, 10);
 8003256:	1879      	adds	r1, r7, r1
 8003258:	480b      	ldr	r0, [pc, #44]	@ (8003288 <SI4432_WriteReg+0x64>)
 800325a:	230a      	movs	r3, #10
 800325c:	2201      	movs	r2, #1
 800325e:	f002 fb1b 	bl	8005898 <HAL_SPI_Transmit>
	HAL_SPI_Transmit(&hspi2, &value, 1, 10);
 8003262:	1db9      	adds	r1, r7, #6
 8003264:	4808      	ldr	r0, [pc, #32]	@ (8003288 <SI4432_WriteReg+0x64>)
 8003266:	230a      	movs	r3, #10
 8003268:	2201      	movs	r2, #1
 800326a:	f002 fb15 	bl	8005898 <HAL_SPI_Transmit>
	CS_HIGH();
 800326e:	2380      	movs	r3, #128	@ 0x80
 8003270:	015b      	lsls	r3, r3, #5
 8003272:	4804      	ldr	r0, [pc, #16]	@ (8003284 <SI4432_WriteReg+0x60>)
 8003274:	2201      	movs	r2, #1
 8003276:	0019      	movs	r1, r3
 8003278:	f001 f995 	bl	80045a6 <HAL_GPIO_WritePin>
}
 800327c:	46c0      	nop			@ (mov r8, r8)
 800327e:	46bd      	mov	sp, r7
 8003280:	b004      	add	sp, #16
 8003282:	bd80      	pop	{r7, pc}
 8003284:	48000400 	.word	0x48000400
 8003288:	20000194 	.word	0x20000194

0800328c <SI4432_ReadReg>:

uint8_t SI4432_ReadReg(uint8_t reg) {
 800328c:	b590      	push	{r4, r7, lr}
 800328e:	b085      	sub	sp, #20
 8003290:	af00      	add	r7, sp, #0
 8003292:	0002      	movs	r2, r0
 8003294:	1dfb      	adds	r3, r7, #7
 8003296:	701a      	strb	r2, [r3, #0]
	uint8_t val = 0;
 8003298:	240f      	movs	r4, #15
 800329a:	193b      	adds	r3, r7, r4
 800329c:	2200      	movs	r2, #0
 800329e:	701a      	strb	r2, [r3, #0]
	CS_LOW();
 80032a0:	2380      	movs	r3, #128	@ 0x80
 80032a2:	015b      	lsls	r3, r3, #5
 80032a4:	4812      	ldr	r0, [pc, #72]	@ (80032f0 <SI4432_ReadReg+0x64>)
 80032a6:	2200      	movs	r2, #0
 80032a8:	0019      	movs	r1, r3
 80032aa:	f001 f97c 	bl	80045a6 <HAL_GPIO_WritePin>
	uint8_t addr = reg & 0x7F; // MSB=0 → read
 80032ae:	1dfb      	adds	r3, r7, #7
 80032b0:	781b      	ldrb	r3, [r3, #0]
 80032b2:	227f      	movs	r2, #127	@ 0x7f
 80032b4:	4013      	ands	r3, r2
 80032b6:	b2da      	uxtb	r2, r3
 80032b8:	210e      	movs	r1, #14
 80032ba:	187b      	adds	r3, r7, r1
 80032bc:	701a      	strb	r2, [r3, #0]
	HAL_SPI_Transmit(&hspi2, &addr, 1, 10);
 80032be:	1879      	adds	r1, r7, r1
 80032c0:	480c      	ldr	r0, [pc, #48]	@ (80032f4 <SI4432_ReadReg+0x68>)
 80032c2:	230a      	movs	r3, #10
 80032c4:	2201      	movs	r2, #1
 80032c6:	f002 fae7 	bl	8005898 <HAL_SPI_Transmit>
	HAL_SPI_Receive(&hspi2, &val, 1, 10);
 80032ca:	1939      	adds	r1, r7, r4
 80032cc:	4809      	ldr	r0, [pc, #36]	@ (80032f4 <SI4432_ReadReg+0x68>)
 80032ce:	230a      	movs	r3, #10
 80032d0:	2201      	movs	r2, #1
 80032d2:	f002 fc41 	bl	8005b58 <HAL_SPI_Receive>
	CS_HIGH();
 80032d6:	2380      	movs	r3, #128	@ 0x80
 80032d8:	015b      	lsls	r3, r3, #5
 80032da:	4805      	ldr	r0, [pc, #20]	@ (80032f0 <SI4432_ReadReg+0x64>)
 80032dc:	2201      	movs	r2, #1
 80032de:	0019      	movs	r1, r3
 80032e0:	f001 f961 	bl	80045a6 <HAL_GPIO_WritePin>
	return val;
 80032e4:	193b      	adds	r3, r7, r4
 80032e6:	781b      	ldrb	r3, [r3, #0]
}
 80032e8:	0018      	movs	r0, r3
 80032ea:	46bd      	mov	sp, r7
 80032ec:	b005      	add	sp, #20
 80032ee:	bd90      	pop	{r4, r7, pc}
 80032f0:	48000400 	.word	0x48000400
 80032f4:	20000194 	.word	0x20000194

080032f8 <SI4432_ClearIRQ>:

// =========================================================================
// Interrupt flag'lerini temizle (nIRQ pin'i serbest bırakır)
// =========================================================================
static void SI4432_ClearIRQ(void) {
 80032f8:	b580      	push	{r7, lr}
 80032fa:	af00      	add	r7, sp, #0
	(void) SI4432_ReadReg(0x03); // Interrupt Status 1
 80032fc:	2003      	movs	r0, #3
 80032fe:	f7ff ffc5 	bl	800328c <SI4432_ReadReg>
	(void) SI4432_ReadReg(0x04); // Interrupt Status 2
 8003302:	2004      	movs	r0, #4
 8003304:	f7ff ffc2 	bl	800328c <SI4432_ReadReg>
}
 8003308:	46c0      	nop			@ (mov r8, r8)
 800330a:	46bd      	mov	sp, r7
 800330c:	bd80      	pop	{r7, pc}

0800330e <SI4432_ResetRxFIFO>:

// =========================================================================
// FIFO Reset
// =========================================================================
static void SI4432_ResetRxFIFO(void) {
 800330e:	b580      	push	{r7, lr}
 8003310:	af00      	add	r7, sp, #0
	SI4432_WriteReg(0x08, 0x02);
 8003312:	2102      	movs	r1, #2
 8003314:	2008      	movs	r0, #8
 8003316:	f7ff ff85 	bl	8003224 <SI4432_WriteReg>
	SI4432_WriteReg(0x08, 0x00);
 800331a:	2100      	movs	r1, #0
 800331c:	2008      	movs	r0, #8
 800331e:	f7ff ff81 	bl	8003224 <SI4432_WriteReg>
}
 8003322:	46c0      	nop			@ (mov r8, r8)
 8003324:	46bd      	mov	sp, r7
 8003326:	bd80      	pop	{r7, pc}

08003328 <SI4432_ResetTxFIFO>:

static void SI4432_ResetTxFIFO(void) {
 8003328:	b580      	push	{r7, lr}
 800332a:	af00      	add	r7, sp, #0
	SI4432_WriteReg(0x08, 0x01);
 800332c:	2101      	movs	r1, #1
 800332e:	2008      	movs	r0, #8
 8003330:	f7ff ff78 	bl	8003224 <SI4432_WriteReg>
	SI4432_WriteReg(0x08, 0x00);
 8003334:	2100      	movs	r1, #0
 8003336:	2008      	movs	r0, #8
 8003338:	f7ff ff74 	bl	8003224 <SI4432_WriteReg>
}
 800333c:	46c0      	nop			@ (mov r8, r8)
 800333e:	46bd      	mov	sp, r7
 8003340:	bd80      	pop	{r7, pc}
	...

08003344 <SI4432_Init>:

// =========================================================================
// Si4432 Başlatma — Silicon Labs Resmi Örnek Koddan
// =========================================================================
void SI4432_Init(void) {
 8003344:	b580      	push	{r7, lr}
 8003346:	b082      	sub	sp, #8
 8003348:	af00      	add	r7, sp, #0
	CS_HIGH();
 800334a:	2380      	movs	r3, #128	@ 0x80
 800334c:	015b      	lsls	r3, r3, #5
 800334e:	486d      	ldr	r0, [pc, #436]	@ (8003504 <SI4432_Init+0x1c0>)
 8003350:	2201      	movs	r2, #1
 8003352:	0019      	movs	r1, r3
 8003354:	f001 f927 	bl	80045a6 <HAL_GPIO_WritePin>

	// SDN pin ile hardware reset
	HAL_GPIO_WritePin(SI4432_SDN_GPIO_Port, SI4432_SDN_Pin, GPIO_PIN_SET);
 8003358:	2380      	movs	r3, #128	@ 0x80
 800335a:	0119      	lsls	r1, r3, #4
 800335c:	2390      	movs	r3, #144	@ 0x90
 800335e:	05db      	lsls	r3, r3, #23
 8003360:	2201      	movs	r2, #1
 8003362:	0018      	movs	r0, r3
 8003364:	f001 f91f 	bl	80045a6 <HAL_GPIO_WritePin>
	HAL_Delay(10);
 8003368:	200a      	movs	r0, #10
 800336a:	f000 fc8b 	bl	8003c84 <HAL_Delay>
	HAL_GPIO_WritePin(SI4432_SDN_GPIO_Port, SI4432_SDN_Pin, GPIO_PIN_RESET);
 800336e:	2380      	movs	r3, #128	@ 0x80
 8003370:	0119      	lsls	r1, r3, #4
 8003372:	2390      	movs	r3, #144	@ 0x90
 8003374:	05db      	lsls	r3, r3, #23
 8003376:	2200      	movs	r2, #0
 8003378:	0018      	movs	r0, r3
 800337a:	f001 f914 	bl	80045a6 <HAL_GPIO_WritePin>
	HAL_Delay(30);
 800337e:	201e      	movs	r0, #30
 8003380:	f000 fc80 	bl	8003c84 <HAL_Delay>

	// Interrupt flag'lerini temizle
	SI4432_ClearIRQ();
 8003384:	f7ff ffb8 	bl	80032f8 <SI4432_ClearIRQ>

	// Software Reset (resmi örnekteki gibi)
	SI4432_WriteReg(0x07, 0x80);
 8003388:	2180      	movs	r1, #128	@ 0x80
 800338a:	2007      	movs	r0, #7
 800338c:	f7ff ff4a 	bl	8003224 <SI4432_WriteReg>

	// nIRQ LOW olana kadar bekle — POR interrupt
	uint32_t t = HAL_GetTick();
 8003390:	f000 fc6e 	bl	8003c70 <HAL_GetTick>
 8003394:	0003      	movs	r3, r0
 8003396:	607b      	str	r3, [r7, #4]
	while (!NIRQ_IS_LOW() && (HAL_GetTick() - t) < 500) {
 8003398:	46c0      	nop			@ (mov r8, r8)
 800339a:	2380      	movs	r3, #128	@ 0x80
 800339c:	005a      	lsls	r2, r3, #1
 800339e:	2390      	movs	r3, #144	@ 0x90
 80033a0:	05db      	lsls	r3, r3, #23
 80033a2:	0011      	movs	r1, r2
 80033a4:	0018      	movs	r0, r3
 80033a6:	f001 f8e1 	bl	800456c <HAL_GPIO_ReadPin>
 80033aa:	1e03      	subs	r3, r0, #0
 80033ac:	d008      	beq.n	80033c0 <SI4432_Init+0x7c>
 80033ae:	f000 fc5f 	bl	8003c70 <HAL_GetTick>
 80033b2:	0002      	movs	r2, r0
 80033b4:	687b      	ldr	r3, [r7, #4]
 80033b6:	1ad2      	subs	r2, r2, r3
 80033b8:	23fa      	movs	r3, #250	@ 0xfa
 80033ba:	005b      	lsls	r3, r3, #1
 80033bc:	429a      	cmp	r2, r3
 80033be:	d3ec      	bcc.n	800339a <SI4432_Init+0x56>
	}
	SI4432_ClearIRQ();
 80033c0:	f7ff ff9a 	bl	80032f8 <SI4432_ClearIRQ>

	// Chip ready interrupt bekle
	t = HAL_GetTick();
 80033c4:	f000 fc54 	bl	8003c70 <HAL_GetTick>
 80033c8:	0003      	movs	r3, r0
 80033ca:	607b      	str	r3, [r7, #4]
	while (!NIRQ_IS_LOW() && (HAL_GetTick() - t) < 500) {
 80033cc:	46c0      	nop			@ (mov r8, r8)
 80033ce:	2380      	movs	r3, #128	@ 0x80
 80033d0:	005a      	lsls	r2, r3, #1
 80033d2:	2390      	movs	r3, #144	@ 0x90
 80033d4:	05db      	lsls	r3, r3, #23
 80033d6:	0011      	movs	r1, r2
 80033d8:	0018      	movs	r0, r3
 80033da:	f001 f8c7 	bl	800456c <HAL_GPIO_ReadPin>
 80033de:	1e03      	subs	r3, r0, #0
 80033e0:	d008      	beq.n	80033f4 <SI4432_Init+0xb0>
 80033e2:	f000 fc45 	bl	8003c70 <HAL_GetTick>
 80033e6:	0002      	movs	r2, r0
 80033e8:	687b      	ldr	r3, [r7, #4]
 80033ea:	1ad2      	subs	r2, r2, r3
 80033ec:	23fa      	movs	r3, #250	@ 0xfa
 80033ee:	005b      	lsls	r3, r3, #1
 80033f0:	429a      	cmp	r2, r3
 80033f2:	d3ec      	bcc.n	80033ce <SI4432_Init+0x8a>
	}
	SI4432_ClearIRQ();
 80033f4:	f7ff ff80 	bl	80032f8 <SI4432_ClearIRQ>

	// ==========================================
	// FREKANS: 433.0 MHz
	// ==========================================
	// Hesaplama: fb=0x53 (band 19 + sbsel=1), fc_high=0x64, fc_low=0x00
	SI4432_WriteReg(0x75, 0x53); // Frequency Band Select
 80033f8:	2153      	movs	r1, #83	@ 0x53
 80033fa:	2075      	movs	r0, #117	@ 0x75
 80033fc:	f7ff ff12 	bl	8003224 <SI4432_WriteReg>
	SI4432_WriteReg(0x76, 0x64); // Nominal Carrier Frequency 1
 8003400:	2164      	movs	r1, #100	@ 0x64
 8003402:	2076      	movs	r0, #118	@ 0x76
 8003404:	f7ff ff0e 	bl	8003224 <SI4432_WriteReg>
	SI4432_WriteReg(0x77, 0x00); // Nominal Carrier Frequency 0
 8003408:	2100      	movs	r1, #0
 800340a:	2077      	movs	r0, #119	@ 0x77
 800340c:	f7ff ff0a 	bl	8003224 <SI4432_WriteReg>

	// ==========================================
	// TX DATA RATE: 9.6 kbps (resmi örnekten)
	// ==========================================
	SI4432_WriteReg(0x6E, 0x4E); // TX Data Rate 1
 8003410:	214e      	movs	r1, #78	@ 0x4e
 8003412:	206e      	movs	r0, #110	@ 0x6e
 8003414:	f7ff ff06 	bl	8003224 <SI4432_WriteReg>
	SI4432_WriteReg(0x6F, 0xA5); // TX Data Rate 0
 8003418:	21a5      	movs	r1, #165	@ 0xa5
 800341a:	206f      	movs	r0, #111	@ 0x6f
 800341c:	f7ff ff02 	bl	8003224 <SI4432_WriteReg>
	SI4432_WriteReg(0x70, 0x2C); // Modulation Mode Control 1
 8003420:	212c      	movs	r1, #44	@ 0x2c
 8003422:	2070      	movs	r0, #112	@ 0x70
 8003424:	f7ff fefe 	bl	8003224 <SI4432_WriteReg>

	// ==========================================
	// TX DEVIATION: ±45 kHz (resmi örnekten)
	// ==========================================
	SI4432_WriteReg(0x72, 0x48); // Frequency Deviation (TX'de 0x48)
 8003428:	2148      	movs	r1, #72	@ 0x48
 800342a:	2072      	movs	r0, #114	@ 0x72
 800342c:	f7ff fefa 	bl	8003224 <SI4432_WriteReg>

	// ==========================================
	// PAKET YAPILANDIRMASI (resmi örnekten)
	// ==========================================
	SI4432_WriteReg(0x34, 0x0A); // Preamble Length = 5 bytes (10 nibble)
 8003430:	210a      	movs	r1, #10
 8003432:	2034      	movs	r0, #52	@ 0x34
 8003434:	f7ff fef6 	bl	8003224 <SI4432_WriteReg>
	SI4432_WriteReg(0x33, 0x02); // Header Control 2: no headers, variable len, sync word 3&2
 8003438:	2102      	movs	r1, #2
 800343a:	2033      	movs	r0, #51	@ 0x33
 800343c:	f7ff fef2 	bl	8003224 <SI4432_WriteReg>
	SI4432_WriteReg(0x36, 0x2D); // Sync Word 3
 8003440:	212d      	movs	r1, #45	@ 0x2d
 8003442:	2036      	movs	r0, #54	@ 0x36
 8003444:	f7ff feee 	bl	8003224 <SI4432_WriteReg>
	SI4432_WriteReg(0x37, 0xD4); // Sync Word 2
 8003448:	21d4      	movs	r1, #212	@ 0xd4
 800344a:	2037      	movs	r0, #55	@ 0x37
 800344c:	f7ff feea 	bl	8003224 <SI4432_WriteReg>
	SI4432_WriteReg(0x32, 0x00); // Header Control 1: disable header filters
 8003450:	2100      	movs	r1, #0
 8003452:	2032      	movs	r0, #50	@ 0x32
 8003454:	f7ff fee6 	bl	8003224 <SI4432_WriteReg>
	SI4432_WriteReg(0x35, 0x28); // Preamble Detection: 20 bits threshold
 8003458:	2128      	movs	r1, #40	@ 0x28
 800345a:	2035      	movs	r0, #53	@ 0x35
 800345c:	f7ff fee2 	bl	8003224 <SI4432_WriteReg>

	// TX: packet handler + CRC-IBM
	SI4432_WriteReg(0x30, 0x0D); // Data Access Control (TX)
 8003460:	210d      	movs	r1, #13
 8003462:	2030      	movs	r0, #48	@ 0x30
 8003464:	f7ff fede 	bl	8003224 <SI4432_WriteReg>
	// FIFO mode + GFSK modulation (resmi örnekten — 0x63, 0x23 DEĞİL!)
	SI4432_WriteReg(0x71, 0x63); // Modulation Mode Control 2
 8003468:	2163      	movs	r1, #99	@ 0x63
 800346a:	2071      	movs	r0, #113	@ 0x71
 800346c:	f7ff feda 	bl	8003224 <SI4432_WriteReg>

	// ==========================================
	// RX MODEM AYARLARI (resmi RX örneğinden)
	// 9.6 kbps, 45 kHz deviation, 112.1 kHz kanal filtre BW
	// ==========================================
	SI4432_WriteReg(0x1C, 0x05); // IF Filter Bandwidth
 8003470:	2105      	movs	r1, #5
 8003472:	201c      	movs	r0, #28
 8003474:	f7ff fed6 	bl	8003224 <SI4432_WriteReg>
	SI4432_WriteReg(0x20, 0xA1); // Clock Recovery Oversampling Ratio
 8003478:	21a1      	movs	r1, #161	@ 0xa1
 800347a:	2020      	movs	r0, #32
 800347c:	f7ff fed2 	bl	8003224 <SI4432_WriteReg>
	SI4432_WriteReg(0x21, 0x20); // Clock Recovery Offset 2
 8003480:	2120      	movs	r1, #32
 8003482:	2021      	movs	r0, #33	@ 0x21
 8003484:	f7ff fece 	bl	8003224 <SI4432_WriteReg>
	SI4432_WriteReg(0x22, 0x4E); // Clock Recovery Offset 1
 8003488:	214e      	movs	r1, #78	@ 0x4e
 800348a:	2022      	movs	r0, #34	@ 0x22
 800348c:	f7ff feca 	bl	8003224 <SI4432_WriteReg>
	SI4432_WriteReg(0x23, 0xA5); // Clock Recovery Offset 0
 8003490:	21a5      	movs	r1, #165	@ 0xa5
 8003492:	2023      	movs	r0, #35	@ 0x23
 8003494:	f7ff fec6 	bl	8003224 <SI4432_WriteReg>
	SI4432_WriteReg(0x24, 0x00); // Clock Recovery Timing Loop Gain 1
 8003498:	2100      	movs	r1, #0
 800349a:	2024      	movs	r0, #36	@ 0x24
 800349c:	f7ff fec2 	bl	8003224 <SI4432_WriteReg>
	SI4432_WriteReg(0x25, 0x13); // Clock Recovery Timing Loop Gain 0
 80034a0:	2113      	movs	r1, #19
 80034a2:	2025      	movs	r0, #37	@ 0x25
 80034a4:	f7ff febe 	bl	8003224 <SI4432_WriteReg>
	SI4432_WriteReg(0x1D, 0x40); // AFC Loop Gearshift Override
 80034a8:	2140      	movs	r1, #64	@ 0x40
 80034aa:	201d      	movs	r0, #29
 80034ac:	f7ff feba 	bl	8003224 <SI4432_WriteReg>
	SI4432_WriteReg(0x1F, 0x03); // Clock Recovery Gearshift Override
 80034b0:	2103      	movs	r1, #3
 80034b2:	201f      	movs	r0, #31
 80034b4:	f7ff feb6 	bl	8003224 <SI4432_WriteReg>

	// ==========================================
	// Si4432 NON-DEFAULT REGISTER'LAR (resmi örnekten)
	// ==========================================
	SI4432_WriteReg(0x5A, 0x7F); // VCO Current Trimming
 80034b8:	217f      	movs	r1, #127	@ 0x7f
 80034ba:	205a      	movs	r0, #90	@ 0x5a
 80034bc:	f7ff feb2 	bl	8003224 <SI4432_WriteReg>
	SI4432_WriteReg(0x58, 0x80); // Chargepump Current Trimming Override
 80034c0:	2180      	movs	r1, #128	@ 0x80
 80034c2:	2058      	movs	r0, #88	@ 0x58
 80034c4:	f7ff feae 	bl	8003224 <SI4432_WriteReg>
	SI4432_WriteReg(0x59, 0x40); // Divider Current Trimming
 80034c8:	2140      	movs	r1, #64	@ 0x40
 80034ca:	2059      	movs	r0, #89	@ 0x59
 80034cc:	f7ff feaa 	bl	8003224 <SI4432_WriteReg>
	SI4432_WriteReg(0x6A, 0x0B); // AGC Override 2
 80034d0:	210b      	movs	r1, #11
 80034d2:	206a      	movs	r0, #106	@ 0x6a
 80034d4:	f7ff fea6 	bl	8003224 <SI4432_WriteReg>
	SI4432_WriteReg(0x68, 0x04); // Deltasigma ADC Tuning 2
 80034d8:	2104      	movs	r1, #4
 80034da:	2068      	movs	r0, #104	@ 0x68
 80034dc:	f7ff fea2 	bl	8003224 <SI4432_WriteReg>
	SI4432_WriteReg(0x09, 0xD7); // Crystal Oscillator Load Capacitance
 80034e0:	21d7      	movs	r1, #215	@ 0xd7
 80034e2:	2009      	movs	r0, #9
 80034e4:	f7ff fe9e 	bl	8003224 <SI4432_WriteReg>

	// ==========================================
	// TX GÜCÜ: maksimum (+20 dBm)
	// ==========================================
	SI4432_WriteReg(0x6D, 0x07); // TX Power
 80034e8:	2107      	movs	r1, #7
 80034ea:	206d      	movs	r0, #109	@ 0x6d
 80034ec:	f7ff fe9a 	bl	8003224 <SI4432_WriteReg>

	// FIFO temizle
	SI4432_ResetTxFIFO();
 80034f0:	f7ff ff1a 	bl	8003328 <SI4432_ResetTxFIFO>
	SI4432_ResetRxFIFO();
 80034f4:	f7ff ff0b 	bl	800330e <SI4432_ResetRxFIFO>
	SI4432_ClearIRQ();
 80034f8:	f7ff fefe 	bl	80032f8 <SI4432_ClearIRQ>
}
 80034fc:	46c0      	nop			@ (mov r8, r8)
 80034fe:	46bd      	mov	sp, r7
 8003500:	b002      	add	sp, #8
 8003502:	bd80      	pop	{r7, pc}
 8003504:	48000400 	.word	0x48000400

08003508 <SI4432_SendPacket>:

// =========================================================================
// Paket Gönder — Resmi TX örneğinden birebir
// =========================================================================
void SI4432_SendPacket(const uint8_t *data, uint8_t len) {
 8003508:	b590      	push	{r4, r7, lr}
 800350a:	b085      	sub	sp, #20
 800350c:	af00      	add	r7, sp, #0
 800350e:	6078      	str	r0, [r7, #4]
 8003510:	000a      	movs	r2, r1
 8003512:	1cfb      	adds	r3, r7, #3
 8003514:	701a      	strb	r2, [r3, #0]
	if (len == 0 || len > 64)
 8003516:	1cfb      	adds	r3, r7, #3
 8003518:	781b      	ldrb	r3, [r3, #0]
 800351a:	2b00      	cmp	r3, #0
 800351c:	d05b      	beq.n	80035d6 <SI4432_SendPacket+0xce>
 800351e:	1cfb      	adds	r3, r7, #3
 8003520:	781b      	ldrb	r3, [r3, #0]
 8003522:	2b40      	cmp	r3, #64	@ 0x40
 8003524:	d857      	bhi.n	80035d6 <SI4432_SendPacket+0xce>
		return;

	// Idle moduna geç
	SI4432_WriteReg(0x07, 0x01);
 8003526:	2101      	movs	r1, #1
 8003528:	2007      	movs	r0, #7
 800352a:	f7ff fe7b 	bl	8003224 <SI4432_WriteReg>

	// TX packet handler + CRC-IBM etkinleştir
	SI4432_WriteReg(0x30, 0x0D);
 800352e:	210d      	movs	r1, #13
 8003530:	2030      	movs	r0, #48	@ 0x30
 8003532:	f7ff fe77 	bl	8003224 <SI4432_WriteReg>

	// TX FIFO temizle
	SI4432_ResetTxFIFO();
 8003536:	f7ff fef7 	bl	8003328 <SI4432_ResetTxFIFO>

	// Paket uzunluğunu yaz
	SI4432_WriteReg(0x3E, len);
 800353a:	1cfb      	adds	r3, r7, #3
 800353c:	781b      	ldrb	r3, [r3, #0]
 800353e:	0019      	movs	r1, r3
 8003540:	203e      	movs	r0, #62	@ 0x3e
 8003542:	f7ff fe6f 	bl	8003224 <SI4432_WriteReg>

	// Veriyi FIFO'ya yaz (tek tek — resmi örnekteki gibi)
	for (uint8_t i = 0; i < len; i++) {
 8003546:	230f      	movs	r3, #15
 8003548:	18fb      	adds	r3, r7, r3
 800354a:	2200      	movs	r2, #0
 800354c:	701a      	strb	r2, [r3, #0]
 800354e:	e00e      	b.n	800356e <SI4432_SendPacket+0x66>
		SI4432_WriteReg(0x7F, data[i]);
 8003550:	240f      	movs	r4, #15
 8003552:	193b      	adds	r3, r7, r4
 8003554:	781b      	ldrb	r3, [r3, #0]
 8003556:	687a      	ldr	r2, [r7, #4]
 8003558:	18d3      	adds	r3, r2, r3
 800355a:	781b      	ldrb	r3, [r3, #0]
 800355c:	0019      	movs	r1, r3
 800355e:	207f      	movs	r0, #127	@ 0x7f
 8003560:	f7ff fe60 	bl	8003224 <SI4432_WriteReg>
	for (uint8_t i = 0; i < len; i++) {
 8003564:	193b      	adds	r3, r7, r4
 8003566:	781a      	ldrb	r2, [r3, #0]
 8003568:	193b      	adds	r3, r7, r4
 800356a:	3201      	adds	r2, #1
 800356c:	701a      	strb	r2, [r3, #0]
 800356e:	230f      	movs	r3, #15
 8003570:	18fa      	adds	r2, r7, r3
 8003572:	1cfb      	adds	r3, r7, #3
 8003574:	7812      	ldrb	r2, [r2, #0]
 8003576:	781b      	ldrb	r3, [r3, #0]
 8003578:	429a      	cmp	r2, r3
 800357a:	d3e9      	bcc.n	8003550 <SI4432_SendPacket+0x48>
	}

	// Sadece "packet sent" interrupt'ını etkinleştir
	SI4432_WriteReg(0x05, 0x04); // ipksent etkin
 800357c:	2104      	movs	r1, #4
 800357e:	2005      	movs	r0, #5
 8003580:	f7ff fe50 	bl	8003224 <SI4432_WriteReg>
	SI4432_WriteReg(0x06, 0x00); // diğerleri kapalı
 8003584:	2100      	movs	r1, #0
 8003586:	2006      	movs	r0, #6
 8003588:	f7ff fe4c 	bl	8003224 <SI4432_WriteReg>

	// Interrupt flag'lerini temizle
	SI4432_ClearIRQ();
 800358c:	f7ff feb4 	bl	80032f8 <SI4432_ClearIRQ>

	// TX moduna geç: 0x09 = TX + Ready (resmi örnekteki gibi)
	SI4432_WriteReg(0x07, 0x09);
 8003590:	2109      	movs	r1, #9
 8003592:	2007      	movs	r0, #7
 8003594:	f7ff fe46 	bl	8003224 <SI4432_WriteReg>

	// nIRQ LOW olana kadar bekle — paket gönderildi
	uint32_t start = HAL_GetTick();
 8003598:	f000 fb6a 	bl	8003c70 <HAL_GetTick>
 800359c:	0003      	movs	r3, r0
 800359e:	60bb      	str	r3, [r7, #8]
	while (!NIRQ_IS_LOW() && (HAL_GetTick() - start) < 1000) {
 80035a0:	46c0      	nop			@ (mov r8, r8)
 80035a2:	2380      	movs	r3, #128	@ 0x80
 80035a4:	005a      	lsls	r2, r3, #1
 80035a6:	2390      	movs	r3, #144	@ 0x90
 80035a8:	05db      	lsls	r3, r3, #23
 80035aa:	0011      	movs	r1, r2
 80035ac:	0018      	movs	r0, r3
 80035ae:	f000 ffdd 	bl	800456c <HAL_GPIO_ReadPin>
 80035b2:	1e03      	subs	r3, r0, #0
 80035b4:	d008      	beq.n	80035c8 <SI4432_SendPacket+0xc0>
 80035b6:	f000 fb5b 	bl	8003c70 <HAL_GetTick>
 80035ba:	0002      	movs	r2, r0
 80035bc:	68bb      	ldr	r3, [r7, #8]
 80035be:	1ad2      	subs	r2, r2, r3
 80035c0:	23fa      	movs	r3, #250	@ 0xfa
 80035c2:	009b      	lsls	r3, r3, #2
 80035c4:	429a      	cmp	r2, r3
 80035c6:	d3ec      	bcc.n	80035a2 <SI4432_SendPacket+0x9a>
		// nIRQ hala HIGH → paket henüz gönderilmedi
	}

	// Interrupt flag'lerini oku ve temizle
	SI4432_ClearIRQ();
 80035c8:	f7ff fe96 	bl	80032f8 <SI4432_ClearIRQ>

	// Idle'a dön
	SI4432_WriteReg(0x07, 0x01);
 80035cc:	2101      	movs	r1, #1
 80035ce:	2007      	movs	r0, #7
 80035d0:	f7ff fe28 	bl	8003224 <SI4432_WriteReg>
 80035d4:	e000      	b.n	80035d8 <SI4432_SendPacket+0xd0>
		return;
 80035d6:	46c0      	nop			@ (mov r8, r8)
}
 80035d8:	46bd      	mov	sp, r7
 80035da:	b005      	add	sp, #20
 80035dc:	bd90      	pop	{r4, r7, pc}

080035de <SI4432_StartRx>:

// =========================================================================
// RX Moduna Geç — Resmi RX örneğinden birebir
// =========================================================================
void SI4432_StartRx(void) {
 80035de:	b580      	push	{r7, lr}
 80035e0:	af00      	add	r7, sp, #0
	// Idle moduna geç
	SI4432_WriteReg(0x07, 0x01);
 80035e2:	2101      	movs	r1, #1
 80035e4:	2007      	movs	r0, #7
 80035e6:	f7ff fe1d 	bl	8003224 <SI4432_WriteReg>

	// RX packet handler + CRC-IBM etkinleştir
	SI4432_WriteReg(0x30, 0x85);
 80035ea:	2185      	movs	r1, #133	@ 0x85
 80035ec:	2030      	movs	r0, #48	@ 0x30
 80035ee:	f7ff fe19 	bl	8003224 <SI4432_WriteReg>

	// RX FIFO temizle
	SI4432_ResetRxFIFO();
 80035f2:	f7ff fe8c 	bl	800330e <SI4432_ResetRxFIFO>

	// RX interrupt'ları etkinleştir: ipkvalid + icrcerror
	SI4432_WriteReg(0x05, 0x03);
 80035f6:	2103      	movs	r1, #3
 80035f8:	2005      	movs	r0, #5
 80035fa:	f7ff fe13 	bl	8003224 <SI4432_WriteReg>
	SI4432_WriteReg(0x06, 0x00);
 80035fe:	2100      	movs	r1, #0
 8003600:	2006      	movs	r0, #6
 8003602:	f7ff fe0f 	bl	8003224 <SI4432_WriteReg>

	// Interrupt flag'lerini temizle
	SI4432_ClearIRQ();
 8003606:	f7ff fe77 	bl	80032f8 <SI4432_ClearIRQ>

	// RX moduna geç: 0x05 = RX + Ready (resmi örnekteki gibi)
	SI4432_WriteReg(0x07, 0x05);
 800360a:	2105      	movs	r1, #5
 800360c:	2007      	movs	r0, #7
 800360e:	f7ff fe09 	bl	8003224 <SI4432_WriteReg>
}
 8003612:	46c0      	nop			@ (mov r8, r8)
 8003614:	46bd      	mov	sp, r7
 8003616:	bd80      	pop	{r7, pc}

08003618 <SI4432_CheckRx>:

// =========================================================================
// RX Kontrol — nIRQ pinini kontrol et, paket varsa oku
// Dönüş: 0 = paket yok, >0 = alınan paket uzunluğu
// =========================================================================
uint8_t SI4432_CheckRx(uint8_t *data) {
 8003618:	b5b0      	push	{r4, r5, r7, lr}
 800361a:	b084      	sub	sp, #16
 800361c:	af00      	add	r7, sp, #0
 800361e:	6078      	str	r0, [r7, #4]
	// nIRQ HIGH ise → interrupt yok, paket yok
	if (!NIRQ_IS_LOW())
 8003620:	2380      	movs	r3, #128	@ 0x80
 8003622:	005a      	lsls	r2, r3, #1
 8003624:	2390      	movs	r3, #144	@ 0x90
 8003626:	05db      	lsls	r3, r3, #23
 8003628:	0011      	movs	r1, r2
 800362a:	0018      	movs	r0, r3
 800362c:	f000 ff9e 	bl	800456c <HAL_GPIO_ReadPin>
 8003630:	1e03      	subs	r3, r0, #0
 8003632:	d001      	beq.n	8003638 <SI4432_CheckRx+0x20>
		return 0;
 8003634:	2300      	movs	r3, #0
 8003636:	e05b      	b.n	80036f0 <SI4432_CheckRx+0xd8>

	// Alıcıyı kapat (resmi örnekteki gibi)
	SI4432_WriteReg(0x07, 0x01);
 8003638:	2101      	movs	r1, #1
 800363a:	2007      	movs	r0, #7
 800363c:	f7ff fdf2 	bl	8003224 <SI4432_WriteReg>

	// Interrupt durumunu oku
	uint8_t st1 = SI4432_ReadReg(0x03);
 8003640:	250d      	movs	r5, #13
 8003642:	197c      	adds	r4, r7, r5
 8003644:	2003      	movs	r0, #3
 8003646:	f7ff fe21 	bl	800328c <SI4432_ReadReg>
 800364a:	0003      	movs	r3, r0
 800364c:	7023      	strb	r3, [r4, #0]
	(void) SI4432_ReadReg(0x04);
 800364e:	2004      	movs	r0, #4
 8003650:	f7ff fe1c 	bl	800328c <SI4432_ReadReg>

	// CRC hatası?
	if (st1 & 0x01) {
 8003654:	197b      	adds	r3, r7, r5
 8003656:	781b      	ldrb	r3, [r3, #0]
 8003658:	2201      	movs	r2, #1
 800365a:	4013      	ands	r3, r2
 800365c:	d005      	beq.n	800366a <SI4432_CheckRx+0x52>
		SI4432_ResetRxFIFO();
 800365e:	f7ff fe56 	bl	800330e <SI4432_ResetRxFIFO>
		// RX'i tekrar başlat
		SI4432_StartRx();
 8003662:	f7ff ffbc 	bl	80035de <SI4432_StartRx>
		return 0;
 8003666:	2300      	movs	r3, #0
 8003668:	e042      	b.n	80036f0 <SI4432_CheckRx+0xd8>
	}

	// Geçerli paket alındı?
	if (st1 & 0x02) {
 800366a:	230d      	movs	r3, #13
 800366c:	18fb      	adds	r3, r7, r3
 800366e:	781b      	ldrb	r3, [r3, #0]
 8003670:	2202      	movs	r2, #2
 8003672:	4013      	ands	r3, r2
 8003674:	d037      	beq.n	80036e6 <SI4432_CheckRx+0xce>
		uint8_t len = SI4432_ReadReg(0x4B); // Received Packet Length
 8003676:	250f      	movs	r5, #15
 8003678:	197c      	adds	r4, r7, r5
 800367a:	204b      	movs	r0, #75	@ 0x4b
 800367c:	f7ff fe06 	bl	800328c <SI4432_ReadReg>
 8003680:	0003      	movs	r3, r0
 8003682:	7023      	strb	r3, [r4, #0]

		if (len > 0 && len <= 64) {
 8003684:	197b      	adds	r3, r7, r5
 8003686:	781b      	ldrb	r3, [r3, #0]
 8003688:	2b00      	cmp	r3, #0
 800368a:	d020      	beq.n	80036ce <SI4432_CheckRx+0xb6>
 800368c:	197b      	adds	r3, r7, r5
 800368e:	781b      	ldrb	r3, [r3, #0]
 8003690:	2b40      	cmp	r3, #64	@ 0x40
 8003692:	d81c      	bhi.n	80036ce <SI4432_CheckRx+0xb6>
			// FIFO'dan oku (tek tek — resmi örnekteki gibi)
			for (uint8_t i = 0; i < len; i++) {
 8003694:	230e      	movs	r3, #14
 8003696:	18fb      	adds	r3, r7, r3
 8003698:	2200      	movs	r2, #0
 800369a:	701a      	strb	r2, [r3, #0]
 800369c:	e00e      	b.n	80036bc <SI4432_CheckRx+0xa4>
				data[i] = SI4432_ReadReg(0x7F);
 800369e:	250e      	movs	r5, #14
 80036a0:	197b      	adds	r3, r7, r5
 80036a2:	781b      	ldrb	r3, [r3, #0]
 80036a4:	687a      	ldr	r2, [r7, #4]
 80036a6:	18d4      	adds	r4, r2, r3
 80036a8:	207f      	movs	r0, #127	@ 0x7f
 80036aa:	f7ff fdef 	bl	800328c <SI4432_ReadReg>
 80036ae:	0003      	movs	r3, r0
 80036b0:	7023      	strb	r3, [r4, #0]
			for (uint8_t i = 0; i < len; i++) {
 80036b2:	197b      	adds	r3, r7, r5
 80036b4:	781a      	ldrb	r2, [r3, #0]
 80036b6:	197b      	adds	r3, r7, r5
 80036b8:	3201      	adds	r2, #1
 80036ba:	701a      	strb	r2, [r3, #0]
 80036bc:	230e      	movs	r3, #14
 80036be:	18fa      	adds	r2, r7, r3
 80036c0:	230f      	movs	r3, #15
 80036c2:	18fb      	adds	r3, r7, r3
 80036c4:	7812      	ldrb	r2, [r2, #0]
 80036c6:	781b      	ldrb	r3, [r3, #0]
 80036c8:	429a      	cmp	r2, r3
 80036ca:	d3e8      	bcc.n	800369e <SI4432_CheckRx+0x86>
 80036cc:	e003      	b.n	80036d6 <SI4432_CheckRx+0xbe>
			}
		} else {
			len = 0;
 80036ce:	230f      	movs	r3, #15
 80036d0:	18fb      	adds	r3, r7, r3
 80036d2:	2200      	movs	r2, #0
 80036d4:	701a      	strb	r2, [r3, #0]
		}

		// RX FIFO temizle
		SI4432_ResetRxFIFO();
 80036d6:	f7ff fe1a 	bl	800330e <SI4432_ResetRxFIFO>
		// RX'i tekrar başlat
		SI4432_StartRx();
 80036da:	f7ff ff80 	bl	80035de <SI4432_StartRx>
		return len;
 80036de:	230f      	movs	r3, #15
 80036e0:	18fb      	adds	r3, r7, r3
 80036e2:	781b      	ldrb	r3, [r3, #0]
 80036e4:	e004      	b.n	80036f0 <SI4432_CheckRx+0xd8>
	}

	// Bilinmeyen interrupt — temizle ve devam et
	SI4432_ResetRxFIFO();
 80036e6:	f7ff fe12 	bl	800330e <SI4432_ResetRxFIFO>
	SI4432_StartRx();
 80036ea:	f7ff ff78 	bl	80035de <SI4432_StartRx>
	return 0;
 80036ee:	2300      	movs	r3, #0
}
 80036f0:	0018      	movs	r0, r3
 80036f2:	46bd      	mov	sp, r7
 80036f4:	b004      	add	sp, #16
 80036f6:	bdb0      	pop	{r4, r5, r7, pc}

080036f8 <MX_SPI2_Init>:
/* USER CODE END 0 */

SPI_HandleTypeDef hspi2;

/* SPI2 init function */
void MX_SPI2_Init(void) {
 80036f8:	b580      	push	{r7, lr}
 80036fa:	af00      	add	r7, sp, #0
	/* USER CODE END SPI2_Init 0 */

	/* USER CODE BEGIN SPI2_Init 1 */

	/* USER CODE END SPI2_Init 1 */
	hspi2.Instance = SPI2;
 80036fc:	4b1b      	ldr	r3, [pc, #108]	@ (800376c <MX_SPI2_Init+0x74>)
 80036fe:	4a1c      	ldr	r2, [pc, #112]	@ (8003770 <MX_SPI2_Init+0x78>)
 8003700:	601a      	str	r2, [r3, #0]
	hspi2.Init.Mode = SPI_MODE_MASTER;
 8003702:	4b1a      	ldr	r3, [pc, #104]	@ (800376c <MX_SPI2_Init+0x74>)
 8003704:	2282      	movs	r2, #130	@ 0x82
 8003706:	0052      	lsls	r2, r2, #1
 8003708:	605a      	str	r2, [r3, #4]
	hspi2.Init.Direction = SPI_DIRECTION_2LINES;
 800370a:	4b18      	ldr	r3, [pc, #96]	@ (800376c <MX_SPI2_Init+0x74>)
 800370c:	2200      	movs	r2, #0
 800370e:	609a      	str	r2, [r3, #8]
	hspi2.Init.DataSize = SPI_DATASIZE_8BIT;
 8003710:	4b16      	ldr	r3, [pc, #88]	@ (800376c <MX_SPI2_Init+0x74>)
 8003712:	22e0      	movs	r2, #224	@ 0xe0
 8003714:	00d2      	lsls	r2, r2, #3
 8003716:	60da      	str	r2, [r3, #12]
	hspi2.Init.CLKPolarity = SPI_POLARITY_LOW;
 8003718:	4b14      	ldr	r3, [pc, #80]	@ (800376c <MX_SPI2_Init+0x74>)
 800371a:	2200      	movs	r2, #0
 800371c:	611a      	str	r2, [r3, #16]
	hspi2.Init.CLKPhase = SPI_PHASE_1EDGE;
 800371e:	4b13      	ldr	r3, [pc, #76]	@ (800376c <MX_SPI2_Init+0x74>)
 8003720:	2200      	movs	r2, #0
 8003722:	615a      	str	r2, [r3, #20]
	hspi2.Init.NSS = SPI_NSS_SOFT;
 8003724:	4b11      	ldr	r3, [pc, #68]	@ (800376c <MX_SPI2_Init+0x74>)
 8003726:	2280      	movs	r2, #128	@ 0x80
 8003728:	0092      	lsls	r2, r2, #2
 800372a:	619a      	str	r2, [r3, #24]
	hspi2.Init.BaudRatePrescaler = SPI_BAUDRATEPRESCALER_8;
 800372c:	4b0f      	ldr	r3, [pc, #60]	@ (800376c <MX_SPI2_Init+0x74>)
 800372e:	2210      	movs	r2, #16
 8003730:	61da      	str	r2, [r3, #28]
	hspi2.Init.FirstBit = SPI_FIRSTBIT_MSB;
 8003732:	4b0e      	ldr	r3, [pc, #56]	@ (800376c <MX_SPI2_Init+0x74>)
 8003734:	2200      	movs	r2, #0
 8003736:	621a      	str	r2, [r3, #32]
	hspi2.Init.TIMode = SPI_TIMODE_DISABLE;
 8003738:	4b0c      	ldr	r3, [pc, #48]	@ (800376c <MX_SPI2_Init+0x74>)
 800373a:	2200      	movs	r2, #0
 800373c:	625a      	str	r2, [r3, #36]	@ 0x24
	hspi2.Init.CRCCalculation = SPI_CRCCALCULATION_DISABLE;
 800373e:	4b0b      	ldr	r3, [pc, #44]	@ (800376c <MX_SPI2_Init+0x74>)
 8003740:	2200      	movs	r2, #0
 8003742:	629a      	str	r2, [r3, #40]	@ 0x28
	hspi2.Init.CRCPolynomial = 7;
 8003744:	4b09      	ldr	r3, [pc, #36]	@ (800376c <MX_SPI2_Init+0x74>)
 8003746:	2207      	movs	r2, #7
 8003748:	62da      	str	r2, [r3, #44]	@ 0x2c
	hspi2.Init.CRCLength = SPI_CRC_LENGTH_DATASIZE;
 800374a:	4b08      	ldr	r3, [pc, #32]	@ (800376c <MX_SPI2_Init+0x74>)
 800374c:	2200      	movs	r2, #0
 800374e:	631a      	str	r2, [r3, #48]	@ 0x30
	hspi2.Init.NSSPMode = SPI_NSS_PULSE_DISABLE;
 8003750:	4b06      	ldr	r3, [pc, #24]	@ (800376c <MX_SPI2_Init+0x74>)
 8003752:	2200      	movs	r2, #0
 8003754:	635a      	str	r2, [r3, #52]	@ 0x34
	if (HAL_SPI_Init(&hspi2) != HAL_OK) {
 8003756:	4b05      	ldr	r3, [pc, #20]	@ (800376c <MX_SPI2_Init+0x74>)
 8003758:	0018      	movs	r0, r3
 800375a:	f001 ffe5 	bl	8005728 <HAL_SPI_Init>
 800375e:	1e03      	subs	r3, r0, #0
 8003760:	d001      	beq.n	8003766 <MX_SPI2_Init+0x6e>
		Error_Handler();
 8003762:	f7ff fc1a 	bl	8002f9a <Error_Handler>
	}
	/* USER CODE BEGIN SPI2_Init 2 */

	/* USER CODE END SPI2_Init 2 */

}
 8003766:	46c0      	nop			@ (mov r8, r8)
 8003768:	46bd      	mov	sp, r7
 800376a:	bd80      	pop	{r7, pc}
 800376c:	20000194 	.word	0x20000194
 8003770:	40003800 	.word	0x40003800

08003774 <HAL_SPI_MspInit>:

void HAL_SPI_MspInit(SPI_HandleTypeDef *spiHandle) {
 8003774:	b590      	push	{r4, r7, lr}
 8003776:	b08b      	sub	sp, #44	@ 0x2c
 8003778:	af00      	add	r7, sp, #0
 800377a:	6078      	str	r0, [r7, #4]

	GPIO_InitTypeDef GPIO_InitStruct = { 0 };
 800377c:	2414      	movs	r4, #20
 800377e:	193b      	adds	r3, r7, r4
 8003780:	0018      	movs	r0, r3
 8003782:	2314      	movs	r3, #20
 8003784:	001a      	movs	r2, r3
 8003786:	2100      	movs	r1, #0
 8003788:	f003 faae 	bl	8006ce8 <memset>
	if (spiHandle->Instance == SPI2) {
 800378c:	687b      	ldr	r3, [r7, #4]
 800378e:	681b      	ldr	r3, [r3, #0]
 8003790:	4a1c      	ldr	r2, [pc, #112]	@ (8003804 <HAL_SPI_MspInit+0x90>)
 8003792:	4293      	cmp	r3, r2
 8003794:	d132      	bne.n	80037fc <HAL_SPI_MspInit+0x88>
		/* USER CODE BEGIN SPI2_MspInit 0 */

		/* USER CODE END SPI2_MspInit 0 */
		/* SPI2 clock enable */
		__HAL_RCC_SPI2_CLK_ENABLE();
 8003796:	4b1c      	ldr	r3, [pc, #112]	@ (8003808 <HAL_SPI_MspInit+0x94>)
 8003798:	69da      	ldr	r2, [r3, #28]
 800379a:	4b1b      	ldr	r3, [pc, #108]	@ (8003808 <HAL_SPI_MspInit+0x94>)
 800379c:	2180      	movs	r1, #128	@ 0x80
 800379e:	01c9      	lsls	r1, r1, #7
 80037a0:	430a      	orrs	r2, r1
 80037a2:	61da      	str	r2, [r3, #28]
 80037a4:	4b18      	ldr	r3, [pc, #96]	@ (8003808 <HAL_SPI_MspInit+0x94>)
 80037a6:	69da      	ldr	r2, [r3, #28]
 80037a8:	2380      	movs	r3, #128	@ 0x80
 80037aa:	01db      	lsls	r3, r3, #7
 80037ac:	4013      	ands	r3, r2
 80037ae:	613b      	str	r3, [r7, #16]
 80037b0:	693b      	ldr	r3, [r7, #16]

		__HAL_RCC_GPIOB_CLK_ENABLE();
 80037b2:	4b15      	ldr	r3, [pc, #84]	@ (8003808 <HAL_SPI_MspInit+0x94>)
 80037b4:	695a      	ldr	r2, [r3, #20]
 80037b6:	4b14      	ldr	r3, [pc, #80]	@ (8003808 <HAL_SPI_MspInit+0x94>)
 80037b8:	2180      	movs	r1, #128	@ 0x80
 80037ba:	02c9      	lsls	r1, r1, #11
 80037bc:	430a      	orrs	r2, r1
 80037be:	615a      	str	r2, [r3, #20]
 80037c0:	4b11      	ldr	r3, [pc, #68]	@ (8003808 <HAL_SPI_MspInit+0x94>)
 80037c2:	695a      	ldr	r2, [r3, #20]
 80037c4:	2380      	movs	r3, #128	@ 0x80
 80037c6:	02db      	lsls	r3, r3, #11
 80037c8:	4013      	ands	r3, r2
 80037ca:	60fb      	str	r3, [r7, #12]
 80037cc:	68fb      	ldr	r3, [r7, #12]
		/**SPI2 GPIO Configuration
		 PB13     ------> SPI2_SCK
		 PB14     ------> SPI2_MISO
		 PB15     ------> SPI2_MOSI
		 */
		GPIO_InitStruct.Pin =
 80037ce:	193b      	adds	r3, r7, r4
 80037d0:	22e0      	movs	r2, #224	@ 0xe0
 80037d2:	0212      	lsls	r2, r2, #8
 80037d4:	601a      	str	r2, [r3, #0]
				SI4432_CLK_Pin | SI4432_MISO_Pin | SI4432_MOSI_Pin;
		GPIO_InitStruct.Mode = GPIO_MODE_AF_PP;
 80037d6:	0021      	movs	r1, r4
 80037d8:	187b      	adds	r3, r7, r1
 80037da:	2202      	movs	r2, #2
 80037dc:	605a      	str	r2, [r3, #4]
		GPIO_InitStruct.Pull = GPIO_NOPULL;
 80037de:	187b      	adds	r3, r7, r1
 80037e0:	2200      	movs	r2, #0
 80037e2:	609a      	str	r2, [r3, #8]
		GPIO_InitStruct.Speed = GPIO_SPEED_FREQ_HIGH;
 80037e4:	187b      	adds	r3, r7, r1
 80037e6:	2203      	movs	r2, #3
 80037e8:	60da      	str	r2, [r3, #12]
		GPIO_InitStruct.Alternate = GPIO_AF0_SPI2;
 80037ea:	187b      	adds	r3, r7, r1
 80037ec:	2200      	movs	r2, #0
 80037ee:	611a      	str	r2, [r3, #16]
		HAL_GPIO_Init(GPIOB, &GPIO_InitStruct);
 80037f0:	187b      	adds	r3, r7, r1
 80037f2:	4a06      	ldr	r2, [pc, #24]	@ (800380c <HAL_SPI_MspInit+0x98>)
 80037f4:	0019      	movs	r1, r3
 80037f6:	0010      	movs	r0, r2
 80037f8:	f000 fd48 	bl	800428c <HAL_GPIO_Init>

		/* USER CODE BEGIN SPI2_MspInit 1 */

		/* USER CODE END SPI2_MspInit 1 */
	}
}
 80037fc:	46c0      	nop			@ (mov r8, r8)
 80037fe:	46bd      	mov	sp, r7
 8003800:	b00b      	add	sp, #44	@ 0x2c
 8003802:	bd90      	pop	{r4, r7, pc}
 8003804:	40003800 	.word	0x40003800
 8003808:	40021000 	.word	0x40021000
 800380c:	48000400 	.word	0x48000400

08003810 <HAL_MspInit>:

/* USER CODE END 0 */
/**
 * Initializes the Global MSP.
 */
void HAL_MspInit(void) {
 8003810:	b580      	push	{r7, lr}
 8003812:	b082      	sub	sp, #8
 8003814:	af00      	add	r7, sp, #0

	/* USER CODE BEGIN MspInit 0 */

	/* USER CODE END MspInit 0 */

	__HAL_RCC_SYSCFG_CLK_ENABLE();
 8003816:	4b0f      	ldr	r3, [pc, #60]	@ (8003854 <HAL_MspInit+0x44>)
 8003818:	699a      	ldr	r2, [r3, #24]
 800381a:	4b0e      	ldr	r3, [pc, #56]	@ (8003854 <HAL_MspInit+0x44>)
 800381c:	2101      	movs	r1, #1
 800381e:	430a      	orrs	r2, r1
 8003820:	619a      	str	r2, [r3, #24]
 8003822:	4b0c      	ldr	r3, [pc, #48]	@ (8003854 <HAL_MspInit+0x44>)
 8003824:	699b      	ldr	r3, [r3, #24]
 8003826:	2201      	movs	r2, #1
 8003828:	4013      	ands	r3, r2
 800382a:	607b      	str	r3, [r7, #4]
 800382c:	687b      	ldr	r3, [r7, #4]
	__HAL_RCC_PWR_CLK_ENABLE();
 800382e:	4b09      	ldr	r3, [pc, #36]	@ (8003854 <HAL_MspInit+0x44>)
 8003830:	69da      	ldr	r2, [r3, #28]
 8003832:	4b08      	ldr	r3, [pc, #32]	@ (8003854 <HAL_MspInit+0x44>)
 8003834:	2180      	movs	r1, #128	@ 0x80
 8003836:	0549      	lsls	r1, r1, #21
 8003838:	430a      	orrs	r2, r1
 800383a:	61da      	str	r2, [r3, #28]
 800383c:	4b05      	ldr	r3, [pc, #20]	@ (8003854 <HAL_MspInit+0x44>)
 800383e:	69da      	ldr	r2, [r3, #28]
 8003840:	2380      	movs	r3, #128	@ 0x80
 8003842:	055b      	lsls	r3, r3, #21
 8003844:	4013      	ands	r3, r2
 8003846:	603b      	str	r3, [r7, #0]
 8003848:	683b      	ldr	r3, [r7, #0]
	/* System interrupt init*/

	/* USER CODE BEGIN MspInit 1 */

	/* USER CODE END MspInit 1 */
}
 800384a:	46c0      	nop			@ (mov r8, r8)
 800384c:	46bd      	mov	sp, r7
 800384e:	b002      	add	sp, #8
 8003850:	bd80      	pop	{r7, pc}
 8003852:	46c0      	nop			@ (mov r8, r8)
 8003854:	40021000 	.word	0x40021000

08003858 <NMI_Handler>:
/*           Cortex-M0 Processor Interruption and Exception Handlers          */
/******************************************************************************/
/**
 * @brief This function handles Non maskable interrupt.
 */
void NMI_Handler(void) {
 8003858:	b580      	push	{r7, lr}
 800385a:	af00      	add	r7, sp, #0
	/* USER CODE BEGIN NonMaskableInt_IRQn 0 */

	/* USER CODE END NonMaskableInt_IRQn 0 */
	/* USER CODE BEGIN NonMaskableInt_IRQn 1 */
	while (1) {
 800385c:	46c0      	nop			@ (mov r8, r8)
 800385e:	e7fd      	b.n	800385c <NMI_Handler+0x4>

08003860 <HardFault_Handler>:
}

/**
 * @brief This function handles Hard fault interrupt.
 */
void HardFault_Handler(void) {
 8003860:	b580      	push	{r7, lr}
 8003862:	af00      	add	r7, sp, #0
	/* USER CODE BEGIN HardFault_IRQn 0 */

	/* USER CODE END HardFault_IRQn 0 */
	while (1) {
 8003864:	46c0      	nop			@ (mov r8, r8)
 8003866:	e7fd      	b.n	8003864 <HardFault_Handler+0x4>

08003868 <SVC_Handler>:
}

/**
 * @brief This function handles System service call via SWI instruction.
 */
void SVC_Handler(void) {
 8003868:	b580      	push	{r7, lr}
 800386a:	af00      	add	r7, sp, #0

	/* USER CODE END SVC_IRQn 0 */
	/* USER CODE BEGIN SVC_IRQn 1 */

	/* USER CODE END SVC_IRQn 1 */
}
 800386c:	46c0      	nop			@ (mov r8, r8)
 800386e:	46bd      	mov	sp, r7
 8003870:	bd80      	pop	{r7, pc}

08003872 <PendSV_Handler>:

/**
 * @brief This function handles Pendable request for system service.
 */
void PendSV_Handler(void) {
 8003872:	b580      	push	{r7, lr}
 8003874:	af00      	add	r7, sp, #0

	/* USER CODE END PendSV_IRQn 0 */
	/* USER CODE BEGIN PendSV_IRQn 1 */

	/* USER CODE END PendSV_IRQn 1 */
}
 8003876:	46c0      	nop			@ (mov r8, r8)
 8003878:	46bd      	mov	sp, r7
 800387a:	bd80      	pop	{r7, pc}

0800387c <SysTick_Handler>:

/**
 * @brief This function handles System tick timer.
 */
void SysTick_Handler(void) {
 800387c:	b580      	push	{r7, lr}
 800387e:	af00      	add	r7, sp, #0
	/* USER CODE BEGIN SysTick_IRQn 0 */

	/* USER CODE END SysTick_IRQn 0 */
	HAL_IncTick();
 8003880:	f000 f9e4 	bl	8003c4c <HAL_IncTick>
	/* USER CODE BEGIN SysTick_IRQn 1 */

	/* USER CODE END SysTick_IRQn 1 */
}
 8003884:	46c0      	nop			@ (mov r8, r8)
 8003886:	46bd      	mov	sp, r7
 8003888:	bd80      	pop	{r7, pc}

0800388a <EXTI4_15_IRQHandler>:
/******************************************************************************/

/**
 * @brief This function handles EXTI line 4 to 15 interrupts.
 */
void EXTI4_15_IRQHandler(void) {
 800388a:	b580      	push	{r7, lr}
 800388c:	af00      	add	r7, sp, #0
	/* USER CODE BEGIN EXTI4_15_IRQn 0 */

	/* USER CODE END EXTI4_15_IRQn 0 */
	HAL_GPIO_EXTI_IRQHandler(SI4432_IRQ_Pin);
 800388e:	2380      	movs	r3, #128	@ 0x80
 8003890:	005b      	lsls	r3, r3, #1
 8003892:	0018      	movs	r0, r3
 8003894:	f000 fea4 	bl	80045e0 <HAL_GPIO_EXTI_IRQHandler>
	/* USER CODE BEGIN EXTI4_15_IRQn 1 */

	/* USER CODE END EXTI4_15_IRQn 1 */
}
 8003898:	46c0      	nop			@ (mov r8, r8)
 800389a:	46bd      	mov	sp, r7
 800389c:	bd80      	pop	{r7, pc}
	...

080038a0 <TIM17_IRQHandler>:

/**
 * @brief This function handles TIM17 global interrupt.
 */
void TIM17_IRQHandler(void) {
 80038a0:	b580      	push	{r7, lr}
 80038a2:	af00      	add	r7, sp, #0
	/* USER CODE BEGIN TIM17_IRQn 0 */

	/* USER CODE END TIM17_IRQn 0 */
	HAL_TIM_IRQHandler(&htim17);
 80038a4:	4b03      	ldr	r3, [pc, #12]	@ (80038b4 <TIM17_IRQHandler+0x14>)
 80038a6:	0018      	movs	r0, r3
 80038a8:	f002 feae 	bl	8006608 <HAL_TIM_IRQHandler>
	/* USER CODE BEGIN TIM17_IRQn 1 */

	/* USER CODE END TIM17_IRQn 1 */
}
 80038ac:	46c0      	nop			@ (mov r8, r8)
 80038ae:	46bd      	mov	sp, r7
 80038b0:	bd80      	pop	{r7, pc}
 80038b2:	46c0      	nop			@ (mov r8, r8)
 80038b4:	200002d0 	.word	0x200002d0

080038b8 <SystemInit>:
/**
 * @brief  Setup the microcontroller system
 * @param  None
 * @retval None
 */
void SystemInit(void) {
 80038b8:	b580      	push	{r7, lr}
 80038ba:	af00      	add	r7, sp, #0
	 before branch to main program. This call is made inside
	 the "startup_stm32f0xx.s" file.
	 User can setups the default system clock (System clock source, PLL Multiplier
	 and Divider factors, AHB/APBx prescalers and Flash settings).
	 */
}
 80038bc:	46c0      	nop			@ (mov r8, r8)
 80038be:	46bd      	mov	sp, r7
 80038c0:	bd80      	pop	{r7, pc}
	...

080038c4 <MX_TIM3_Init>:
TIM_HandleTypeDef htim6;
TIM_HandleTypeDef htim16;
TIM_HandleTypeDef htim17;

/* TIM3 init function */
void MX_TIM3_Init(void) {
 80038c4:	b580      	push	{r7, lr}
 80038c6:	b086      	sub	sp, #24
 80038c8:	af00      	add	r7, sp, #0

	/* USER CODE BEGIN TIM3_Init 0 */

	/* USER CODE END TIM3_Init 0 */

	TIM_ClockConfigTypeDef sClockSourceConfig = { 0 };
 80038ca:	2308      	movs	r3, #8
 80038cc:	18fb      	adds	r3, r7, r3
 80038ce:	0018      	movs	r0, r3
 80038d0:	2310      	movs	r3, #16
 80038d2:	001a      	movs	r2, r3
 80038d4:	2100      	movs	r1, #0
 80038d6:	f003 fa07 	bl	8006ce8 <memset>
	TIM_MasterConfigTypeDef sMasterConfig = { 0 };
 80038da:	003b      	movs	r3, r7
 80038dc:	0018      	movs	r0, r3
 80038de:	2308      	movs	r3, #8
 80038e0:	001a      	movs	r2, r3
 80038e2:	2100      	movs	r1, #0
 80038e4:	f003 fa00 	bl	8006ce8 <memset>

	/* USER CODE BEGIN TIM3_Init 1 */

	/* USER CODE END TIM3_Init 1 */
	htim3.Instance = TIM3;
 80038e8:	4b1e      	ldr	r3, [pc, #120]	@ (8003964 <MX_TIM3_Init+0xa0>)
 80038ea:	4a1f      	ldr	r2, [pc, #124]	@ (8003968 <MX_TIM3_Init+0xa4>)
 80038ec:	601a      	str	r2, [r3, #0]
	htim3.Init.Prescaler = 23;
 80038ee:	4b1d      	ldr	r3, [pc, #116]	@ (8003964 <MX_TIM3_Init+0xa0>)
 80038f0:	2217      	movs	r2, #23
 80038f2:	605a      	str	r2, [r3, #4]
	htim3.Init.CounterMode = TIM_COUNTERMODE_UP;
 80038f4:	4b1b      	ldr	r3, [pc, #108]	@ (8003964 <MX_TIM3_Init+0xa0>)
 80038f6:	2200      	movs	r2, #0
 80038f8:	609a      	str	r2, [r3, #8]
	htim3.Init.Period = 99;
 80038fa:	4b1a      	ldr	r3, [pc, #104]	@ (8003964 <MX_TIM3_Init+0xa0>)
 80038fc:	2263      	movs	r2, #99	@ 0x63
 80038fe:	60da      	str	r2, [r3, #12]
	htim3.Init.ClockDivision = TIM_CLOCKDIVISION_DIV1;
 8003900:	4b18      	ldr	r3, [pc, #96]	@ (8003964 <MX_TIM3_Init+0xa0>)
 8003902:	2200      	movs	r2, #0
 8003904:	611a      	str	r2, [r3, #16]
	htim3.Init.AutoReloadPreload = TIM_AUTORELOAD_PRELOAD_DISABLE;
 8003906:	4b17      	ldr	r3, [pc, #92]	@ (8003964 <MX_TIM3_Init+0xa0>)
 8003908:	2200      	movs	r2, #0
 800390a:	619a      	str	r2, [r3, #24]
	if (HAL_TIM_Base_Init(&htim3) != HAL_OK) {
 800390c:	4b15      	ldr	r3, [pc, #84]	@ (8003964 <MX_TIM3_Init+0xa0>)
 800390e:	0018      	movs	r0, r3
 8003910:	f002 fe2a 	bl	8006568 <HAL_TIM_Base_Init>
 8003914:	1e03      	subs	r3, r0, #0
 8003916:	d001      	beq.n	800391c <MX_TIM3_Init+0x58>
		Error_Handler();
 8003918:	f7ff fb3f 	bl	8002f9a <Error_Handler>
	}
	sClockSourceConfig.ClockSource = TIM_CLOCKSOURCE_INTERNAL;
 800391c:	2108      	movs	r1, #8
 800391e:	187b      	adds	r3, r7, r1
 8003920:	2280      	movs	r2, #128	@ 0x80
 8003922:	0152      	lsls	r2, r2, #5
 8003924:	601a      	str	r2, [r3, #0]
	if (HAL_TIM_ConfigClockSource(&htim3, &sClockSourceConfig) != HAL_OK) {
 8003926:	187a      	adds	r2, r7, r1
 8003928:	4b0e      	ldr	r3, [pc, #56]	@ (8003964 <MX_TIM3_Init+0xa0>)
 800392a:	0011      	movs	r1, r2
 800392c:	0018      	movs	r0, r3
 800392e:	f002 ff59 	bl	80067e4 <HAL_TIM_ConfigClockSource>
 8003932:	1e03      	subs	r3, r0, #0
 8003934:	d001      	beq.n	800393a <MX_TIM3_Init+0x76>
		Error_Handler();
 8003936:	f7ff fb30 	bl	8002f9a <Error_Handler>
	}
	sMasterConfig.MasterOutputTrigger = TIM_TRGO_RESET;
 800393a:	003b      	movs	r3, r7
 800393c:	2200      	movs	r2, #0
 800393e:	601a      	str	r2, [r3, #0]
	sMasterConfig.MasterSlaveMode = TIM_MASTERSLAVEMODE_DISABLE;
 8003940:	003b      	movs	r3, r7
 8003942:	2200      	movs	r2, #0
 8003944:	605a      	str	r2, [r3, #4]
	if (HAL_TIMEx_MasterConfigSynchronization(&htim3, &sMasterConfig)
 8003946:	003a      	movs	r2, r7
 8003948:	4b06      	ldr	r3, [pc, #24]	@ (8003964 <MX_TIM3_Init+0xa0>)
 800394a:	0011      	movs	r1, r2
 800394c:	0018      	movs	r0, r3
 800394e:	f003 f963 	bl	8006c18 <HAL_TIMEx_MasterConfigSynchronization>
 8003952:	1e03      	subs	r3, r0, #0
 8003954:	d001      	beq.n	800395a <MX_TIM3_Init+0x96>
			!= HAL_OK) {
		Error_Handler();
 8003956:	f7ff fb20 	bl	8002f9a <Error_Handler>
	}
	/* USER CODE BEGIN TIM3_Init 2 */

	/* USER CODE END TIM3_Init 2 */

}
 800395a:	46c0      	nop			@ (mov r8, r8)
 800395c:	46bd      	mov	sp, r7
 800395e:	b006      	add	sp, #24
 8003960:	bd80      	pop	{r7, pc}
 8003962:	46c0      	nop			@ (mov r8, r8)
 8003964:	200001f8 	.word	0x200001f8
 8003968:	40000400 	.word	0x40000400

0800396c <MX_TIM6_Init>:
/* TIM6 init function */
void MX_TIM6_Init(void) {
 800396c:	b580      	push	{r7, lr}
 800396e:	af00      	add	r7, sp, #0
	/* USER CODE END TIM6_Init 0 */

	/* USER CODE BEGIN TIM6_Init 1 */

	/* USER CODE END TIM6_Init 1 */
	htim6.Instance = TIM6;
 8003970:	4b0c      	ldr	r3, [pc, #48]	@ (80039a4 <MX_TIM6_Init+0x38>)
 8003972:	4a0d      	ldr	r2, [pc, #52]	@ (80039a8 <MX_TIM6_Init+0x3c>)
 8003974:	601a      	str	r2, [r3, #0]
	htim6.Init.Prescaler = 47;
 8003976:	4b0b      	ldr	r3, [pc, #44]	@ (80039a4 <MX_TIM6_Init+0x38>)
 8003978:	222f      	movs	r2, #47	@ 0x2f
 800397a:	605a      	str	r2, [r3, #4]
	htim6.Init.CounterMode = TIM_COUNTERMODE_UP;
 800397c:	4b09      	ldr	r3, [pc, #36]	@ (80039a4 <MX_TIM6_Init+0x38>)
 800397e:	2200      	movs	r2, #0
 8003980:	609a      	str	r2, [r3, #8]
	htim6.Init.Period = 65535;
 8003982:	4b08      	ldr	r3, [pc, #32]	@ (80039a4 <MX_TIM6_Init+0x38>)
 8003984:	4a09      	ldr	r2, [pc, #36]	@ (80039ac <MX_TIM6_Init+0x40>)
 8003986:	60da      	str	r2, [r3, #12]
	htim6.Init.AutoReloadPreload = TIM_AUTORELOAD_PRELOAD_DISABLE;
 8003988:	4b06      	ldr	r3, [pc, #24]	@ (80039a4 <MX_TIM6_Init+0x38>)
 800398a:	2200      	movs	r2, #0
 800398c:	619a      	str	r2, [r3, #24]
	if (HAL_TIM_Base_Init(&htim6) != HAL_OK) {
 800398e:	4b05      	ldr	r3, [pc, #20]	@ (80039a4 <MX_TIM6_Init+0x38>)
 8003990:	0018      	movs	r0, r3
 8003992:	f002 fde9 	bl	8006568 <HAL_TIM_Base_Init>
 8003996:	1e03      	subs	r3, r0, #0
 8003998:	d001      	beq.n	800399e <MX_TIM6_Init+0x32>
		Error_Handler();
 800399a:	f7ff fafe 	bl	8002f9a <Error_Handler>
	}
	/* USER CODE BEGIN TIM6_Init 2 */

	/* USER CODE END TIM6_Init 2 */

}
 800399e:	46c0      	nop			@ (mov r8, r8)
 80039a0:	46bd      	mov	sp, r7
 80039a2:	bd80      	pop	{r7, pc}
 80039a4:	20000240 	.word	0x20000240
 80039a8:	40001000 	.word	0x40001000
 80039ac:	0000ffff 	.word	0x0000ffff

080039b0 <MX_TIM16_Init>:
/* TIM16 init function */
void MX_TIM16_Init(void) {
 80039b0:	b580      	push	{r7, lr}
 80039b2:	af00      	add	r7, sp, #0
	/* USER CODE END TIM16_Init 0 */

	/* USER CODE BEGIN TIM16_Init 1 */

	/* USER CODE END TIM16_Init 1 */
	htim16.Instance = TIM16;
 80039b4:	4b0f      	ldr	r3, [pc, #60]	@ (80039f4 <MX_TIM16_Init+0x44>)
 80039b6:	4a10      	ldr	r2, [pc, #64]	@ (80039f8 <MX_TIM16_Init+0x48>)
 80039b8:	601a      	str	r2, [r3, #0]
	htim16.Init.Prescaler = 1;
 80039ba:	4b0e      	ldr	r3, [pc, #56]	@ (80039f4 <MX_TIM16_Init+0x44>)
 80039bc:	2201      	movs	r2, #1
 80039be:	605a      	str	r2, [r3, #4]
	htim16.Init.CounterMode = TIM_COUNTERMODE_UP;
 80039c0:	4b0c      	ldr	r3, [pc, #48]	@ (80039f4 <MX_TIM16_Init+0x44>)
 80039c2:	2200      	movs	r2, #0
 80039c4:	609a      	str	r2, [r3, #8]
	htim16.Init.Period = 65535;
 80039c6:	4b0b      	ldr	r3, [pc, #44]	@ (80039f4 <MX_TIM16_Init+0x44>)
 80039c8:	4a0c      	ldr	r2, [pc, #48]	@ (80039fc <MX_TIM16_Init+0x4c>)
 80039ca:	60da      	str	r2, [r3, #12]
	htim16.Init.ClockDivision = TIM_CLOCKDIVISION_DIV1;
 80039cc:	4b09      	ldr	r3, [pc, #36]	@ (80039f4 <MX_TIM16_Init+0x44>)
 80039ce:	2200      	movs	r2, #0
 80039d0:	611a      	str	r2, [r3, #16]
	htim16.Init.RepetitionCounter = 0;
 80039d2:	4b08      	ldr	r3, [pc, #32]	@ (80039f4 <MX_TIM16_Init+0x44>)
 80039d4:	2200      	movs	r2, #0
 80039d6:	615a      	str	r2, [r3, #20]
	htim16.Init.AutoReloadPreload = TIM_AUTORELOAD_PRELOAD_DISABLE;
 80039d8:	4b06      	ldr	r3, [pc, #24]	@ (80039f4 <MX_TIM16_Init+0x44>)
 80039da:	2200      	movs	r2, #0
 80039dc:	619a      	str	r2, [r3, #24]
	if (HAL_TIM_Base_Init(&htim16) != HAL_OK) {
 80039de:	4b05      	ldr	r3, [pc, #20]	@ (80039f4 <MX_TIM16_Init+0x44>)
 80039e0:	0018      	movs	r0, r3
 80039e2:	f002 fdc1 	bl	8006568 <HAL_TIM_Base_Init>
 80039e6:	1e03      	subs	r3, r0, #0
 80039e8:	d001      	beq.n	80039ee <MX_TIM16_Init+0x3e>
		Error_Handler();
 80039ea:	f7ff fad6 	bl	8002f9a <Error_Handler>
	}
	/* USER CODE BEGIN TIM16_Init 2 */

	/* USER CODE END TIM16_Init 2 */

}
 80039ee:	46c0      	nop			@ (mov r8, r8)
 80039f0:	46bd      	mov	sp, r7
 80039f2:	bd80      	pop	{r7, pc}
 80039f4:	20000288 	.word	0x20000288
 80039f8:	40014400 	.word	0x40014400
 80039fc:	0000ffff 	.word	0x0000ffff

08003a00 <MX_TIM17_Init>:
/* TIM17 init function */
void MX_TIM17_Init(void) {
 8003a00:	b580      	push	{r7, lr}
 8003a02:	af00      	add	r7, sp, #0
	/* USER CODE END TIM17_Init 0 */

	/* USER CODE BEGIN TIM17_Init 1 */

	/* USER CODE END TIM17_Init 1 */
	htim17.Instance = TIM17;
 8003a04:	4b0f      	ldr	r3, [pc, #60]	@ (8003a44 <MX_TIM17_Init+0x44>)
 8003a06:	4a10      	ldr	r2, [pc, #64]	@ (8003a48 <MX_TIM17_Init+0x48>)
 8003a08:	601a      	str	r2, [r3, #0]
	htim17.Init.Prescaler = 47;
 8003a0a:	4b0e      	ldr	r3, [pc, #56]	@ (8003a44 <MX_TIM17_Init+0x44>)
 8003a0c:	222f      	movs	r2, #47	@ 0x2f
 8003a0e:	605a      	str	r2, [r3, #4]
	htim17.Init.CounterMode = TIM_COUNTERMODE_UP;
 8003a10:	4b0c      	ldr	r3, [pc, #48]	@ (8003a44 <MX_TIM17_Init+0x44>)
 8003a12:	2200      	movs	r2, #0
 8003a14:	609a      	str	r2, [r3, #8]
	htim17.Init.Period = 999;
 8003a16:	4b0b      	ldr	r3, [pc, #44]	@ (8003a44 <MX_TIM17_Init+0x44>)
 8003a18:	4a0c      	ldr	r2, [pc, #48]	@ (8003a4c <MX_TIM17_Init+0x4c>)
 8003a1a:	60da      	str	r2, [r3, #12]
	htim17.Init.ClockDivision = TIM_CLOCKDIVISION_DIV1;
 8003a1c:	4b09      	ldr	r3, [pc, #36]	@ (8003a44 <MX_TIM17_Init+0x44>)
 8003a1e:	2200      	movs	r2, #0
 8003a20:	611a      	str	r2, [r3, #16]
	htim17.Init.RepetitionCounter = 0;
 8003a22:	4b08      	ldr	r3, [pc, #32]	@ (8003a44 <MX_TIM17_Init+0x44>)
 8003a24:	2200      	movs	r2, #0
 8003a26:	615a      	str	r2, [r3, #20]
	htim17.Init.AutoReloadPreload = TIM_AUTORELOAD_PRELOAD_ENABLE;
 8003a28:	4b06      	ldr	r3, [pc, #24]	@ (8003a44 <MX_TIM17_Init+0x44>)
 8003a2a:	2280      	movs	r2, #128	@ 0x80
 8003a2c:	619a      	str	r2, [r3, #24]
	if (HAL_TIM_Base_Init(&htim17) != HAL_OK) {
 8003a2e:	4b05      	ldr	r3, [pc, #20]	@ (8003a44 <MX_TIM17_Init+0x44>)
 8003a30:	0018      	movs	r0, r3
 8003a32:	f002 fd99 	bl	8006568 <HAL_TIM_Base_Init>
 8003a36:	1e03      	subs	r3, r0, #0
 8003a38:	d001      	beq.n	8003a3e <MX_TIM17_Init+0x3e>
		Error_Handler();
 8003a3a:	f7ff faae 	bl	8002f9a <Error_Handler>
	}
	/* USER CODE BEGIN TIM17_Init 2 */

	/* USER CODE END TIM17_Init 2 */

}
 8003a3e:	46c0      	nop			@ (mov r8, r8)
 8003a40:	46bd      	mov	sp, r7
 8003a42:	bd80      	pop	{r7, pc}
 8003a44:	200002d0 	.word	0x200002d0
 8003a48:	40014800 	.word	0x40014800
 8003a4c:	000003e7 	.word	0x000003e7

08003a50 <HAL_TIM_Base_MspInit>:

void HAL_TIM_Base_MspInit(TIM_HandleTypeDef *tim_baseHandle) {
 8003a50:	b580      	push	{r7, lr}
 8003a52:	b086      	sub	sp, #24
 8003a54:	af00      	add	r7, sp, #0
 8003a56:	6078      	str	r0, [r7, #4]

	if (tim_baseHandle->Instance == TIM3) {
 8003a58:	687b      	ldr	r3, [r7, #4]
 8003a5a:	681b      	ldr	r3, [r3, #0]
 8003a5c:	4a2a      	ldr	r2, [pc, #168]	@ (8003b08 <HAL_TIM_Base_MspInit+0xb8>)
 8003a5e:	4293      	cmp	r3, r2
 8003a60:	d10c      	bne.n	8003a7c <HAL_TIM_Base_MspInit+0x2c>
		/* USER CODE BEGIN TIM3_MspInit 0 */

		/* USER CODE END TIM3_MspInit 0 */
		/* TIM3 clock enable */
		__HAL_RCC_TIM3_CLK_ENABLE();
 8003a62:	4b2a      	ldr	r3, [pc, #168]	@ (8003b0c <HAL_TIM_Base_MspInit+0xbc>)
 8003a64:	69da      	ldr	r2, [r3, #28]
 8003a66:	4b29      	ldr	r3, [pc, #164]	@ (8003b0c <HAL_TIM_Base_MspInit+0xbc>)
 8003a68:	2102      	movs	r1, #2
 8003a6a:	430a      	orrs	r2, r1
 8003a6c:	61da      	str	r2, [r3, #28]
 8003a6e:	4b27      	ldr	r3, [pc, #156]	@ (8003b0c <HAL_TIM_Base_MspInit+0xbc>)
 8003a70:	69db      	ldr	r3, [r3, #28]
 8003a72:	2202      	movs	r2, #2
 8003a74:	4013      	ands	r3, r2
 8003a76:	617b      	str	r3, [r7, #20]
 8003a78:	697b      	ldr	r3, [r7, #20]
		HAL_NVIC_EnableIRQ(TIM17_IRQn);
		/* USER CODE BEGIN TIM17_MspInit 1 */

		/* USER CODE END TIM17_MspInit 1 */
	}
}
 8003a7a:	e040      	b.n	8003afe <HAL_TIM_Base_MspInit+0xae>
	} else if (tim_baseHandle->Instance == TIM6) {
 8003a7c:	687b      	ldr	r3, [r7, #4]
 8003a7e:	681b      	ldr	r3, [r3, #0]
 8003a80:	4a23      	ldr	r2, [pc, #140]	@ (8003b10 <HAL_TIM_Base_MspInit+0xc0>)
 8003a82:	4293      	cmp	r3, r2
 8003a84:	d10c      	bne.n	8003aa0 <HAL_TIM_Base_MspInit+0x50>
		__HAL_RCC_TIM6_CLK_ENABLE();
 8003a86:	4b21      	ldr	r3, [pc, #132]	@ (8003b0c <HAL_TIM_Base_MspInit+0xbc>)
 8003a88:	69da      	ldr	r2, [r3, #28]
 8003a8a:	4b20      	ldr	r3, [pc, #128]	@ (8003b0c <HAL_TIM_Base_MspInit+0xbc>)
 8003a8c:	2110      	movs	r1, #16
 8003a8e:	430a      	orrs	r2, r1
 8003a90:	61da      	str	r2, [r3, #28]
 8003a92:	4b1e      	ldr	r3, [pc, #120]	@ (8003b0c <HAL_TIM_Base_MspInit+0xbc>)
 8003a94:	69db      	ldr	r3, [r3, #28]
 8003a96:	2210      	movs	r2, #16
 8003a98:	4013      	ands	r3, r2
 8003a9a:	613b      	str	r3, [r7, #16]
 8003a9c:	693b      	ldr	r3, [r7, #16]
}
 8003a9e:	e02e      	b.n	8003afe <HAL_TIM_Base_MspInit+0xae>
	} else if (tim_baseHandle->Instance == TIM16) {
 8003aa0:	687b      	ldr	r3, [r7, #4]
 8003aa2:	681b      	ldr	r3, [r3, #0]
 8003aa4:	4a1b      	ldr	r2, [pc, #108]	@ (8003b14 <HAL_TIM_Base_MspInit+0xc4>)
 8003aa6:	4293      	cmp	r3, r2
 8003aa8:	d10e      	bne.n	8003ac8 <HAL_TIM_Base_MspInit+0x78>
		__HAL_RCC_TIM16_CLK_ENABLE();
 8003aaa:	4b18      	ldr	r3, [pc, #96]	@ (8003b0c <HAL_TIM_Base_MspInit+0xbc>)
 8003aac:	699a      	ldr	r2, [r3, #24]
 8003aae:	4b17      	ldr	r3, [pc, #92]	@ (8003b0c <HAL_TIM_Base_MspInit+0xbc>)
 8003ab0:	2180      	movs	r1, #128	@ 0x80
 8003ab2:	0289      	lsls	r1, r1, #10
 8003ab4:	430a      	orrs	r2, r1
 8003ab6:	619a      	str	r2, [r3, #24]
 8003ab8:	4b14      	ldr	r3, [pc, #80]	@ (8003b0c <HAL_TIM_Base_MspInit+0xbc>)
 8003aba:	699a      	ldr	r2, [r3, #24]
 8003abc:	2380      	movs	r3, #128	@ 0x80
 8003abe:	029b      	lsls	r3, r3, #10
 8003ac0:	4013      	ands	r3, r2
 8003ac2:	60fb      	str	r3, [r7, #12]
 8003ac4:	68fb      	ldr	r3, [r7, #12]
}
 8003ac6:	e01a      	b.n	8003afe <HAL_TIM_Base_MspInit+0xae>
	} else if (tim_baseHandle->Instance == TIM17) {
 8003ac8:	687b      	ldr	r3, [r7, #4]
 8003aca:	681b      	ldr	r3, [r3, #0]
 8003acc:	4a12      	ldr	r2, [pc, #72]	@ (8003b18 <HAL_TIM_Base_MspInit+0xc8>)
 8003ace:	4293      	cmp	r3, r2
 8003ad0:	d115      	bne.n	8003afe <HAL_TIM_Base_MspInit+0xae>
		__HAL_RCC_TIM17_CLK_ENABLE();
 8003ad2:	4b0e      	ldr	r3, [pc, #56]	@ (8003b0c <HAL_TIM_Base_MspInit+0xbc>)
 8003ad4:	699a      	ldr	r2, [r3, #24]
 8003ad6:	4b0d      	ldr	r3, [pc, #52]	@ (8003b0c <HAL_TIM_Base_MspInit+0xbc>)
 8003ad8:	2180      	movs	r1, #128	@ 0x80
 8003ada:	02c9      	lsls	r1, r1, #11
 8003adc:	430a      	orrs	r2, r1
 8003ade:	619a      	str	r2, [r3, #24]
 8003ae0:	4b0a      	ldr	r3, [pc, #40]	@ (8003b0c <HAL_TIM_Base_MspInit+0xbc>)
 8003ae2:	699a      	ldr	r2, [r3, #24]
 8003ae4:	2380      	movs	r3, #128	@ 0x80
 8003ae6:	02db      	lsls	r3, r3, #11
 8003ae8:	4013      	ands	r3, r2
 8003aea:	60bb      	str	r3, [r7, #8]
 8003aec:	68bb      	ldr	r3, [r7, #8]
		HAL_NVIC_SetPriority(TIM17_IRQn, 3, 0);
 8003aee:	2200      	movs	r2, #0
 8003af0:	2103      	movs	r1, #3
 8003af2:	2016      	movs	r0, #22
 8003af4:	f000 f996 	bl	8003e24 <HAL_NVIC_SetPriority>
		HAL_NVIC_EnableIRQ(TIM17_IRQn);
 8003af8:	2016      	movs	r0, #22
 8003afa:	f000 f9a8 	bl	8003e4e <HAL_NVIC_EnableIRQ>
}
 8003afe:	46c0      	nop			@ (mov r8, r8)
 8003b00:	46bd      	mov	sp, r7
 8003b02:	b006      	add	sp, #24
 8003b04:	bd80      	pop	{r7, pc}
 8003b06:	46c0      	nop			@ (mov r8, r8)
 8003b08:	40000400 	.word	0x40000400
 8003b0c:	40021000 	.word	0x40021000
 8003b10:	40001000 	.word	0x40001000
 8003b14:	40014400 	.word	0x40014400
 8003b18:	40014800 	.word	0x40014800

08003b1c <Reset_Handler>:

  .section .text.Reset_Handler
  .weak Reset_Handler
  .type Reset_Handler, %function
Reset_Handler:
  ldr   r0, =_estack
 8003b1c:	480d      	ldr	r0, [pc, #52]	@ (8003b54 <LoopForever+0x2>)
  mov   sp, r0          /* set stack pointer */
 8003b1e:	4685      	mov	sp, r0
  
/* Call the clock system initialization function.*/
  bl  SystemInit
 8003b20:	f7ff feca 	bl	80038b8 <SystemInit>

/* Copy the data segment initializers from flash to SRAM */
  ldr r0, =_sdata
 8003b24:	480c      	ldr	r0, [pc, #48]	@ (8003b58 <LoopForever+0x6>)
  ldr r1, =_edata
 8003b26:	490d      	ldr	r1, [pc, #52]	@ (8003b5c <LoopForever+0xa>)
  ldr r2, =_sidata
 8003b28:	4a0d      	ldr	r2, [pc, #52]	@ (8003b60 <LoopForever+0xe>)
  movs r3, #0
 8003b2a:	2300      	movs	r3, #0
  b LoopCopyDataInit
 8003b2c:	e002      	b.n	8003b34 <LoopCopyDataInit>

08003b2e <CopyDataInit>:

CopyDataInit:
  ldr r4, [r2, r3]
 8003b2e:	58d4      	ldr	r4, [r2, r3]
  str r4, [r0, r3]
 8003b30:	50c4      	str	r4, [r0, r3]
  adds r3, r3, #4
 8003b32:	3304      	adds	r3, #4

08003b34 <LoopCopyDataInit>:

LoopCopyDataInit:
  adds r4, r0, r3
 8003b34:	18c4      	adds	r4, r0, r3
  cmp r4, r1
 8003b36:	428c      	cmp	r4, r1
  bcc CopyDataInit
 8003b38:	d3f9      	bcc.n	8003b2e <CopyDataInit>
  
/* Zero fill the bss segment. */
  ldr r2, =_sbss
 8003b3a:	4a0a      	ldr	r2, [pc, #40]	@ (8003b64 <LoopForever+0x12>)
  ldr r4, =_ebss
 8003b3c:	4c0a      	ldr	r4, [pc, #40]	@ (8003b68 <LoopForever+0x16>)
  movs r3, #0
 8003b3e:	2300      	movs	r3, #0
  b LoopFillZerobss
 8003b40:	e001      	b.n	8003b46 <LoopFillZerobss>

08003b42 <FillZerobss>:

FillZerobss:
  str  r3, [r2]
 8003b42:	6013      	str	r3, [r2, #0]
  adds r2, r2, #4
 8003b44:	3204      	adds	r2, #4

08003b46 <LoopFillZerobss>:

LoopFillZerobss:
  cmp r2, r4
 8003b46:	42a2      	cmp	r2, r4
  bcc FillZerobss
 8003b48:	d3fb      	bcc.n	8003b42 <FillZerobss>

/* Call static constructors */
  bl __libc_init_array
 8003b4a:	f003 f8d5 	bl	8006cf8 <__libc_init_array>
/* Call the application's entry point.*/
  bl main
 8003b4e:	f7ff f943 	bl	8002dd8 <main>

08003b52 <LoopForever>:

LoopForever:
    b LoopForever
 8003b52:	e7fe      	b.n	8003b52 <LoopForever>
  ldr   r0, =_estack
 8003b54:	20008000 	.word	0x20008000
  ldr r0, =_sdata
 8003b58:	20000000 	.word	0x20000000
  ldr r1, =_edata
 8003b5c:	2000000c 	.word	0x2000000c
  ldr r2, =_sidata
 8003b60:	08007010 	.word	0x08007010
  ldr r2, =_sbss
 8003b64:	20000010 	.word	0x20000010
  ldr r4, =_ebss
 8003b68:	20000340 	.word	0x20000340

08003b6c <ADC1_IRQHandler>:
 * @retval : None
*/
    .section .text.Default_Handler,"ax",%progbits
Default_Handler:
Infinite_Loop:
  b Infinite_Loop
 8003b6c:	e7fe      	b.n	8003b6c <ADC1_IRQHandler>
	...

08003b70 <HAL_Init>:
  *       In the default implementation,Systick is used as source of time base.
  *       The tick variable is incremented each 1ms in its ISR.
  * @retval HAL status
  */
HAL_StatusTypeDef HAL_Init(void)
{
 8003b70:	b580      	push	{r7, lr}
 8003b72:	af00      	add	r7, sp, #0
  /* Configure Flash prefetch */ 
#if (PREFETCH_ENABLE != 0)
  __HAL_FLASH_PREFETCH_BUFFER_ENABLE();
 8003b74:	4b07      	ldr	r3, [pc, #28]	@ (8003b94 <HAL_Init+0x24>)
 8003b76:	681a      	ldr	r2, [r3, #0]
 8003b78:	4b06      	ldr	r3, [pc, #24]	@ (8003b94 <HAL_Init+0x24>)
 8003b7a:	2110      	movs	r1, #16
 8003b7c:	430a      	orrs	r2, r1
 8003b7e:	601a      	str	r2, [r3, #0]
#endif /* PREFETCH_ENABLE */

  /* Use systick as time base source and configure 1ms tick (default clock after Reset is HSI) */

  HAL_InitTick(TICK_INT_PRIORITY);
 8003b80:	2000      	movs	r0, #0
 8003b82:	f000 f82f 	bl	8003be4 <HAL_InitTick>

  /* Init the low level hardware */
  HAL_MspInit();
 8003b86:	f7ff fe43 	bl	8003810 <HAL_MspInit>

  /* Return function status */
  return HAL_OK;
 8003b8a:	2300      	movs	r3, #0
}
 8003b8c:	0018      	movs	r0, r3
 8003b8e:	46bd      	mov	sp, r7
 8003b90:	bd80      	pop	{r7, pc}
 8003b92:	46c0      	nop			@ (mov r8, r8)
 8003b94:	40022000 	.word	0x40022000

08003b98 <HAL_DeInit>:
  *        of time base.
  * @note This function is optional.
  * @retval HAL status
  */
HAL_StatusTypeDef HAL_DeInit(void)
{
 8003b98:	b580      	push	{r7, lr}
 8003b9a:	af00      	add	r7, sp, #0
  /* Reset of all peripherals */
  __HAL_RCC_APB1_FORCE_RESET();
 8003b9c:	4b0d      	ldr	r3, [pc, #52]	@ (8003bd4 <HAL_DeInit+0x3c>)
 8003b9e:	2201      	movs	r2, #1
 8003ba0:	4252      	negs	r2, r2
 8003ba2:	611a      	str	r2, [r3, #16]
  __HAL_RCC_APB1_RELEASE_RESET();
 8003ba4:	4b0b      	ldr	r3, [pc, #44]	@ (8003bd4 <HAL_DeInit+0x3c>)
 8003ba6:	2200      	movs	r2, #0
 8003ba8:	611a      	str	r2, [r3, #16]

  __HAL_RCC_APB2_FORCE_RESET();
 8003baa:	4b0a      	ldr	r3, [pc, #40]	@ (8003bd4 <HAL_DeInit+0x3c>)
 8003bac:	2201      	movs	r2, #1
 8003bae:	4252      	negs	r2, r2
 8003bb0:	60da      	str	r2, [r3, #12]
  __HAL_RCC_APB2_RELEASE_RESET();
 8003bb2:	4b08      	ldr	r3, [pc, #32]	@ (8003bd4 <HAL_DeInit+0x3c>)
 8003bb4:	2200      	movs	r2, #0
 8003bb6:	60da      	str	r2, [r3, #12]

  __HAL_RCC_AHB_FORCE_RESET();
 8003bb8:	4b06      	ldr	r3, [pc, #24]	@ (8003bd4 <HAL_DeInit+0x3c>)
 8003bba:	2201      	movs	r2, #1
 8003bbc:	4252      	negs	r2, r2
 8003bbe:	629a      	str	r2, [r3, #40]	@ 0x28
  __HAL_RCC_AHB_RELEASE_RESET();
 8003bc0:	4b04      	ldr	r3, [pc, #16]	@ (8003bd4 <HAL_DeInit+0x3c>)
 8003bc2:	2200      	movs	r2, #0
 8003bc4:	629a      	str	r2, [r3, #40]	@ 0x28

  /* De-Init the low level hardware */
  HAL_MspDeInit();
 8003bc6:	f000 f807 	bl	8003bd8 <HAL_MspDeInit>
    
  /* Return function status */
  return HAL_OK;
 8003bca:	2300      	movs	r3, #0
}
 8003bcc:	0018      	movs	r0, r3
 8003bce:	46bd      	mov	sp, r7
 8003bd0:	bd80      	pop	{r7, pc}
 8003bd2:	46c0      	nop			@ (mov r8, r8)
 8003bd4:	40021000 	.word	0x40021000

08003bd8 <HAL_MspDeInit>:
/**
  * @brief  DeInitializes the MSP.
  * @retval None
  */
__weak void HAL_MspDeInit(void)
{
 8003bd8:	b580      	push	{r7, lr}
 8003bda:	af00      	add	r7, sp, #0
  /* NOTE : This function should not be modified, when the callback is needed,
            the HAL_MspDeInit could be implemented in the user file
   */
}
 8003bdc:	46c0      	nop			@ (mov r8, r8)
 8003bde:	46bd      	mov	sp, r7
 8003be0:	bd80      	pop	{r7, pc}
	...

08003be4 <HAL_InitTick>:
  *       implementation  in user file.
  * @param TickPriority Tick interrupt priority.
  * @retval HAL status
  */
__weak HAL_StatusTypeDef HAL_InitTick(uint32_t TickPriority)
{
 8003be4:	b590      	push	{r4, r7, lr}
 8003be6:	b083      	sub	sp, #12
 8003be8:	af00      	add	r7, sp, #0
 8003bea:	6078      	str	r0, [r7, #4]
  /*Configure the SysTick to have interrupt in 1ms time basis*/
  if (HAL_SYSTICK_Config(SystemCoreClock / (1000U / uwTickFreq)) > 0U)
 8003bec:	4b14      	ldr	r3, [pc, #80]	@ (8003c40 <HAL_InitTick+0x5c>)
 8003bee:	681c      	ldr	r4, [r3, #0]
 8003bf0:	4b14      	ldr	r3, [pc, #80]	@ (8003c44 <HAL_InitTick+0x60>)
 8003bf2:	781b      	ldrb	r3, [r3, #0]
 8003bf4:	0019      	movs	r1, r3
 8003bf6:	23fa      	movs	r3, #250	@ 0xfa
 8003bf8:	0098      	lsls	r0, r3, #2
 8003bfa:	f7fc fa83 	bl	8000104 <__udivsi3>
 8003bfe:	0003      	movs	r3, r0
 8003c00:	0019      	movs	r1, r3
 8003c02:	0020      	movs	r0, r4
 8003c04:	f7fc fa7e 	bl	8000104 <__udivsi3>
 8003c08:	0003      	movs	r3, r0
 8003c0a:	0018      	movs	r0, r3
 8003c0c:	f000 f92f 	bl	8003e6e <HAL_SYSTICK_Config>
 8003c10:	1e03      	subs	r3, r0, #0
 8003c12:	d001      	beq.n	8003c18 <HAL_InitTick+0x34>
  {
    return HAL_ERROR;
 8003c14:	2301      	movs	r3, #1
 8003c16:	e00f      	b.n	8003c38 <HAL_InitTick+0x54>
  }

  /* Configure the SysTick IRQ priority */
  if (TickPriority < (1UL << __NVIC_PRIO_BITS))
 8003c18:	687b      	ldr	r3, [r7, #4]
 8003c1a:	2b03      	cmp	r3, #3
 8003c1c:	d80b      	bhi.n	8003c36 <HAL_InitTick+0x52>
  {
    HAL_NVIC_SetPriority(SysTick_IRQn, TickPriority, 0U);
 8003c1e:	6879      	ldr	r1, [r7, #4]
 8003c20:	2301      	movs	r3, #1
 8003c22:	425b      	negs	r3, r3
 8003c24:	2200      	movs	r2, #0
 8003c26:	0018      	movs	r0, r3
 8003c28:	f000 f8fc 	bl	8003e24 <HAL_NVIC_SetPriority>
    uwTickPrio = TickPriority;
 8003c2c:	4b06      	ldr	r3, [pc, #24]	@ (8003c48 <HAL_InitTick+0x64>)
 8003c2e:	687a      	ldr	r2, [r7, #4]
 8003c30:	601a      	str	r2, [r3, #0]
  {
    return HAL_ERROR;
  }

   /* Return function status */
  return HAL_OK;
 8003c32:	2300      	movs	r3, #0
 8003c34:	e000      	b.n	8003c38 <HAL_InitTick+0x54>
    return HAL_ERROR;
 8003c36:	2301      	movs	r3, #1
}
 8003c38:	0018      	movs	r0, r3
 8003c3a:	46bd      	mov	sp, r7
 8003c3c:	b003      	add	sp, #12
 8003c3e:	bd90      	pop	{r4, r7, pc}
 8003c40:	20000000 	.word	0x20000000
 8003c44:	20000008 	.word	0x20000008
 8003c48:	20000004 	.word	0x20000004

08003c4c <HAL_IncTick>:
  * @note This function is declared as __weak to be overwritten in case of other 
  *       implementations in user file.
  * @retval None
  */
__weak void HAL_IncTick(void)
{
 8003c4c:	b580      	push	{r7, lr}
 8003c4e:	af00      	add	r7, sp, #0
  uwTick += uwTickFreq;
 8003c50:	4b05      	ldr	r3, [pc, #20]	@ (8003c68 <HAL_IncTick+0x1c>)
 8003c52:	781b      	ldrb	r3, [r3, #0]
 8003c54:	001a      	movs	r2, r3
 8003c56:	4b05      	ldr	r3, [pc, #20]	@ (8003c6c <HAL_IncTick+0x20>)
 8003c58:	681b      	ldr	r3, [r3, #0]
 8003c5a:	18d2      	adds	r2, r2, r3
 8003c5c:	4b03      	ldr	r3, [pc, #12]	@ (8003c6c <HAL_IncTick+0x20>)
 8003c5e:	601a      	str	r2, [r3, #0]
}
 8003c60:	46c0      	nop			@ (mov r8, r8)
 8003c62:	46bd      	mov	sp, r7
 8003c64:	bd80      	pop	{r7, pc}
 8003c66:	46c0      	nop			@ (mov r8, r8)
 8003c68:	20000008 	.word	0x20000008
 8003c6c:	20000318 	.word	0x20000318

08003c70 <HAL_GetTick>:
  * @note   This function is declared as __weak  to be overwritten  in case of other 
  *       implementations in user file.
  * @retval tick value
  */
__weak uint32_t HAL_GetTick(void)
{
 8003c70:	b580      	push	{r7, lr}
 8003c72:	af00      	add	r7, sp, #0
  return uwTick;
 8003c74:	4b02      	ldr	r3, [pc, #8]	@ (8003c80 <HAL_GetTick+0x10>)
 8003c76:	681b      	ldr	r3, [r3, #0]
}
 8003c78:	0018      	movs	r0, r3
 8003c7a:	46bd      	mov	sp, r7
 8003c7c:	bd80      	pop	{r7, pc}
 8003c7e:	46c0      	nop			@ (mov r8, r8)
 8003c80:	20000318 	.word	0x20000318

08003c84 <HAL_Delay>:
  *       implementations in user file.
  * @param Delay specifies the delay time length, in milliseconds.
  * @retval None
  */
__weak void HAL_Delay(uint32_t Delay)
{
 8003c84:	b580      	push	{r7, lr}
 8003c86:	b084      	sub	sp, #16
 8003c88:	af00      	add	r7, sp, #0
 8003c8a:	6078      	str	r0, [r7, #4]
  uint32_t tickstart = HAL_GetTick();
 8003c8c:	f7ff fff0 	bl	8003c70 <HAL_GetTick>
 8003c90:	0003      	movs	r3, r0
 8003c92:	60bb      	str	r3, [r7, #8]
  uint32_t wait = Delay;
 8003c94:	687b      	ldr	r3, [r7, #4]
 8003c96:	60fb      	str	r3, [r7, #12]
  
  /* Add a freq to guarantee minimum wait */
  if (wait < HAL_MAX_DELAY)
 8003c98:	68fb      	ldr	r3, [r7, #12]
 8003c9a:	3301      	adds	r3, #1
 8003c9c:	d005      	beq.n	8003caa <HAL_Delay+0x26>
  {
    wait += (uint32_t)(uwTickFreq);
 8003c9e:	4b0a      	ldr	r3, [pc, #40]	@ (8003cc8 <HAL_Delay+0x44>)
 8003ca0:	781b      	ldrb	r3, [r3, #0]
 8003ca2:	001a      	movs	r2, r3
 8003ca4:	68fb      	ldr	r3, [r7, #12]
 8003ca6:	189b      	adds	r3, r3, r2
 8003ca8:	60fb      	str	r3, [r7, #12]
  }
  
  while((HAL_GetTick() - tickstart) < wait)
 8003caa:	46c0      	nop			@ (mov r8, r8)
 8003cac:	f7ff ffe0 	bl	8003c70 <HAL_GetTick>
 8003cb0:	0002      	movs	r2, r0
 8003cb2:	68bb      	ldr	r3, [r7, #8]
 8003cb4:	1ad3      	subs	r3, r2, r3
 8003cb6:	68fa      	ldr	r2, [r7, #12]
 8003cb8:	429a      	cmp	r2, r3
 8003cba:	d8f7      	bhi.n	8003cac <HAL_Delay+0x28>
  {
  }
}
 8003cbc:	46c0      	nop			@ (mov r8, r8)
 8003cbe:	46c0      	nop			@ (mov r8, r8)
 8003cc0:	46bd      	mov	sp, r7
 8003cc2:	b004      	add	sp, #16
 8003cc4:	bd80      	pop	{r7, pc}
 8003cc6:	46c0      	nop			@ (mov r8, r8)
 8003cc8:	20000008 	.word	0x20000008

08003ccc <__NVIC_EnableIRQ>:
{
 8003ccc:	b580      	push	{r7, lr}
 8003cce:	b082      	sub	sp, #8
 8003cd0:	af00      	add	r7, sp, #0
 8003cd2:	0002      	movs	r2, r0
 8003cd4:	1dfb      	adds	r3, r7, #7
 8003cd6:	701a      	strb	r2, [r3, #0]
  if ((int32_t)(IRQn) >= 0)
 8003cd8:	1dfb      	adds	r3, r7, #7
 8003cda:	781b      	ldrb	r3, [r3, #0]
 8003cdc:	2b7f      	cmp	r3, #127	@ 0x7f
 8003cde:	d809      	bhi.n	8003cf4 <__NVIC_EnableIRQ+0x28>
    NVIC->ISER[0U] = (uint32_t)(1UL << (((uint32_t)IRQn) & 0x1FUL));
 8003ce0:	1dfb      	adds	r3, r7, #7
 8003ce2:	781b      	ldrb	r3, [r3, #0]
 8003ce4:	001a      	movs	r2, r3
 8003ce6:	231f      	movs	r3, #31
 8003ce8:	401a      	ands	r2, r3
 8003cea:	4b04      	ldr	r3, [pc, #16]	@ (8003cfc <__NVIC_EnableIRQ+0x30>)
 8003cec:	2101      	movs	r1, #1
 8003cee:	4091      	lsls	r1, r2
 8003cf0:	000a      	movs	r2, r1
 8003cf2:	601a      	str	r2, [r3, #0]
}
 8003cf4:	46c0      	nop			@ (mov r8, r8)
 8003cf6:	46bd      	mov	sp, r7
 8003cf8:	b002      	add	sp, #8
 8003cfa:	bd80      	pop	{r7, pc}
 8003cfc:	e000e100 	.word	0xe000e100

08003d00 <__NVIC_SetPriority>:
{
 8003d00:	b590      	push	{r4, r7, lr}
 8003d02:	b083      	sub	sp, #12
 8003d04:	af00      	add	r7, sp, #0
 8003d06:	0002      	movs	r2, r0
 8003d08:	6039      	str	r1, [r7, #0]
 8003d0a:	1dfb      	adds	r3, r7, #7
 8003d0c:	701a      	strb	r2, [r3, #0]
  if ((int32_t)(IRQn) >= 0)
 8003d0e:	1dfb      	adds	r3, r7, #7
 8003d10:	781b      	ldrb	r3, [r3, #0]
 8003d12:	2b7f      	cmp	r3, #127	@ 0x7f
 8003d14:	d828      	bhi.n	8003d68 <__NVIC_SetPriority+0x68>
    NVIC->IP[_IP_IDX(IRQn)]  = ((uint32_t)(NVIC->IP[_IP_IDX(IRQn)]  & ~(0xFFUL << _BIT_SHIFT(IRQn))) |
 8003d16:	4a2f      	ldr	r2, [pc, #188]	@ (8003dd4 <__NVIC_SetPriority+0xd4>)
 8003d18:	1dfb      	adds	r3, r7, #7
 8003d1a:	781b      	ldrb	r3, [r3, #0]
 8003d1c:	b25b      	sxtb	r3, r3
 8003d1e:	089b      	lsrs	r3, r3, #2
 8003d20:	33c0      	adds	r3, #192	@ 0xc0
 8003d22:	009b      	lsls	r3, r3, #2
 8003d24:	589b      	ldr	r3, [r3, r2]
 8003d26:	1dfa      	adds	r2, r7, #7
 8003d28:	7812      	ldrb	r2, [r2, #0]
 8003d2a:	0011      	movs	r1, r2
 8003d2c:	2203      	movs	r2, #3
 8003d2e:	400a      	ands	r2, r1
 8003d30:	00d2      	lsls	r2, r2, #3
 8003d32:	21ff      	movs	r1, #255	@ 0xff
 8003d34:	4091      	lsls	r1, r2
 8003d36:	000a      	movs	r2, r1
 8003d38:	43d2      	mvns	r2, r2
 8003d3a:	401a      	ands	r2, r3
 8003d3c:	0011      	movs	r1, r2
       (((priority << (8U - __NVIC_PRIO_BITS)) & (uint32_t)0xFFUL) << _BIT_SHIFT(IRQn)));
 8003d3e:	683b      	ldr	r3, [r7, #0]
 8003d40:	019b      	lsls	r3, r3, #6
 8003d42:	22ff      	movs	r2, #255	@ 0xff
 8003d44:	401a      	ands	r2, r3
 8003d46:	1dfb      	adds	r3, r7, #7
 8003d48:	781b      	ldrb	r3, [r3, #0]
 8003d4a:	0018      	movs	r0, r3
 8003d4c:	2303      	movs	r3, #3
 8003d4e:	4003      	ands	r3, r0
 8003d50:	00db      	lsls	r3, r3, #3
 8003d52:	409a      	lsls	r2, r3
    NVIC->IP[_IP_IDX(IRQn)]  = ((uint32_t)(NVIC->IP[_IP_IDX(IRQn)]  & ~(0xFFUL << _BIT_SHIFT(IRQn))) |
 8003d54:	481f      	ldr	r0, [pc, #124]	@ (8003dd4 <__NVIC_SetPriority+0xd4>)
 8003d56:	1dfb      	adds	r3, r7, #7
 8003d58:	781b      	ldrb	r3, [r3, #0]
 8003d5a:	b25b      	sxtb	r3, r3
 8003d5c:	089b      	lsrs	r3, r3, #2
 8003d5e:	430a      	orrs	r2, r1
 8003d60:	33c0      	adds	r3, #192	@ 0xc0
 8003d62:	009b      	lsls	r3, r3, #2
 8003d64:	501a      	str	r2, [r3, r0]
}
 8003d66:	e031      	b.n	8003dcc <__NVIC_SetPriority+0xcc>
    SCB->SHP[_SHP_IDX(IRQn)] = ((uint32_t)(SCB->SHP[_SHP_IDX(IRQn)] & ~(0xFFUL << _BIT_SHIFT(IRQn))) |
 8003d68:	4a1b      	ldr	r2, [pc, #108]	@ (8003dd8 <__NVIC_SetPriority+0xd8>)
 8003d6a:	1dfb      	adds	r3, r7, #7
 8003d6c:	781b      	ldrb	r3, [r3, #0]
 8003d6e:	0019      	movs	r1, r3
 8003d70:	230f      	movs	r3, #15
 8003d72:	400b      	ands	r3, r1
 8003d74:	3b08      	subs	r3, #8
 8003d76:	089b      	lsrs	r3, r3, #2
 8003d78:	3306      	adds	r3, #6
 8003d7a:	009b      	lsls	r3, r3, #2
 8003d7c:	18d3      	adds	r3, r2, r3
 8003d7e:	3304      	adds	r3, #4
 8003d80:	681b      	ldr	r3, [r3, #0]
 8003d82:	1dfa      	adds	r2, r7, #7
 8003d84:	7812      	ldrb	r2, [r2, #0]
 8003d86:	0011      	movs	r1, r2
 8003d88:	2203      	movs	r2, #3
 8003d8a:	400a      	ands	r2, r1
 8003d8c:	00d2      	lsls	r2, r2, #3
 8003d8e:	21ff      	movs	r1, #255	@ 0xff
 8003d90:	4091      	lsls	r1, r2
 8003d92:	000a      	movs	r2, r1
 8003d94:	43d2      	mvns	r2, r2
 8003d96:	401a      	ands	r2, r3
 8003d98:	0011      	movs	r1, r2
       (((priority << (8U - __NVIC_PRIO_BITS)) & (uint32_t)0xFFUL) << _BIT_SHIFT(IRQn)));
 8003d9a:	683b      	ldr	r3, [r7, #0]
 8003d9c:	019b      	lsls	r3, r3, #6
 8003d9e:	22ff      	movs	r2, #255	@ 0xff
 8003da0:	401a      	ands	r2, r3
 8003da2:	1dfb      	adds	r3, r7, #7
 8003da4:	781b      	ldrb	r3, [r3, #0]
 8003da6:	0018      	movs	r0, r3
 8003da8:	2303      	movs	r3, #3
 8003daa:	4003      	ands	r3, r0
 8003dac:	00db      	lsls	r3, r3, #3
 8003dae:	409a      	lsls	r2, r3
    SCB->SHP[_SHP_IDX(IRQn)] = ((uint32_t)(SCB->SHP[_SHP_IDX(IRQn)] & ~(0xFFUL << _BIT_SHIFT(IRQn))) |
 8003db0:	4809      	ldr	r0, [pc, #36]	@ (8003dd8 <__NVIC_SetPriority+0xd8>)
 8003db2:	1dfb      	adds	r3, r7, #7
 8003db4:	781b      	ldrb	r3, [r3, #0]
 8003db6:	001c      	movs	r4, r3
 8003db8:	230f      	movs	r3, #15
 8003dba:	4023      	ands	r3, r4
 8003dbc:	3b08      	subs	r3, #8
 8003dbe:	089b      	lsrs	r3, r3, #2
 8003dc0:	430a      	orrs	r2, r1
 8003dc2:	3306      	adds	r3, #6
 8003dc4:	009b      	lsls	r3, r3, #2
 8003dc6:	18c3      	adds	r3, r0, r3
 8003dc8:	3304      	adds	r3, #4
 8003dca:	601a      	str	r2, [r3, #0]
}
 8003dcc:	46c0      	nop			@ (mov r8, r8)
 8003dce:	46bd      	mov	sp, r7
 8003dd0:	b003      	add	sp, #12
 8003dd2:	bd90      	pop	{r4, r7, pc}
 8003dd4:	e000e100 	.word	0xe000e100
 8003dd8:	e000ed00 	.word	0xe000ed00

08003ddc <SysTick_Config>:
  \note    When the variable <b>__Vendor_SysTickConfig</b> is set to 1, then the
           function <b>SysTick_Config</b> is not included. In this case, the file <b><i>device</i>.h</b>
           must contain a vendor-specific implementation of this function.
 */
__STATIC_INLINE uint32_t SysTick_Config(uint32_t ticks)
{
 8003ddc:	b580      	push	{r7, lr}
 8003dde:	b082      	sub	sp, #8
 8003de0:	af00      	add	r7, sp, #0
 8003de2:	6078      	str	r0, [r7, #4]
  if ((ticks - 1UL) > SysTick_LOAD_RELOAD_Msk)
 8003de4:	687b      	ldr	r3, [r7, #4]
 8003de6:	1e5a      	subs	r2, r3, #1
 8003de8:	2380      	movs	r3, #128	@ 0x80
 8003dea:	045b      	lsls	r3, r3, #17
 8003dec:	429a      	cmp	r2, r3
 8003dee:	d301      	bcc.n	8003df4 <SysTick_Config+0x18>
  {
    return (1UL);                                                   /* Reload value impossible */
 8003df0:	2301      	movs	r3, #1
 8003df2:	e010      	b.n	8003e16 <SysTick_Config+0x3a>
  }

  SysTick->LOAD  = (uint32_t)(ticks - 1UL);                         /* set reload register */
 8003df4:	4b0a      	ldr	r3, [pc, #40]	@ (8003e20 <SysTick_Config+0x44>)
 8003df6:	687a      	ldr	r2, [r7, #4]
 8003df8:	3a01      	subs	r2, #1
 8003dfa:	605a      	str	r2, [r3, #4]
  NVIC_SetPriority (SysTick_IRQn, (1UL << __NVIC_PRIO_BITS) - 1UL); /* set Priority for Systick Interrupt */
 8003dfc:	2301      	movs	r3, #1
 8003dfe:	425b      	negs	r3, r3
 8003e00:	2103      	movs	r1, #3
 8003e02:	0018      	movs	r0, r3
 8003e04:	f7ff ff7c 	bl	8003d00 <__NVIC_SetPriority>
  SysTick->VAL   = 0UL;                                             /* Load the SysTick Counter Value */
 8003e08:	4b05      	ldr	r3, [pc, #20]	@ (8003e20 <SysTick_Config+0x44>)
 8003e0a:	2200      	movs	r2, #0
 8003e0c:	609a      	str	r2, [r3, #8]
  SysTick->CTRL  = SysTick_CTRL_CLKSOURCE_Msk |
 8003e0e:	4b04      	ldr	r3, [pc, #16]	@ (8003e20 <SysTick_Config+0x44>)
 8003e10:	2207      	movs	r2, #7
 8003e12:	601a      	str	r2, [r3, #0]
                   SysTick_CTRL_TICKINT_Msk   |
                   SysTick_CTRL_ENABLE_Msk;                         /* Enable SysTick IRQ and SysTick Timer */
  return (0UL);                                                     /* Function successful */
 8003e14:	2300      	movs	r3, #0
}
 8003e16:	0018      	movs	r0, r3
 8003e18:	46bd      	mov	sp, r7
 8003e1a:	b002      	add	sp, #8
 8003e1c:	bd80      	pop	{r7, pc}
 8003e1e:	46c0      	nop			@ (mov r8, r8)
 8003e20:	e000e010 	.word	0xe000e010

08003e24 <HAL_NVIC_SetPriority>:
  *         with stm32f0xx devices, this parameter is a dummy value and it is ignored, because 
  *         no subpriority supported in Cortex M0 based products.   
  * @retval None
  */
void HAL_NVIC_SetPriority(IRQn_Type IRQn, uint32_t PreemptPriority, uint32_t SubPriority)
{
 8003e24:	b580      	push	{r7, lr}
 8003e26:	b084      	sub	sp, #16
 8003e28:	af00      	add	r7, sp, #0
 8003e2a:	60b9      	str	r1, [r7, #8]
 8003e2c:	607a      	str	r2, [r7, #4]
 8003e2e:	210f      	movs	r1, #15
 8003e30:	187b      	adds	r3, r7, r1
 8003e32:	1c02      	adds	r2, r0, #0
 8003e34:	701a      	strb	r2, [r3, #0]
  /* Check the parameters */
  assert_param(IS_NVIC_PREEMPTION_PRIORITY(PreemptPriority));
  NVIC_SetPriority(IRQn,PreemptPriority);
 8003e36:	68ba      	ldr	r2, [r7, #8]
 8003e38:	187b      	adds	r3, r7, r1
 8003e3a:	781b      	ldrb	r3, [r3, #0]
 8003e3c:	b25b      	sxtb	r3, r3
 8003e3e:	0011      	movs	r1, r2
 8003e40:	0018      	movs	r0, r3
 8003e42:	f7ff ff5d 	bl	8003d00 <__NVIC_SetPriority>

  /* Prevent unused argument(s) compilation warning */
  UNUSED(SubPriority);
}
 8003e46:	46c0      	nop			@ (mov r8, r8)
 8003e48:	46bd      	mov	sp, r7
 8003e4a:	b004      	add	sp, #16
 8003e4c:	bd80      	pop	{r7, pc}

08003e4e <HAL_NVIC_EnableIRQ>:
  *         This parameter can be an enumerator of IRQn_Type enumeration
  *         (For the complete STM32 Devices IRQ Channels list, please refer to the appropriate CMSIS device file (stm32f0xxxx.h))
  * @retval None
  */
void HAL_NVIC_EnableIRQ(IRQn_Type IRQn)
{
 8003e4e:	b580      	push	{r7, lr}
 8003e50:	b082      	sub	sp, #8
 8003e52:	af00      	add	r7, sp, #0
 8003e54:	0002      	movs	r2, r0
 8003e56:	1dfb      	adds	r3, r7, #7
 8003e58:	701a      	strb	r2, [r3, #0]
  /* Check the parameters */
  assert_param(IS_NVIC_DEVICE_IRQ(IRQn));
  
  /* Enable interrupt */
  NVIC_EnableIRQ(IRQn);
 8003e5a:	1dfb      	adds	r3, r7, #7
 8003e5c:	781b      	ldrb	r3, [r3, #0]
 8003e5e:	b25b      	sxtb	r3, r3
 8003e60:	0018      	movs	r0, r3
 8003e62:	f7ff ff33 	bl	8003ccc <__NVIC_EnableIRQ>
}
 8003e66:	46c0      	nop			@ (mov r8, r8)
 8003e68:	46bd      	mov	sp, r7
 8003e6a:	b002      	add	sp, #8
 8003e6c:	bd80      	pop	{r7, pc}

08003e6e <HAL_SYSTICK_Config>:
  * @param  TicksNumb Specifies the ticks Number of ticks between two interrupts.
  * @retval status:  - 0  Function succeeded.
  *                  - 1  Function failed.
  */
uint32_t HAL_SYSTICK_Config(uint32_t TicksNumb)
{
 8003e6e:	b580      	push	{r7, lr}
 8003e70:	b082      	sub	sp, #8
 8003e72:	af00      	add	r7, sp, #0
 8003e74:	6078      	str	r0, [r7, #4]
   return SysTick_Config(TicksNumb);
 8003e76:	687b      	ldr	r3, [r7, #4]
 8003e78:	0018      	movs	r0, r3
 8003e7a:	f7ff ffaf 	bl	8003ddc <SysTick_Config>
 8003e7e:	0003      	movs	r3, r0
}
 8003e80:	0018      	movs	r0, r3
 8003e82:	46bd      	mov	sp, r7
 8003e84:	b002      	add	sp, #8
 8003e86:	bd80      	pop	{r7, pc}

08003e88 <HAL_FLASH_Program>:
  * @param  Data          Specifie the data to be programmed
  * 
  * @retval HAL_StatusTypeDef HAL Status
  */
HAL_StatusTypeDef HAL_FLASH_Program(uint32_t TypeProgram, uint32_t Address, uint64_t Data)
{
 8003e88:	b5f0      	push	{r4, r5, r6, r7, lr}
 8003e8a:	b087      	sub	sp, #28
 8003e8c:	af00      	add	r7, sp, #0
 8003e8e:	60f8      	str	r0, [r7, #12]
 8003e90:	60b9      	str	r1, [r7, #8]
 8003e92:	603a      	str	r2, [r7, #0]
 8003e94:	607b      	str	r3, [r7, #4]
  HAL_StatusTypeDef status = HAL_ERROR;
 8003e96:	2317      	movs	r3, #23
 8003e98:	18fb      	adds	r3, r7, r3
 8003e9a:	2201      	movs	r2, #1
 8003e9c:	701a      	strb	r2, [r3, #0]
  uint8_t index = 0U;
 8003e9e:	2316      	movs	r3, #22
 8003ea0:	18fb      	adds	r3, r7, r3
 8003ea2:	2200      	movs	r2, #0
 8003ea4:	701a      	strb	r2, [r3, #0]
  uint8_t nbiterations = 0U;
 8003ea6:	2315      	movs	r3, #21
 8003ea8:	18fb      	adds	r3, r7, r3
 8003eaa:	2200      	movs	r2, #0
 8003eac:	701a      	strb	r2, [r3, #0]
  
  /* Process Locked */
  __HAL_LOCK(&pFlash);
 8003eae:	4b3e      	ldr	r3, [pc, #248]	@ (8003fa8 <HAL_FLASH_Program+0x120>)
 8003eb0:	7e1b      	ldrb	r3, [r3, #24]
 8003eb2:	2b01      	cmp	r3, #1
 8003eb4:	d101      	bne.n	8003eba <HAL_FLASH_Program+0x32>
 8003eb6:	2302      	movs	r3, #2
 8003eb8:	e072      	b.n	8003fa0 <HAL_FLASH_Program+0x118>
 8003eba:	4b3b      	ldr	r3, [pc, #236]	@ (8003fa8 <HAL_FLASH_Program+0x120>)
 8003ebc:	2201      	movs	r2, #1
 8003ebe:	761a      	strb	r2, [r3, #24]
  /* Check the parameters */
  assert_param(IS_FLASH_TYPEPROGRAM(TypeProgram));
  assert_param(IS_FLASH_PROGRAM_ADDRESS(Address));

    /* Wait for last operation to be completed */
    status = FLASH_WaitForLastOperation(FLASH_TIMEOUT_VALUE);
 8003ec0:	2317      	movs	r3, #23
 8003ec2:	18fe      	adds	r6, r7, r3
 8003ec4:	4b39      	ldr	r3, [pc, #228]	@ (8003fac <HAL_FLASH_Program+0x124>)
 8003ec6:	0018      	movs	r0, r3
 8003ec8:	f000 f8c4 	bl	8004054 <FLASH_WaitForLastOperation>
 8003ecc:	0003      	movs	r3, r0
 8003ece:	7033      	strb	r3, [r6, #0]
  
  if(status == HAL_OK)
 8003ed0:	2317      	movs	r3, #23
 8003ed2:	18fb      	adds	r3, r7, r3
 8003ed4:	781b      	ldrb	r3, [r3, #0]
 8003ed6:	2b00      	cmp	r3, #0
 8003ed8:	d15c      	bne.n	8003f94 <HAL_FLASH_Program+0x10c>
  {
    if(TypeProgram == FLASH_TYPEPROGRAM_HALFWORD)
 8003eda:	68fb      	ldr	r3, [r7, #12]
 8003edc:	2b01      	cmp	r3, #1
 8003ede:	d104      	bne.n	8003eea <HAL_FLASH_Program+0x62>
    {
      /* Program halfword (16-bit) at a specified address. */
      nbiterations = 1U;
 8003ee0:	2315      	movs	r3, #21
 8003ee2:	18fb      	adds	r3, r7, r3
 8003ee4:	2201      	movs	r2, #1
 8003ee6:	701a      	strb	r2, [r3, #0]
 8003ee8:	e00b      	b.n	8003f02 <HAL_FLASH_Program+0x7a>
    }
    else if(TypeProgram == FLASH_TYPEPROGRAM_WORD)
 8003eea:	68fb      	ldr	r3, [r7, #12]
 8003eec:	2b02      	cmp	r3, #2
 8003eee:	d104      	bne.n	8003efa <HAL_FLASH_Program+0x72>
    {
      /* Program word (32-bit = 2*16-bit) at a specified address. */
      nbiterations = 2U;
 8003ef0:	2315      	movs	r3, #21
 8003ef2:	18fb      	adds	r3, r7, r3
 8003ef4:	2202      	movs	r2, #2
 8003ef6:	701a      	strb	r2, [r3, #0]
 8003ef8:	e003      	b.n	8003f02 <HAL_FLASH_Program+0x7a>
    }
    else
    {
      /* Program double word (64-bit = 4*16-bit) at a specified address. */
      nbiterations = 4U;
 8003efa:	2315      	movs	r3, #21
 8003efc:	18fb      	adds	r3, r7, r3
 8003efe:	2204      	movs	r2, #4
 8003f00:	701a      	strb	r2, [r3, #0]
    }

    for (index = 0U; index < nbiterations; index++)
 8003f02:	2316      	movs	r3, #22
 8003f04:	18fb      	adds	r3, r7, r3
 8003f06:	2200      	movs	r2, #0
 8003f08:	701a      	strb	r2, [r3, #0]
 8003f0a:	e039      	b.n	8003f80 <HAL_FLASH_Program+0xf8>
    {
      FLASH_Program_HalfWord((Address + (2U*index)), (uint16_t)(Data >> (16U*index)));
 8003f0c:	2116      	movs	r1, #22
 8003f0e:	187b      	adds	r3, r7, r1
 8003f10:	781b      	ldrb	r3, [r3, #0]
 8003f12:	005a      	lsls	r2, r3, #1
 8003f14:	68bb      	ldr	r3, [r7, #8]
 8003f16:	18d0      	adds	r0, r2, r3
 8003f18:	187b      	adds	r3, r7, r1
 8003f1a:	781b      	ldrb	r3, [r3, #0]
 8003f1c:	011b      	lsls	r3, r3, #4
 8003f1e:	001a      	movs	r2, r3
 8003f20:	3a20      	subs	r2, #32
 8003f22:	2a00      	cmp	r2, #0
 8003f24:	db03      	blt.n	8003f2e <HAL_FLASH_Program+0xa6>
 8003f26:	6879      	ldr	r1, [r7, #4]
 8003f28:	40d1      	lsrs	r1, r2
 8003f2a:	000c      	movs	r4, r1
 8003f2c:	e008      	b.n	8003f40 <HAL_FLASH_Program+0xb8>
 8003f2e:	2220      	movs	r2, #32
 8003f30:	1ad2      	subs	r2, r2, r3
 8003f32:	6879      	ldr	r1, [r7, #4]
 8003f34:	4091      	lsls	r1, r2
 8003f36:	000a      	movs	r2, r1
 8003f38:	6839      	ldr	r1, [r7, #0]
 8003f3a:	40d9      	lsrs	r1, r3
 8003f3c:	000c      	movs	r4, r1
 8003f3e:	4314      	orrs	r4, r2
 8003f40:	687a      	ldr	r2, [r7, #4]
 8003f42:	40da      	lsrs	r2, r3
 8003f44:	0015      	movs	r5, r2
 8003f46:	b2a3      	uxth	r3, r4
 8003f48:	0019      	movs	r1, r3
 8003f4a:	f000 f867 	bl	800401c <FLASH_Program_HalfWord>

        /* Wait for last operation to be completed */
        status = FLASH_WaitForLastOperation(FLASH_TIMEOUT_VALUE);
 8003f4e:	2317      	movs	r3, #23
 8003f50:	18fe      	adds	r6, r7, r3
 8003f52:	4b16      	ldr	r3, [pc, #88]	@ (8003fac <HAL_FLASH_Program+0x124>)
 8003f54:	0018      	movs	r0, r3
 8003f56:	f000 f87d 	bl	8004054 <FLASH_WaitForLastOperation>
 8003f5a:	0003      	movs	r3, r0
 8003f5c:	7033      	strb	r3, [r6, #0]
    
        /* If the program operation is completed, disable the PG Bit */
        CLEAR_BIT(FLASH->CR, FLASH_CR_PG);
 8003f5e:	4b14      	ldr	r3, [pc, #80]	@ (8003fb0 <HAL_FLASH_Program+0x128>)
 8003f60:	691a      	ldr	r2, [r3, #16]
 8003f62:	4b13      	ldr	r3, [pc, #76]	@ (8003fb0 <HAL_FLASH_Program+0x128>)
 8003f64:	2101      	movs	r1, #1
 8003f66:	438a      	bics	r2, r1
 8003f68:	611a      	str	r2, [r3, #16]
      /* In case of error, stop programming procedure */
      if (status != HAL_OK)
 8003f6a:	2317      	movs	r3, #23
 8003f6c:	18fb      	adds	r3, r7, r3
 8003f6e:	781b      	ldrb	r3, [r3, #0]
 8003f70:	2b00      	cmp	r3, #0
 8003f72:	d10e      	bne.n	8003f92 <HAL_FLASH_Program+0x10a>
    for (index = 0U; index < nbiterations; index++)
 8003f74:	2116      	movs	r1, #22
 8003f76:	187b      	adds	r3, r7, r1
 8003f78:	781a      	ldrb	r2, [r3, #0]
 8003f7a:	187b      	adds	r3, r7, r1
 8003f7c:	3201      	adds	r2, #1
 8003f7e:	701a      	strb	r2, [r3, #0]
 8003f80:	2316      	movs	r3, #22
 8003f82:	18fa      	adds	r2, r7, r3
 8003f84:	2315      	movs	r3, #21
 8003f86:	18fb      	adds	r3, r7, r3
 8003f88:	7812      	ldrb	r2, [r2, #0]
 8003f8a:	781b      	ldrb	r3, [r3, #0]
 8003f8c:	429a      	cmp	r2, r3
 8003f8e:	d3bd      	bcc.n	8003f0c <HAL_FLASH_Program+0x84>
 8003f90:	e000      	b.n	8003f94 <HAL_FLASH_Program+0x10c>
      {
        break;
 8003f92:	46c0      	nop			@ (mov r8, r8)
      }
    }
  }

  /* Process Unlocked */
  __HAL_UNLOCK(&pFlash);
 8003f94:	4b04      	ldr	r3, [pc, #16]	@ (8003fa8 <HAL_FLASH_Program+0x120>)
 8003f96:	2200      	movs	r2, #0
 8003f98:	761a      	strb	r2, [r3, #24]

  return status;
 8003f9a:	2317      	movs	r3, #23
 8003f9c:	18fb      	adds	r3, r7, r3
 8003f9e:	781b      	ldrb	r3, [r3, #0]
}
 8003fa0:	0018      	movs	r0, r3
 8003fa2:	46bd      	mov	sp, r7
 8003fa4:	b007      	add	sp, #28
 8003fa6:	bdf0      	pop	{r4, r5, r6, r7, pc}
 8003fa8:	20000320 	.word	0x20000320
 8003fac:	0000c350 	.word	0x0000c350
 8003fb0:	40022000 	.word	0x40022000

08003fb4 <HAL_FLASH_Unlock>:
/**
  * @brief  Unlock the FLASH control register access
  * @retval HAL Status
  */
HAL_StatusTypeDef HAL_FLASH_Unlock(void)
{
 8003fb4:	b580      	push	{r7, lr}
 8003fb6:	b082      	sub	sp, #8
 8003fb8:	af00      	add	r7, sp, #0
  HAL_StatusTypeDef status = HAL_OK;
 8003fba:	1dfb      	adds	r3, r7, #7
 8003fbc:	2200      	movs	r2, #0
 8003fbe:	701a      	strb	r2, [r3, #0]

  if(READ_BIT(FLASH->CR, FLASH_CR_LOCK) != RESET)
 8003fc0:	4b0c      	ldr	r3, [pc, #48]	@ (8003ff4 <HAL_FLASH_Unlock+0x40>)
 8003fc2:	691b      	ldr	r3, [r3, #16]
 8003fc4:	2280      	movs	r2, #128	@ 0x80
 8003fc6:	4013      	ands	r3, r2
 8003fc8:	d00d      	beq.n	8003fe6 <HAL_FLASH_Unlock+0x32>
  {
    /* Authorize the FLASH Registers access */
    WRITE_REG(FLASH->KEYR, FLASH_KEY1);
 8003fca:	4b0a      	ldr	r3, [pc, #40]	@ (8003ff4 <HAL_FLASH_Unlock+0x40>)
 8003fcc:	4a0a      	ldr	r2, [pc, #40]	@ (8003ff8 <HAL_FLASH_Unlock+0x44>)
 8003fce:	605a      	str	r2, [r3, #4]
    WRITE_REG(FLASH->KEYR, FLASH_KEY2);
 8003fd0:	4b08      	ldr	r3, [pc, #32]	@ (8003ff4 <HAL_FLASH_Unlock+0x40>)
 8003fd2:	4a0a      	ldr	r2, [pc, #40]	@ (8003ffc <HAL_FLASH_Unlock+0x48>)
 8003fd4:	605a      	str	r2, [r3, #4]

    /* Verify Flash is unlocked */
    if(READ_BIT(FLASH->CR, FLASH_CR_LOCK) != RESET)
 8003fd6:	4b07      	ldr	r3, [pc, #28]	@ (8003ff4 <HAL_FLASH_Unlock+0x40>)
 8003fd8:	691b      	ldr	r3, [r3, #16]
 8003fda:	2280      	movs	r2, #128	@ 0x80
 8003fdc:	4013      	ands	r3, r2
 8003fde:	d002      	beq.n	8003fe6 <HAL_FLASH_Unlock+0x32>
    {
      status = HAL_ERROR;
 8003fe0:	1dfb      	adds	r3, r7, #7
 8003fe2:	2201      	movs	r2, #1
 8003fe4:	701a      	strb	r2, [r3, #0]
    }
  }

  return status;
 8003fe6:	1dfb      	adds	r3, r7, #7
 8003fe8:	781b      	ldrb	r3, [r3, #0]
}
 8003fea:	0018      	movs	r0, r3
 8003fec:	46bd      	mov	sp, r7
 8003fee:	b002      	add	sp, #8
 8003ff0:	bd80      	pop	{r7, pc}
 8003ff2:	46c0      	nop			@ (mov r8, r8)
 8003ff4:	40022000 	.word	0x40022000
 8003ff8:	45670123 	.word	0x45670123
 8003ffc:	cdef89ab 	.word	0xcdef89ab

08004000 <HAL_FLASH_Lock>:
/**
  * @brief  Locks the FLASH control register access
  * @retval HAL Status
  */
HAL_StatusTypeDef HAL_FLASH_Lock(void)
{
 8004000:	b580      	push	{r7, lr}
 8004002:	af00      	add	r7, sp, #0
  /* Set the LOCK Bit to lock the FLASH Registers access */
  SET_BIT(FLASH->CR, FLASH_CR_LOCK);
 8004004:	4b04      	ldr	r3, [pc, #16]	@ (8004018 <HAL_FLASH_Lock+0x18>)
 8004006:	691a      	ldr	r2, [r3, #16]
 8004008:	4b03      	ldr	r3, [pc, #12]	@ (8004018 <HAL_FLASH_Lock+0x18>)
 800400a:	2180      	movs	r1, #128	@ 0x80
 800400c:	430a      	orrs	r2, r1
 800400e:	611a      	str	r2, [r3, #16]
  
  return HAL_OK;  
 8004010:	2300      	movs	r3, #0
}
 8004012:	0018      	movs	r0, r3
 8004014:	46bd      	mov	sp, r7
 8004016:	bd80      	pop	{r7, pc}
 8004018:	40022000 	.word	0x40022000

0800401c <FLASH_Program_HalfWord>:
  * @param  Address specify the address to be programmed.
  * @param  Data    specify the data to be programmed.
  * @retval None
  */
static void FLASH_Program_HalfWord(uint32_t Address, uint16_t Data)
{
 800401c:	b580      	push	{r7, lr}
 800401e:	b082      	sub	sp, #8
 8004020:	af00      	add	r7, sp, #0
 8004022:	6078      	str	r0, [r7, #4]
 8004024:	000a      	movs	r2, r1
 8004026:	1cbb      	adds	r3, r7, #2
 8004028:	801a      	strh	r2, [r3, #0]
  /* Clean the error context */
  pFlash.ErrorCode = HAL_FLASH_ERROR_NONE;
 800402a:	4b08      	ldr	r3, [pc, #32]	@ (800404c <FLASH_Program_HalfWord+0x30>)
 800402c:	2200      	movs	r2, #0
 800402e:	61da      	str	r2, [r3, #28]
  
    /* Proceed to program the new data */
    SET_BIT(FLASH->CR, FLASH_CR_PG);
 8004030:	4b07      	ldr	r3, [pc, #28]	@ (8004050 <FLASH_Program_HalfWord+0x34>)
 8004032:	691a      	ldr	r2, [r3, #16]
 8004034:	4b06      	ldr	r3, [pc, #24]	@ (8004050 <FLASH_Program_HalfWord+0x34>)
 8004036:	2101      	movs	r1, #1
 8004038:	430a      	orrs	r2, r1
 800403a:	611a      	str	r2, [r3, #16]

  /* Write data in the address */
  *(__IO uint16_t*)Address = Data;
 800403c:	687b      	ldr	r3, [r7, #4]
 800403e:	1cba      	adds	r2, r7, #2
 8004040:	8812      	ldrh	r2, [r2, #0]
 8004042:	801a      	strh	r2, [r3, #0]
}
 8004044:	46c0      	nop			@ (mov r8, r8)
 8004046:	46bd      	mov	sp, r7
 8004048:	b002      	add	sp, #8
 800404a:	bd80      	pop	{r7, pc}
 800404c:	20000320 	.word	0x20000320
 8004050:	40022000 	.word	0x40022000

08004054 <FLASH_WaitForLastOperation>:
  * @brief  Wait for a FLASH operation to complete.
  * @param  Timeout  maximum flash operation timeout
  * @retval HAL Status
  */
HAL_StatusTypeDef FLASH_WaitForLastOperation(uint32_t Timeout)
{
 8004054:	b580      	push	{r7, lr}
 8004056:	b084      	sub	sp, #16
 8004058:	af00      	add	r7, sp, #0
 800405a:	6078      	str	r0, [r7, #4]
  /* Wait for the FLASH operation to complete by polling on BUSY flag to be reset.
     Even if the FLASH operation fails, the BUSY flag will be reset and an error
     flag will be set */
     
  uint32_t tickstart = HAL_GetTick();
 800405c:	f7ff fe08 	bl	8003c70 <HAL_GetTick>
 8004060:	0003      	movs	r3, r0
 8004062:	60fb      	str	r3, [r7, #12]
     
  while(__HAL_FLASH_GET_FLAG(FLASH_FLAG_BSY)) 
 8004064:	e00f      	b.n	8004086 <FLASH_WaitForLastOperation+0x32>
  { 
    if (Timeout != HAL_MAX_DELAY)
 8004066:	687b      	ldr	r3, [r7, #4]
 8004068:	3301      	adds	r3, #1
 800406a:	d00c      	beq.n	8004086 <FLASH_WaitForLastOperation+0x32>
    {
      if((Timeout == 0U) || ((HAL_GetTick()-tickstart) > Timeout))
 800406c:	687b      	ldr	r3, [r7, #4]
 800406e:	2b00      	cmp	r3, #0
 8004070:	d007      	beq.n	8004082 <FLASH_WaitForLastOperation+0x2e>
 8004072:	f7ff fdfd 	bl	8003c70 <HAL_GetTick>
 8004076:	0002      	movs	r2, r0
 8004078:	68fb      	ldr	r3, [r7, #12]
 800407a:	1ad3      	subs	r3, r2, r3
 800407c:	687a      	ldr	r2, [r7, #4]
 800407e:	429a      	cmp	r2, r3
 8004080:	d201      	bcs.n	8004086 <FLASH_WaitForLastOperation+0x32>
      {
        return HAL_TIMEOUT;
 8004082:	2303      	movs	r3, #3
 8004084:	e01f      	b.n	80040c6 <FLASH_WaitForLastOperation+0x72>
  while(__HAL_FLASH_GET_FLAG(FLASH_FLAG_BSY)) 
 8004086:	4b12      	ldr	r3, [pc, #72]	@ (80040d0 <FLASH_WaitForLastOperation+0x7c>)
 8004088:	68db      	ldr	r3, [r3, #12]
 800408a:	2201      	movs	r2, #1
 800408c:	4013      	ands	r3, r2
 800408e:	2b01      	cmp	r3, #1
 8004090:	d0e9      	beq.n	8004066 <FLASH_WaitForLastOperation+0x12>
      }
    }
  }
  
  /* Check FLASH End of Operation flag  */
  if (__HAL_FLASH_GET_FLAG(FLASH_FLAG_EOP))
 8004092:	4b0f      	ldr	r3, [pc, #60]	@ (80040d0 <FLASH_WaitForLastOperation+0x7c>)
 8004094:	68db      	ldr	r3, [r3, #12]
 8004096:	2220      	movs	r2, #32
 8004098:	4013      	ands	r3, r2
 800409a:	2b20      	cmp	r3, #32
 800409c:	d102      	bne.n	80040a4 <FLASH_WaitForLastOperation+0x50>
  {
    /* Clear FLASH End of Operation pending bit */
    __HAL_FLASH_CLEAR_FLAG(FLASH_FLAG_EOP);
 800409e:	4b0c      	ldr	r3, [pc, #48]	@ (80040d0 <FLASH_WaitForLastOperation+0x7c>)
 80040a0:	2220      	movs	r2, #32
 80040a2:	60da      	str	r2, [r3, #12]
  }
  
  if(__HAL_FLASH_GET_FLAG(FLASH_FLAG_WRPERR)  || 
 80040a4:	4b0a      	ldr	r3, [pc, #40]	@ (80040d0 <FLASH_WaitForLastOperation+0x7c>)
 80040a6:	68db      	ldr	r3, [r3, #12]
 80040a8:	2210      	movs	r2, #16
 80040aa:	4013      	ands	r3, r2
 80040ac:	2b10      	cmp	r3, #16
 80040ae:	d005      	beq.n	80040bc <FLASH_WaitForLastOperation+0x68>
     __HAL_FLASH_GET_FLAG(FLASH_FLAG_PGERR))
 80040b0:	4b07      	ldr	r3, [pc, #28]	@ (80040d0 <FLASH_WaitForLastOperation+0x7c>)
 80040b2:	68db      	ldr	r3, [r3, #12]
 80040b4:	2204      	movs	r2, #4
 80040b6:	4013      	ands	r3, r2
  if(__HAL_FLASH_GET_FLAG(FLASH_FLAG_WRPERR)  || 
 80040b8:	2b04      	cmp	r3, #4
 80040ba:	d103      	bne.n	80040c4 <FLASH_WaitForLastOperation+0x70>
  {
    /*Save the error code*/
    FLASH_SetErrorCode();
 80040bc:	f000 f80a 	bl	80040d4 <FLASH_SetErrorCode>
    return HAL_ERROR;
 80040c0:	2301      	movs	r3, #1
 80040c2:	e000      	b.n	80040c6 <FLASH_WaitForLastOperation+0x72>
  }

  /* There is no error flag set */
  return HAL_OK;
 80040c4:	2300      	movs	r3, #0
}
 80040c6:	0018      	movs	r0, r3
 80040c8:	46bd      	mov	sp, r7
 80040ca:	b004      	add	sp, #16
 80040cc:	bd80      	pop	{r7, pc}
 80040ce:	46c0      	nop			@ (mov r8, r8)
 80040d0:	40022000 	.word	0x40022000

080040d4 <FLASH_SetErrorCode>:
/**
  * @brief  Set the specific FLASH error flag.
  * @retval None
  */
static void FLASH_SetErrorCode(void)
{
 80040d4:	b580      	push	{r7, lr}
 80040d6:	b082      	sub	sp, #8
 80040d8:	af00      	add	r7, sp, #0
  uint32_t flags = 0U;
 80040da:	2300      	movs	r3, #0
 80040dc:	607b      	str	r3, [r7, #4]
  
  if(__HAL_FLASH_GET_FLAG(FLASH_FLAG_WRPERR))
 80040de:	4b13      	ldr	r3, [pc, #76]	@ (800412c <FLASH_SetErrorCode+0x58>)
 80040e0:	68db      	ldr	r3, [r3, #12]
 80040e2:	2210      	movs	r2, #16
 80040e4:	4013      	ands	r3, r2
 80040e6:	2b10      	cmp	r3, #16
 80040e8:	d109      	bne.n	80040fe <FLASH_SetErrorCode+0x2a>
  {
    pFlash.ErrorCode |= HAL_FLASH_ERROR_WRP;
 80040ea:	4b11      	ldr	r3, [pc, #68]	@ (8004130 <FLASH_SetErrorCode+0x5c>)
 80040ec:	69db      	ldr	r3, [r3, #28]
 80040ee:	2202      	movs	r2, #2
 80040f0:	431a      	orrs	r2, r3
 80040f2:	4b0f      	ldr	r3, [pc, #60]	@ (8004130 <FLASH_SetErrorCode+0x5c>)
 80040f4:	61da      	str	r2, [r3, #28]
    flags |= FLASH_FLAG_WRPERR;
 80040f6:	687b      	ldr	r3, [r7, #4]
 80040f8:	2210      	movs	r2, #16
 80040fa:	4313      	orrs	r3, r2
 80040fc:	607b      	str	r3, [r7, #4]
  }
  if(__HAL_FLASH_GET_FLAG(FLASH_FLAG_PGERR))
 80040fe:	4b0b      	ldr	r3, [pc, #44]	@ (800412c <FLASH_SetErrorCode+0x58>)
 8004100:	68db      	ldr	r3, [r3, #12]
 8004102:	2204      	movs	r2, #4
 8004104:	4013      	ands	r3, r2
 8004106:	2b04      	cmp	r3, #4
 8004108:	d109      	bne.n	800411e <FLASH_SetErrorCode+0x4a>
  {
    pFlash.ErrorCode |= HAL_FLASH_ERROR_PROG;
 800410a:	4b09      	ldr	r3, [pc, #36]	@ (8004130 <FLASH_SetErrorCode+0x5c>)
 800410c:	69db      	ldr	r3, [r3, #28]
 800410e:	2201      	movs	r2, #1
 8004110:	431a      	orrs	r2, r3
 8004112:	4b07      	ldr	r3, [pc, #28]	@ (8004130 <FLASH_SetErrorCode+0x5c>)
 8004114:	61da      	str	r2, [r3, #28]
    flags |= FLASH_FLAG_PGERR;
 8004116:	687b      	ldr	r3, [r7, #4]
 8004118:	2204      	movs	r2, #4
 800411a:	4313      	orrs	r3, r2
 800411c:	607b      	str	r3, [r7, #4]
  }
  /* Clear FLASH error pending bits */
  __HAL_FLASH_CLEAR_FLAG(flags);
 800411e:	4b03      	ldr	r3, [pc, #12]	@ (800412c <FLASH_SetErrorCode+0x58>)
 8004120:	687a      	ldr	r2, [r7, #4]
 8004122:	60da      	str	r2, [r3, #12]
}  
 8004124:	46c0      	nop			@ (mov r8, r8)
 8004126:	46bd      	mov	sp, r7
 8004128:	b002      	add	sp, #8
 800412a:	bd80      	pop	{r7, pc}
 800412c:	40022000 	.word	0x40022000
 8004130:	20000320 	.word	0x20000320

08004134 <HAL_FLASHEx_Erase>:
  *         (0xFFFFFFFF means that all the pages have been correctly erased)
  *
  * @retval HAL_StatusTypeDef HAL Status
  */
HAL_StatusTypeDef HAL_FLASHEx_Erase(FLASH_EraseInitTypeDef *pEraseInit, uint32_t *PageError)
{
 8004134:	b5b0      	push	{r4, r5, r7, lr}
 8004136:	b084      	sub	sp, #16
 8004138:	af00      	add	r7, sp, #0
 800413a:	6078      	str	r0, [r7, #4]
 800413c:	6039      	str	r1, [r7, #0]
  HAL_StatusTypeDef status = HAL_ERROR;
 800413e:	230f      	movs	r3, #15
 8004140:	18fb      	adds	r3, r7, r3
 8004142:	2201      	movs	r2, #1
 8004144:	701a      	strb	r2, [r3, #0]
  uint32_t address = 0U;
 8004146:	2300      	movs	r3, #0
 8004148:	60bb      	str	r3, [r7, #8]

  /* Process Locked */
  __HAL_LOCK(&pFlash);
 800414a:	4b32      	ldr	r3, [pc, #200]	@ (8004214 <HAL_FLASHEx_Erase+0xe0>)
 800414c:	7e1b      	ldrb	r3, [r3, #24]
 800414e:	2b01      	cmp	r3, #1
 8004150:	d101      	bne.n	8004156 <HAL_FLASHEx_Erase+0x22>
 8004152:	2302      	movs	r3, #2
 8004154:	e05a      	b.n	800420c <HAL_FLASHEx_Erase+0xd8>
 8004156:	4b2f      	ldr	r3, [pc, #188]	@ (8004214 <HAL_FLASHEx_Erase+0xe0>)
 8004158:	2201      	movs	r2, #1
 800415a:	761a      	strb	r2, [r3, #24]

  /* Check the parameters */
  assert_param(IS_FLASH_TYPEERASE(pEraseInit->TypeErase));

  if (pEraseInit->TypeErase == FLASH_TYPEERASE_MASSERASE)
 800415c:	687b      	ldr	r3, [r7, #4]
 800415e:	681b      	ldr	r3, [r3, #0]
 8004160:	2b01      	cmp	r3, #1
 8004162:	d116      	bne.n	8004192 <HAL_FLASHEx_Erase+0x5e>
  {
      /* Mass Erase requested for Bank1 */
      /* Wait for last operation to be completed */
      if (FLASH_WaitForLastOperation((uint32_t)FLASH_TIMEOUT_VALUE) == HAL_OK)
 8004164:	4b2c      	ldr	r3, [pc, #176]	@ (8004218 <HAL_FLASHEx_Erase+0xe4>)
 8004166:	0018      	movs	r0, r3
 8004168:	f7ff ff74 	bl	8004054 <FLASH_WaitForLastOperation>
 800416c:	1e03      	subs	r3, r0, #0
 800416e:	d147      	bne.n	8004200 <HAL_FLASHEx_Erase+0xcc>
      {
        /*Mass erase to be done*/
        FLASH_MassErase();
 8004170:	f000 f856 	bl	8004220 <FLASH_MassErase>
        
        /* Wait for last operation to be completed */
        status = FLASH_WaitForLastOperation((uint32_t)FLASH_TIMEOUT_VALUE);
 8004174:	230f      	movs	r3, #15
 8004176:	18fc      	adds	r4, r7, r3
 8004178:	4b27      	ldr	r3, [pc, #156]	@ (8004218 <HAL_FLASHEx_Erase+0xe4>)
 800417a:	0018      	movs	r0, r3
 800417c:	f7ff ff6a 	bl	8004054 <FLASH_WaitForLastOperation>
 8004180:	0003      	movs	r3, r0
 8004182:	7023      	strb	r3, [r4, #0]
        
        /* If the erase operation is completed, disable the MER Bit */
        CLEAR_BIT(FLASH->CR, FLASH_CR_MER);
 8004184:	4b25      	ldr	r3, [pc, #148]	@ (800421c <HAL_FLASHEx_Erase+0xe8>)
 8004186:	691a      	ldr	r2, [r3, #16]
 8004188:	4b24      	ldr	r3, [pc, #144]	@ (800421c <HAL_FLASHEx_Erase+0xe8>)
 800418a:	2104      	movs	r1, #4
 800418c:	438a      	bics	r2, r1
 800418e:	611a      	str	r2, [r3, #16]
 8004190:	e036      	b.n	8004200 <HAL_FLASHEx_Erase+0xcc>
    assert_param(IS_FLASH_PROGRAM_ADDRESS(pEraseInit->PageAddress));
    assert_param(IS_FLASH_NB_PAGES(pEraseInit->PageAddress, pEraseInit->NbPages));
    
      /* Page Erase requested on address located on bank1 */
      /* Wait for last operation to be completed */
      if (FLASH_WaitForLastOperation((uint32_t)FLASH_TIMEOUT_VALUE) == HAL_OK)
 8004192:	4b21      	ldr	r3, [pc, #132]	@ (8004218 <HAL_FLASHEx_Erase+0xe4>)
 8004194:	0018      	movs	r0, r3
 8004196:	f7ff ff5d 	bl	8004054 <FLASH_WaitForLastOperation>
 800419a:	1e03      	subs	r3, r0, #0
 800419c:	d130      	bne.n	8004200 <HAL_FLASHEx_Erase+0xcc>
      {
        /*Initialization of PageError variable*/
        *PageError = 0xFFFFFFFFU;
 800419e:	683b      	ldr	r3, [r7, #0]
 80041a0:	2201      	movs	r2, #1
 80041a2:	4252      	negs	r2, r2
 80041a4:	601a      	str	r2, [r3, #0]
        
        /* Erase page by page to be done*/
        for(address = pEraseInit->PageAddress;
 80041a6:	687b      	ldr	r3, [r7, #4]
 80041a8:	685b      	ldr	r3, [r3, #4]
 80041aa:	60bb      	str	r3, [r7, #8]
 80041ac:	e01f      	b.n	80041ee <HAL_FLASHEx_Erase+0xba>
            address < ((pEraseInit->NbPages * FLASH_PAGE_SIZE) + pEraseInit->PageAddress);
            address += FLASH_PAGE_SIZE)
        {
          FLASH_PageErase(address);
 80041ae:	68bb      	ldr	r3, [r7, #8]
 80041b0:	0018      	movs	r0, r3
 80041b2:	f000 f84d 	bl	8004250 <FLASH_PageErase>
          
          /* Wait for last operation to be completed */
          status = FLASH_WaitForLastOperation((uint32_t)FLASH_TIMEOUT_VALUE);
 80041b6:	250f      	movs	r5, #15
 80041b8:	197c      	adds	r4, r7, r5
 80041ba:	4b17      	ldr	r3, [pc, #92]	@ (8004218 <HAL_FLASHEx_Erase+0xe4>)
 80041bc:	0018      	movs	r0, r3
 80041be:	f7ff ff49 	bl	8004054 <FLASH_WaitForLastOperation>
 80041c2:	0003      	movs	r3, r0
 80041c4:	7023      	strb	r3, [r4, #0]
          
          /* If the erase operation is completed, disable the PER Bit */
          CLEAR_BIT(FLASH->CR, FLASH_CR_PER);
 80041c6:	4b15      	ldr	r3, [pc, #84]	@ (800421c <HAL_FLASHEx_Erase+0xe8>)
 80041c8:	691a      	ldr	r2, [r3, #16]
 80041ca:	4b14      	ldr	r3, [pc, #80]	@ (800421c <HAL_FLASHEx_Erase+0xe8>)
 80041cc:	2102      	movs	r1, #2
 80041ce:	438a      	bics	r2, r1
 80041d0:	611a      	str	r2, [r3, #16]
          
          if (status != HAL_OK)
 80041d2:	197b      	adds	r3, r7, r5
 80041d4:	781b      	ldrb	r3, [r3, #0]
 80041d6:	2b00      	cmp	r3, #0
 80041d8:	d003      	beq.n	80041e2 <HAL_FLASHEx_Erase+0xae>
          {
            /* In case of error, stop erase procedure and return the faulty address */
            *PageError = address;
 80041da:	683b      	ldr	r3, [r7, #0]
 80041dc:	68ba      	ldr	r2, [r7, #8]
 80041de:	601a      	str	r2, [r3, #0]
            break;
 80041e0:	e00e      	b.n	8004200 <HAL_FLASHEx_Erase+0xcc>
            address += FLASH_PAGE_SIZE)
 80041e2:	68bb      	ldr	r3, [r7, #8]
 80041e4:	2280      	movs	r2, #128	@ 0x80
 80041e6:	0112      	lsls	r2, r2, #4
 80041e8:	4694      	mov	ip, r2
 80041ea:	4463      	add	r3, ip
 80041ec:	60bb      	str	r3, [r7, #8]
            address < ((pEraseInit->NbPages * FLASH_PAGE_SIZE) + pEraseInit->PageAddress);
 80041ee:	687b      	ldr	r3, [r7, #4]
 80041f0:	689b      	ldr	r3, [r3, #8]
 80041f2:	02da      	lsls	r2, r3, #11
 80041f4:	687b      	ldr	r3, [r7, #4]
 80041f6:	685b      	ldr	r3, [r3, #4]
 80041f8:	18d3      	adds	r3, r2, r3
 80041fa:	68ba      	ldr	r2, [r7, #8]
 80041fc:	429a      	cmp	r2, r3
 80041fe:	d3d6      	bcc.n	80041ae <HAL_FLASHEx_Erase+0x7a>
        }
      }
  }

  /* Process Unlocked */
  __HAL_UNLOCK(&pFlash);
 8004200:	4b04      	ldr	r3, [pc, #16]	@ (8004214 <HAL_FLASHEx_Erase+0xe0>)
 8004202:	2200      	movs	r2, #0
 8004204:	761a      	strb	r2, [r3, #24]

  return status;
 8004206:	230f      	movs	r3, #15
 8004208:	18fb      	adds	r3, r7, r3
 800420a:	781b      	ldrb	r3, [r3, #0]
}
 800420c:	0018      	movs	r0, r3
 800420e:	46bd      	mov	sp, r7
 8004210:	b004      	add	sp, #16
 8004212:	bdb0      	pop	{r4, r5, r7, pc}
 8004214:	20000320 	.word	0x20000320
 8004218:	0000c350 	.word	0x0000c350
 800421c:	40022000 	.word	0x40022000

08004220 <FLASH_MassErase>:
  * @brief  Full erase of FLASH memory Bank 
  *
  * @retval None
  */
static void FLASH_MassErase(void)
{
 8004220:	b580      	push	{r7, lr}
 8004222:	af00      	add	r7, sp, #0
  /* Clean the error context */
  pFlash.ErrorCode = HAL_FLASH_ERROR_NONE;
 8004224:	4b08      	ldr	r3, [pc, #32]	@ (8004248 <FLASH_MassErase+0x28>)
 8004226:	2200      	movs	r2, #0
 8004228:	61da      	str	r2, [r3, #28]

    /* Only bank1 will be erased*/
    SET_BIT(FLASH->CR, FLASH_CR_MER);
 800422a:	4b08      	ldr	r3, [pc, #32]	@ (800424c <FLASH_MassErase+0x2c>)
 800422c:	691a      	ldr	r2, [r3, #16]
 800422e:	4b07      	ldr	r3, [pc, #28]	@ (800424c <FLASH_MassErase+0x2c>)
 8004230:	2104      	movs	r1, #4
 8004232:	430a      	orrs	r2, r1
 8004234:	611a      	str	r2, [r3, #16]
    SET_BIT(FLASH->CR, FLASH_CR_STRT);
 8004236:	4b05      	ldr	r3, [pc, #20]	@ (800424c <FLASH_MassErase+0x2c>)
 8004238:	691a      	ldr	r2, [r3, #16]
 800423a:	4b04      	ldr	r3, [pc, #16]	@ (800424c <FLASH_MassErase+0x2c>)
 800423c:	2140      	movs	r1, #64	@ 0x40
 800423e:	430a      	orrs	r2, r1
 8004240:	611a      	str	r2, [r3, #16]
}
 8004242:	46c0      	nop			@ (mov r8, r8)
 8004244:	46bd      	mov	sp, r7
 8004246:	bd80      	pop	{r7, pc}
 8004248:	20000320 	.word	0x20000320
 800424c:	40022000 	.word	0x40022000

08004250 <FLASH_PageErase>:
  *         The value of this parameter depend on device used within the same series      
  * 
  * @retval None
  */
void FLASH_PageErase(uint32_t PageAddress)
{
 8004250:	b580      	push	{r7, lr}
 8004252:	b082      	sub	sp, #8
 8004254:	af00      	add	r7, sp, #0
 8004256:	6078      	str	r0, [r7, #4]
  /* Clean the error context */
  pFlash.ErrorCode = HAL_FLASH_ERROR_NONE;
 8004258:	4b0a      	ldr	r3, [pc, #40]	@ (8004284 <FLASH_PageErase+0x34>)
 800425a:	2200      	movs	r2, #0
 800425c:	61da      	str	r2, [r3, #28]

    /* Proceed to erase the page */
    SET_BIT(FLASH->CR, FLASH_CR_PER);
 800425e:	4b0a      	ldr	r3, [pc, #40]	@ (8004288 <FLASH_PageErase+0x38>)
 8004260:	691a      	ldr	r2, [r3, #16]
 8004262:	4b09      	ldr	r3, [pc, #36]	@ (8004288 <FLASH_PageErase+0x38>)
 8004264:	2102      	movs	r1, #2
 8004266:	430a      	orrs	r2, r1
 8004268:	611a      	str	r2, [r3, #16]
    WRITE_REG(FLASH->AR, PageAddress);
 800426a:	4b07      	ldr	r3, [pc, #28]	@ (8004288 <FLASH_PageErase+0x38>)
 800426c:	687a      	ldr	r2, [r7, #4]
 800426e:	615a      	str	r2, [r3, #20]
    SET_BIT(FLASH->CR, FLASH_CR_STRT);
 8004270:	4b05      	ldr	r3, [pc, #20]	@ (8004288 <FLASH_PageErase+0x38>)
 8004272:	691a      	ldr	r2, [r3, #16]
 8004274:	4b04      	ldr	r3, [pc, #16]	@ (8004288 <FLASH_PageErase+0x38>)
 8004276:	2140      	movs	r1, #64	@ 0x40
 8004278:	430a      	orrs	r2, r1
 800427a:	611a      	str	r2, [r3, #16]
}
 800427c:	46c0      	nop			@ (mov r8, r8)
 800427e:	46bd      	mov	sp, r7
 8004280:	b002      	add	sp, #8
 8004282:	bd80      	pop	{r7, pc}
 8004284:	20000320 	.word	0x20000320
 8004288:	40022000 	.word	0x40022000

0800428c <HAL_GPIO_Init>:
  * @param  GPIO_Init pointer to a GPIO_InitTypeDef structure that contains
  *         the configuration information for the specified GPIO peripheral.
  * @retval None
  */
void HAL_GPIO_Init(GPIO_TypeDef  *GPIOx, GPIO_InitTypeDef *GPIO_Init)
{
 800428c:	b580      	push	{r7, lr}
 800428e:	b086      	sub	sp, #24
 8004290:	af00      	add	r7, sp, #0
 8004292:	6078      	str	r0, [r7, #4]
 8004294:	6039      	str	r1, [r7, #0]
  uint32_t position = 0x00u;
 8004296:	2300      	movs	r3, #0
 8004298:	617b      	str	r3, [r7, #20]
  assert_param(IS_GPIO_ALL_INSTANCE(GPIOx));
  assert_param(IS_GPIO_PIN(GPIO_Init->Pin));
  assert_param(IS_GPIO_MODE(GPIO_Init->Mode));

  /* Configure the port pins */
  while (((GPIO_Init->Pin) >> position) != 0x00u)
 800429a:	e14f      	b.n	800453c <HAL_GPIO_Init+0x2b0>
  {
    /* Get current io position */
    iocurrent = (GPIO_Init->Pin) & (1uL << position);
 800429c:	683b      	ldr	r3, [r7, #0]
 800429e:	681b      	ldr	r3, [r3, #0]
 80042a0:	2101      	movs	r1, #1
 80042a2:	697a      	ldr	r2, [r7, #20]
 80042a4:	4091      	lsls	r1, r2
 80042a6:	000a      	movs	r2, r1
 80042a8:	4013      	ands	r3, r2
 80042aa:	60fb      	str	r3, [r7, #12]

    if (iocurrent != 0x00u)
 80042ac:	68fb      	ldr	r3, [r7, #12]
 80042ae:	2b00      	cmp	r3, #0
 80042b0:	d100      	bne.n	80042b4 <HAL_GPIO_Init+0x28>
 80042b2:	e140      	b.n	8004536 <HAL_GPIO_Init+0x2aa>
    {
      /*--------------------- GPIO Mode Configuration ------------------------*/
      /* In case of Output or Alternate function mode selection */
      if(((GPIO_Init->Mode & GPIO_MODE) == MODE_OUTPUT) ||
 80042b4:	683b      	ldr	r3, [r7, #0]
 80042b6:	685b      	ldr	r3, [r3, #4]
 80042b8:	2203      	movs	r2, #3
 80042ba:	4013      	ands	r3, r2
 80042bc:	2b01      	cmp	r3, #1
 80042be:	d005      	beq.n	80042cc <HAL_GPIO_Init+0x40>
         ((GPIO_Init->Mode & GPIO_MODE) == MODE_AF))
 80042c0:	683b      	ldr	r3, [r7, #0]
 80042c2:	685b      	ldr	r3, [r3, #4]
 80042c4:	2203      	movs	r2, #3
 80042c6:	4013      	ands	r3, r2
      if(((GPIO_Init->Mode & GPIO_MODE) == MODE_OUTPUT) ||
 80042c8:	2b02      	cmp	r3, #2
 80042ca:	d130      	bne.n	800432e <HAL_GPIO_Init+0xa2>
      {
        /* Check the Speed parameter */
        assert_param(IS_GPIO_SPEED(GPIO_Init->Speed));
        /* Configure the IO Speed */
        temp = GPIOx->OSPEEDR;
 80042cc:	687b      	ldr	r3, [r7, #4]
 80042ce:	689b      	ldr	r3, [r3, #8]
 80042d0:	613b      	str	r3, [r7, #16]
        temp &= ~(GPIO_OSPEEDER_OSPEEDR0 << (position * 2u));
 80042d2:	697b      	ldr	r3, [r7, #20]
 80042d4:	005b      	lsls	r3, r3, #1
 80042d6:	2203      	movs	r2, #3
 80042d8:	409a      	lsls	r2, r3
 80042da:	0013      	movs	r3, r2
 80042dc:	43da      	mvns	r2, r3
 80042de:	693b      	ldr	r3, [r7, #16]
 80042e0:	4013      	ands	r3, r2
 80042e2:	613b      	str	r3, [r7, #16]
        temp |= (GPIO_Init->Speed << (position * 2u));
 80042e4:	683b      	ldr	r3, [r7, #0]
 80042e6:	68da      	ldr	r2, [r3, #12]
 80042e8:	697b      	ldr	r3, [r7, #20]
 80042ea:	005b      	lsls	r3, r3, #1
 80042ec:	409a      	lsls	r2, r3
 80042ee:	0013      	movs	r3, r2
 80042f0:	693a      	ldr	r2, [r7, #16]
 80042f2:	4313      	orrs	r3, r2
 80042f4:	613b      	str	r3, [r7, #16]
        GPIOx->OSPEEDR = temp;
 80042f6:	687b      	ldr	r3, [r7, #4]
 80042f8:	693a      	ldr	r2, [r7, #16]
 80042fa:	609a      	str	r2, [r3, #8]

        /* Configure the IO Output Type */
        temp = GPIOx->OTYPER;
 80042fc:	687b      	ldr	r3, [r7, #4]
 80042fe:	685b      	ldr	r3, [r3, #4]
 8004300:	613b      	str	r3, [r7, #16]
        temp &= ~(GPIO_OTYPER_OT_0 << position) ;
 8004302:	2201      	movs	r2, #1
 8004304:	697b      	ldr	r3, [r7, #20]
 8004306:	409a      	lsls	r2, r3
 8004308:	0013      	movs	r3, r2
 800430a:	43da      	mvns	r2, r3
 800430c:	693b      	ldr	r3, [r7, #16]
 800430e:	4013      	ands	r3, r2
 8004310:	613b      	str	r3, [r7, #16]
        temp |= (((GPIO_Init->Mode & OUTPUT_TYPE) >> OUTPUT_TYPE_Pos) << position);
 8004312:	683b      	ldr	r3, [r7, #0]
 8004314:	685b      	ldr	r3, [r3, #4]
 8004316:	091b      	lsrs	r3, r3, #4
 8004318:	2201      	movs	r2, #1
 800431a:	401a      	ands	r2, r3
 800431c:	697b      	ldr	r3, [r7, #20]
 800431e:	409a      	lsls	r2, r3
 8004320:	0013      	movs	r3, r2
 8004322:	693a      	ldr	r2, [r7, #16]
 8004324:	4313      	orrs	r3, r2
 8004326:	613b      	str	r3, [r7, #16]
        GPIOx->OTYPER = temp;
 8004328:	687b      	ldr	r3, [r7, #4]
 800432a:	693a      	ldr	r2, [r7, #16]
 800432c:	605a      	str	r2, [r3, #4]
      }
      
      if((GPIO_Init->Mode & GPIO_MODE) != MODE_ANALOG)
 800432e:	683b      	ldr	r3, [r7, #0]
 8004330:	685b      	ldr	r3, [r3, #4]
 8004332:	2203      	movs	r2, #3
 8004334:	4013      	ands	r3, r2
 8004336:	2b03      	cmp	r3, #3
 8004338:	d017      	beq.n	800436a <HAL_GPIO_Init+0xde>
      {
        /* Check the Pull parameter */
        assert_param(IS_GPIO_PULL(GPIO_Init->Pull));

        /* Activate the Pull-up or Pull down resistor for the current IO */
        temp = GPIOx->PUPDR;
 800433a:	687b      	ldr	r3, [r7, #4]
 800433c:	68db      	ldr	r3, [r3, #12]
 800433e:	613b      	str	r3, [r7, #16]
        temp &= ~(GPIO_PUPDR_PUPDR0 << (position * 2u));
 8004340:	697b      	ldr	r3, [r7, #20]
 8004342:	005b      	lsls	r3, r3, #1
 8004344:	2203      	movs	r2, #3
 8004346:	409a      	lsls	r2, r3
 8004348:	0013      	movs	r3, r2
 800434a:	43da      	mvns	r2, r3
 800434c:	693b      	ldr	r3, [r7, #16]
 800434e:	4013      	ands	r3, r2
 8004350:	613b      	str	r3, [r7, #16]
        temp |= ((GPIO_Init->Pull) << (position * 2u));
 8004352:	683b      	ldr	r3, [r7, #0]
 8004354:	689a      	ldr	r2, [r3, #8]
 8004356:	697b      	ldr	r3, [r7, #20]
 8004358:	005b      	lsls	r3, r3, #1
 800435a:	409a      	lsls	r2, r3
 800435c:	0013      	movs	r3, r2
 800435e:	693a      	ldr	r2, [r7, #16]
 8004360:	4313      	orrs	r3, r2
 8004362:	613b      	str	r3, [r7, #16]
        GPIOx->PUPDR = temp;
 8004364:	687b      	ldr	r3, [r7, #4]
 8004366:	693a      	ldr	r2, [r7, #16]
 8004368:	60da      	str	r2, [r3, #12]
      }

      /* In case of Alternate function mode selection */
      if((GPIO_Init->Mode & GPIO_MODE) == MODE_AF)
 800436a:	683b      	ldr	r3, [r7, #0]
 800436c:	685b      	ldr	r3, [r3, #4]
 800436e:	2203      	movs	r2, #3
 8004370:	4013      	ands	r3, r2
 8004372:	2b02      	cmp	r3, #2
 8004374:	d123      	bne.n	80043be <HAL_GPIO_Init+0x132>
        /* Check the Alternate function parameters */
        assert_param(IS_GPIO_AF_INSTANCE(GPIOx));
        assert_param(IS_GPIO_AF(GPIO_Init->Alternate));

        /* Configure Alternate function mapped with the current IO */
        temp = GPIOx->AFR[position >> 3u];
 8004376:	697b      	ldr	r3, [r7, #20]
 8004378:	08da      	lsrs	r2, r3, #3
 800437a:	687b      	ldr	r3, [r7, #4]
 800437c:	3208      	adds	r2, #8
 800437e:	0092      	lsls	r2, r2, #2
 8004380:	58d3      	ldr	r3, [r2, r3]
 8004382:	613b      	str	r3, [r7, #16]
        temp &= ~(0xFu << ((position & 0x07u) * 4u));
 8004384:	697b      	ldr	r3, [r7, #20]
 8004386:	2207      	movs	r2, #7
 8004388:	4013      	ands	r3, r2
 800438a:	009b      	lsls	r3, r3, #2
 800438c:	220f      	movs	r2, #15
 800438e:	409a      	lsls	r2, r3
 8004390:	0013      	movs	r3, r2
 8004392:	43da      	mvns	r2, r3
 8004394:	693b      	ldr	r3, [r7, #16]
 8004396:	4013      	ands	r3, r2
 8004398:	613b      	str	r3, [r7, #16]
        temp |= ((GPIO_Init->Alternate) << ((position & 0x07u) * 4u));
 800439a:	683b      	ldr	r3, [r7, #0]
 800439c:	691a      	ldr	r2, [r3, #16]
 800439e:	697b      	ldr	r3, [r7, #20]
 80043a0:	2107      	movs	r1, #7
 80043a2:	400b      	ands	r3, r1
 80043a4:	009b      	lsls	r3, r3, #2
 80043a6:	409a      	lsls	r2, r3
 80043a8:	0013      	movs	r3, r2
 80043aa:	693a      	ldr	r2, [r7, #16]
 80043ac:	4313      	orrs	r3, r2
 80043ae:	613b      	str	r3, [r7, #16]
        GPIOx->AFR[position >> 3u] = temp;
 80043b0:	697b      	ldr	r3, [r7, #20]
 80043b2:	08da      	lsrs	r2, r3, #3
 80043b4:	687b      	ldr	r3, [r7, #4]
 80043b6:	3208      	adds	r2, #8
 80043b8:	0092      	lsls	r2, r2, #2
 80043ba:	6939      	ldr	r1, [r7, #16]
 80043bc:	50d1      	str	r1, [r2, r3]
      }

      /* Configure IO Direction mode (Input, Output, Alternate or Analog) */
      temp = GPIOx->MODER;
 80043be:	687b      	ldr	r3, [r7, #4]
 80043c0:	681b      	ldr	r3, [r3, #0]
 80043c2:	613b      	str	r3, [r7, #16]
      temp &= ~(GPIO_MODER_MODER0 << (position * 2u));
 80043c4:	697b      	ldr	r3, [r7, #20]
 80043c6:	005b      	lsls	r3, r3, #1
 80043c8:	2203      	movs	r2, #3
 80043ca:	409a      	lsls	r2, r3
 80043cc:	0013      	movs	r3, r2
 80043ce:	43da      	mvns	r2, r3
 80043d0:	693b      	ldr	r3, [r7, #16]
 80043d2:	4013      	ands	r3, r2
 80043d4:	613b      	str	r3, [r7, #16]
      temp |= ((GPIO_Init->Mode & GPIO_MODE) << (position * 2u));
 80043d6:	683b      	ldr	r3, [r7, #0]
 80043d8:	685b      	ldr	r3, [r3, #4]
 80043da:	2203      	movs	r2, #3
 80043dc:	401a      	ands	r2, r3
 80043de:	697b      	ldr	r3, [r7, #20]
 80043e0:	005b      	lsls	r3, r3, #1
 80043e2:	409a      	lsls	r2, r3
 80043e4:	0013      	movs	r3, r2
 80043e6:	693a      	ldr	r2, [r7, #16]
 80043e8:	4313      	orrs	r3, r2
 80043ea:	613b      	str	r3, [r7, #16]
      GPIOx->MODER = temp;
 80043ec:	687b      	ldr	r3, [r7, #4]
 80043ee:	693a      	ldr	r2, [r7, #16]
 80043f0:	601a      	str	r2, [r3, #0]

      /*--------------------- EXTI Mode Configuration ------------------------*/
      /* Configure the External Interrupt or event for the current IO */
      if((GPIO_Init->Mode & EXTI_MODE) != 0x00u)
 80043f2:	683b      	ldr	r3, [r7, #0]
 80043f4:	685a      	ldr	r2, [r3, #4]
 80043f6:	23c0      	movs	r3, #192	@ 0xc0
 80043f8:	029b      	lsls	r3, r3, #10
 80043fa:	4013      	ands	r3, r2
 80043fc:	d100      	bne.n	8004400 <HAL_GPIO_Init+0x174>
 80043fe:	e09a      	b.n	8004536 <HAL_GPIO_Init+0x2aa>
      {
        /* Enable SYSCFG Clock */
        __HAL_RCC_SYSCFG_CLK_ENABLE();
 8004400:	4b54      	ldr	r3, [pc, #336]	@ (8004554 <HAL_GPIO_Init+0x2c8>)
 8004402:	699a      	ldr	r2, [r3, #24]
 8004404:	4b53      	ldr	r3, [pc, #332]	@ (8004554 <HAL_GPIO_Init+0x2c8>)
 8004406:	2101      	movs	r1, #1
 8004408:	430a      	orrs	r2, r1
 800440a:	619a      	str	r2, [r3, #24]
 800440c:	4b51      	ldr	r3, [pc, #324]	@ (8004554 <HAL_GPIO_Init+0x2c8>)
 800440e:	699b      	ldr	r3, [r3, #24]
 8004410:	2201      	movs	r2, #1
 8004412:	4013      	ands	r3, r2
 8004414:	60bb      	str	r3, [r7, #8]
 8004416:	68bb      	ldr	r3, [r7, #8]

        temp = SYSCFG->EXTICR[position >> 2u];
 8004418:	4a4f      	ldr	r2, [pc, #316]	@ (8004558 <HAL_GPIO_Init+0x2cc>)
 800441a:	697b      	ldr	r3, [r7, #20]
 800441c:	089b      	lsrs	r3, r3, #2
 800441e:	3302      	adds	r3, #2
 8004420:	009b      	lsls	r3, r3, #2
 8004422:	589b      	ldr	r3, [r3, r2]
 8004424:	613b      	str	r3, [r7, #16]
        temp &= ~(0x0FuL << (4u * (position & 0x03u)));
 8004426:	697b      	ldr	r3, [r7, #20]
 8004428:	2203      	movs	r2, #3
 800442a:	4013      	ands	r3, r2
 800442c:	009b      	lsls	r3, r3, #2
 800442e:	220f      	movs	r2, #15
 8004430:	409a      	lsls	r2, r3
 8004432:	0013      	movs	r3, r2
 8004434:	43da      	mvns	r2, r3
 8004436:	693b      	ldr	r3, [r7, #16]
 8004438:	4013      	ands	r3, r2
 800443a:	613b      	str	r3, [r7, #16]
        temp |= (GPIO_GET_INDEX(GPIOx) << (4u * (position & 0x03u)));
 800443c:	687a      	ldr	r2, [r7, #4]
 800443e:	2390      	movs	r3, #144	@ 0x90
 8004440:	05db      	lsls	r3, r3, #23
 8004442:	429a      	cmp	r2, r3
 8004444:	d013      	beq.n	800446e <HAL_GPIO_Init+0x1e2>
 8004446:	687b      	ldr	r3, [r7, #4]
 8004448:	4a44      	ldr	r2, [pc, #272]	@ (800455c <HAL_GPIO_Init+0x2d0>)
 800444a:	4293      	cmp	r3, r2
 800444c:	d00d      	beq.n	800446a <HAL_GPIO_Init+0x1de>
 800444e:	687b      	ldr	r3, [r7, #4]
 8004450:	4a43      	ldr	r2, [pc, #268]	@ (8004560 <HAL_GPIO_Init+0x2d4>)
 8004452:	4293      	cmp	r3, r2
 8004454:	d007      	beq.n	8004466 <HAL_GPIO_Init+0x1da>
 8004456:	687b      	ldr	r3, [r7, #4]
 8004458:	4a42      	ldr	r2, [pc, #264]	@ (8004564 <HAL_GPIO_Init+0x2d8>)
 800445a:	4293      	cmp	r3, r2
 800445c:	d101      	bne.n	8004462 <HAL_GPIO_Init+0x1d6>
 800445e:	2303      	movs	r3, #3
 8004460:	e006      	b.n	8004470 <HAL_GPIO_Init+0x1e4>
 8004462:	2305      	movs	r3, #5
 8004464:	e004      	b.n	8004470 <HAL_GPIO_Init+0x1e4>
 8004466:	2302      	movs	r3, #2
 8004468:	e002      	b.n	8004470 <HAL_GPIO_Init+0x1e4>
 800446a:	2301      	movs	r3, #1
 800446c:	e000      	b.n	8004470 <HAL_GPIO_Init+0x1e4>
 800446e:	2300      	movs	r3, #0
 8004470:	697a      	ldr	r2, [r7, #20]
 8004472:	2103      	movs	r1, #3
 8004474:	400a      	ands	r2, r1
 8004476:	0092      	lsls	r2, r2, #2
 8004478:	4093      	lsls	r3, r2
 800447a:	693a      	ldr	r2, [r7, #16]
 800447c:	4313      	orrs	r3, r2
 800447e:	613b      	str	r3, [r7, #16]
        SYSCFG->EXTICR[position >> 2u] = temp;
 8004480:	4935      	ldr	r1, [pc, #212]	@ (8004558 <HAL_GPIO_Init+0x2cc>)
 8004482:	697b      	ldr	r3, [r7, #20]
 8004484:	089b      	lsrs	r3, r3, #2
 8004486:	3302      	adds	r3, #2
 8004488:	009b      	lsls	r3, r3, #2
 800448a:	693a      	ldr	r2, [r7, #16]
 800448c:	505a      	str	r2, [r3, r1]

        /* Clear Rising Falling edge configuration */
        temp = EXTI->RTSR;
 800448e:	4b36      	ldr	r3, [pc, #216]	@ (8004568 <HAL_GPIO_Init+0x2dc>)
 8004490:	689b      	ldr	r3, [r3, #8]
 8004492:	613b      	str	r3, [r7, #16]
        temp &= ~(iocurrent);
 8004494:	68fb      	ldr	r3, [r7, #12]
 8004496:	43da      	mvns	r2, r3
 8004498:	693b      	ldr	r3, [r7, #16]
 800449a:	4013      	ands	r3, r2
 800449c:	613b      	str	r3, [r7, #16]
        if((GPIO_Init->Mode & TRIGGER_RISING) != 0x00u)
 800449e:	683b      	ldr	r3, [r7, #0]
 80044a0:	685a      	ldr	r2, [r3, #4]
 80044a2:	2380      	movs	r3, #128	@ 0x80
 80044a4:	035b      	lsls	r3, r3, #13
 80044a6:	4013      	ands	r3, r2
 80044a8:	d003      	beq.n	80044b2 <HAL_GPIO_Init+0x226>
        {
          temp |= iocurrent;
 80044aa:	693a      	ldr	r2, [r7, #16]
 80044ac:	68fb      	ldr	r3, [r7, #12]
 80044ae:	4313      	orrs	r3, r2
 80044b0:	613b      	str	r3, [r7, #16]
        }
        EXTI->RTSR = temp;
 80044b2:	4b2d      	ldr	r3, [pc, #180]	@ (8004568 <HAL_GPIO_Init+0x2dc>)
 80044b4:	693a      	ldr	r2, [r7, #16]
 80044b6:	609a      	str	r2, [r3, #8]

        temp = EXTI->FTSR;
 80044b8:	4b2b      	ldr	r3, [pc, #172]	@ (8004568 <HAL_GPIO_Init+0x2dc>)
 80044ba:	68db      	ldr	r3, [r3, #12]
 80044bc:	613b      	str	r3, [r7, #16]
        temp &= ~(iocurrent);
 80044be:	68fb      	ldr	r3, [r7, #12]
 80044c0:	43da      	mvns	r2, r3
 80044c2:	693b      	ldr	r3, [r7, #16]
 80044c4:	4013      	ands	r3, r2
 80044c6:	613b      	str	r3, [r7, #16]
        if((GPIO_Init->Mode & TRIGGER_FALLING) != 0x00u)
 80044c8:	683b      	ldr	r3, [r7, #0]
 80044ca:	685a      	ldr	r2, [r3, #4]
 80044cc:	2380      	movs	r3, #128	@ 0x80
 80044ce:	039b      	lsls	r3, r3, #14
 80044d0:	4013      	ands	r3, r2
 80044d2:	d003      	beq.n	80044dc <HAL_GPIO_Init+0x250>
        {
          temp |= iocurrent;
 80044d4:	693a      	ldr	r2, [r7, #16]
 80044d6:	68fb      	ldr	r3, [r7, #12]
 80044d8:	4313      	orrs	r3, r2
 80044da:	613b      	str	r3, [r7, #16]
        }
        EXTI->FTSR = temp;
 80044dc:	4b22      	ldr	r3, [pc, #136]	@ (8004568 <HAL_GPIO_Init+0x2dc>)
 80044de:	693a      	ldr	r2, [r7, #16]
 80044e0:	60da      	str	r2, [r3, #12]

        /* Clear EXTI line configuration */
        temp = EXTI->EMR;
 80044e2:	4b21      	ldr	r3, [pc, #132]	@ (8004568 <HAL_GPIO_Init+0x2dc>)
 80044e4:	685b      	ldr	r3, [r3, #4]
 80044e6:	613b      	str	r3, [r7, #16]
        temp &= ~(iocurrent);
 80044e8:	68fb      	ldr	r3, [r7, #12]
 80044ea:	43da      	mvns	r2, r3
 80044ec:	693b      	ldr	r3, [r7, #16]
 80044ee:	4013      	ands	r3, r2
 80044f0:	613b      	str	r3, [r7, #16]
        if((GPIO_Init->Mode & EXTI_EVT) != 0x00u)
 80044f2:	683b      	ldr	r3, [r7, #0]
 80044f4:	685a      	ldr	r2, [r3, #4]
 80044f6:	2380      	movs	r3, #128	@ 0x80
 80044f8:	029b      	lsls	r3, r3, #10
 80044fa:	4013      	ands	r3, r2
 80044fc:	d003      	beq.n	8004506 <HAL_GPIO_Init+0x27a>
        {
          temp |= iocurrent;
 80044fe:	693a      	ldr	r2, [r7, #16]
 8004500:	68fb      	ldr	r3, [r7, #12]
 8004502:	4313      	orrs	r3, r2
 8004504:	613b      	str	r3, [r7, #16]
        }
        EXTI->EMR = temp;
 8004506:	4b18      	ldr	r3, [pc, #96]	@ (8004568 <HAL_GPIO_Init+0x2dc>)
 8004508:	693a      	ldr	r2, [r7, #16]
 800450a:	605a      	str	r2, [r3, #4]

        temp = EXTI->IMR;
 800450c:	4b16      	ldr	r3, [pc, #88]	@ (8004568 <HAL_GPIO_Init+0x2dc>)
 800450e:	681b      	ldr	r3, [r3, #0]
 8004510:	613b      	str	r3, [r7, #16]
        temp &= ~(iocurrent);
 8004512:	68fb      	ldr	r3, [r7, #12]
 8004514:	43da      	mvns	r2, r3
 8004516:	693b      	ldr	r3, [r7, #16]
 8004518:	4013      	ands	r3, r2
 800451a:	613b      	str	r3, [r7, #16]
        if((GPIO_Init->Mode & EXTI_IT) != 0x00u)
 800451c:	683b      	ldr	r3, [r7, #0]
 800451e:	685a      	ldr	r2, [r3, #4]
 8004520:	2380      	movs	r3, #128	@ 0x80
 8004522:	025b      	lsls	r3, r3, #9
 8004524:	4013      	ands	r3, r2
 8004526:	d003      	beq.n	8004530 <HAL_GPIO_Init+0x2a4>
        {
          temp |= iocurrent;
 8004528:	693a      	ldr	r2, [r7, #16]
 800452a:	68fb      	ldr	r3, [r7, #12]
 800452c:	4313      	orrs	r3, r2
 800452e:	613b      	str	r3, [r7, #16]
        }
        EXTI->IMR = temp;
 8004530:	4b0d      	ldr	r3, [pc, #52]	@ (8004568 <HAL_GPIO_Init+0x2dc>)
 8004532:	693a      	ldr	r2, [r7, #16]
 8004534:	601a      	str	r2, [r3, #0]
      }
    }

    position++;
 8004536:	697b      	ldr	r3, [r7, #20]
 8004538:	3301      	adds	r3, #1
 800453a:	617b      	str	r3, [r7, #20]
  while (((GPIO_Init->Pin) >> position) != 0x00u)
 800453c:	683b      	ldr	r3, [r7, #0]
 800453e:	681a      	ldr	r2, [r3, #0]
 8004540:	697b      	ldr	r3, [r7, #20]
 8004542:	40da      	lsrs	r2, r3
 8004544:	1e13      	subs	r3, r2, #0
 8004546:	d000      	beq.n	800454a <HAL_GPIO_Init+0x2be>
 8004548:	e6a8      	b.n	800429c <HAL_GPIO_Init+0x10>
  } 
}
 800454a:	46c0      	nop			@ (mov r8, r8)
 800454c:	46c0      	nop			@ (mov r8, r8)
 800454e:	46bd      	mov	sp, r7
 8004550:	b006      	add	sp, #24
 8004552:	bd80      	pop	{r7, pc}
 8004554:	40021000 	.word	0x40021000
 8004558:	40010000 	.word	0x40010000
 800455c:	48000400 	.word	0x48000400
 8004560:	48000800 	.word	0x48000800
 8004564:	48000c00 	.word	0x48000c00
 8004568:	40010400 	.word	0x40010400

0800456c <HAL_GPIO_ReadPin>:
  * @param  GPIO_Pin specifies the port bit to read.
  *         This parameter can be GPIO_PIN_x where x can be (0..15).
  * @retval The input port pin value.
  */
GPIO_PinState HAL_GPIO_ReadPin(GPIO_TypeDef* GPIOx, uint16_t GPIO_Pin)
{
 800456c:	b580      	push	{r7, lr}
 800456e:	b084      	sub	sp, #16
 8004570:	af00      	add	r7, sp, #0
 8004572:	6078      	str	r0, [r7, #4]
 8004574:	000a      	movs	r2, r1
 8004576:	1cbb      	adds	r3, r7, #2
 8004578:	801a      	strh	r2, [r3, #0]
  GPIO_PinState bitstatus;

  /* Check the parameters */
  assert_param(IS_GPIO_PIN(GPIO_Pin));

  if ((GPIOx->IDR & GPIO_Pin) != (uint32_t)GPIO_PIN_RESET)
 800457a:	687b      	ldr	r3, [r7, #4]
 800457c:	691b      	ldr	r3, [r3, #16]
 800457e:	1cba      	adds	r2, r7, #2
 8004580:	8812      	ldrh	r2, [r2, #0]
 8004582:	4013      	ands	r3, r2
 8004584:	d004      	beq.n	8004590 <HAL_GPIO_ReadPin+0x24>
  {
    bitstatus = GPIO_PIN_SET;
 8004586:	230f      	movs	r3, #15
 8004588:	18fb      	adds	r3, r7, r3
 800458a:	2201      	movs	r2, #1
 800458c:	701a      	strb	r2, [r3, #0]
 800458e:	e003      	b.n	8004598 <HAL_GPIO_ReadPin+0x2c>
  }
  else
  {
    bitstatus = GPIO_PIN_RESET;
 8004590:	230f      	movs	r3, #15
 8004592:	18fb      	adds	r3, r7, r3
 8004594:	2200      	movs	r2, #0
 8004596:	701a      	strb	r2, [r3, #0]
  }
  return bitstatus;
 8004598:	230f      	movs	r3, #15
 800459a:	18fb      	adds	r3, r7, r3
 800459c:	781b      	ldrb	r3, [r3, #0]
  }
 800459e:	0018      	movs	r0, r3
 80045a0:	46bd      	mov	sp, r7
 80045a2:	b004      	add	sp, #16
 80045a4:	bd80      	pop	{r7, pc}

080045a6 <HAL_GPIO_WritePin>:
  *            @arg GPIO_PIN_RESET: to clear the port pin
  *            @arg GPIO_PIN_SET: to set the port pin
  * @retval None
  */
void HAL_GPIO_WritePin(GPIO_TypeDef* GPIOx, uint16_t GPIO_Pin, GPIO_PinState PinState)
{
 80045a6:	b580      	push	{r7, lr}
 80045a8:	b082      	sub	sp, #8
 80045aa:	af00      	add	r7, sp, #0
 80045ac:	6078      	str	r0, [r7, #4]
 80045ae:	0008      	movs	r0, r1
 80045b0:	0011      	movs	r1, r2
 80045b2:	1cbb      	adds	r3, r7, #2
 80045b4:	1c02      	adds	r2, r0, #0
 80045b6:	801a      	strh	r2, [r3, #0]
 80045b8:	1c7b      	adds	r3, r7, #1
 80045ba:	1c0a      	adds	r2, r1, #0
 80045bc:	701a      	strb	r2, [r3, #0]
  /* Check the parameters */
  assert_param(IS_GPIO_PIN(GPIO_Pin));
  assert_param(IS_GPIO_PIN_ACTION(PinState));

  if (PinState != GPIO_PIN_RESET)
 80045be:	1c7b      	adds	r3, r7, #1
 80045c0:	781b      	ldrb	r3, [r3, #0]
 80045c2:	2b00      	cmp	r3, #0
 80045c4:	d004      	beq.n	80045d0 <HAL_GPIO_WritePin+0x2a>
  {
    GPIOx->BSRR = (uint32_t)GPIO_Pin;
 80045c6:	1cbb      	adds	r3, r7, #2
 80045c8:	881a      	ldrh	r2, [r3, #0]
 80045ca:	687b      	ldr	r3, [r7, #4]
 80045cc:	619a      	str	r2, [r3, #24]
  }
  else
  {
    GPIOx->BRR = (uint32_t)GPIO_Pin;
  }
}
 80045ce:	e003      	b.n	80045d8 <HAL_GPIO_WritePin+0x32>
    GPIOx->BRR = (uint32_t)GPIO_Pin;
 80045d0:	1cbb      	adds	r3, r7, #2
 80045d2:	881a      	ldrh	r2, [r3, #0]
 80045d4:	687b      	ldr	r3, [r7, #4]
 80045d6:	629a      	str	r2, [r3, #40]	@ 0x28
}
 80045d8:	46c0      	nop			@ (mov r8, r8)
 80045da:	46bd      	mov	sp, r7
 80045dc:	b002      	add	sp, #8
 80045de:	bd80      	pop	{r7, pc}

080045e0 <HAL_GPIO_EXTI_IRQHandler>:
  * @brief  Handle EXTI interrupt request.
  * @param  GPIO_Pin Specifies the port pin connected to corresponding EXTI line.
  * @retval None
  */
void HAL_GPIO_EXTI_IRQHandler(uint16_t GPIO_Pin)
{
 80045e0:	b580      	push	{r7, lr}
 80045e2:	b082      	sub	sp, #8
 80045e4:	af00      	add	r7, sp, #0
 80045e6:	0002      	movs	r2, r0
 80045e8:	1dbb      	adds	r3, r7, #6
 80045ea:	801a      	strh	r2, [r3, #0]
  /* EXTI line interrupt detected */
  if(__HAL_GPIO_EXTI_GET_IT(GPIO_Pin) != 0x00u)
 80045ec:	4b09      	ldr	r3, [pc, #36]	@ (8004614 <HAL_GPIO_EXTI_IRQHandler+0x34>)
 80045ee:	695b      	ldr	r3, [r3, #20]
 80045f0:	1dba      	adds	r2, r7, #6
 80045f2:	8812      	ldrh	r2, [r2, #0]
 80045f4:	4013      	ands	r3, r2
 80045f6:	d008      	beq.n	800460a <HAL_GPIO_EXTI_IRQHandler+0x2a>
  { 
    __HAL_GPIO_EXTI_CLEAR_IT(GPIO_Pin);
 80045f8:	4b06      	ldr	r3, [pc, #24]	@ (8004614 <HAL_GPIO_EXTI_IRQHandler+0x34>)
 80045fa:	1dba      	adds	r2, r7, #6
 80045fc:	8812      	ldrh	r2, [r2, #0]
 80045fe:	615a      	str	r2, [r3, #20]
    HAL_GPIO_EXTI_Callback(GPIO_Pin);
 8004600:	1dbb      	adds	r3, r7, #6
 8004602:	881b      	ldrh	r3, [r3, #0]
 8004604:	0018      	movs	r0, r3
 8004606:	f000 f807 	bl	8004618 <HAL_GPIO_EXTI_Callback>
  }
}
 800460a:	46c0      	nop			@ (mov r8, r8)
 800460c:	46bd      	mov	sp, r7
 800460e:	b002      	add	sp, #8
 8004610:	bd80      	pop	{r7, pc}
 8004612:	46c0      	nop			@ (mov r8, r8)
 8004614:	40010400 	.word	0x40010400

08004618 <HAL_GPIO_EXTI_Callback>:
  * @brief  EXTI line detection callback.
  * @param  GPIO_Pin Specifies the port pin connected to corresponding EXTI line.
  * @retval None
  */
__weak void HAL_GPIO_EXTI_Callback(uint16_t GPIO_Pin)
{
 8004618:	b580      	push	{r7, lr}
 800461a:	b082      	sub	sp, #8
 800461c:	af00      	add	r7, sp, #0
 800461e:	0002      	movs	r2, r0
 8004620:	1dbb      	adds	r3, r7, #6
 8004622:	801a      	strh	r2, [r3, #0]
  UNUSED(GPIO_Pin);

  /* NOTE: This function should not be modified, when the callback is needed,
            the HAL_GPIO_EXTI_Callback could be implemented in the user file
   */ 
}
 8004624:	46c0      	nop			@ (mov r8, r8)
 8004626:	46bd      	mov	sp, r7
 8004628:	b002      	add	sp, #8
 800462a:	bd80      	pop	{r7, pc}

0800462c <HAL_IWDG_Init>:
  * @param  hiwdg  pointer to a IWDG_HandleTypeDef structure that contains
  *                the configuration information for the specified IWDG module.
  * @retval HAL status
  */
HAL_StatusTypeDef HAL_IWDG_Init(IWDG_HandleTypeDef *hiwdg)
{
 800462c:	b580      	push	{r7, lr}
 800462e:	b084      	sub	sp, #16
 8004630:	af00      	add	r7, sp, #0
 8004632:	6078      	str	r0, [r7, #4]
  uint32_t tickstart;

  /* Check the IWDG handle allocation */
  if (hiwdg == NULL)
 8004634:	687b      	ldr	r3, [r7, #4]
 8004636:	2b00      	cmp	r3, #0
 8004638:	d101      	bne.n	800463e <HAL_IWDG_Init+0x12>
  {
    return HAL_ERROR;
 800463a:	2301      	movs	r3, #1
 800463c:	e03d      	b.n	80046ba <HAL_IWDG_Init+0x8e>
  assert_param(IS_IWDG_PRESCALER(hiwdg->Init.Prescaler));
  assert_param(IS_IWDG_RELOAD(hiwdg->Init.Reload));
  assert_param(IS_IWDG_WINDOW(hiwdg->Init.Window));

  /* Enable IWDG. LSI is turned on automatically */
  __HAL_IWDG_START(hiwdg);
 800463e:	687b      	ldr	r3, [r7, #4]
 8004640:	681b      	ldr	r3, [r3, #0]
 8004642:	4a20      	ldr	r2, [pc, #128]	@ (80046c4 <HAL_IWDG_Init+0x98>)
 8004644:	601a      	str	r2, [r3, #0]

  /* Enable write access to IWDG_PR, IWDG_RLR and IWDG_WINR registers by writing
  0x5555 in KR */
  IWDG_ENABLE_WRITE_ACCESS(hiwdg);
 8004646:	687b      	ldr	r3, [r7, #4]
 8004648:	681b      	ldr	r3, [r3, #0]
 800464a:	4a1f      	ldr	r2, [pc, #124]	@ (80046c8 <HAL_IWDG_Init+0x9c>)
 800464c:	601a      	str	r2, [r3, #0]

  /* Write to IWDG registers the Prescaler & Reload values to work with */
  hiwdg->Instance->PR = hiwdg->Init.Prescaler;
 800464e:	687b      	ldr	r3, [r7, #4]
 8004650:	681b      	ldr	r3, [r3, #0]
 8004652:	687a      	ldr	r2, [r7, #4]
 8004654:	6852      	ldr	r2, [r2, #4]
 8004656:	605a      	str	r2, [r3, #4]
  hiwdg->Instance->RLR = hiwdg->Init.Reload;
 8004658:	687b      	ldr	r3, [r7, #4]
 800465a:	681b      	ldr	r3, [r3, #0]
 800465c:	687a      	ldr	r2, [r7, #4]
 800465e:	6892      	ldr	r2, [r2, #8]
 8004660:	609a      	str	r2, [r3, #8]

  /* Check pending flag, if previous update not done, return timeout */
  tickstart = HAL_GetTick();
 8004662:	f7ff fb05 	bl	8003c70 <HAL_GetTick>
 8004666:	0003      	movs	r3, r0
 8004668:	60fb      	str	r3, [r7, #12]

  /* Wait for register to be updated */
  while ((hiwdg->Instance->SR & IWDG_KERNEL_UPDATE_FLAGS) != 0x00u)
 800466a:	e00e      	b.n	800468a <HAL_IWDG_Init+0x5e>
  {
    if ((HAL_GetTick() - tickstart) > HAL_IWDG_DEFAULT_TIMEOUT)
 800466c:	f7ff fb00 	bl	8003c70 <HAL_GetTick>
 8004670:	0002      	movs	r2, r0
 8004672:	68fb      	ldr	r3, [r7, #12]
 8004674:	1ad3      	subs	r3, r2, r3
 8004676:	2b27      	cmp	r3, #39	@ 0x27
 8004678:	d907      	bls.n	800468a <HAL_IWDG_Init+0x5e>
    {
      if ((hiwdg->Instance->SR & IWDG_KERNEL_UPDATE_FLAGS) != 0x00u)
 800467a:	687b      	ldr	r3, [r7, #4]
 800467c:	681b      	ldr	r3, [r3, #0]
 800467e:	68db      	ldr	r3, [r3, #12]
 8004680:	2207      	movs	r2, #7
 8004682:	4013      	ands	r3, r2
 8004684:	d001      	beq.n	800468a <HAL_IWDG_Init+0x5e>
      {
        return HAL_TIMEOUT;
 8004686:	2303      	movs	r3, #3
 8004688:	e017      	b.n	80046ba <HAL_IWDG_Init+0x8e>
  while ((hiwdg->Instance->SR & IWDG_KERNEL_UPDATE_FLAGS) != 0x00u)
 800468a:	687b      	ldr	r3, [r7, #4]
 800468c:	681b      	ldr	r3, [r3, #0]
 800468e:	68db      	ldr	r3, [r3, #12]
 8004690:	2207      	movs	r2, #7
 8004692:	4013      	ands	r3, r2
 8004694:	d1ea      	bne.n	800466c <HAL_IWDG_Init+0x40>
    }
  }

  /* If window parameter is different than current value, modify window
  register */
  if (hiwdg->Instance->WINR != hiwdg->Init.Window)
 8004696:	687b      	ldr	r3, [r7, #4]
 8004698:	681b      	ldr	r3, [r3, #0]
 800469a:	691a      	ldr	r2, [r3, #16]
 800469c:	687b      	ldr	r3, [r7, #4]
 800469e:	68db      	ldr	r3, [r3, #12]
 80046a0:	429a      	cmp	r2, r3
 80046a2:	d005      	beq.n	80046b0 <HAL_IWDG_Init+0x84>
  {
    /* Write to IWDG WINR the IWDG_Window value to compare with. In any case,
    even if window feature is disabled, Watchdog will be reloaded by writing
    windows register */
    hiwdg->Instance->WINR = hiwdg->Init.Window;
 80046a4:	687b      	ldr	r3, [r7, #4]
 80046a6:	681b      	ldr	r3, [r3, #0]
 80046a8:	687a      	ldr	r2, [r7, #4]
 80046aa:	68d2      	ldr	r2, [r2, #12]
 80046ac:	611a      	str	r2, [r3, #16]
 80046ae:	e003      	b.n	80046b8 <HAL_IWDG_Init+0x8c>
  }
  else
  {
    /* Reload IWDG counter with value defined in the reload register */
    __HAL_IWDG_RELOAD_COUNTER(hiwdg);
 80046b0:	687b      	ldr	r3, [r7, #4]
 80046b2:	681b      	ldr	r3, [r3, #0]
 80046b4:	4a05      	ldr	r2, [pc, #20]	@ (80046cc <HAL_IWDG_Init+0xa0>)
 80046b6:	601a      	str	r2, [r3, #0]
  }

  /* Return function status */
  return HAL_OK;
 80046b8:	2300      	movs	r3, #0
}
 80046ba:	0018      	movs	r0, r3
 80046bc:	46bd      	mov	sp, r7
 80046be:	b004      	add	sp, #16
 80046c0:	bd80      	pop	{r7, pc}
 80046c2:	46c0      	nop			@ (mov r8, r8)
 80046c4:	0000cccc 	.word	0x0000cccc
 80046c8:	00005555 	.word	0x00005555
 80046cc:	0000aaaa 	.word	0x0000aaaa

080046d0 <HAL_IWDG_Refresh>:
  * @param  hiwdg  pointer to a IWDG_HandleTypeDef structure that contains
  *                the configuration information for the specified IWDG module.
  * @retval HAL status
  */
HAL_StatusTypeDef HAL_IWDG_Refresh(IWDG_HandleTypeDef *hiwdg)
{
 80046d0:	b580      	push	{r7, lr}
 80046d2:	b082      	sub	sp, #8
 80046d4:	af00      	add	r7, sp, #0
 80046d6:	6078      	str	r0, [r7, #4]
  /* Reload IWDG counter with value defined in the reload register */
  __HAL_IWDG_RELOAD_COUNTER(hiwdg);
 80046d8:	687b      	ldr	r3, [r7, #4]
 80046da:	681b      	ldr	r3, [r3, #0]
 80046dc:	4a03      	ldr	r2, [pc, #12]	@ (80046ec <HAL_IWDG_Refresh+0x1c>)
 80046de:	601a      	str	r2, [r3, #0]

  /* Return function status */
  return HAL_OK;
 80046e0:	2300      	movs	r3, #0
}
 80046e2:	0018      	movs	r0, r3
 80046e4:	46bd      	mov	sp, r7
 80046e6:	b002      	add	sp, #8
 80046e8:	bd80      	pop	{r7, pc}
 80046ea:	46c0      	nop			@ (mov r8, r8)
 80046ec:	0000aaaa 	.word	0x0000aaaa

080046f0 <HAL_RCC_DeInit>:
  *            - Peripheral clocks
  *            - LSI, LSE and RTC clocks
  * @retval HAL status
  */
HAL_StatusTypeDef HAL_RCC_DeInit(void)
{
 80046f0:	b580      	push	{r7, lr}
 80046f2:	b082      	sub	sp, #8
 80046f4:	af00      	add	r7, sp, #0
  uint32_t tickstart;

  /* Get Start Tick*/
  tickstart = HAL_GetTick();
 80046f6:	f7ff fabb 	bl	8003c70 <HAL_GetTick>
 80046fa:	0003      	movs	r3, r0
 80046fc:	607b      	str	r3, [r7, #4]
  
  /* Set HSION bit, HSITRIM[4:0] bits to the reset value*/
  SET_BIT(RCC->CR, RCC_CR_HSION | RCC_CR_HSITRIM_4); 
 80046fe:	4b37      	ldr	r3, [pc, #220]	@ (80047dc <HAL_RCC_DeInit+0xec>)
 8004700:	681a      	ldr	r2, [r3, #0]
 8004702:	4b36      	ldr	r3, [pc, #216]	@ (80047dc <HAL_RCC_DeInit+0xec>)
 8004704:	2181      	movs	r1, #129	@ 0x81
 8004706:	430a      	orrs	r2, r1
 8004708:	601a      	str	r2, [r3, #0]

  /* Wait till HSI is ready */
  while (READ_BIT(RCC->CR, RCC_CR_HSIRDY) == RESET)
 800470a:	e008      	b.n	800471e <HAL_RCC_DeInit+0x2e>
  {
    if ((HAL_GetTick() - tickstart) > HSI_TIMEOUT_VALUE)
 800470c:	f7ff fab0 	bl	8003c70 <HAL_GetTick>
 8004710:	0002      	movs	r2, r0
 8004712:	687b      	ldr	r3, [r7, #4]
 8004714:	1ad3      	subs	r3, r2, r3
 8004716:	2b02      	cmp	r3, #2
 8004718:	d901      	bls.n	800471e <HAL_RCC_DeInit+0x2e>
    {
      return HAL_TIMEOUT;
 800471a:	2303      	movs	r3, #3
 800471c:	e05a      	b.n	80047d4 <HAL_RCC_DeInit+0xe4>
  while (READ_BIT(RCC->CR, RCC_CR_HSIRDY) == RESET)
 800471e:	4b2f      	ldr	r3, [pc, #188]	@ (80047dc <HAL_RCC_DeInit+0xec>)
 8004720:	681b      	ldr	r3, [r3, #0]
 8004722:	2202      	movs	r2, #2
 8004724:	4013      	ands	r3, r2
 8004726:	d0f1      	beq.n	800470c <HAL_RCC_DeInit+0x1c>
    }
  }

  /* Reset SW[1:0], HPRE[3:0], PPRE[2:0] and MCOSEL[2:0] bits */
  CLEAR_BIT(RCC->CFGR, RCC_CFGR_SW | RCC_CFGR_HPRE | RCC_CFGR_PPRE | RCC_CFGR_MCO);
 8004728:	4b2c      	ldr	r3, [pc, #176]	@ (80047dc <HAL_RCC_DeInit+0xec>)
 800472a:	685a      	ldr	r2, [r3, #4]
 800472c:	4b2b      	ldr	r3, [pc, #172]	@ (80047dc <HAL_RCC_DeInit+0xec>)
 800472e:	492c      	ldr	r1, [pc, #176]	@ (80047e0 <HAL_RCC_DeInit+0xf0>)
 8004730:	400a      	ands	r2, r1
 8004732:	605a      	str	r2, [r3, #4]

  /* Wait till HSI as SYSCLK status is enabled */
  while (READ_BIT(RCC->CFGR, RCC_CFGR_SWS) != RESET)
 8004734:	e009      	b.n	800474a <HAL_RCC_DeInit+0x5a>
  {
    if ((HAL_GetTick() - tickstart) > CLOCKSWITCH_TIMEOUT_VALUE)
 8004736:	f7ff fa9b 	bl	8003c70 <HAL_GetTick>
 800473a:	0002      	movs	r2, r0
 800473c:	687b      	ldr	r3, [r7, #4]
 800473e:	1ad3      	subs	r3, r2, r3
 8004740:	4a28      	ldr	r2, [pc, #160]	@ (80047e4 <HAL_RCC_DeInit+0xf4>)
 8004742:	4293      	cmp	r3, r2
 8004744:	d901      	bls.n	800474a <HAL_RCC_DeInit+0x5a>
    {
      return HAL_TIMEOUT;
 8004746:	2303      	movs	r3, #3
 8004748:	e044      	b.n	80047d4 <HAL_RCC_DeInit+0xe4>
  while (READ_BIT(RCC->CFGR, RCC_CFGR_SWS) != RESET)
 800474a:	4b24      	ldr	r3, [pc, #144]	@ (80047dc <HAL_RCC_DeInit+0xec>)
 800474c:	685b      	ldr	r3, [r3, #4]
 800474e:	220c      	movs	r2, #12
 8004750:	4013      	ands	r3, r2
 8004752:	d1f0      	bne.n	8004736 <HAL_RCC_DeInit+0x46>
    }
  }

  /* Update the SystemCoreClock global variable for HSI as system clock source */
  SystemCoreClock = HSI_VALUE;
 8004754:	4b24      	ldr	r3, [pc, #144]	@ (80047e8 <HAL_RCC_DeInit+0xf8>)
 8004756:	4a25      	ldr	r2, [pc, #148]	@ (80047ec <HAL_RCC_DeInit+0xfc>)
 8004758:	601a      	str	r2, [r3, #0]

  /* Adapt Systick interrupt period */
  if (HAL_InitTick(uwTickPrio) != HAL_OK)
 800475a:	4b25      	ldr	r3, [pc, #148]	@ (80047f0 <HAL_RCC_DeInit+0x100>)
 800475c:	681b      	ldr	r3, [r3, #0]
 800475e:	0018      	movs	r0, r3
 8004760:	f7ff fa40 	bl	8003be4 <HAL_InitTick>
 8004764:	1e03      	subs	r3, r0, #0
 8004766:	d001      	beq.n	800476c <HAL_RCC_DeInit+0x7c>
  {
    return HAL_ERROR;
 8004768:	2301      	movs	r3, #1
 800476a:	e033      	b.n	80047d4 <HAL_RCC_DeInit+0xe4>
  }

  /* Reset HSEON, CSSON, PLLON bits */
  CLEAR_BIT(RCC->CR, RCC_CR_PLLON | RCC_CR_CSSON | RCC_CR_HSEON);
 800476c:	4b1b      	ldr	r3, [pc, #108]	@ (80047dc <HAL_RCC_DeInit+0xec>)
 800476e:	681a      	ldr	r2, [r3, #0]
 8004770:	4b1a      	ldr	r3, [pc, #104]	@ (80047dc <HAL_RCC_DeInit+0xec>)
 8004772:	4920      	ldr	r1, [pc, #128]	@ (80047f4 <HAL_RCC_DeInit+0x104>)
 8004774:	400a      	ands	r2, r1
 8004776:	601a      	str	r2, [r3, #0]
  
  /* Reset HSEBYP bit */
  CLEAR_BIT(RCC->CR, RCC_CR_HSEBYP);
 8004778:	4b18      	ldr	r3, [pc, #96]	@ (80047dc <HAL_RCC_DeInit+0xec>)
 800477a:	681a      	ldr	r2, [r3, #0]
 800477c:	4b17      	ldr	r3, [pc, #92]	@ (80047dc <HAL_RCC_DeInit+0xec>)
 800477e:	491e      	ldr	r1, [pc, #120]	@ (80047f8 <HAL_RCC_DeInit+0x108>)
 8004780:	400a      	ands	r2, r1
 8004782:	601a      	str	r2, [r3, #0]

  /* Get start tick */
  tickstart = HAL_GetTick();
 8004784:	f7ff fa74 	bl	8003c70 <HAL_GetTick>
 8004788:	0003      	movs	r3, r0
 800478a:	607b      	str	r3, [r7, #4]
  
  /* Wait till PLLRDY is cleared */
  while(READ_BIT(RCC->CR, RCC_CR_PLLRDY) != RESET)
 800478c:	e008      	b.n	80047a0 <HAL_RCC_DeInit+0xb0>
  {
    if((HAL_GetTick() - tickstart) > PLL_TIMEOUT_VALUE)
 800478e:	f7ff fa6f 	bl	8003c70 <HAL_GetTick>
 8004792:	0002      	movs	r2, r0
 8004794:	687b      	ldr	r3, [r7, #4]
 8004796:	1ad3      	subs	r3, r2, r3
 8004798:	2b02      	cmp	r3, #2
 800479a:	d901      	bls.n	80047a0 <HAL_RCC_DeInit+0xb0>
    {
      return HAL_TIMEOUT;
 800479c:	2303      	movs	r3, #3
 800479e:	e019      	b.n	80047d4 <HAL_RCC_DeInit+0xe4>
  while(READ_BIT(RCC->CR, RCC_CR_PLLRDY) != RESET)
 80047a0:	4b0e      	ldr	r3, [pc, #56]	@ (80047dc <HAL_RCC_DeInit+0xec>)
 80047a2:	681a      	ldr	r2, [r3, #0]
 80047a4:	2380      	movs	r3, #128	@ 0x80
 80047a6:	049b      	lsls	r3, r3, #18
 80047a8:	4013      	ands	r3, r2
 80047aa:	d1f0      	bne.n	800478e <HAL_RCC_DeInit+0x9e>
    }
  }

  /* Reset CFGR register */
  CLEAR_REG(RCC->CFGR);
 80047ac:	4b0b      	ldr	r3, [pc, #44]	@ (80047dc <HAL_RCC_DeInit+0xec>)
 80047ae:	2200      	movs	r2, #0
 80047b0:	605a      	str	r2, [r3, #4]

  /* Reset CFGR2 register */
  CLEAR_REG(RCC->CFGR2);
 80047b2:	4b0a      	ldr	r3, [pc, #40]	@ (80047dc <HAL_RCC_DeInit+0xec>)
 80047b4:	2200      	movs	r2, #0
 80047b6:	62da      	str	r2, [r3, #44]	@ 0x2c

  /* Reset CFGR3 register */
  CLEAR_REG(RCC->CFGR3);
 80047b8:	4b08      	ldr	r3, [pc, #32]	@ (80047dc <HAL_RCC_DeInit+0xec>)
 80047ba:	2200      	movs	r2, #0
 80047bc:	631a      	str	r2, [r3, #48]	@ 0x30

  /* Disable all interrupts */
  CLEAR_REG(RCC->CIR);
 80047be:	4b07      	ldr	r3, [pc, #28]	@ (80047dc <HAL_RCC_DeInit+0xec>)
 80047c0:	2200      	movs	r2, #0
 80047c2:	609a      	str	r2, [r3, #8]

  /* Clear all reset flags */
  __HAL_RCC_CLEAR_RESET_FLAGS();
 80047c4:	4b05      	ldr	r3, [pc, #20]	@ (80047dc <HAL_RCC_DeInit+0xec>)
 80047c6:	6a5a      	ldr	r2, [r3, #36]	@ 0x24
 80047c8:	4b04      	ldr	r3, [pc, #16]	@ (80047dc <HAL_RCC_DeInit+0xec>)
 80047ca:	2180      	movs	r1, #128	@ 0x80
 80047cc:	0449      	lsls	r1, r1, #17
 80047ce:	430a      	orrs	r2, r1
 80047d0:	625a      	str	r2, [r3, #36]	@ 0x24

  return HAL_OK;
 80047d2:	2300      	movs	r3, #0
}
 80047d4:	0018      	movs	r0, r3
 80047d6:	46bd      	mov	sp, r7
 80047d8:	b002      	add	sp, #8
 80047da:	bd80      	pop	{r7, pc}
 80047dc:	40021000 	.word	0x40021000
 80047e0:	f0fff80c 	.word	0xf0fff80c
 80047e4:	00001388 	.word	0x00001388
 80047e8:	20000000 	.word	0x20000000
 80047ec:	007a1200 	.word	0x007a1200
 80047f0:	20000004 	.word	0x20000004
 80047f4:	fef6ffff 	.word	0xfef6ffff
 80047f8:	fffbffff 	.word	0xfffbffff

080047fc <HAL_RCC_OscConfig>:
  *         supported by this macro. User should request a transition to HSE Off
  *         first and then HSE On or HSE Bypass.
  * @retval HAL status
  */
HAL_StatusTypeDef HAL_RCC_OscConfig(RCC_OscInitTypeDef  *RCC_OscInitStruct)
{
 80047fc:	b580      	push	{r7, lr}
 80047fe:	b088      	sub	sp, #32
 8004800:	af00      	add	r7, sp, #0
 8004802:	6078      	str	r0, [r7, #4]
  uint32_t tickstart;
  uint32_t pll_config;
  uint32_t pll_config2;

  /* Check Null pointer */
  if(RCC_OscInitStruct == NULL)
 8004804:	687b      	ldr	r3, [r7, #4]
 8004806:	2b00      	cmp	r3, #0
 8004808:	d101      	bne.n	800480e <HAL_RCC_OscConfig+0x12>
  {
    return HAL_ERROR;
 800480a:	2301      	movs	r3, #1
 800480c:	e305      	b.n	8004e1a <HAL_RCC_OscConfig+0x61e>

  /* Check the parameters */
  assert_param(IS_RCC_OSCILLATORTYPE(RCC_OscInitStruct->OscillatorType));

  /*------------------------------- HSE Configuration ------------------------*/ 
  if(((RCC_OscInitStruct->OscillatorType) & RCC_OSCILLATORTYPE_HSE) == RCC_OSCILLATORTYPE_HSE)
 800480e:	687b      	ldr	r3, [r7, #4]
 8004810:	681b      	ldr	r3, [r3, #0]
 8004812:	2201      	movs	r2, #1
 8004814:	4013      	ands	r3, r2
 8004816:	d100      	bne.n	800481a <HAL_RCC_OscConfig+0x1e>
 8004818:	e08d      	b.n	8004936 <HAL_RCC_OscConfig+0x13a>
  {
    /* Check the parameters */
    assert_param(IS_RCC_HSE(RCC_OscInitStruct->HSEState));

    /* When the HSE is used as system clock or clock source for PLL in these cases it is not allowed to be disabled */
    if((__HAL_RCC_GET_SYSCLK_SOURCE() == RCC_SYSCLKSOURCE_STATUS_HSE) 
 800481a:	4bc5      	ldr	r3, [pc, #788]	@ (8004b30 <HAL_RCC_OscConfig+0x334>)
 800481c:	685b      	ldr	r3, [r3, #4]
 800481e:	220c      	movs	r2, #12
 8004820:	4013      	ands	r3, r2
 8004822:	2b04      	cmp	r3, #4
 8004824:	d00e      	beq.n	8004844 <HAL_RCC_OscConfig+0x48>
       || ((__HAL_RCC_GET_SYSCLK_SOURCE() == RCC_SYSCLKSOURCE_STATUS_PLLCLK) && (__HAL_RCC_GET_PLL_OSCSOURCE() == RCC_PLLSOURCE_HSE)))
 8004826:	4bc2      	ldr	r3, [pc, #776]	@ (8004b30 <HAL_RCC_OscConfig+0x334>)
 8004828:	685b      	ldr	r3, [r3, #4]
 800482a:	220c      	movs	r2, #12
 800482c:	4013      	ands	r3, r2
 800482e:	2b08      	cmp	r3, #8
 8004830:	d116      	bne.n	8004860 <HAL_RCC_OscConfig+0x64>
 8004832:	4bbf      	ldr	r3, [pc, #764]	@ (8004b30 <HAL_RCC_OscConfig+0x334>)
 8004834:	685a      	ldr	r2, [r3, #4]
 8004836:	23c0      	movs	r3, #192	@ 0xc0
 8004838:	025b      	lsls	r3, r3, #9
 800483a:	401a      	ands	r2, r3
 800483c:	2380      	movs	r3, #128	@ 0x80
 800483e:	025b      	lsls	r3, r3, #9
 8004840:	429a      	cmp	r2, r3
 8004842:	d10d      	bne.n	8004860 <HAL_RCC_OscConfig+0x64>
    {
      if((__HAL_RCC_GET_FLAG(RCC_FLAG_HSERDY) != RESET) && (RCC_OscInitStruct->HSEState == RCC_HSE_OFF))
 8004844:	4bba      	ldr	r3, [pc, #744]	@ (8004b30 <HAL_RCC_OscConfig+0x334>)
 8004846:	681a      	ldr	r2, [r3, #0]
 8004848:	2380      	movs	r3, #128	@ 0x80
 800484a:	029b      	lsls	r3, r3, #10
 800484c:	4013      	ands	r3, r2
 800484e:	d100      	bne.n	8004852 <HAL_RCC_OscConfig+0x56>
 8004850:	e070      	b.n	8004934 <HAL_RCC_OscConfig+0x138>
 8004852:	687b      	ldr	r3, [r7, #4]
 8004854:	685b      	ldr	r3, [r3, #4]
 8004856:	2b00      	cmp	r3, #0
 8004858:	d000      	beq.n	800485c <HAL_RCC_OscConfig+0x60>
 800485a:	e06b      	b.n	8004934 <HAL_RCC_OscConfig+0x138>
      {
        return HAL_ERROR;
 800485c:	2301      	movs	r3, #1
 800485e:	e2dc      	b.n	8004e1a <HAL_RCC_OscConfig+0x61e>
      }
    }
    else
    {
      /* Set the new HSE configuration ---------------------------------------*/
      __HAL_RCC_HSE_CONFIG(RCC_OscInitStruct->HSEState);
 8004860:	687b      	ldr	r3, [r7, #4]
 8004862:	685b      	ldr	r3, [r3, #4]
 8004864:	2b01      	cmp	r3, #1
 8004866:	d107      	bne.n	8004878 <HAL_RCC_OscConfig+0x7c>
 8004868:	4bb1      	ldr	r3, [pc, #708]	@ (8004b30 <HAL_RCC_OscConfig+0x334>)
 800486a:	681a      	ldr	r2, [r3, #0]
 800486c:	4bb0      	ldr	r3, [pc, #704]	@ (8004b30 <HAL_RCC_OscConfig+0x334>)
 800486e:	2180      	movs	r1, #128	@ 0x80
 8004870:	0249      	lsls	r1, r1, #9
 8004872:	430a      	orrs	r2, r1
 8004874:	601a      	str	r2, [r3, #0]
 8004876:	e02f      	b.n	80048d8 <HAL_RCC_OscConfig+0xdc>
 8004878:	687b      	ldr	r3, [r7, #4]
 800487a:	685b      	ldr	r3, [r3, #4]
 800487c:	2b00      	cmp	r3, #0
 800487e:	d10c      	bne.n	800489a <HAL_RCC_OscConfig+0x9e>
 8004880:	4bab      	ldr	r3, [pc, #684]	@ (8004b30 <HAL_RCC_OscConfig+0x334>)
 8004882:	681a      	ldr	r2, [r3, #0]
 8004884:	4baa      	ldr	r3, [pc, #680]	@ (8004b30 <HAL_RCC_OscConfig+0x334>)
 8004886:	49ab      	ldr	r1, [pc, #684]	@ (8004b34 <HAL_RCC_OscConfig+0x338>)
 8004888:	400a      	ands	r2, r1
 800488a:	601a      	str	r2, [r3, #0]
 800488c:	4ba8      	ldr	r3, [pc, #672]	@ (8004b30 <HAL_RCC_OscConfig+0x334>)
 800488e:	681a      	ldr	r2, [r3, #0]
 8004890:	4ba7      	ldr	r3, [pc, #668]	@ (8004b30 <HAL_RCC_OscConfig+0x334>)
 8004892:	49a9      	ldr	r1, [pc, #676]	@ (8004b38 <HAL_RCC_OscConfig+0x33c>)
 8004894:	400a      	ands	r2, r1
 8004896:	601a      	str	r2, [r3, #0]
 8004898:	e01e      	b.n	80048d8 <HAL_RCC_OscConfig+0xdc>
 800489a:	687b      	ldr	r3, [r7, #4]
 800489c:	685b      	ldr	r3, [r3, #4]
 800489e:	2b05      	cmp	r3, #5
 80048a0:	d10e      	bne.n	80048c0 <HAL_RCC_OscConfig+0xc4>
 80048a2:	4ba3      	ldr	r3, [pc, #652]	@ (8004b30 <HAL_RCC_OscConfig+0x334>)
 80048a4:	681a      	ldr	r2, [r3, #0]
 80048a6:	4ba2      	ldr	r3, [pc, #648]	@ (8004b30 <HAL_RCC_OscConfig+0x334>)
 80048a8:	2180      	movs	r1, #128	@ 0x80
 80048aa:	02c9      	lsls	r1, r1, #11
 80048ac:	430a      	orrs	r2, r1
 80048ae:	601a      	str	r2, [r3, #0]
 80048b0:	4b9f      	ldr	r3, [pc, #636]	@ (8004b30 <HAL_RCC_OscConfig+0x334>)
 80048b2:	681a      	ldr	r2, [r3, #0]
 80048b4:	4b9e      	ldr	r3, [pc, #632]	@ (8004b30 <HAL_RCC_OscConfig+0x334>)
 80048b6:	2180      	movs	r1, #128	@ 0x80
 80048b8:	0249      	lsls	r1, r1, #9
 80048ba:	430a      	orrs	r2, r1
 80048bc:	601a      	str	r2, [r3, #0]
 80048be:	e00b      	b.n	80048d8 <HAL_RCC_OscConfig+0xdc>
 80048c0:	4b9b      	ldr	r3, [pc, #620]	@ (8004b30 <HAL_RCC_OscConfig+0x334>)
 80048c2:	681a      	ldr	r2, [r3, #0]
 80048c4:	4b9a      	ldr	r3, [pc, #616]	@ (8004b30 <HAL_RCC_OscConfig+0x334>)
 80048c6:	499b      	ldr	r1, [pc, #620]	@ (8004b34 <HAL_RCC_OscConfig+0x338>)
 80048c8:	400a      	ands	r2, r1
 80048ca:	601a      	str	r2, [r3, #0]
 80048cc:	4b98      	ldr	r3, [pc, #608]	@ (8004b30 <HAL_RCC_OscConfig+0x334>)
 80048ce:	681a      	ldr	r2, [r3, #0]
 80048d0:	4b97      	ldr	r3, [pc, #604]	@ (8004b30 <HAL_RCC_OscConfig+0x334>)
 80048d2:	4999      	ldr	r1, [pc, #612]	@ (8004b38 <HAL_RCC_OscConfig+0x33c>)
 80048d4:	400a      	ands	r2, r1
 80048d6:	601a      	str	r2, [r3, #0]
      

       /* Check the HSE State */
      if(RCC_OscInitStruct->HSEState != RCC_HSE_OFF)
 80048d8:	687b      	ldr	r3, [r7, #4]
 80048da:	685b      	ldr	r3, [r3, #4]
 80048dc:	2b00      	cmp	r3, #0
 80048de:	d014      	beq.n	800490a <HAL_RCC_OscConfig+0x10e>
      {
        /* Get Start Tick */
        tickstart = HAL_GetTick();
 80048e0:	f7ff f9c6 	bl	8003c70 <HAL_GetTick>
 80048e4:	0003      	movs	r3, r0
 80048e6:	61bb      	str	r3, [r7, #24]
        
        /* Wait till HSE is ready */
        while(__HAL_RCC_GET_FLAG(RCC_FLAG_HSERDY) == RESET)
 80048e8:	e008      	b.n	80048fc <HAL_RCC_OscConfig+0x100>
        {
          if((HAL_GetTick() - tickstart ) > HSE_TIMEOUT_VALUE)
 80048ea:	f7ff f9c1 	bl	8003c70 <HAL_GetTick>
 80048ee:	0002      	movs	r2, r0
 80048f0:	69bb      	ldr	r3, [r7, #24]
 80048f2:	1ad3      	subs	r3, r2, r3
 80048f4:	2b64      	cmp	r3, #100	@ 0x64
 80048f6:	d901      	bls.n	80048fc <HAL_RCC_OscConfig+0x100>
          {
            return HAL_TIMEOUT;
 80048f8:	2303      	movs	r3, #3
 80048fa:	e28e      	b.n	8004e1a <HAL_RCC_OscConfig+0x61e>
        while(__HAL_RCC_GET_FLAG(RCC_FLAG_HSERDY) == RESET)
 80048fc:	4b8c      	ldr	r3, [pc, #560]	@ (8004b30 <HAL_RCC_OscConfig+0x334>)
 80048fe:	681a      	ldr	r2, [r3, #0]
 8004900:	2380      	movs	r3, #128	@ 0x80
 8004902:	029b      	lsls	r3, r3, #10
 8004904:	4013      	ands	r3, r2
 8004906:	d0f0      	beq.n	80048ea <HAL_RCC_OscConfig+0xee>
 8004908:	e015      	b.n	8004936 <HAL_RCC_OscConfig+0x13a>
        }
      }
      else
      {
        /* Get Start Tick */
        tickstart = HAL_GetTick();
 800490a:	f7ff f9b1 	bl	8003c70 <HAL_GetTick>
 800490e:	0003      	movs	r3, r0
 8004910:	61bb      	str	r3, [r7, #24]
        
        /* Wait till HSE is disabled */
        while(__HAL_RCC_GET_FLAG(RCC_FLAG_HSERDY) != RESET)
 8004912:	e008      	b.n	8004926 <HAL_RCC_OscConfig+0x12a>
        {
           if((HAL_GetTick() - tickstart ) > HSE_TIMEOUT_VALUE)
 8004914:	f7ff f9ac 	bl	8003c70 <HAL_GetTick>
 8004918:	0002      	movs	r2, r0
 800491a:	69bb      	ldr	r3, [r7, #24]
 800491c:	1ad3      	subs	r3, r2, r3
 800491e:	2b64      	cmp	r3, #100	@ 0x64
 8004920:	d901      	bls.n	8004926 <HAL_RCC_OscConfig+0x12a>
          {
            return HAL_TIMEOUT;
 8004922:	2303      	movs	r3, #3
 8004924:	e279      	b.n	8004e1a <HAL_RCC_OscConfig+0x61e>
        while(__HAL_RCC_GET_FLAG(RCC_FLAG_HSERDY) != RESET)
 8004926:	4b82      	ldr	r3, [pc, #520]	@ (8004b30 <HAL_RCC_OscConfig+0x334>)
 8004928:	681a      	ldr	r2, [r3, #0]
 800492a:	2380      	movs	r3, #128	@ 0x80
 800492c:	029b      	lsls	r3, r3, #10
 800492e:	4013      	ands	r3, r2
 8004930:	d1f0      	bne.n	8004914 <HAL_RCC_OscConfig+0x118>
 8004932:	e000      	b.n	8004936 <HAL_RCC_OscConfig+0x13a>
      if((__HAL_RCC_GET_FLAG(RCC_FLAG_HSERDY) != RESET) && (RCC_OscInitStruct->HSEState == RCC_HSE_OFF))
 8004934:	46c0      	nop			@ (mov r8, r8)
        }
      }
    }
  }
  /*----------------------------- HSI Configuration --------------------------*/ 
  if(((RCC_OscInitStruct->OscillatorType) & RCC_OSCILLATORTYPE_HSI) == RCC_OSCILLATORTYPE_HSI)
 8004936:	687b      	ldr	r3, [r7, #4]
 8004938:	681b      	ldr	r3, [r3, #0]
 800493a:	2202      	movs	r2, #2
 800493c:	4013      	ands	r3, r2
 800493e:	d100      	bne.n	8004942 <HAL_RCC_OscConfig+0x146>
 8004940:	e06c      	b.n	8004a1c <HAL_RCC_OscConfig+0x220>
    /* Check the parameters */
    assert_param(IS_RCC_HSI(RCC_OscInitStruct->HSIState));
    assert_param(IS_RCC_CALIBRATION_VALUE(RCC_OscInitStruct->HSICalibrationValue));
    
    /* Check if HSI is used as system clock or as PLL source when PLL is selected as system clock */ 
    if((__HAL_RCC_GET_SYSCLK_SOURCE() == RCC_SYSCLKSOURCE_STATUS_HSI) 
 8004942:	4b7b      	ldr	r3, [pc, #492]	@ (8004b30 <HAL_RCC_OscConfig+0x334>)
 8004944:	685b      	ldr	r3, [r3, #4]
 8004946:	220c      	movs	r2, #12
 8004948:	4013      	ands	r3, r2
 800494a:	d00e      	beq.n	800496a <HAL_RCC_OscConfig+0x16e>
       || ((__HAL_RCC_GET_SYSCLK_SOURCE() == RCC_SYSCLKSOURCE_STATUS_PLLCLK) && (__HAL_RCC_GET_PLL_OSCSOURCE() == RCC_PLLSOURCE_HSI)))
 800494c:	4b78      	ldr	r3, [pc, #480]	@ (8004b30 <HAL_RCC_OscConfig+0x334>)
 800494e:	685b      	ldr	r3, [r3, #4]
 8004950:	220c      	movs	r2, #12
 8004952:	4013      	ands	r3, r2
 8004954:	2b08      	cmp	r3, #8
 8004956:	d11f      	bne.n	8004998 <HAL_RCC_OscConfig+0x19c>
 8004958:	4b75      	ldr	r3, [pc, #468]	@ (8004b30 <HAL_RCC_OscConfig+0x334>)
 800495a:	685a      	ldr	r2, [r3, #4]
 800495c:	23c0      	movs	r3, #192	@ 0xc0
 800495e:	025b      	lsls	r3, r3, #9
 8004960:	401a      	ands	r2, r3
 8004962:	2380      	movs	r3, #128	@ 0x80
 8004964:	021b      	lsls	r3, r3, #8
 8004966:	429a      	cmp	r2, r3
 8004968:	d116      	bne.n	8004998 <HAL_RCC_OscConfig+0x19c>
    {
      /* When HSI is used as system clock it will not disabled */
      if((__HAL_RCC_GET_FLAG(RCC_FLAG_HSIRDY) != RESET) && (RCC_OscInitStruct->HSIState != RCC_HSI_ON))
 800496a:	4b71      	ldr	r3, [pc, #452]	@ (8004b30 <HAL_RCC_OscConfig+0x334>)
 800496c:	681b      	ldr	r3, [r3, #0]
 800496e:	2202      	movs	r2, #2
 8004970:	4013      	ands	r3, r2
 8004972:	d005      	beq.n	8004980 <HAL_RCC_OscConfig+0x184>
 8004974:	687b      	ldr	r3, [r7, #4]
 8004976:	68db      	ldr	r3, [r3, #12]
 8004978:	2b01      	cmp	r3, #1
 800497a:	d001      	beq.n	8004980 <HAL_RCC_OscConfig+0x184>
      {
        return HAL_ERROR;
 800497c:	2301      	movs	r3, #1
 800497e:	e24c      	b.n	8004e1a <HAL_RCC_OscConfig+0x61e>
      }
      /* Otherwise, just the calibration is allowed */
      else
      {
        /* Adjusts the Internal High Speed oscillator (HSI) calibration value.*/
        __HAL_RCC_HSI_CALIBRATIONVALUE_ADJUST(RCC_OscInitStruct->HSICalibrationValue);
 8004980:	4b6b      	ldr	r3, [pc, #428]	@ (8004b30 <HAL_RCC_OscConfig+0x334>)
 8004982:	681b      	ldr	r3, [r3, #0]
 8004984:	22f8      	movs	r2, #248	@ 0xf8
 8004986:	4393      	bics	r3, r2
 8004988:	0019      	movs	r1, r3
 800498a:	687b      	ldr	r3, [r7, #4]
 800498c:	691b      	ldr	r3, [r3, #16]
 800498e:	00da      	lsls	r2, r3, #3
 8004990:	4b67      	ldr	r3, [pc, #412]	@ (8004b30 <HAL_RCC_OscConfig+0x334>)
 8004992:	430a      	orrs	r2, r1
 8004994:	601a      	str	r2, [r3, #0]
      if((__HAL_RCC_GET_FLAG(RCC_FLAG_HSIRDY) != RESET) && (RCC_OscInitStruct->HSIState != RCC_HSI_ON))
 8004996:	e041      	b.n	8004a1c <HAL_RCC_OscConfig+0x220>
      }
    }
    else
    {
      /* Check the HSI State */
      if(RCC_OscInitStruct->HSIState != RCC_HSI_OFF)
 8004998:	687b      	ldr	r3, [r7, #4]
 800499a:	68db      	ldr	r3, [r3, #12]
 800499c:	2b00      	cmp	r3, #0
 800499e:	d024      	beq.n	80049ea <HAL_RCC_OscConfig+0x1ee>
      {
       /* Enable the Internal High Speed oscillator (HSI). */
        __HAL_RCC_HSI_ENABLE();
 80049a0:	4b63      	ldr	r3, [pc, #396]	@ (8004b30 <HAL_RCC_OscConfig+0x334>)
 80049a2:	681a      	ldr	r2, [r3, #0]
 80049a4:	4b62      	ldr	r3, [pc, #392]	@ (8004b30 <HAL_RCC_OscConfig+0x334>)
 80049a6:	2101      	movs	r1, #1
 80049a8:	430a      	orrs	r2, r1
 80049aa:	601a      	str	r2, [r3, #0]
        
        /* Get Start Tick */
        tickstart = HAL_GetTick();
 80049ac:	f7ff f960 	bl	8003c70 <HAL_GetTick>
 80049b0:	0003      	movs	r3, r0
 80049b2:	61bb      	str	r3, [r7, #24]
        
        /* Wait till HSI is ready */
        while(__HAL_RCC_GET_FLAG(RCC_FLAG_HSIRDY) == RESET)
 80049b4:	e008      	b.n	80049c8 <HAL_RCC_OscConfig+0x1cc>
        {
          if((HAL_GetTick() - tickstart ) > HSI_TIMEOUT_VALUE)
 80049b6:	f7ff f95b 	bl	8003c70 <HAL_GetTick>
 80049ba:	0002      	movs	r2, r0
 80049bc:	69bb      	ldr	r3, [r7, #24]
 80049be:	1ad3      	subs	r3, r2, r3
 80049c0:	2b02      	cmp	r3, #2
 80049c2:	d901      	bls.n	80049c8 <HAL_RCC_OscConfig+0x1cc>
          {
            return HAL_TIMEOUT;
 80049c4:	2303      	movs	r3, #3
 80049c6:	e228      	b.n	8004e1a <HAL_RCC_OscConfig+0x61e>
        while(__HAL_RCC_GET_FLAG(RCC_FLAG_HSIRDY) == RESET)
 80049c8:	4b59      	ldr	r3, [pc, #356]	@ (8004b30 <HAL_RCC_OscConfig+0x334>)
 80049ca:	681b      	ldr	r3, [r3, #0]
 80049cc:	2202      	movs	r2, #2
 80049ce:	4013      	ands	r3, r2
 80049d0:	d0f1      	beq.n	80049b6 <HAL_RCC_OscConfig+0x1ba>
          }
        }
                
        /* Adjusts the Internal High Speed oscillator (HSI) calibration value.*/
        __HAL_RCC_HSI_CALIBRATIONVALUE_ADJUST(RCC_OscInitStruct->HSICalibrationValue);
 80049d2:	4b57      	ldr	r3, [pc, #348]	@ (8004b30 <HAL_RCC_OscConfig+0x334>)
 80049d4:	681b      	ldr	r3, [r3, #0]
 80049d6:	22f8      	movs	r2, #248	@ 0xf8
 80049d8:	4393      	bics	r3, r2
 80049da:	0019      	movs	r1, r3
 80049dc:	687b      	ldr	r3, [r7, #4]
 80049de:	691b      	ldr	r3, [r3, #16]
 80049e0:	00da      	lsls	r2, r3, #3
 80049e2:	4b53      	ldr	r3, [pc, #332]	@ (8004b30 <HAL_RCC_OscConfig+0x334>)
 80049e4:	430a      	orrs	r2, r1
 80049e6:	601a      	str	r2, [r3, #0]
 80049e8:	e018      	b.n	8004a1c <HAL_RCC_OscConfig+0x220>
      }
      else
      {
        /* Disable the Internal High Speed oscillator (HSI). */
        __HAL_RCC_HSI_DISABLE();
 80049ea:	4b51      	ldr	r3, [pc, #324]	@ (8004b30 <HAL_RCC_OscConfig+0x334>)
 80049ec:	681a      	ldr	r2, [r3, #0]
 80049ee:	4b50      	ldr	r3, [pc, #320]	@ (8004b30 <HAL_RCC_OscConfig+0x334>)
 80049f0:	2101      	movs	r1, #1
 80049f2:	438a      	bics	r2, r1
 80049f4:	601a      	str	r2, [r3, #0]
        
        /* Get Start Tick */
        tickstart = HAL_GetTick();
 80049f6:	f7ff f93b 	bl	8003c70 <HAL_GetTick>
 80049fa:	0003      	movs	r3, r0
 80049fc:	61bb      	str	r3, [r7, #24]
        
        /* Wait till HSI is disabled */
        while(__HAL_RCC_GET_FLAG(RCC_FLAG_HSIRDY) != RESET)
 80049fe:	e008      	b.n	8004a12 <HAL_RCC_OscConfig+0x216>
        {
          if((HAL_GetTick() - tickstart ) > HSI_TIMEOUT_VALUE)
 8004a00:	f7ff f936 	bl	8003c70 <HAL_GetTick>
 8004a04:	0002      	movs	r2, r0
 8004a06:	69bb      	ldr	r3, [r7, #24]
 8004a08:	1ad3      	subs	r3, r2, r3
 8004a0a:	2b02      	cmp	r3, #2
 8004a0c:	d901      	bls.n	8004a12 <HAL_RCC_OscConfig+0x216>
          {
            return HAL_TIMEOUT;
 8004a0e:	2303      	movs	r3, #3
 8004a10:	e203      	b.n	8004e1a <HAL_RCC_OscConfig+0x61e>
        while(__HAL_RCC_GET_FLAG(RCC_FLAG_HSIRDY) != RESET)
 8004a12:	4b47      	ldr	r3, [pc, #284]	@ (8004b30 <HAL_RCC_OscConfig+0x334>)
 8004a14:	681b      	ldr	r3, [r3, #0]
 8004a16:	2202      	movs	r2, #2
 8004a18:	4013      	ands	r3, r2
 8004a1a:	d1f1      	bne.n	8004a00 <HAL_RCC_OscConfig+0x204>
        }
      }
    }
  }
  /*------------------------------ LSI Configuration -------------------------*/ 
  if(((RCC_OscInitStruct->OscillatorType) & RCC_OSCILLATORTYPE_LSI) == RCC_OSCILLATORTYPE_LSI)
 8004a1c:	687b      	ldr	r3, [r7, #4]
 8004a1e:	681b      	ldr	r3, [r3, #0]
 8004a20:	2208      	movs	r2, #8
 8004a22:	4013      	ands	r3, r2
 8004a24:	d036      	beq.n	8004a94 <HAL_RCC_OscConfig+0x298>
  {
    /* Check the parameters */
    assert_param(IS_RCC_LSI(RCC_OscInitStruct->LSIState));
    
    /* Check the LSI State */
    if(RCC_OscInitStruct->LSIState != RCC_LSI_OFF)
 8004a26:	687b      	ldr	r3, [r7, #4]
 8004a28:	69db      	ldr	r3, [r3, #28]
 8004a2a:	2b00      	cmp	r3, #0
 8004a2c:	d019      	beq.n	8004a62 <HAL_RCC_OscConfig+0x266>
    {
      /* Enable the Internal Low Speed oscillator (LSI). */
      __HAL_RCC_LSI_ENABLE();
 8004a2e:	4b40      	ldr	r3, [pc, #256]	@ (8004b30 <HAL_RCC_OscConfig+0x334>)
 8004a30:	6a5a      	ldr	r2, [r3, #36]	@ 0x24
 8004a32:	4b3f      	ldr	r3, [pc, #252]	@ (8004b30 <HAL_RCC_OscConfig+0x334>)
 8004a34:	2101      	movs	r1, #1
 8004a36:	430a      	orrs	r2, r1
 8004a38:	625a      	str	r2, [r3, #36]	@ 0x24
      
      /* Get Start Tick */
      tickstart = HAL_GetTick();
 8004a3a:	f7ff f919 	bl	8003c70 <HAL_GetTick>
 8004a3e:	0003      	movs	r3, r0
 8004a40:	61bb      	str	r3, [r7, #24]
      
      /* Wait till LSI is ready */  
      while(__HAL_RCC_GET_FLAG(RCC_FLAG_LSIRDY) == RESET)
 8004a42:	e008      	b.n	8004a56 <HAL_RCC_OscConfig+0x25a>
      {
        if((HAL_GetTick() - tickstart ) > LSI_TIMEOUT_VALUE)
 8004a44:	f7ff f914 	bl	8003c70 <HAL_GetTick>
 8004a48:	0002      	movs	r2, r0
 8004a4a:	69bb      	ldr	r3, [r7, #24]
 8004a4c:	1ad3      	subs	r3, r2, r3
 8004a4e:	2b02      	cmp	r3, #2
 8004a50:	d901      	bls.n	8004a56 <HAL_RCC_OscConfig+0x25a>
        {
          return HAL_TIMEOUT;
 8004a52:	2303      	movs	r3, #3
 8004a54:	e1e1      	b.n	8004e1a <HAL_RCC_OscConfig+0x61e>
      while(__HAL_RCC_GET_FLAG(RCC_FLAG_LSIRDY) == RESET)
 8004a56:	4b36      	ldr	r3, [pc, #216]	@ (8004b30 <HAL_RCC_OscConfig+0x334>)
 8004a58:	6a5b      	ldr	r3, [r3, #36]	@ 0x24
 8004a5a:	2202      	movs	r2, #2
 8004a5c:	4013      	ands	r3, r2
 8004a5e:	d0f1      	beq.n	8004a44 <HAL_RCC_OscConfig+0x248>
 8004a60:	e018      	b.n	8004a94 <HAL_RCC_OscConfig+0x298>
      }
    }
    else
    {
      /* Disable the Internal Low Speed oscillator (LSI). */
      __HAL_RCC_LSI_DISABLE();
 8004a62:	4b33      	ldr	r3, [pc, #204]	@ (8004b30 <HAL_RCC_OscConfig+0x334>)
 8004a64:	6a5a      	ldr	r2, [r3, #36]	@ 0x24
 8004a66:	4b32      	ldr	r3, [pc, #200]	@ (8004b30 <HAL_RCC_OscConfig+0x334>)
 8004a68:	2101      	movs	r1, #1
 8004a6a:	438a      	bics	r2, r1
 8004a6c:	625a      	str	r2, [r3, #36]	@ 0x24
      
      /* Get Start Tick */
      tickstart = HAL_GetTick();
 8004a6e:	f7ff f8ff 	bl	8003c70 <HAL_GetTick>
 8004a72:	0003      	movs	r3, r0
 8004a74:	61bb      	str	r3, [r7, #24]
      
      /* Wait till LSI is disabled */  
      while(__HAL_RCC_GET_FLAG(RCC_FLAG_LSIRDY) != RESET)
 8004a76:	e008      	b.n	8004a8a <HAL_RCC_OscConfig+0x28e>
      {
        if((HAL_GetTick() - tickstart ) > LSI_TIMEOUT_VALUE)
 8004a78:	f7ff f8fa 	bl	8003c70 <HAL_GetTick>
 8004a7c:	0002      	movs	r2, r0
 8004a7e:	69bb      	ldr	r3, [r7, #24]
 8004a80:	1ad3      	subs	r3, r2, r3
 8004a82:	2b02      	cmp	r3, #2
 8004a84:	d901      	bls.n	8004a8a <HAL_RCC_OscConfig+0x28e>
        {
          return HAL_TIMEOUT;
 8004a86:	2303      	movs	r3, #3
 8004a88:	e1c7      	b.n	8004e1a <HAL_RCC_OscConfig+0x61e>
      while(__HAL_RCC_GET_FLAG(RCC_FLAG_LSIRDY) != RESET)
 8004a8a:	4b29      	ldr	r3, [pc, #164]	@ (8004b30 <HAL_RCC_OscConfig+0x334>)
 8004a8c:	6a5b      	ldr	r3, [r3, #36]	@ 0x24
 8004a8e:	2202      	movs	r2, #2
 8004a90:	4013      	ands	r3, r2
 8004a92:	d1f1      	bne.n	8004a78 <HAL_RCC_OscConfig+0x27c>
        }
      }
    }
  }
  /*------------------------------ LSE Configuration -------------------------*/ 
  if(((RCC_OscInitStruct->OscillatorType) & RCC_OSCILLATORTYPE_LSE) == RCC_OSCILLATORTYPE_LSE)
 8004a94:	687b      	ldr	r3, [r7, #4]
 8004a96:	681b      	ldr	r3, [r3, #0]
 8004a98:	2204      	movs	r2, #4
 8004a9a:	4013      	ands	r3, r2
 8004a9c:	d100      	bne.n	8004aa0 <HAL_RCC_OscConfig+0x2a4>
 8004a9e:	e0b5      	b.n	8004c0c <HAL_RCC_OscConfig+0x410>
  {
    FlagStatus       pwrclkchanged = RESET;
 8004aa0:	201f      	movs	r0, #31
 8004aa2:	183b      	adds	r3, r7, r0
 8004aa4:	2200      	movs	r2, #0
 8004aa6:	701a      	strb	r2, [r3, #0]
    /* Check the parameters */
    assert_param(IS_RCC_LSE(RCC_OscInitStruct->LSEState));

    /* Update LSE configuration in Backup Domain control register    */
    /* Requires to enable write access to Backup Domain of necessary */
    if(__HAL_RCC_PWR_IS_CLK_DISABLED())
 8004aa8:	4b21      	ldr	r3, [pc, #132]	@ (8004b30 <HAL_RCC_OscConfig+0x334>)
 8004aaa:	69da      	ldr	r2, [r3, #28]
 8004aac:	2380      	movs	r3, #128	@ 0x80
 8004aae:	055b      	lsls	r3, r3, #21
 8004ab0:	4013      	ands	r3, r2
 8004ab2:	d110      	bne.n	8004ad6 <HAL_RCC_OscConfig+0x2da>
    {
      __HAL_RCC_PWR_CLK_ENABLE();
 8004ab4:	4b1e      	ldr	r3, [pc, #120]	@ (8004b30 <HAL_RCC_OscConfig+0x334>)
 8004ab6:	69da      	ldr	r2, [r3, #28]
 8004ab8:	4b1d      	ldr	r3, [pc, #116]	@ (8004b30 <HAL_RCC_OscConfig+0x334>)
 8004aba:	2180      	movs	r1, #128	@ 0x80
 8004abc:	0549      	lsls	r1, r1, #21
 8004abe:	430a      	orrs	r2, r1
 8004ac0:	61da      	str	r2, [r3, #28]
 8004ac2:	4b1b      	ldr	r3, [pc, #108]	@ (8004b30 <HAL_RCC_OscConfig+0x334>)
 8004ac4:	69da      	ldr	r2, [r3, #28]
 8004ac6:	2380      	movs	r3, #128	@ 0x80
 8004ac8:	055b      	lsls	r3, r3, #21
 8004aca:	4013      	ands	r3, r2
 8004acc:	60fb      	str	r3, [r7, #12]
 8004ace:	68fb      	ldr	r3, [r7, #12]
      pwrclkchanged = SET;
 8004ad0:	183b      	adds	r3, r7, r0
 8004ad2:	2201      	movs	r2, #1
 8004ad4:	701a      	strb	r2, [r3, #0]
    }
    
    if(HAL_IS_BIT_CLR(PWR->CR, PWR_CR_DBP))
 8004ad6:	4b19      	ldr	r3, [pc, #100]	@ (8004b3c <HAL_RCC_OscConfig+0x340>)
 8004ad8:	681a      	ldr	r2, [r3, #0]
 8004ada:	2380      	movs	r3, #128	@ 0x80
 8004adc:	005b      	lsls	r3, r3, #1
 8004ade:	4013      	ands	r3, r2
 8004ae0:	d11a      	bne.n	8004b18 <HAL_RCC_OscConfig+0x31c>
    {
      /* Enable write access to Backup domain */
      SET_BIT(PWR->CR, PWR_CR_DBP);
 8004ae2:	4b16      	ldr	r3, [pc, #88]	@ (8004b3c <HAL_RCC_OscConfig+0x340>)
 8004ae4:	681a      	ldr	r2, [r3, #0]
 8004ae6:	4b15      	ldr	r3, [pc, #84]	@ (8004b3c <HAL_RCC_OscConfig+0x340>)
 8004ae8:	2180      	movs	r1, #128	@ 0x80
 8004aea:	0049      	lsls	r1, r1, #1
 8004aec:	430a      	orrs	r2, r1
 8004aee:	601a      	str	r2, [r3, #0]
      
      /* Wait for Backup domain Write protection disable */
      tickstart = HAL_GetTick();
 8004af0:	f7ff f8be 	bl	8003c70 <HAL_GetTick>
 8004af4:	0003      	movs	r3, r0
 8004af6:	61bb      	str	r3, [r7, #24]

      while(HAL_IS_BIT_CLR(PWR->CR, PWR_CR_DBP))
 8004af8:	e008      	b.n	8004b0c <HAL_RCC_OscConfig+0x310>
      {
        if((HAL_GetTick() - tickstart) > RCC_DBP_TIMEOUT_VALUE)
 8004afa:	f7ff f8b9 	bl	8003c70 <HAL_GetTick>
 8004afe:	0002      	movs	r2, r0
 8004b00:	69bb      	ldr	r3, [r7, #24]
 8004b02:	1ad3      	subs	r3, r2, r3
 8004b04:	2b64      	cmp	r3, #100	@ 0x64
 8004b06:	d901      	bls.n	8004b0c <HAL_RCC_OscConfig+0x310>
        {
          return HAL_TIMEOUT;
 8004b08:	2303      	movs	r3, #3
 8004b0a:	e186      	b.n	8004e1a <HAL_RCC_OscConfig+0x61e>
      while(HAL_IS_BIT_CLR(PWR->CR, PWR_CR_DBP))
 8004b0c:	4b0b      	ldr	r3, [pc, #44]	@ (8004b3c <HAL_RCC_OscConfig+0x340>)
 8004b0e:	681a      	ldr	r2, [r3, #0]
 8004b10:	2380      	movs	r3, #128	@ 0x80
 8004b12:	005b      	lsls	r3, r3, #1
 8004b14:	4013      	ands	r3, r2
 8004b16:	d0f0      	beq.n	8004afa <HAL_RCC_OscConfig+0x2fe>
        }
      }
    }

    /* Set the new LSE configuration -----------------------------------------*/
    __HAL_RCC_LSE_CONFIG(RCC_OscInitStruct->LSEState);
 8004b18:	687b      	ldr	r3, [r7, #4]
 8004b1a:	689b      	ldr	r3, [r3, #8]
 8004b1c:	2b01      	cmp	r3, #1
 8004b1e:	d10f      	bne.n	8004b40 <HAL_RCC_OscConfig+0x344>
 8004b20:	4b03      	ldr	r3, [pc, #12]	@ (8004b30 <HAL_RCC_OscConfig+0x334>)
 8004b22:	6a1a      	ldr	r2, [r3, #32]
 8004b24:	4b02      	ldr	r3, [pc, #8]	@ (8004b30 <HAL_RCC_OscConfig+0x334>)
 8004b26:	2101      	movs	r1, #1
 8004b28:	430a      	orrs	r2, r1
 8004b2a:	621a      	str	r2, [r3, #32]
 8004b2c:	e036      	b.n	8004b9c <HAL_RCC_OscConfig+0x3a0>
 8004b2e:	46c0      	nop			@ (mov r8, r8)
 8004b30:	40021000 	.word	0x40021000
 8004b34:	fffeffff 	.word	0xfffeffff
 8004b38:	fffbffff 	.word	0xfffbffff
 8004b3c:	40007000 	.word	0x40007000
 8004b40:	687b      	ldr	r3, [r7, #4]
 8004b42:	689b      	ldr	r3, [r3, #8]
 8004b44:	2b00      	cmp	r3, #0
 8004b46:	d10c      	bne.n	8004b62 <HAL_RCC_OscConfig+0x366>
 8004b48:	4bb6      	ldr	r3, [pc, #728]	@ (8004e24 <HAL_RCC_OscConfig+0x628>)
 8004b4a:	6a1a      	ldr	r2, [r3, #32]
 8004b4c:	4bb5      	ldr	r3, [pc, #724]	@ (8004e24 <HAL_RCC_OscConfig+0x628>)
 8004b4e:	2101      	movs	r1, #1
 8004b50:	438a      	bics	r2, r1
 8004b52:	621a      	str	r2, [r3, #32]
 8004b54:	4bb3      	ldr	r3, [pc, #716]	@ (8004e24 <HAL_RCC_OscConfig+0x628>)
 8004b56:	6a1a      	ldr	r2, [r3, #32]
 8004b58:	4bb2      	ldr	r3, [pc, #712]	@ (8004e24 <HAL_RCC_OscConfig+0x628>)
 8004b5a:	2104      	movs	r1, #4
 8004b5c:	438a      	bics	r2, r1
 8004b5e:	621a      	str	r2, [r3, #32]
 8004b60:	e01c      	b.n	8004b9c <HAL_RCC_OscConfig+0x3a0>
 8004b62:	687b      	ldr	r3, [r7, #4]
 8004b64:	689b      	ldr	r3, [r3, #8]
 8004b66:	2b05      	cmp	r3, #5
 8004b68:	d10c      	bne.n	8004b84 <HAL_RCC_OscConfig+0x388>
 8004b6a:	4bae      	ldr	r3, [pc, #696]	@ (8004e24 <HAL_RCC_OscConfig+0x628>)
 8004b6c:	6a1a      	ldr	r2, [r3, #32]
 8004b6e:	4bad      	ldr	r3, [pc, #692]	@ (8004e24 <HAL_RCC_OscConfig+0x628>)
 8004b70:	2104      	movs	r1, #4
 8004b72:	430a      	orrs	r2, r1
 8004b74:	621a      	str	r2, [r3, #32]
 8004b76:	4bab      	ldr	r3, [pc, #684]	@ (8004e24 <HAL_RCC_OscConfig+0x628>)
 8004b78:	6a1a      	ldr	r2, [r3, #32]
 8004b7a:	4baa      	ldr	r3, [pc, #680]	@ (8004e24 <HAL_RCC_OscConfig+0x628>)
 8004b7c:	2101      	movs	r1, #1
 8004b7e:	430a      	orrs	r2, r1
 8004b80:	621a      	str	r2, [r3, #32]
 8004b82:	e00b      	b.n	8004b9c <HAL_RCC_OscConfig+0x3a0>
 8004b84:	4ba7      	ldr	r3, [pc, #668]	@ (8004e24 <HAL_RCC_OscConfig+0x628>)
 8004b86:	6a1a      	ldr	r2, [r3, #32]
 8004b88:	4ba6      	ldr	r3, [pc, #664]	@ (8004e24 <HAL_RCC_OscConfig+0x628>)
 8004b8a:	2101      	movs	r1, #1
 8004b8c:	438a      	bics	r2, r1
 8004b8e:	621a      	str	r2, [r3, #32]
 8004b90:	4ba4      	ldr	r3, [pc, #656]	@ (8004e24 <HAL_RCC_OscConfig+0x628>)
 8004b92:	6a1a      	ldr	r2, [r3, #32]
 8004b94:	4ba3      	ldr	r3, [pc, #652]	@ (8004e24 <HAL_RCC_OscConfig+0x628>)
 8004b96:	2104      	movs	r1, #4
 8004b98:	438a      	bics	r2, r1
 8004b9a:	621a      	str	r2, [r3, #32]
    /* Check the LSE State */
    if(RCC_OscInitStruct->LSEState != RCC_LSE_OFF)
 8004b9c:	687b      	ldr	r3, [r7, #4]
 8004b9e:	689b      	ldr	r3, [r3, #8]
 8004ba0:	2b00      	cmp	r3, #0
 8004ba2:	d014      	beq.n	8004bce <HAL_RCC_OscConfig+0x3d2>
    {
      /* Get Start Tick */
      tickstart = HAL_GetTick();
 8004ba4:	f7ff f864 	bl	8003c70 <HAL_GetTick>
 8004ba8:	0003      	movs	r3, r0
 8004baa:	61bb      	str	r3, [r7, #24]
      
      /* Wait till LSE is ready */  
      while(__HAL_RCC_GET_FLAG(RCC_FLAG_LSERDY) == RESET)
 8004bac:	e009      	b.n	8004bc2 <HAL_RCC_OscConfig+0x3c6>
      {
        if((HAL_GetTick() - tickstart ) > RCC_LSE_TIMEOUT_VALUE)
 8004bae:	f7ff f85f 	bl	8003c70 <HAL_GetTick>
 8004bb2:	0002      	movs	r2, r0
 8004bb4:	69bb      	ldr	r3, [r7, #24]
 8004bb6:	1ad3      	subs	r3, r2, r3
 8004bb8:	4a9b      	ldr	r2, [pc, #620]	@ (8004e28 <HAL_RCC_OscConfig+0x62c>)
 8004bba:	4293      	cmp	r3, r2
 8004bbc:	d901      	bls.n	8004bc2 <HAL_RCC_OscConfig+0x3c6>
        {
          return HAL_TIMEOUT;
 8004bbe:	2303      	movs	r3, #3
 8004bc0:	e12b      	b.n	8004e1a <HAL_RCC_OscConfig+0x61e>
      while(__HAL_RCC_GET_FLAG(RCC_FLAG_LSERDY) == RESET)
 8004bc2:	4b98      	ldr	r3, [pc, #608]	@ (8004e24 <HAL_RCC_OscConfig+0x628>)
 8004bc4:	6a1b      	ldr	r3, [r3, #32]
 8004bc6:	2202      	movs	r2, #2
 8004bc8:	4013      	ands	r3, r2
 8004bca:	d0f0      	beq.n	8004bae <HAL_RCC_OscConfig+0x3b2>
 8004bcc:	e013      	b.n	8004bf6 <HAL_RCC_OscConfig+0x3fa>
      }
    }
    else
    {
      /* Get Start Tick */
      tickstart = HAL_GetTick();
 8004bce:	f7ff f84f 	bl	8003c70 <HAL_GetTick>
 8004bd2:	0003      	movs	r3, r0
 8004bd4:	61bb      	str	r3, [r7, #24]
      
      /* Wait till LSE is disabled */  
      while(__HAL_RCC_GET_FLAG(RCC_FLAG_LSERDY) != RESET)
 8004bd6:	e009      	b.n	8004bec <HAL_RCC_OscConfig+0x3f0>
      {
        if((HAL_GetTick() - tickstart ) > RCC_LSE_TIMEOUT_VALUE)
 8004bd8:	f7ff f84a 	bl	8003c70 <HAL_GetTick>
 8004bdc:	0002      	movs	r2, r0
 8004bde:	69bb      	ldr	r3, [r7, #24]
 8004be0:	1ad3      	subs	r3, r2, r3
 8004be2:	4a91      	ldr	r2, [pc, #580]	@ (8004e28 <HAL_RCC_OscConfig+0x62c>)
 8004be4:	4293      	cmp	r3, r2
 8004be6:	d901      	bls.n	8004bec <HAL_RCC_OscConfig+0x3f0>
        {
          return HAL_TIMEOUT;
 8004be8:	2303      	movs	r3, #3
 8004bea:	e116      	b.n	8004e1a <HAL_RCC_OscConfig+0x61e>
      while(__HAL_RCC_GET_FLAG(RCC_FLAG_LSERDY) != RESET)
 8004bec:	4b8d      	ldr	r3, [pc, #564]	@ (8004e24 <HAL_RCC_OscConfig+0x628>)
 8004bee:	6a1b      	ldr	r3, [r3, #32]
 8004bf0:	2202      	movs	r2, #2
 8004bf2:	4013      	ands	r3, r2
 8004bf4:	d1f0      	bne.n	8004bd8 <HAL_RCC_OscConfig+0x3dc>
        }
      }
    }

    /* Require to disable power clock if necessary */
    if(pwrclkchanged == SET)
 8004bf6:	231f      	movs	r3, #31
 8004bf8:	18fb      	adds	r3, r7, r3
 8004bfa:	781b      	ldrb	r3, [r3, #0]
 8004bfc:	2b01      	cmp	r3, #1
 8004bfe:	d105      	bne.n	8004c0c <HAL_RCC_OscConfig+0x410>
    {
      __HAL_RCC_PWR_CLK_DISABLE();
 8004c00:	4b88      	ldr	r3, [pc, #544]	@ (8004e24 <HAL_RCC_OscConfig+0x628>)
 8004c02:	69da      	ldr	r2, [r3, #28]
 8004c04:	4b87      	ldr	r3, [pc, #540]	@ (8004e24 <HAL_RCC_OscConfig+0x628>)
 8004c06:	4989      	ldr	r1, [pc, #548]	@ (8004e2c <HAL_RCC_OscConfig+0x630>)
 8004c08:	400a      	ands	r2, r1
 8004c0a:	61da      	str	r2, [r3, #28]
    }
  }

  /*----------------------------- HSI14 Configuration --------------------------*/
  if(((RCC_OscInitStruct->OscillatorType) & RCC_OSCILLATORTYPE_HSI14) == RCC_OSCILLATORTYPE_HSI14)
 8004c0c:	687b      	ldr	r3, [r7, #4]
 8004c0e:	681b      	ldr	r3, [r3, #0]
 8004c10:	2210      	movs	r2, #16
 8004c12:	4013      	ands	r3, r2
 8004c14:	d063      	beq.n	8004cde <HAL_RCC_OscConfig+0x4e2>
    /* Check the parameters */
    assert_param(IS_RCC_HSI14(RCC_OscInitStruct->HSI14State));
    assert_param(IS_RCC_CALIBRATION_VALUE(RCC_OscInitStruct->HSI14CalibrationValue));

    /* Check the HSI14 State */
    if(RCC_OscInitStruct->HSI14State == RCC_HSI14_ON)
 8004c16:	687b      	ldr	r3, [r7, #4]
 8004c18:	695b      	ldr	r3, [r3, #20]
 8004c1a:	2b01      	cmp	r3, #1
 8004c1c:	d12a      	bne.n	8004c74 <HAL_RCC_OscConfig+0x478>
    {
      /* Disable ADC control of the Internal High Speed oscillator HSI14 */
      __HAL_RCC_HSI14ADC_DISABLE();
 8004c1e:	4b81      	ldr	r3, [pc, #516]	@ (8004e24 <HAL_RCC_OscConfig+0x628>)
 8004c20:	6b5a      	ldr	r2, [r3, #52]	@ 0x34
 8004c22:	4b80      	ldr	r3, [pc, #512]	@ (8004e24 <HAL_RCC_OscConfig+0x628>)
 8004c24:	2104      	movs	r1, #4
 8004c26:	430a      	orrs	r2, r1
 8004c28:	635a      	str	r2, [r3, #52]	@ 0x34

      /* Enable the Internal High Speed oscillator (HSI). */
      __HAL_RCC_HSI14_ENABLE();
 8004c2a:	4b7e      	ldr	r3, [pc, #504]	@ (8004e24 <HAL_RCC_OscConfig+0x628>)
 8004c2c:	6b5a      	ldr	r2, [r3, #52]	@ 0x34
 8004c2e:	4b7d      	ldr	r3, [pc, #500]	@ (8004e24 <HAL_RCC_OscConfig+0x628>)
 8004c30:	2101      	movs	r1, #1
 8004c32:	430a      	orrs	r2, r1
 8004c34:	635a      	str	r2, [r3, #52]	@ 0x34

      /* Get Start Tick */
      tickstart = HAL_GetTick();
 8004c36:	f7ff f81b 	bl	8003c70 <HAL_GetTick>
 8004c3a:	0003      	movs	r3, r0
 8004c3c:	61bb      	str	r3, [r7, #24]
      
      /* Wait till HSI is ready */  
      while(__HAL_RCC_GET_FLAG(RCC_FLAG_HSI14RDY) == RESET)
 8004c3e:	e008      	b.n	8004c52 <HAL_RCC_OscConfig+0x456>
      {
        if((HAL_GetTick() - tickstart) > HSI14_TIMEOUT_VALUE)
 8004c40:	f7ff f816 	bl	8003c70 <HAL_GetTick>
 8004c44:	0002      	movs	r2, r0
 8004c46:	69bb      	ldr	r3, [r7, #24]
 8004c48:	1ad3      	subs	r3, r2, r3
 8004c4a:	2b02      	cmp	r3, #2
 8004c4c:	d901      	bls.n	8004c52 <HAL_RCC_OscConfig+0x456>
        {
          return HAL_TIMEOUT;
 8004c4e:	2303      	movs	r3, #3
 8004c50:	e0e3      	b.n	8004e1a <HAL_RCC_OscConfig+0x61e>
      while(__HAL_RCC_GET_FLAG(RCC_FLAG_HSI14RDY) == RESET)
 8004c52:	4b74      	ldr	r3, [pc, #464]	@ (8004e24 <HAL_RCC_OscConfig+0x628>)
 8004c54:	6b5b      	ldr	r3, [r3, #52]	@ 0x34
 8004c56:	2202      	movs	r2, #2
 8004c58:	4013      	ands	r3, r2
 8004c5a:	d0f1      	beq.n	8004c40 <HAL_RCC_OscConfig+0x444>
        }      
      } 

      /* Adjusts the Internal High Speed oscillator 14Mhz (HSI14) calibration value. */
      __HAL_RCC_HSI14_CALIBRATIONVALUE_ADJUST(RCC_OscInitStruct->HSI14CalibrationValue);
 8004c5c:	4b71      	ldr	r3, [pc, #452]	@ (8004e24 <HAL_RCC_OscConfig+0x628>)
 8004c5e:	6b5b      	ldr	r3, [r3, #52]	@ 0x34
 8004c60:	22f8      	movs	r2, #248	@ 0xf8
 8004c62:	4393      	bics	r3, r2
 8004c64:	0019      	movs	r1, r3
 8004c66:	687b      	ldr	r3, [r7, #4]
 8004c68:	699b      	ldr	r3, [r3, #24]
 8004c6a:	00da      	lsls	r2, r3, #3
 8004c6c:	4b6d      	ldr	r3, [pc, #436]	@ (8004e24 <HAL_RCC_OscConfig+0x628>)
 8004c6e:	430a      	orrs	r2, r1
 8004c70:	635a      	str	r2, [r3, #52]	@ 0x34
 8004c72:	e034      	b.n	8004cde <HAL_RCC_OscConfig+0x4e2>
    }
    else if(RCC_OscInitStruct->HSI14State == RCC_HSI14_ADC_CONTROL)
 8004c74:	687b      	ldr	r3, [r7, #4]
 8004c76:	695b      	ldr	r3, [r3, #20]
 8004c78:	3305      	adds	r3, #5
 8004c7a:	d111      	bne.n	8004ca0 <HAL_RCC_OscConfig+0x4a4>
    {
      /* Enable ADC control of the Internal High Speed oscillator HSI14 */
      __HAL_RCC_HSI14ADC_ENABLE();
 8004c7c:	4b69      	ldr	r3, [pc, #420]	@ (8004e24 <HAL_RCC_OscConfig+0x628>)
 8004c7e:	6b5a      	ldr	r2, [r3, #52]	@ 0x34
 8004c80:	4b68      	ldr	r3, [pc, #416]	@ (8004e24 <HAL_RCC_OscConfig+0x628>)
 8004c82:	2104      	movs	r1, #4
 8004c84:	438a      	bics	r2, r1
 8004c86:	635a      	str	r2, [r3, #52]	@ 0x34

      /* Adjusts the Internal High Speed oscillator 14Mhz (HSI14) calibration value. */
      __HAL_RCC_HSI14_CALIBRATIONVALUE_ADJUST(RCC_OscInitStruct->HSI14CalibrationValue);
 8004c88:	4b66      	ldr	r3, [pc, #408]	@ (8004e24 <HAL_RCC_OscConfig+0x628>)
 8004c8a:	6b5b      	ldr	r3, [r3, #52]	@ 0x34
 8004c8c:	22f8      	movs	r2, #248	@ 0xf8
 8004c8e:	4393      	bics	r3, r2
 8004c90:	0019      	movs	r1, r3
 8004c92:	687b      	ldr	r3, [r7, #4]
 8004c94:	699b      	ldr	r3, [r3, #24]
 8004c96:	00da      	lsls	r2, r3, #3
 8004c98:	4b62      	ldr	r3, [pc, #392]	@ (8004e24 <HAL_RCC_OscConfig+0x628>)
 8004c9a:	430a      	orrs	r2, r1
 8004c9c:	635a      	str	r2, [r3, #52]	@ 0x34
 8004c9e:	e01e      	b.n	8004cde <HAL_RCC_OscConfig+0x4e2>
    }
    else
    {
      /* Disable ADC control of the Internal High Speed oscillator HSI14 */
      __HAL_RCC_HSI14ADC_DISABLE();
 8004ca0:	4b60      	ldr	r3, [pc, #384]	@ (8004e24 <HAL_RCC_OscConfig+0x628>)
 8004ca2:	6b5a      	ldr	r2, [r3, #52]	@ 0x34
 8004ca4:	4b5f      	ldr	r3, [pc, #380]	@ (8004e24 <HAL_RCC_OscConfig+0x628>)
 8004ca6:	2104      	movs	r1, #4
 8004ca8:	430a      	orrs	r2, r1
 8004caa:	635a      	str	r2, [r3, #52]	@ 0x34

      /* Disable the Internal High Speed oscillator (HSI). */
      __HAL_RCC_HSI14_DISABLE();
 8004cac:	4b5d      	ldr	r3, [pc, #372]	@ (8004e24 <HAL_RCC_OscConfig+0x628>)
 8004cae:	6b5a      	ldr	r2, [r3, #52]	@ 0x34
 8004cb0:	4b5c      	ldr	r3, [pc, #368]	@ (8004e24 <HAL_RCC_OscConfig+0x628>)
 8004cb2:	2101      	movs	r1, #1
 8004cb4:	438a      	bics	r2, r1
 8004cb6:	635a      	str	r2, [r3, #52]	@ 0x34

      /* Get Start Tick */
      tickstart = HAL_GetTick();
 8004cb8:	f7fe ffda 	bl	8003c70 <HAL_GetTick>
 8004cbc:	0003      	movs	r3, r0
 8004cbe:	61bb      	str	r3, [r7, #24]
      
      /* Wait till HSI is ready */  
      while(__HAL_RCC_GET_FLAG(RCC_FLAG_HSI14RDY) != RESET)
 8004cc0:	e008      	b.n	8004cd4 <HAL_RCC_OscConfig+0x4d8>
      {
        if((HAL_GetTick() - tickstart) > HSI14_TIMEOUT_VALUE)
 8004cc2:	f7fe ffd5 	bl	8003c70 <HAL_GetTick>
 8004cc6:	0002      	movs	r2, r0
 8004cc8:	69bb      	ldr	r3, [r7, #24]
 8004cca:	1ad3      	subs	r3, r2, r3
 8004ccc:	2b02      	cmp	r3, #2
 8004cce:	d901      	bls.n	8004cd4 <HAL_RCC_OscConfig+0x4d8>
        {
          return HAL_TIMEOUT;
 8004cd0:	2303      	movs	r3, #3
 8004cd2:	e0a2      	b.n	8004e1a <HAL_RCC_OscConfig+0x61e>
      while(__HAL_RCC_GET_FLAG(RCC_FLAG_HSI14RDY) != RESET)
 8004cd4:	4b53      	ldr	r3, [pc, #332]	@ (8004e24 <HAL_RCC_OscConfig+0x628>)
 8004cd6:	6b5b      	ldr	r3, [r3, #52]	@ 0x34
 8004cd8:	2202      	movs	r2, #2
 8004cda:	4013      	ands	r3, r2
 8004cdc:	d1f1      	bne.n	8004cc2 <HAL_RCC_OscConfig+0x4c6>
#endif /* RCC_HSI48_SUPPORT */
       
  /*-------------------------------- PLL Configuration -----------------------*/
  /* Check the parameters */
  assert_param(IS_RCC_PLL(RCC_OscInitStruct->PLL.PLLState));
  if ((RCC_OscInitStruct->PLL.PLLState) != RCC_PLL_NONE)
 8004cde:	687b      	ldr	r3, [r7, #4]
 8004ce0:	6a1b      	ldr	r3, [r3, #32]
 8004ce2:	2b00      	cmp	r3, #0
 8004ce4:	d100      	bne.n	8004ce8 <HAL_RCC_OscConfig+0x4ec>
 8004ce6:	e097      	b.n	8004e18 <HAL_RCC_OscConfig+0x61c>
  {
    /* Check if the PLL is used as system clock or not */
    if(__HAL_RCC_GET_SYSCLK_SOURCE() != RCC_SYSCLKSOURCE_STATUS_PLLCLK)
 8004ce8:	4b4e      	ldr	r3, [pc, #312]	@ (8004e24 <HAL_RCC_OscConfig+0x628>)
 8004cea:	685b      	ldr	r3, [r3, #4]
 8004cec:	220c      	movs	r2, #12
 8004cee:	4013      	ands	r3, r2
 8004cf0:	2b08      	cmp	r3, #8
 8004cf2:	d100      	bne.n	8004cf6 <HAL_RCC_OscConfig+0x4fa>
 8004cf4:	e06b      	b.n	8004dce <HAL_RCC_OscConfig+0x5d2>
    { 
      if((RCC_OscInitStruct->PLL.PLLState) == RCC_PLL_ON)
 8004cf6:	687b      	ldr	r3, [r7, #4]
 8004cf8:	6a1b      	ldr	r3, [r3, #32]
 8004cfa:	2b02      	cmp	r3, #2
 8004cfc:	d14c      	bne.n	8004d98 <HAL_RCC_OscConfig+0x59c>
        assert_param(IS_RCC_PLLSOURCE(RCC_OscInitStruct->PLL.PLLSource));
        assert_param(IS_RCC_PLL_MUL(RCC_OscInitStruct->PLL.PLLMUL));
        assert_param(IS_RCC_PREDIV(RCC_OscInitStruct->PLL.PREDIV));
  
        /* Disable the main PLL. */
        __HAL_RCC_PLL_DISABLE();
 8004cfe:	4b49      	ldr	r3, [pc, #292]	@ (8004e24 <HAL_RCC_OscConfig+0x628>)
 8004d00:	681a      	ldr	r2, [r3, #0]
 8004d02:	4b48      	ldr	r3, [pc, #288]	@ (8004e24 <HAL_RCC_OscConfig+0x628>)
 8004d04:	494a      	ldr	r1, [pc, #296]	@ (8004e30 <HAL_RCC_OscConfig+0x634>)
 8004d06:	400a      	ands	r2, r1
 8004d08:	601a      	str	r2, [r3, #0]
        
        /* Get Start Tick */
        tickstart = HAL_GetTick();
 8004d0a:	f7fe ffb1 	bl	8003c70 <HAL_GetTick>
 8004d0e:	0003      	movs	r3, r0
 8004d10:	61bb      	str	r3, [r7, #24]
        
        /* Wait till PLL is disabled */
        while(__HAL_RCC_GET_FLAG(RCC_FLAG_PLLRDY)  != RESET)
 8004d12:	e008      	b.n	8004d26 <HAL_RCC_OscConfig+0x52a>
        {
          if((HAL_GetTick() - tickstart ) > PLL_TIMEOUT_VALUE)
 8004d14:	f7fe ffac 	bl	8003c70 <HAL_GetTick>
 8004d18:	0002      	movs	r2, r0
 8004d1a:	69bb      	ldr	r3, [r7, #24]
 8004d1c:	1ad3      	subs	r3, r2, r3
 8004d1e:	2b02      	cmp	r3, #2
 8004d20:	d901      	bls.n	8004d26 <HAL_RCC_OscConfig+0x52a>
          {
            return HAL_TIMEOUT;
 8004d22:	2303      	movs	r3, #3
 8004d24:	e079      	b.n	8004e1a <HAL_RCC_OscConfig+0x61e>
        while(__HAL_RCC_GET_FLAG(RCC_FLAG_PLLRDY)  != RESET)
 8004d26:	4b3f      	ldr	r3, [pc, #252]	@ (8004e24 <HAL_RCC_OscConfig+0x628>)
 8004d28:	681a      	ldr	r2, [r3, #0]
 8004d2a:	2380      	movs	r3, #128	@ 0x80
 8004d2c:	049b      	lsls	r3, r3, #18
 8004d2e:	4013      	ands	r3, r2
 8004d30:	d1f0      	bne.n	8004d14 <HAL_RCC_OscConfig+0x518>
          }
        }

        /* Configure the main PLL clock source, predivider and multiplication factor. */
        __HAL_RCC_PLL_CONFIG(RCC_OscInitStruct->PLL.PLLSource,
 8004d32:	4b3c      	ldr	r3, [pc, #240]	@ (8004e24 <HAL_RCC_OscConfig+0x628>)
 8004d34:	6adb      	ldr	r3, [r3, #44]	@ 0x2c
 8004d36:	220f      	movs	r2, #15
 8004d38:	4393      	bics	r3, r2
 8004d3a:	0019      	movs	r1, r3
 8004d3c:	687b      	ldr	r3, [r7, #4]
 8004d3e:	6ada      	ldr	r2, [r3, #44]	@ 0x2c
 8004d40:	4b38      	ldr	r3, [pc, #224]	@ (8004e24 <HAL_RCC_OscConfig+0x628>)
 8004d42:	430a      	orrs	r2, r1
 8004d44:	62da      	str	r2, [r3, #44]	@ 0x2c
 8004d46:	4b37      	ldr	r3, [pc, #220]	@ (8004e24 <HAL_RCC_OscConfig+0x628>)
 8004d48:	685b      	ldr	r3, [r3, #4]
 8004d4a:	4a3a      	ldr	r2, [pc, #232]	@ (8004e34 <HAL_RCC_OscConfig+0x638>)
 8004d4c:	4013      	ands	r3, r2
 8004d4e:	0019      	movs	r1, r3
 8004d50:	687b      	ldr	r3, [r7, #4]
 8004d52:	6a9a      	ldr	r2, [r3, #40]	@ 0x28
 8004d54:	687b      	ldr	r3, [r7, #4]
 8004d56:	6a5b      	ldr	r3, [r3, #36]	@ 0x24
 8004d58:	431a      	orrs	r2, r3
 8004d5a:	4b32      	ldr	r3, [pc, #200]	@ (8004e24 <HAL_RCC_OscConfig+0x628>)
 8004d5c:	430a      	orrs	r2, r1
 8004d5e:	605a      	str	r2, [r3, #4]
                             RCC_OscInitStruct->PLL.PREDIV,
                             RCC_OscInitStruct->PLL.PLLMUL);
        /* Enable the main PLL. */
        __HAL_RCC_PLL_ENABLE();
 8004d60:	4b30      	ldr	r3, [pc, #192]	@ (8004e24 <HAL_RCC_OscConfig+0x628>)
 8004d62:	681a      	ldr	r2, [r3, #0]
 8004d64:	4b2f      	ldr	r3, [pc, #188]	@ (8004e24 <HAL_RCC_OscConfig+0x628>)
 8004d66:	2180      	movs	r1, #128	@ 0x80
 8004d68:	0449      	lsls	r1, r1, #17
 8004d6a:	430a      	orrs	r2, r1
 8004d6c:	601a      	str	r2, [r3, #0]
        
        /* Get Start Tick */
        tickstart = HAL_GetTick();
 8004d6e:	f7fe ff7f 	bl	8003c70 <HAL_GetTick>
 8004d72:	0003      	movs	r3, r0
 8004d74:	61bb      	str	r3, [r7, #24]
        
        /* Wait till PLL is ready */
        while(__HAL_RCC_GET_FLAG(RCC_FLAG_PLLRDY)  == RESET)
 8004d76:	e008      	b.n	8004d8a <HAL_RCC_OscConfig+0x58e>
        {
          if((HAL_GetTick() - tickstart ) > PLL_TIMEOUT_VALUE)
 8004d78:	f7fe ff7a 	bl	8003c70 <HAL_GetTick>
 8004d7c:	0002      	movs	r2, r0
 8004d7e:	69bb      	ldr	r3, [r7, #24]
 8004d80:	1ad3      	subs	r3, r2, r3
 8004d82:	2b02      	cmp	r3, #2
 8004d84:	d901      	bls.n	8004d8a <HAL_RCC_OscConfig+0x58e>
          {
            return HAL_TIMEOUT;
 8004d86:	2303      	movs	r3, #3
 8004d88:	e047      	b.n	8004e1a <HAL_RCC_OscConfig+0x61e>
        while(__HAL_RCC_GET_FLAG(RCC_FLAG_PLLRDY)  == RESET)
 8004d8a:	4b26      	ldr	r3, [pc, #152]	@ (8004e24 <HAL_RCC_OscConfig+0x628>)
 8004d8c:	681a      	ldr	r2, [r3, #0]
 8004d8e:	2380      	movs	r3, #128	@ 0x80
 8004d90:	049b      	lsls	r3, r3, #18
 8004d92:	4013      	ands	r3, r2
 8004d94:	d0f0      	beq.n	8004d78 <HAL_RCC_OscConfig+0x57c>
 8004d96:	e03f      	b.n	8004e18 <HAL_RCC_OscConfig+0x61c>
        }
      }
      else
      {
        /* Disable the main PLL. */
        __HAL_RCC_PLL_DISABLE();
 8004d98:	4b22      	ldr	r3, [pc, #136]	@ (8004e24 <HAL_RCC_OscConfig+0x628>)
 8004d9a:	681a      	ldr	r2, [r3, #0]
 8004d9c:	4b21      	ldr	r3, [pc, #132]	@ (8004e24 <HAL_RCC_OscConfig+0x628>)
 8004d9e:	4924      	ldr	r1, [pc, #144]	@ (8004e30 <HAL_RCC_OscConfig+0x634>)
 8004da0:	400a      	ands	r2, r1
 8004da2:	601a      	str	r2, [r3, #0]
 
        /* Get Start Tick */
        tickstart = HAL_GetTick();
 8004da4:	f7fe ff64 	bl	8003c70 <HAL_GetTick>
 8004da8:	0003      	movs	r3, r0
 8004daa:	61bb      	str	r3, [r7, #24]
        
        /* Wait till PLL is disabled */  
        while(__HAL_RCC_GET_FLAG(RCC_FLAG_PLLRDY)  != RESET)
 8004dac:	e008      	b.n	8004dc0 <HAL_RCC_OscConfig+0x5c4>
        {
          if((HAL_GetTick() - tickstart ) > PLL_TIMEOUT_VALUE)
 8004dae:	f7fe ff5f 	bl	8003c70 <HAL_GetTick>
 8004db2:	0002      	movs	r2, r0
 8004db4:	69bb      	ldr	r3, [r7, #24]
 8004db6:	1ad3      	subs	r3, r2, r3
 8004db8:	2b02      	cmp	r3, #2
 8004dba:	d901      	bls.n	8004dc0 <HAL_RCC_OscConfig+0x5c4>
          {
            return HAL_TIMEOUT;
 8004dbc:	2303      	movs	r3, #3
 8004dbe:	e02c      	b.n	8004e1a <HAL_RCC_OscConfig+0x61e>
        while(__HAL_RCC_GET_FLAG(RCC_FLAG_PLLRDY)  != RESET)
 8004dc0:	4b18      	ldr	r3, [pc, #96]	@ (8004e24 <HAL_RCC_OscConfig+0x628>)
 8004dc2:	681a      	ldr	r2, [r3, #0]
 8004dc4:	2380      	movs	r3, #128	@ 0x80
 8004dc6:	049b      	lsls	r3, r3, #18
 8004dc8:	4013      	ands	r3, r2
 8004dca:	d1f0      	bne.n	8004dae <HAL_RCC_OscConfig+0x5b2>
 8004dcc:	e024      	b.n	8004e18 <HAL_RCC_OscConfig+0x61c>
      }
    }
    else
    {
      /* Check if there is a request to disable the PLL used as System clock source */
      if((RCC_OscInitStruct->PLL.PLLState) == RCC_PLL_OFF)
 8004dce:	687b      	ldr	r3, [r7, #4]
 8004dd0:	6a1b      	ldr	r3, [r3, #32]
 8004dd2:	2b01      	cmp	r3, #1
 8004dd4:	d101      	bne.n	8004dda <HAL_RCC_OscConfig+0x5de>
      {
        return HAL_ERROR;
 8004dd6:	2301      	movs	r3, #1
 8004dd8:	e01f      	b.n	8004e1a <HAL_RCC_OscConfig+0x61e>
      }
      else
      {
        /* Do not return HAL_ERROR if request repeats the current configuration */
        pll_config  = RCC->CFGR;
 8004dda:	4b12      	ldr	r3, [pc, #72]	@ (8004e24 <HAL_RCC_OscConfig+0x628>)
 8004ddc:	685b      	ldr	r3, [r3, #4]
 8004dde:	617b      	str	r3, [r7, #20]
        pll_config2 = RCC->CFGR2;
 8004de0:	4b10      	ldr	r3, [pc, #64]	@ (8004e24 <HAL_RCC_OscConfig+0x628>)
 8004de2:	6adb      	ldr	r3, [r3, #44]	@ 0x2c
 8004de4:	613b      	str	r3, [r7, #16]
        if((READ_BIT(pll_config,  RCC_CFGR_PLLSRC)  != RCC_OscInitStruct->PLL.PLLSource) ||
 8004de6:	697a      	ldr	r2, [r7, #20]
 8004de8:	23c0      	movs	r3, #192	@ 0xc0
 8004dea:	025b      	lsls	r3, r3, #9
 8004dec:	401a      	ands	r2, r3
 8004dee:	687b      	ldr	r3, [r7, #4]
 8004df0:	6a5b      	ldr	r3, [r3, #36]	@ 0x24
 8004df2:	429a      	cmp	r2, r3
 8004df4:	d10e      	bne.n	8004e14 <HAL_RCC_OscConfig+0x618>
           (READ_BIT(pll_config2, RCC_CFGR2_PREDIV) != RCC_OscInitStruct->PLL.PREDIV)    ||
 8004df6:	693b      	ldr	r3, [r7, #16]
 8004df8:	220f      	movs	r2, #15
 8004dfa:	401a      	ands	r2, r3
 8004dfc:	687b      	ldr	r3, [r7, #4]
 8004dfe:	6adb      	ldr	r3, [r3, #44]	@ 0x2c
        if((READ_BIT(pll_config,  RCC_CFGR_PLLSRC)  != RCC_OscInitStruct->PLL.PLLSource) ||
 8004e00:	429a      	cmp	r2, r3
 8004e02:	d107      	bne.n	8004e14 <HAL_RCC_OscConfig+0x618>
           (READ_BIT(pll_config,  RCC_CFGR_PLLMUL)  != RCC_OscInitStruct->PLL.PLLMUL))
 8004e04:	697a      	ldr	r2, [r7, #20]
 8004e06:	23f0      	movs	r3, #240	@ 0xf0
 8004e08:	039b      	lsls	r3, r3, #14
 8004e0a:	401a      	ands	r2, r3
 8004e0c:	687b      	ldr	r3, [r7, #4]
 8004e0e:	6a9b      	ldr	r3, [r3, #40]	@ 0x28
           (READ_BIT(pll_config2, RCC_CFGR2_PREDIV) != RCC_OscInitStruct->PLL.PREDIV)    ||
 8004e10:	429a      	cmp	r2, r3
 8004e12:	d001      	beq.n	8004e18 <HAL_RCC_OscConfig+0x61c>
        {
          return HAL_ERROR;
 8004e14:	2301      	movs	r3, #1
 8004e16:	e000      	b.n	8004e1a <HAL_RCC_OscConfig+0x61e>
        }
      }
    }
  }

  return HAL_OK;
 8004e18:	2300      	movs	r3, #0
}
 8004e1a:	0018      	movs	r0, r3
 8004e1c:	46bd      	mov	sp, r7
 8004e1e:	b008      	add	sp, #32
 8004e20:	bd80      	pop	{r7, pc}
 8004e22:	46c0      	nop			@ (mov r8, r8)
 8004e24:	40021000 	.word	0x40021000
 8004e28:	00001388 	.word	0x00001388
 8004e2c:	efffffff 	.word	0xefffffff
 8004e30:	feffffff 	.word	0xfeffffff
 8004e34:	ffc27fff 	.word	0xffc27fff

08004e38 <HAL_RCC_ClockConfig>:
  *         You can use @ref HAL_RCC_GetClockConfig() function to know which clock is
  *         currently used as system clock source.
  * @retval HAL status
  */
HAL_StatusTypeDef HAL_RCC_ClockConfig(RCC_ClkInitTypeDef  *RCC_ClkInitStruct, uint32_t FLatency)
{
 8004e38:	b580      	push	{r7, lr}
 8004e3a:	b084      	sub	sp, #16
 8004e3c:	af00      	add	r7, sp, #0
 8004e3e:	6078      	str	r0, [r7, #4]
 8004e40:	6039      	str	r1, [r7, #0]
  uint32_t tickstart;

  /* Check Null pointer */
  if(RCC_ClkInitStruct == NULL)
 8004e42:	687b      	ldr	r3, [r7, #4]
 8004e44:	2b00      	cmp	r3, #0
 8004e46:	d101      	bne.n	8004e4c <HAL_RCC_ClockConfig+0x14>
  {
    return HAL_ERROR;
 8004e48:	2301      	movs	r3, #1
 8004e4a:	e0b3      	b.n	8004fb4 <HAL_RCC_ClockConfig+0x17c>
  /* To correctly read data from FLASH memory, the number of wait states (LATENCY) 
  must be correctly programmed according to the frequency of the CPU clock 
    (HCLK) of the device. */

  /* Increasing the number of wait states because of higher CPU frequency */
  if(FLatency > __HAL_FLASH_GET_LATENCY())
 8004e4c:	4b5b      	ldr	r3, [pc, #364]	@ (8004fbc <HAL_RCC_ClockConfig+0x184>)
 8004e4e:	681b      	ldr	r3, [r3, #0]
 8004e50:	2201      	movs	r2, #1
 8004e52:	4013      	ands	r3, r2
 8004e54:	683a      	ldr	r2, [r7, #0]
 8004e56:	429a      	cmp	r2, r3
 8004e58:	d911      	bls.n	8004e7e <HAL_RCC_ClockConfig+0x46>
  {    
    /* Program the new number of wait states to the LATENCY bits in the FLASH_ACR register */
    __HAL_FLASH_SET_LATENCY(FLatency);
 8004e5a:	4b58      	ldr	r3, [pc, #352]	@ (8004fbc <HAL_RCC_ClockConfig+0x184>)
 8004e5c:	681b      	ldr	r3, [r3, #0]
 8004e5e:	2201      	movs	r2, #1
 8004e60:	4393      	bics	r3, r2
 8004e62:	0019      	movs	r1, r3
 8004e64:	4b55      	ldr	r3, [pc, #340]	@ (8004fbc <HAL_RCC_ClockConfig+0x184>)
 8004e66:	683a      	ldr	r2, [r7, #0]
 8004e68:	430a      	orrs	r2, r1
 8004e6a:	601a      	str	r2, [r3, #0]
    
    /* Check that the new number of wait states is taken into account to access the Flash
    memory by reading the FLASH_ACR register */
    if(__HAL_FLASH_GET_LATENCY() != FLatency)
 8004e6c:	4b53      	ldr	r3, [pc, #332]	@ (8004fbc <HAL_RCC_ClockConfig+0x184>)
 8004e6e:	681b      	ldr	r3, [r3, #0]
 8004e70:	2201      	movs	r2, #1
 8004e72:	4013      	ands	r3, r2
 8004e74:	683a      	ldr	r2, [r7, #0]
 8004e76:	429a      	cmp	r2, r3
 8004e78:	d001      	beq.n	8004e7e <HAL_RCC_ClockConfig+0x46>
    {
      return HAL_ERROR;
 8004e7a:	2301      	movs	r3, #1
 8004e7c:	e09a      	b.n	8004fb4 <HAL_RCC_ClockConfig+0x17c>
    }
  }

  /*-------------------------- HCLK Configuration --------------------------*/
  if(((RCC_ClkInitStruct->ClockType) & RCC_CLOCKTYPE_HCLK) == RCC_CLOCKTYPE_HCLK)
 8004e7e:	687b      	ldr	r3, [r7, #4]
 8004e80:	681b      	ldr	r3, [r3, #0]
 8004e82:	2202      	movs	r2, #2
 8004e84:	4013      	ands	r3, r2
 8004e86:	d015      	beq.n	8004eb4 <HAL_RCC_ClockConfig+0x7c>
  {
    /* Set the highest APB divider in order to ensure that we do not go through
       a non-spec phase whatever we decrease or increase HCLK. */
    if(((RCC_ClkInitStruct->ClockType) & RCC_CLOCKTYPE_PCLK1) == RCC_CLOCKTYPE_PCLK1)
 8004e88:	687b      	ldr	r3, [r7, #4]
 8004e8a:	681b      	ldr	r3, [r3, #0]
 8004e8c:	2204      	movs	r2, #4
 8004e8e:	4013      	ands	r3, r2
 8004e90:	d006      	beq.n	8004ea0 <HAL_RCC_ClockConfig+0x68>
    {
      MODIFY_REG(RCC->CFGR, RCC_CFGR_PPRE, RCC_HCLK_DIV16);
 8004e92:	4b4b      	ldr	r3, [pc, #300]	@ (8004fc0 <HAL_RCC_ClockConfig+0x188>)
 8004e94:	685a      	ldr	r2, [r3, #4]
 8004e96:	4b4a      	ldr	r3, [pc, #296]	@ (8004fc0 <HAL_RCC_ClockConfig+0x188>)
 8004e98:	21e0      	movs	r1, #224	@ 0xe0
 8004e9a:	00c9      	lsls	r1, r1, #3
 8004e9c:	430a      	orrs	r2, r1
 8004e9e:	605a      	str	r2, [r3, #4]
    }

    /* Set the new HCLK clock divider */
    assert_param(IS_RCC_HCLK(RCC_ClkInitStruct->AHBCLKDivider));
    MODIFY_REG(RCC->CFGR, RCC_CFGR_HPRE, RCC_ClkInitStruct->AHBCLKDivider);
 8004ea0:	4b47      	ldr	r3, [pc, #284]	@ (8004fc0 <HAL_RCC_ClockConfig+0x188>)
 8004ea2:	685b      	ldr	r3, [r3, #4]
 8004ea4:	22f0      	movs	r2, #240	@ 0xf0
 8004ea6:	4393      	bics	r3, r2
 8004ea8:	0019      	movs	r1, r3
 8004eaa:	687b      	ldr	r3, [r7, #4]
 8004eac:	689a      	ldr	r2, [r3, #8]
 8004eae:	4b44      	ldr	r3, [pc, #272]	@ (8004fc0 <HAL_RCC_ClockConfig+0x188>)
 8004eb0:	430a      	orrs	r2, r1
 8004eb2:	605a      	str	r2, [r3, #4]
  }

  /*------------------------- SYSCLK Configuration ---------------------------*/ 
  if(((RCC_ClkInitStruct->ClockType) & RCC_CLOCKTYPE_SYSCLK) == RCC_CLOCKTYPE_SYSCLK)
 8004eb4:	687b      	ldr	r3, [r7, #4]
 8004eb6:	681b      	ldr	r3, [r3, #0]
 8004eb8:	2201      	movs	r2, #1
 8004eba:	4013      	ands	r3, r2
 8004ebc:	d040      	beq.n	8004f40 <HAL_RCC_ClockConfig+0x108>
  {
    assert_param(IS_RCC_SYSCLKSOURCE(RCC_ClkInitStruct->SYSCLKSource));
    
    /* HSE is selected as System Clock Source */
    if(RCC_ClkInitStruct->SYSCLKSource == RCC_SYSCLKSOURCE_HSE)
 8004ebe:	687b      	ldr	r3, [r7, #4]
 8004ec0:	685b      	ldr	r3, [r3, #4]
 8004ec2:	2b01      	cmp	r3, #1
 8004ec4:	d107      	bne.n	8004ed6 <HAL_RCC_ClockConfig+0x9e>
    {
      /* Check the HSE ready flag */  
      if(__HAL_RCC_GET_FLAG(RCC_FLAG_HSERDY) == RESET)
 8004ec6:	4b3e      	ldr	r3, [pc, #248]	@ (8004fc0 <HAL_RCC_ClockConfig+0x188>)
 8004ec8:	681a      	ldr	r2, [r3, #0]
 8004eca:	2380      	movs	r3, #128	@ 0x80
 8004ecc:	029b      	lsls	r3, r3, #10
 8004ece:	4013      	ands	r3, r2
 8004ed0:	d114      	bne.n	8004efc <HAL_RCC_ClockConfig+0xc4>
      {
        return HAL_ERROR;
 8004ed2:	2301      	movs	r3, #1
 8004ed4:	e06e      	b.n	8004fb4 <HAL_RCC_ClockConfig+0x17c>
      }
    }
    /* PLL is selected as System Clock Source */
    else if(RCC_ClkInitStruct->SYSCLKSource == RCC_SYSCLKSOURCE_PLLCLK)
 8004ed6:	687b      	ldr	r3, [r7, #4]
 8004ed8:	685b      	ldr	r3, [r3, #4]
 8004eda:	2b02      	cmp	r3, #2
 8004edc:	d107      	bne.n	8004eee <HAL_RCC_ClockConfig+0xb6>
    {
      /* Check the PLL ready flag */  
      if(__HAL_RCC_GET_FLAG(RCC_FLAG_PLLRDY) == RESET)
 8004ede:	4b38      	ldr	r3, [pc, #224]	@ (8004fc0 <HAL_RCC_ClockConfig+0x188>)
 8004ee0:	681a      	ldr	r2, [r3, #0]
 8004ee2:	2380      	movs	r3, #128	@ 0x80
 8004ee4:	049b      	lsls	r3, r3, #18
 8004ee6:	4013      	ands	r3, r2
 8004ee8:	d108      	bne.n	8004efc <HAL_RCC_ClockConfig+0xc4>
      {
        return HAL_ERROR;
 8004eea:	2301      	movs	r3, #1
 8004eec:	e062      	b.n	8004fb4 <HAL_RCC_ClockConfig+0x17c>
#endif /* RCC_CFGR_SWS_HSI48 */
    /* HSI is selected as System Clock Source */
    else
    {
      /* Check the HSI ready flag */  
      if(__HAL_RCC_GET_FLAG(RCC_FLAG_HSIRDY) == RESET)
 8004eee:	4b34      	ldr	r3, [pc, #208]	@ (8004fc0 <HAL_RCC_ClockConfig+0x188>)
 8004ef0:	681b      	ldr	r3, [r3, #0]
 8004ef2:	2202      	movs	r2, #2
 8004ef4:	4013      	ands	r3, r2
 8004ef6:	d101      	bne.n	8004efc <HAL_RCC_ClockConfig+0xc4>
      {
        return HAL_ERROR;
 8004ef8:	2301      	movs	r3, #1
 8004efa:	e05b      	b.n	8004fb4 <HAL_RCC_ClockConfig+0x17c>
      }
    }
    __HAL_RCC_SYSCLK_CONFIG(RCC_ClkInitStruct->SYSCLKSource);
 8004efc:	4b30      	ldr	r3, [pc, #192]	@ (8004fc0 <HAL_RCC_ClockConfig+0x188>)
 8004efe:	685b      	ldr	r3, [r3, #4]
 8004f00:	2203      	movs	r2, #3
 8004f02:	4393      	bics	r3, r2
 8004f04:	0019      	movs	r1, r3
 8004f06:	687b      	ldr	r3, [r7, #4]
 8004f08:	685a      	ldr	r2, [r3, #4]
 8004f0a:	4b2d      	ldr	r3, [pc, #180]	@ (8004fc0 <HAL_RCC_ClockConfig+0x188>)
 8004f0c:	430a      	orrs	r2, r1
 8004f0e:	605a      	str	r2, [r3, #4]

    /* Get Start Tick */
    tickstart = HAL_GetTick();
 8004f10:	f7fe feae 	bl	8003c70 <HAL_GetTick>
 8004f14:	0003      	movs	r3, r0
 8004f16:	60fb      	str	r3, [r7, #12]
    
    while (__HAL_RCC_GET_SYSCLK_SOURCE() != (RCC_ClkInitStruct->SYSCLKSource << RCC_CFGR_SWS_Pos))
 8004f18:	e009      	b.n	8004f2e <HAL_RCC_ClockConfig+0xf6>
    {
      if((HAL_GetTick() - tickstart ) > CLOCKSWITCH_TIMEOUT_VALUE)
 8004f1a:	f7fe fea9 	bl	8003c70 <HAL_GetTick>
 8004f1e:	0002      	movs	r2, r0
 8004f20:	68fb      	ldr	r3, [r7, #12]
 8004f22:	1ad3      	subs	r3, r2, r3
 8004f24:	4a27      	ldr	r2, [pc, #156]	@ (8004fc4 <HAL_RCC_ClockConfig+0x18c>)
 8004f26:	4293      	cmp	r3, r2
 8004f28:	d901      	bls.n	8004f2e <HAL_RCC_ClockConfig+0xf6>
      {
        return HAL_TIMEOUT;
 8004f2a:	2303      	movs	r3, #3
 8004f2c:	e042      	b.n	8004fb4 <HAL_RCC_ClockConfig+0x17c>
    while (__HAL_RCC_GET_SYSCLK_SOURCE() != (RCC_ClkInitStruct->SYSCLKSource << RCC_CFGR_SWS_Pos))
 8004f2e:	4b24      	ldr	r3, [pc, #144]	@ (8004fc0 <HAL_RCC_ClockConfig+0x188>)
 8004f30:	685b      	ldr	r3, [r3, #4]
 8004f32:	220c      	movs	r2, #12
 8004f34:	401a      	ands	r2, r3
 8004f36:	687b      	ldr	r3, [r7, #4]
 8004f38:	685b      	ldr	r3, [r3, #4]
 8004f3a:	009b      	lsls	r3, r3, #2
 8004f3c:	429a      	cmp	r2, r3
 8004f3e:	d1ec      	bne.n	8004f1a <HAL_RCC_ClockConfig+0xe2>
      }
    }
  }

  /* Decreasing the number of wait states because of lower CPU frequency */
  if(FLatency < __HAL_FLASH_GET_LATENCY())
 8004f40:	4b1e      	ldr	r3, [pc, #120]	@ (8004fbc <HAL_RCC_ClockConfig+0x184>)
 8004f42:	681b      	ldr	r3, [r3, #0]
 8004f44:	2201      	movs	r2, #1
 8004f46:	4013      	ands	r3, r2
 8004f48:	683a      	ldr	r2, [r7, #0]
 8004f4a:	429a      	cmp	r2, r3
 8004f4c:	d211      	bcs.n	8004f72 <HAL_RCC_ClockConfig+0x13a>
  {    
    /* Program the new number of wait states to the LATENCY bits in the FLASH_ACR register */
    __HAL_FLASH_SET_LATENCY(FLatency);
 8004f4e:	4b1b      	ldr	r3, [pc, #108]	@ (8004fbc <HAL_RCC_ClockConfig+0x184>)
 8004f50:	681b      	ldr	r3, [r3, #0]
 8004f52:	2201      	movs	r2, #1
 8004f54:	4393      	bics	r3, r2
 8004f56:	0019      	movs	r1, r3
 8004f58:	4b18      	ldr	r3, [pc, #96]	@ (8004fbc <HAL_RCC_ClockConfig+0x184>)
 8004f5a:	683a      	ldr	r2, [r7, #0]
 8004f5c:	430a      	orrs	r2, r1
 8004f5e:	601a      	str	r2, [r3, #0]
    
    /* Check that the new number of wait states is taken into account to access the Flash
    memory by reading the FLASH_ACR register */
    if(__HAL_FLASH_GET_LATENCY() != FLatency)
 8004f60:	4b16      	ldr	r3, [pc, #88]	@ (8004fbc <HAL_RCC_ClockConfig+0x184>)
 8004f62:	681b      	ldr	r3, [r3, #0]
 8004f64:	2201      	movs	r2, #1
 8004f66:	4013      	ands	r3, r2
 8004f68:	683a      	ldr	r2, [r7, #0]
 8004f6a:	429a      	cmp	r2, r3
 8004f6c:	d001      	beq.n	8004f72 <HAL_RCC_ClockConfig+0x13a>
    {
      return HAL_ERROR;
 8004f6e:	2301      	movs	r3, #1
 8004f70:	e020      	b.n	8004fb4 <HAL_RCC_ClockConfig+0x17c>
    }
  }    

  /*-------------------------- PCLK1 Configuration ---------------------------*/ 
  if(((RCC_ClkInitStruct->ClockType) & RCC_CLOCKTYPE_PCLK1) == RCC_CLOCKTYPE_PCLK1)
 8004f72:	687b      	ldr	r3, [r7, #4]
 8004f74:	681b      	ldr	r3, [r3, #0]
 8004f76:	2204      	movs	r2, #4
 8004f78:	4013      	ands	r3, r2
 8004f7a:	d009      	beq.n	8004f90 <HAL_RCC_ClockConfig+0x158>
  {
    assert_param(IS_RCC_PCLK(RCC_ClkInitStruct->APB1CLKDivider));
    MODIFY_REG(RCC->CFGR, RCC_CFGR_PPRE, RCC_ClkInitStruct->APB1CLKDivider);
 8004f7c:	4b10      	ldr	r3, [pc, #64]	@ (8004fc0 <HAL_RCC_ClockConfig+0x188>)
 8004f7e:	685b      	ldr	r3, [r3, #4]
 8004f80:	4a11      	ldr	r2, [pc, #68]	@ (8004fc8 <HAL_RCC_ClockConfig+0x190>)
 8004f82:	4013      	ands	r3, r2
 8004f84:	0019      	movs	r1, r3
 8004f86:	687b      	ldr	r3, [r7, #4]
 8004f88:	68da      	ldr	r2, [r3, #12]
 8004f8a:	4b0d      	ldr	r3, [pc, #52]	@ (8004fc0 <HAL_RCC_ClockConfig+0x188>)
 8004f8c:	430a      	orrs	r2, r1
 8004f8e:	605a      	str	r2, [r3, #4]
  }
  
  /* Update the SystemCoreClock global variable */
  SystemCoreClock = HAL_RCC_GetSysClockFreq() >> AHBPrescTable[(RCC->CFGR & RCC_CFGR_HPRE)>> RCC_CFGR_HPRE_BITNUMBER];
 8004f90:	f000 f820 	bl	8004fd4 <HAL_RCC_GetSysClockFreq>
 8004f94:	0001      	movs	r1, r0
 8004f96:	4b0a      	ldr	r3, [pc, #40]	@ (8004fc0 <HAL_RCC_ClockConfig+0x188>)
 8004f98:	685b      	ldr	r3, [r3, #4]
 8004f9a:	091b      	lsrs	r3, r3, #4
 8004f9c:	220f      	movs	r2, #15
 8004f9e:	4013      	ands	r3, r2
 8004fa0:	4a0a      	ldr	r2, [pc, #40]	@ (8004fcc <HAL_RCC_ClockConfig+0x194>)
 8004fa2:	5cd3      	ldrb	r3, [r2, r3]
 8004fa4:	000a      	movs	r2, r1
 8004fa6:	40da      	lsrs	r2, r3
 8004fa8:	4b09      	ldr	r3, [pc, #36]	@ (8004fd0 <HAL_RCC_ClockConfig+0x198>)
 8004faa:	601a      	str	r2, [r3, #0]

  /* Configure the source of time base considering new system clocks settings*/
  HAL_InitTick (TICK_INT_PRIORITY);
 8004fac:	2000      	movs	r0, #0
 8004fae:	f7fe fe19 	bl	8003be4 <HAL_InitTick>
  
  return HAL_OK;
 8004fb2:	2300      	movs	r3, #0
}
 8004fb4:	0018      	movs	r0, r3
 8004fb6:	46bd      	mov	sp, r7
 8004fb8:	b004      	add	sp, #16
 8004fba:	bd80      	pop	{r7, pc}
 8004fbc:	40022000 	.word	0x40022000
 8004fc0:	40021000 	.word	0x40021000
 8004fc4:	00001388 	.word	0x00001388
 8004fc8:	fffff8ff 	.word	0xfffff8ff
 8004fcc:	08006fd8 	.word	0x08006fd8
 8004fd0:	20000000 	.word	0x20000000

08004fd4 <HAL_RCC_GetSysClockFreq>:
  *         right SYSCLK value. Otherwise, any configuration based on this function will be incorrect.
  *         
  * @retval SYSCLK frequency
  */
uint32_t HAL_RCC_GetSysClockFreq(void)
{
 8004fd4:	b580      	push	{r7, lr}
 8004fd6:	b086      	sub	sp, #24
 8004fd8:	af00      	add	r7, sp, #0
  static const uint8_t aPLLMULFactorTable[16U] = { 2U,  3U,  4U,  5U,  6U,  7U,  8U,  9U,
                                                   10U, 11U, 12U, 13U, 14U, 15U, 16U, 16U};
  static const uint8_t aPredivFactorTable[16U] = { 1U, 2U,  3U,  4U,  5U,  6U,  7U,  8U,
                                                   9U,10U, 11U, 12U, 13U, 14U, 15U, 16U};

  uint32_t tmpreg = 0U, prediv = 0U, pllclk = 0U, pllmul = 0U;
 8004fda:	2300      	movs	r3, #0
 8004fdc:	60fb      	str	r3, [r7, #12]
 8004fde:	2300      	movs	r3, #0
 8004fe0:	60bb      	str	r3, [r7, #8]
 8004fe2:	2300      	movs	r3, #0
 8004fe4:	617b      	str	r3, [r7, #20]
 8004fe6:	2300      	movs	r3, #0
 8004fe8:	607b      	str	r3, [r7, #4]
  uint32_t sysclockfreq = 0U;
 8004fea:	2300      	movs	r3, #0
 8004fec:	613b      	str	r3, [r7, #16]
  
  tmpreg = RCC->CFGR;
 8004fee:	4b21      	ldr	r3, [pc, #132]	@ (8005074 <HAL_RCC_GetSysClockFreq+0xa0>)
 8004ff0:	685b      	ldr	r3, [r3, #4]
 8004ff2:	60fb      	str	r3, [r7, #12]
  
  /* Get SYSCLK source -------------------------------------------------------*/
  switch (tmpreg & RCC_CFGR_SWS)
 8004ff4:	68fb      	ldr	r3, [r7, #12]
 8004ff6:	220c      	movs	r2, #12
 8004ff8:	4013      	ands	r3, r2
 8004ffa:	2b04      	cmp	r3, #4
 8004ffc:	d002      	beq.n	8005004 <HAL_RCC_GetSysClockFreq+0x30>
 8004ffe:	2b08      	cmp	r3, #8
 8005000:	d003      	beq.n	800500a <HAL_RCC_GetSysClockFreq+0x36>
 8005002:	e02e      	b.n	8005062 <HAL_RCC_GetSysClockFreq+0x8e>
  {
    case RCC_SYSCLKSOURCE_STATUS_HSE:  /* HSE used as system clock */
    {
      sysclockfreq = HSE_VALUE;
 8005004:	4b1c      	ldr	r3, [pc, #112]	@ (8005078 <HAL_RCC_GetSysClockFreq+0xa4>)
 8005006:	613b      	str	r3, [r7, #16]
      break;
 8005008:	e02e      	b.n	8005068 <HAL_RCC_GetSysClockFreq+0x94>
    }
    case RCC_SYSCLKSOURCE_STATUS_PLLCLK:  /* PLL used as system clock */
    {
      pllmul = aPLLMULFactorTable[(uint32_t)(tmpreg & RCC_CFGR_PLLMUL) >> RCC_CFGR_PLLMUL_BITNUMBER];
 800500a:	68fb      	ldr	r3, [r7, #12]
 800500c:	0c9b      	lsrs	r3, r3, #18
 800500e:	220f      	movs	r2, #15
 8005010:	4013      	ands	r3, r2
 8005012:	4a1a      	ldr	r2, [pc, #104]	@ (800507c <HAL_RCC_GetSysClockFreq+0xa8>)
 8005014:	5cd3      	ldrb	r3, [r2, r3]
 8005016:	607b      	str	r3, [r7, #4]
      prediv = aPredivFactorTable[(uint32_t)(RCC->CFGR2 & RCC_CFGR2_PREDIV) >> RCC_CFGR2_PREDIV_BITNUMBER];
 8005018:	4b16      	ldr	r3, [pc, #88]	@ (8005074 <HAL_RCC_GetSysClockFreq+0xa0>)
 800501a:	6adb      	ldr	r3, [r3, #44]	@ 0x2c
 800501c:	220f      	movs	r2, #15
 800501e:	4013      	ands	r3, r2
 8005020:	4a17      	ldr	r2, [pc, #92]	@ (8005080 <HAL_RCC_GetSysClockFreq+0xac>)
 8005022:	5cd3      	ldrb	r3, [r2, r3]
 8005024:	60bb      	str	r3, [r7, #8]
      if ((tmpreg & RCC_CFGR_PLLSRC) == RCC_PLLSOURCE_HSE)
 8005026:	68fa      	ldr	r2, [r7, #12]
 8005028:	23c0      	movs	r3, #192	@ 0xc0
 800502a:	025b      	lsls	r3, r3, #9
 800502c:	401a      	ands	r2, r3
 800502e:	2380      	movs	r3, #128	@ 0x80
 8005030:	025b      	lsls	r3, r3, #9
 8005032:	429a      	cmp	r2, r3
 8005034:	d109      	bne.n	800504a <HAL_RCC_GetSysClockFreq+0x76>
      {
        /* HSE used as PLL clock source : PLLCLK = HSE/PREDIV * PLLMUL */
        pllclk = (uint32_t)((uint64_t) HSE_VALUE / (uint64_t) (prediv)) * ((uint64_t) pllmul);
 8005036:	68b9      	ldr	r1, [r7, #8]
 8005038:	480f      	ldr	r0, [pc, #60]	@ (8005078 <HAL_RCC_GetSysClockFreq+0xa4>)
 800503a:	f7fb f863 	bl	8000104 <__udivsi3>
 800503e:	0003      	movs	r3, r0
 8005040:	001a      	movs	r2, r3
 8005042:	687b      	ldr	r3, [r7, #4]
 8005044:	4353      	muls	r3, r2
 8005046:	617b      	str	r3, [r7, #20]
 8005048:	e008      	b.n	800505c <HAL_RCC_GetSysClockFreq+0x88>
#endif /* RCC_CFGR_PLLSRC_HSI48_PREDIV */
      else
      {
#if  (defined(STM32F042x6) || defined(STM32F048xx) || defined(STM32F070x6) || defined(STM32F071xB) || defined(STM32F072xB) || defined(STM32F078xx) || defined(STM32F070xB) || defined(STM32F091xC) || defined(STM32F098xx) || defined(STM32F030xC))
        /* HSI used as PLL clock source : PLLCLK = HSI/PREDIV * PLLMUL */
        pllclk = (uint32_t)((uint64_t) HSI_VALUE / (uint64_t) (prediv)) * ((uint64_t) pllmul);
 800504a:	68b9      	ldr	r1, [r7, #8]
 800504c:	480a      	ldr	r0, [pc, #40]	@ (8005078 <HAL_RCC_GetSysClockFreq+0xa4>)
 800504e:	f7fb f859 	bl	8000104 <__udivsi3>
 8005052:	0003      	movs	r3, r0
 8005054:	001a      	movs	r2, r3
 8005056:	687b      	ldr	r3, [r7, #4]
 8005058:	4353      	muls	r3, r2
 800505a:	617b      	str	r3, [r7, #20]
#else
        /* HSI used as PLL clock source : PLLCLK = HSI/2 * PLLMUL */
        pllclk = (uint32_t)((uint64_t) (HSI_VALUE >> 1U) * ((uint64_t) pllmul));
#endif
      }
      sysclockfreq = pllclk;
 800505c:	697b      	ldr	r3, [r7, #20]
 800505e:	613b      	str	r3, [r7, #16]
      break;
 8005060:	e002      	b.n	8005068 <HAL_RCC_GetSysClockFreq+0x94>
    }
#endif /* RCC_CFGR_SWS_HSI48 */
    case RCC_SYSCLKSOURCE_STATUS_HSI:  /* HSI used as system clock source */
    default: /* HSI used as system clock */
    {
      sysclockfreq = HSI_VALUE;
 8005062:	4b05      	ldr	r3, [pc, #20]	@ (8005078 <HAL_RCC_GetSysClockFreq+0xa4>)
 8005064:	613b      	str	r3, [r7, #16]
      break;
 8005066:	46c0      	nop			@ (mov r8, r8)
    }
  }
  return sysclockfreq;
 8005068:	693b      	ldr	r3, [r7, #16]
}
 800506a:	0018      	movs	r0, r3
 800506c:	46bd      	mov	sp, r7
 800506e:	b006      	add	sp, #24
 8005070:	bd80      	pop	{r7, pc}
 8005072:	46c0      	nop			@ (mov r8, r8)
 8005074:	40021000 	.word	0x40021000
 8005078:	007a1200 	.word	0x007a1200
 800507c:	08006fe8 	.word	0x08006fe8
 8005080:	08006ff8 	.word	0x08006ff8

08005084 <HAL_RCCEx_PeriphCLKConfig>:
  *         the backup registers) and RCC_BDCR register are set to their reset values.
  *
  * @retval HAL status
  */
HAL_StatusTypeDef HAL_RCCEx_PeriphCLKConfig(RCC_PeriphCLKInitTypeDef  *PeriphClkInit)
{
 8005084:	b580      	push	{r7, lr}
 8005086:	b086      	sub	sp, #24
 8005088:	af00      	add	r7, sp, #0
 800508a:	6078      	str	r0, [r7, #4]
  uint32_t tickstart = 0U;
 800508c:	2300      	movs	r3, #0
 800508e:	613b      	str	r3, [r7, #16]
  uint32_t temp_reg = 0U;
 8005090:	2300      	movs	r3, #0
 8005092:	60fb      	str	r3, [r7, #12]

  /* Check the parameters */
  assert_param(IS_RCC_PERIPHCLOCK(PeriphClkInit->PeriphClockSelection));
  
  /*---------------------------- RTC configuration -------------------------------*/
  if(((PeriphClkInit->PeriphClockSelection) & RCC_PERIPHCLK_RTC) == (RCC_PERIPHCLK_RTC))
 8005094:	687b      	ldr	r3, [r7, #4]
 8005096:	681a      	ldr	r2, [r3, #0]
 8005098:	2380      	movs	r3, #128	@ 0x80
 800509a:	025b      	lsls	r3, r3, #9
 800509c:	4013      	ands	r3, r2
 800509e:	d100      	bne.n	80050a2 <HAL_RCCEx_PeriphCLKConfig+0x1e>
 80050a0:	e08e      	b.n	80051c0 <HAL_RCCEx_PeriphCLKConfig+0x13c>
  {
    /* check for RTC Parameters used to output RTCCLK */
    assert_param(IS_RCC_RTCCLKSOURCE(PeriphClkInit->RTCClockSelection));
    
    FlagStatus       pwrclkchanged = RESET;
 80050a2:	2017      	movs	r0, #23
 80050a4:	183b      	adds	r3, r7, r0
 80050a6:	2200      	movs	r2, #0
 80050a8:	701a      	strb	r2, [r3, #0]

    /* As soon as function is called to change RTC clock source, activation of the 
       power domain is done. */
    /* Requires to enable write access to Backup Domain of necessary */
    if(__HAL_RCC_PWR_IS_CLK_DISABLED())
 80050aa:	4b57      	ldr	r3, [pc, #348]	@ (8005208 <HAL_RCCEx_PeriphCLKConfig+0x184>)
 80050ac:	69da      	ldr	r2, [r3, #28]
 80050ae:	2380      	movs	r3, #128	@ 0x80
 80050b0:	055b      	lsls	r3, r3, #21
 80050b2:	4013      	ands	r3, r2
 80050b4:	d110      	bne.n	80050d8 <HAL_RCCEx_PeriphCLKConfig+0x54>
    {
    __HAL_RCC_PWR_CLK_ENABLE();
 80050b6:	4b54      	ldr	r3, [pc, #336]	@ (8005208 <HAL_RCCEx_PeriphCLKConfig+0x184>)
 80050b8:	69da      	ldr	r2, [r3, #28]
 80050ba:	4b53      	ldr	r3, [pc, #332]	@ (8005208 <HAL_RCCEx_PeriphCLKConfig+0x184>)
 80050bc:	2180      	movs	r1, #128	@ 0x80
 80050be:	0549      	lsls	r1, r1, #21
 80050c0:	430a      	orrs	r2, r1
 80050c2:	61da      	str	r2, [r3, #28]
 80050c4:	4b50      	ldr	r3, [pc, #320]	@ (8005208 <HAL_RCCEx_PeriphCLKConfig+0x184>)
 80050c6:	69da      	ldr	r2, [r3, #28]
 80050c8:	2380      	movs	r3, #128	@ 0x80
 80050ca:	055b      	lsls	r3, r3, #21
 80050cc:	4013      	ands	r3, r2
 80050ce:	60bb      	str	r3, [r7, #8]
 80050d0:	68bb      	ldr	r3, [r7, #8]
      pwrclkchanged = SET;
 80050d2:	183b      	adds	r3, r7, r0
 80050d4:	2201      	movs	r2, #1
 80050d6:	701a      	strb	r2, [r3, #0]
    }
    
    if(HAL_IS_BIT_CLR(PWR->CR, PWR_CR_DBP))
 80050d8:	4b4c      	ldr	r3, [pc, #304]	@ (800520c <HAL_RCCEx_PeriphCLKConfig+0x188>)
 80050da:	681a      	ldr	r2, [r3, #0]
 80050dc:	2380      	movs	r3, #128	@ 0x80
 80050de:	005b      	lsls	r3, r3, #1
 80050e0:	4013      	ands	r3, r2
 80050e2:	d11a      	bne.n	800511a <HAL_RCCEx_PeriphCLKConfig+0x96>
    {
      /* Enable write access to Backup domain */
      SET_BIT(PWR->CR, PWR_CR_DBP);
 80050e4:	4b49      	ldr	r3, [pc, #292]	@ (800520c <HAL_RCCEx_PeriphCLKConfig+0x188>)
 80050e6:	681a      	ldr	r2, [r3, #0]
 80050e8:	4b48      	ldr	r3, [pc, #288]	@ (800520c <HAL_RCCEx_PeriphCLKConfig+0x188>)
 80050ea:	2180      	movs	r1, #128	@ 0x80
 80050ec:	0049      	lsls	r1, r1, #1
 80050ee:	430a      	orrs	r2, r1
 80050f0:	601a      	str	r2, [r3, #0]
      
      /* Wait for Backup domain Write protection disable */
      tickstart = HAL_GetTick();
 80050f2:	f7fe fdbd 	bl	8003c70 <HAL_GetTick>
 80050f6:	0003      	movs	r3, r0
 80050f8:	613b      	str	r3, [r7, #16]
      
      while(HAL_IS_BIT_CLR(PWR->CR, PWR_CR_DBP))
 80050fa:	e008      	b.n	800510e <HAL_RCCEx_PeriphCLKConfig+0x8a>
      {
        if((HAL_GetTick() - tickstart) > RCC_DBP_TIMEOUT_VALUE)
 80050fc:	f7fe fdb8 	bl	8003c70 <HAL_GetTick>
 8005100:	0002      	movs	r2, r0
 8005102:	693b      	ldr	r3, [r7, #16]
 8005104:	1ad3      	subs	r3, r2, r3
 8005106:	2b64      	cmp	r3, #100	@ 0x64
 8005108:	d901      	bls.n	800510e <HAL_RCCEx_PeriphCLKConfig+0x8a>
        {
          return HAL_TIMEOUT;
 800510a:	2303      	movs	r3, #3
 800510c:	e077      	b.n	80051fe <HAL_RCCEx_PeriphCLKConfig+0x17a>
      while(HAL_IS_BIT_CLR(PWR->CR, PWR_CR_DBP))
 800510e:	4b3f      	ldr	r3, [pc, #252]	@ (800520c <HAL_RCCEx_PeriphCLKConfig+0x188>)
 8005110:	681a      	ldr	r2, [r3, #0]
 8005112:	2380      	movs	r3, #128	@ 0x80
 8005114:	005b      	lsls	r3, r3, #1
 8005116:	4013      	ands	r3, r2
 8005118:	d0f0      	beq.n	80050fc <HAL_RCCEx_PeriphCLKConfig+0x78>
        }
      }
    }
    
    /* Reset the Backup domain only if the RTC Clock source selection is modified from reset value */ 
    temp_reg = (RCC->BDCR & RCC_BDCR_RTCSEL);
 800511a:	4b3b      	ldr	r3, [pc, #236]	@ (8005208 <HAL_RCCEx_PeriphCLKConfig+0x184>)
 800511c:	6a1a      	ldr	r2, [r3, #32]
 800511e:	23c0      	movs	r3, #192	@ 0xc0
 8005120:	009b      	lsls	r3, r3, #2
 8005122:	4013      	ands	r3, r2
 8005124:	60fb      	str	r3, [r7, #12]
    if((temp_reg != 0x00000000U) && (temp_reg != (PeriphClkInit->RTCClockSelection & RCC_BDCR_RTCSEL)))
 8005126:	68fb      	ldr	r3, [r7, #12]
 8005128:	2b00      	cmp	r3, #0
 800512a:	d034      	beq.n	8005196 <HAL_RCCEx_PeriphCLKConfig+0x112>
 800512c:	687b      	ldr	r3, [r7, #4]
 800512e:	685a      	ldr	r2, [r3, #4]
 8005130:	23c0      	movs	r3, #192	@ 0xc0
 8005132:	009b      	lsls	r3, r3, #2
 8005134:	4013      	ands	r3, r2
 8005136:	68fa      	ldr	r2, [r7, #12]
 8005138:	429a      	cmp	r2, r3
 800513a:	d02c      	beq.n	8005196 <HAL_RCCEx_PeriphCLKConfig+0x112>
    {
      /* Store the content of BDCR register before the reset of Backup Domain */
      temp_reg = (RCC->BDCR & ~(RCC_BDCR_RTCSEL));
 800513c:	4b32      	ldr	r3, [pc, #200]	@ (8005208 <HAL_RCCEx_PeriphCLKConfig+0x184>)
 800513e:	6a1b      	ldr	r3, [r3, #32]
 8005140:	4a33      	ldr	r2, [pc, #204]	@ (8005210 <HAL_RCCEx_PeriphCLKConfig+0x18c>)
 8005142:	4013      	ands	r3, r2
 8005144:	60fb      	str	r3, [r7, #12]
      /* RTC Clock selection can be changed only if the Backup Domain is reset */
      __HAL_RCC_BACKUPRESET_FORCE();
 8005146:	4b30      	ldr	r3, [pc, #192]	@ (8005208 <HAL_RCCEx_PeriphCLKConfig+0x184>)
 8005148:	6a1a      	ldr	r2, [r3, #32]
 800514a:	4b2f      	ldr	r3, [pc, #188]	@ (8005208 <HAL_RCCEx_PeriphCLKConfig+0x184>)
 800514c:	2180      	movs	r1, #128	@ 0x80
 800514e:	0249      	lsls	r1, r1, #9
 8005150:	430a      	orrs	r2, r1
 8005152:	621a      	str	r2, [r3, #32]
      __HAL_RCC_BACKUPRESET_RELEASE();
 8005154:	4b2c      	ldr	r3, [pc, #176]	@ (8005208 <HAL_RCCEx_PeriphCLKConfig+0x184>)
 8005156:	6a1a      	ldr	r2, [r3, #32]
 8005158:	4b2b      	ldr	r3, [pc, #172]	@ (8005208 <HAL_RCCEx_PeriphCLKConfig+0x184>)
 800515a:	492e      	ldr	r1, [pc, #184]	@ (8005214 <HAL_RCCEx_PeriphCLKConfig+0x190>)
 800515c:	400a      	ands	r2, r1
 800515e:	621a      	str	r2, [r3, #32]
      /* Restore the Content of BDCR register */
      RCC->BDCR = temp_reg;
 8005160:	4b29      	ldr	r3, [pc, #164]	@ (8005208 <HAL_RCCEx_PeriphCLKConfig+0x184>)
 8005162:	68fa      	ldr	r2, [r7, #12]
 8005164:	621a      	str	r2, [r3, #32]
      
      /* Wait for LSERDY if LSE was enabled */
      if (HAL_IS_BIT_SET(temp_reg, RCC_BDCR_LSEON))
 8005166:	68fb      	ldr	r3, [r7, #12]
 8005168:	2201      	movs	r2, #1
 800516a:	4013      	ands	r3, r2
 800516c:	d013      	beq.n	8005196 <HAL_RCCEx_PeriphCLKConfig+0x112>
      {
        /* Get Start Tick */
        tickstart = HAL_GetTick();
 800516e:	f7fe fd7f 	bl	8003c70 <HAL_GetTick>
 8005172:	0003      	movs	r3, r0
 8005174:	613b      	str	r3, [r7, #16]
        
        /* Wait till LSE is ready */  
        while(__HAL_RCC_GET_FLAG(RCC_FLAG_LSERDY) == RESET)
 8005176:	e009      	b.n	800518c <HAL_RCCEx_PeriphCLKConfig+0x108>
        {
          if((HAL_GetTick() - tickstart) > RCC_LSE_TIMEOUT_VALUE)
 8005178:	f7fe fd7a 	bl	8003c70 <HAL_GetTick>
 800517c:	0002      	movs	r2, r0
 800517e:	693b      	ldr	r3, [r7, #16]
 8005180:	1ad3      	subs	r3, r2, r3
 8005182:	4a25      	ldr	r2, [pc, #148]	@ (8005218 <HAL_RCCEx_PeriphCLKConfig+0x194>)
 8005184:	4293      	cmp	r3, r2
 8005186:	d901      	bls.n	800518c <HAL_RCCEx_PeriphCLKConfig+0x108>
          {
            return HAL_TIMEOUT;
 8005188:	2303      	movs	r3, #3
 800518a:	e038      	b.n	80051fe <HAL_RCCEx_PeriphCLKConfig+0x17a>
        while(__HAL_RCC_GET_FLAG(RCC_FLAG_LSERDY) == RESET)
 800518c:	4b1e      	ldr	r3, [pc, #120]	@ (8005208 <HAL_RCCEx_PeriphCLKConfig+0x184>)
 800518e:	6a1b      	ldr	r3, [r3, #32]
 8005190:	2202      	movs	r2, #2
 8005192:	4013      	ands	r3, r2
 8005194:	d0f0      	beq.n	8005178 <HAL_RCCEx_PeriphCLKConfig+0xf4>
          }
        }
      }
    }
    __HAL_RCC_RTC_CONFIG(PeriphClkInit->RTCClockSelection);
 8005196:	4b1c      	ldr	r3, [pc, #112]	@ (8005208 <HAL_RCCEx_PeriphCLKConfig+0x184>)
 8005198:	6a1b      	ldr	r3, [r3, #32]
 800519a:	4a1d      	ldr	r2, [pc, #116]	@ (8005210 <HAL_RCCEx_PeriphCLKConfig+0x18c>)
 800519c:	4013      	ands	r3, r2
 800519e:	0019      	movs	r1, r3
 80051a0:	687b      	ldr	r3, [r7, #4]
 80051a2:	685a      	ldr	r2, [r3, #4]
 80051a4:	4b18      	ldr	r3, [pc, #96]	@ (8005208 <HAL_RCCEx_PeriphCLKConfig+0x184>)
 80051a6:	430a      	orrs	r2, r1
 80051a8:	621a      	str	r2, [r3, #32]

    /* Require to disable power clock if necessary */
    if(pwrclkchanged == SET)
 80051aa:	2317      	movs	r3, #23
 80051ac:	18fb      	adds	r3, r7, r3
 80051ae:	781b      	ldrb	r3, [r3, #0]
 80051b0:	2b01      	cmp	r3, #1
 80051b2:	d105      	bne.n	80051c0 <HAL_RCCEx_PeriphCLKConfig+0x13c>
    {
      __HAL_RCC_PWR_CLK_DISABLE();
 80051b4:	4b14      	ldr	r3, [pc, #80]	@ (8005208 <HAL_RCCEx_PeriphCLKConfig+0x184>)
 80051b6:	69da      	ldr	r2, [r3, #28]
 80051b8:	4b13      	ldr	r3, [pc, #76]	@ (8005208 <HAL_RCCEx_PeriphCLKConfig+0x184>)
 80051ba:	4918      	ldr	r1, [pc, #96]	@ (800521c <HAL_RCCEx_PeriphCLKConfig+0x198>)
 80051bc:	400a      	ands	r2, r1
 80051be:	61da      	str	r2, [r3, #28]
    }
  }

  /*------------------------------- USART1 Configuration ------------------------*/ 
  if(((PeriphClkInit->PeriphClockSelection) & RCC_PERIPHCLK_USART1) == RCC_PERIPHCLK_USART1)
 80051c0:	687b      	ldr	r3, [r7, #4]
 80051c2:	681b      	ldr	r3, [r3, #0]
 80051c4:	2201      	movs	r2, #1
 80051c6:	4013      	ands	r3, r2
 80051c8:	d009      	beq.n	80051de <HAL_RCCEx_PeriphCLKConfig+0x15a>
  {
    /* Check the parameters */
    assert_param(IS_RCC_USART1CLKSOURCE(PeriphClkInit->Usart1ClockSelection));
    
    /* Configure the USART1 clock source */
    __HAL_RCC_USART1_CONFIG(PeriphClkInit->Usart1ClockSelection);
 80051ca:	4b0f      	ldr	r3, [pc, #60]	@ (8005208 <HAL_RCCEx_PeriphCLKConfig+0x184>)
 80051cc:	6b1b      	ldr	r3, [r3, #48]	@ 0x30
 80051ce:	2203      	movs	r2, #3
 80051d0:	4393      	bics	r3, r2
 80051d2:	0019      	movs	r1, r3
 80051d4:	687b      	ldr	r3, [r7, #4]
 80051d6:	689a      	ldr	r2, [r3, #8]
 80051d8:	4b0b      	ldr	r3, [pc, #44]	@ (8005208 <HAL_RCCEx_PeriphCLKConfig+0x184>)
 80051da:	430a      	orrs	r2, r1
 80051dc:	631a      	str	r2, [r3, #48]	@ 0x30
    __HAL_RCC_USART3_CONFIG(PeriphClkInit->Usart3ClockSelection);
  }
#endif /* STM32F091xC || STM32F098xx */  

  /*------------------------------ I2C1 Configuration ------------------------*/ 
  if(((PeriphClkInit->PeriphClockSelection) & RCC_PERIPHCLK_I2C1) == RCC_PERIPHCLK_I2C1)
 80051de:	687b      	ldr	r3, [r7, #4]
 80051e0:	681b      	ldr	r3, [r3, #0]
 80051e2:	2220      	movs	r2, #32
 80051e4:	4013      	ands	r3, r2
 80051e6:	d009      	beq.n	80051fc <HAL_RCCEx_PeriphCLKConfig+0x178>
  {
    /* Check the parameters */
    assert_param(IS_RCC_I2C1CLKSOURCE(PeriphClkInit->I2c1ClockSelection));
    
    /* Configure the I2C1 clock source */
    __HAL_RCC_I2C1_CONFIG(PeriphClkInit->I2c1ClockSelection);
 80051e8:	4b07      	ldr	r3, [pc, #28]	@ (8005208 <HAL_RCCEx_PeriphCLKConfig+0x184>)
 80051ea:	6b1b      	ldr	r3, [r3, #48]	@ 0x30
 80051ec:	2210      	movs	r2, #16
 80051ee:	4393      	bics	r3, r2
 80051f0:	0019      	movs	r1, r3
 80051f2:	687b      	ldr	r3, [r7, #4]
 80051f4:	68da      	ldr	r2, [r3, #12]
 80051f6:	4b04      	ldr	r3, [pc, #16]	@ (8005208 <HAL_RCCEx_PeriphCLKConfig+0x184>)
 80051f8:	430a      	orrs	r2, r1
 80051fa:	631a      	str	r2, [r3, #48]	@ 0x30
#endif /* STM32F042x6 || STM32F048xx ||                */
       /* STM32F051x8 || STM32F058xx ||                */
       /* STM32F071xB || STM32F072xB || STM32F078xx || */
       /* STM32F091xC || STM32F098xx */
  
  return HAL_OK;
 80051fc:	2300      	movs	r3, #0
}
 80051fe:	0018      	movs	r0, r3
 8005200:	46bd      	mov	sp, r7
 8005202:	b006      	add	sp, #24
 8005204:	bd80      	pop	{r7, pc}
 8005206:	46c0      	nop			@ (mov r8, r8)
 8005208:	40021000 	.word	0x40021000
 800520c:	40007000 	.word	0x40007000
 8005210:	fffffcff 	.word	0xfffffcff
 8005214:	fffeffff 	.word	0xfffeffff
 8005218:	00001388 	.word	0x00001388
 800521c:	efffffff 	.word	0xefffffff

08005220 <HAL_RTC_Init>:
  * @param  hrtc pointer to a RTC_HandleTypeDef structure that contains
  *                the configuration information for RTC.
  * @retval HAL status
  */
HAL_StatusTypeDef HAL_RTC_Init(RTC_HandleTypeDef *hrtc)
{
 8005220:	b5b0      	push	{r4, r5, r7, lr}
 8005222:	b084      	sub	sp, #16
 8005224:	af00      	add	r7, sp, #0
 8005226:	6078      	str	r0, [r7, #4]
  HAL_StatusTypeDef status = HAL_ERROR;
 8005228:	230f      	movs	r3, #15
 800522a:	18fb      	adds	r3, r7, r3
 800522c:	2201      	movs	r2, #1
 800522e:	701a      	strb	r2, [r3, #0]

  /* Check RTC handler validity */
  if (hrtc == NULL)
 8005230:	687b      	ldr	r3, [r7, #4]
 8005232:	2b00      	cmp	r3, #0
 8005234:	d101      	bne.n	800523a <HAL_RTC_Init+0x1a>
  {
    return HAL_ERROR;
 8005236:	2301      	movs	r3, #1
 8005238:	e081      	b.n	800533e <HAL_RTC_Init+0x11e>
    {
      hrtc->MspDeInitCallback = HAL_RTC_MspDeInit;
    }
  }
#else /* USE_HAL_RTC_REGISTER_CALLBACKS */
  if (hrtc->State == HAL_RTC_STATE_RESET)
 800523a:	687b      	ldr	r3, [r7, #4]
 800523c:	7f5b      	ldrb	r3, [r3, #29]
 800523e:	b2db      	uxtb	r3, r3
 8005240:	2b00      	cmp	r3, #0
 8005242:	d106      	bne.n	8005252 <HAL_RTC_Init+0x32>
  {
    /* Allocate lock resource and initialize it */
    hrtc->Lock = HAL_UNLOCKED;
 8005244:	687b      	ldr	r3, [r7, #4]
 8005246:	2200      	movs	r2, #0
 8005248:	771a      	strb	r2, [r3, #28]

    /* Initialize RTC MSP */
    HAL_RTC_MspInit(hrtc);
 800524a:	687b      	ldr	r3, [r7, #4]
 800524c:	0018      	movs	r0, r3
 800524e:	f7fd ffd1 	bl	80031f4 <HAL_RTC_MspInit>
  }
#endif /* USE_HAL_RTC_REGISTER_CALLBACKS */

  /* Set RTC state */
  hrtc->State = HAL_RTC_STATE_BUSY;
 8005252:	687b      	ldr	r3, [r7, #4]
 8005254:	2202      	movs	r2, #2
 8005256:	775a      	strb	r2, [r3, #29]

  /* Check whether the calendar needs to be initialized */
  if (__HAL_RTC_IS_CALENDAR_INITIALIZED(hrtc) == 0U)
 8005258:	687b      	ldr	r3, [r7, #4]
 800525a:	681b      	ldr	r3, [r3, #0]
 800525c:	68db      	ldr	r3, [r3, #12]
 800525e:	2210      	movs	r2, #16
 8005260:	4013      	ands	r3, r2
 8005262:	2b10      	cmp	r3, #16
 8005264:	d05c      	beq.n	8005320 <HAL_RTC_Init+0x100>
  {
    /* Disable the write protection for RTC registers */
    __HAL_RTC_WRITEPROTECTION_DISABLE(hrtc);
 8005266:	687b      	ldr	r3, [r7, #4]
 8005268:	681b      	ldr	r3, [r3, #0]
 800526a:	22ca      	movs	r2, #202	@ 0xca
 800526c:	625a      	str	r2, [r3, #36]	@ 0x24
 800526e:	687b      	ldr	r3, [r7, #4]
 8005270:	681b      	ldr	r3, [r3, #0]
 8005272:	2253      	movs	r2, #83	@ 0x53
 8005274:	625a      	str	r2, [r3, #36]	@ 0x24

    /* Enter Initialization mode */
    status = RTC_EnterInitMode(hrtc);
 8005276:	250f      	movs	r5, #15
 8005278:	197c      	adds	r4, r7, r5
 800527a:	687b      	ldr	r3, [r7, #4]
 800527c:	0018      	movs	r0, r3
 800527e:	f000 f9c5 	bl	800560c <RTC_EnterInitMode>
 8005282:	0003      	movs	r3, r0
 8005284:	7023      	strb	r3, [r4, #0]

    if (status == HAL_OK)
 8005286:	0028      	movs	r0, r5
 8005288:	183b      	adds	r3, r7, r0
 800528a:	781b      	ldrb	r3, [r3, #0]
 800528c:	2b00      	cmp	r3, #0
 800528e:	d12c      	bne.n	80052ea <HAL_RTC_Init+0xca>
    {
      /* Clear RTC_CR FMT, OSEL and POL Bits */
      hrtc->Instance->CR &= ((uint32_t)~(RTC_CR_FMT | RTC_CR_OSEL | RTC_CR_POL));
 8005290:	687b      	ldr	r3, [r7, #4]
 8005292:	681b      	ldr	r3, [r3, #0]
 8005294:	689a      	ldr	r2, [r3, #8]
 8005296:	687b      	ldr	r3, [r7, #4]
 8005298:	681b      	ldr	r3, [r3, #0]
 800529a:	492b      	ldr	r1, [pc, #172]	@ (8005348 <HAL_RTC_Init+0x128>)
 800529c:	400a      	ands	r2, r1
 800529e:	609a      	str	r2, [r3, #8]
      /* Set RTC_CR register */
      hrtc->Instance->CR |= (uint32_t)(hrtc->Init.HourFormat | hrtc->Init.OutPut | hrtc->Init.OutPutPolarity);
 80052a0:	687b      	ldr	r3, [r7, #4]
 80052a2:	681b      	ldr	r3, [r3, #0]
 80052a4:	6899      	ldr	r1, [r3, #8]
 80052a6:	687b      	ldr	r3, [r7, #4]
 80052a8:	685a      	ldr	r2, [r3, #4]
 80052aa:	687b      	ldr	r3, [r7, #4]
 80052ac:	691b      	ldr	r3, [r3, #16]
 80052ae:	431a      	orrs	r2, r3
 80052b0:	687b      	ldr	r3, [r7, #4]
 80052b2:	695b      	ldr	r3, [r3, #20]
 80052b4:	431a      	orrs	r2, r3
 80052b6:	687b      	ldr	r3, [r7, #4]
 80052b8:	681b      	ldr	r3, [r3, #0]
 80052ba:	430a      	orrs	r2, r1
 80052bc:	609a      	str	r2, [r3, #8]

      /* Configure the RTC PRER */
      hrtc->Instance->PRER = (uint32_t)(hrtc->Init.SynchPrediv);
 80052be:	687b      	ldr	r3, [r7, #4]
 80052c0:	681b      	ldr	r3, [r3, #0]
 80052c2:	687a      	ldr	r2, [r7, #4]
 80052c4:	68d2      	ldr	r2, [r2, #12]
 80052c6:	611a      	str	r2, [r3, #16]
      hrtc->Instance->PRER |= (uint32_t)(hrtc->Init.AsynchPrediv << RTC_PRER_PREDIV_A_Pos);
 80052c8:	687b      	ldr	r3, [r7, #4]
 80052ca:	681b      	ldr	r3, [r3, #0]
 80052cc:	6919      	ldr	r1, [r3, #16]
 80052ce:	687b      	ldr	r3, [r7, #4]
 80052d0:	689b      	ldr	r3, [r3, #8]
 80052d2:	041a      	lsls	r2, r3, #16
 80052d4:	687b      	ldr	r3, [r7, #4]
 80052d6:	681b      	ldr	r3, [r3, #0]
 80052d8:	430a      	orrs	r2, r1
 80052da:	611a      	str	r2, [r3, #16]

      /* Exit Initialization mode */
      status = RTC_ExitInitMode(hrtc);
 80052dc:	183c      	adds	r4, r7, r0
 80052de:	687b      	ldr	r3, [r7, #4]
 80052e0:	0018      	movs	r0, r3
 80052e2:	f000 f9d6 	bl	8005692 <RTC_ExitInitMode>
 80052e6:	0003      	movs	r3, r0
 80052e8:	7023      	strb	r3, [r4, #0]
    }

    if (status == HAL_OK)
 80052ea:	230f      	movs	r3, #15
 80052ec:	18fb      	adds	r3, r7, r3
 80052ee:	781b      	ldrb	r3, [r3, #0]
 80052f0:	2b00      	cmp	r3, #0
 80052f2:	d110      	bne.n	8005316 <HAL_RTC_Init+0xf6>
    {
      hrtc->Instance->TAFCR &= (uint32_t)~RTC_OUTPUT_TYPE_PUSHPULL;
 80052f4:	687b      	ldr	r3, [r7, #4]
 80052f6:	681b      	ldr	r3, [r3, #0]
 80052f8:	6c1a      	ldr	r2, [r3, #64]	@ 0x40
 80052fa:	687b      	ldr	r3, [r7, #4]
 80052fc:	681b      	ldr	r3, [r3, #0]
 80052fe:	4913      	ldr	r1, [pc, #76]	@ (800534c <HAL_RTC_Init+0x12c>)
 8005300:	400a      	ands	r2, r1
 8005302:	641a      	str	r2, [r3, #64]	@ 0x40
      hrtc->Instance->TAFCR |= (uint32_t)(hrtc->Init.OutPutType);
 8005304:	687b      	ldr	r3, [r7, #4]
 8005306:	681b      	ldr	r3, [r3, #0]
 8005308:	6c19      	ldr	r1, [r3, #64]	@ 0x40
 800530a:	687b      	ldr	r3, [r7, #4]
 800530c:	699a      	ldr	r2, [r3, #24]
 800530e:	687b      	ldr	r3, [r7, #4]
 8005310:	681b      	ldr	r3, [r3, #0]
 8005312:	430a      	orrs	r2, r1
 8005314:	641a      	str	r2, [r3, #64]	@ 0x40
    }

    /* Enable the write protection for RTC registers */
    __HAL_RTC_WRITEPROTECTION_ENABLE(hrtc);
 8005316:	687b      	ldr	r3, [r7, #4]
 8005318:	681b      	ldr	r3, [r3, #0]
 800531a:	22ff      	movs	r2, #255	@ 0xff
 800531c:	625a      	str	r2, [r3, #36]	@ 0x24
 800531e:	e003      	b.n	8005328 <HAL_RTC_Init+0x108>
  }
  else
  {
    /* The calendar is already initialized */
    status = HAL_OK;
 8005320:	230f      	movs	r3, #15
 8005322:	18fb      	adds	r3, r7, r3
 8005324:	2200      	movs	r2, #0
 8005326:	701a      	strb	r2, [r3, #0]
  }

  if (status == HAL_OK)
 8005328:	230f      	movs	r3, #15
 800532a:	18fb      	adds	r3, r7, r3
 800532c:	781b      	ldrb	r3, [r3, #0]
 800532e:	2b00      	cmp	r3, #0
 8005330:	d102      	bne.n	8005338 <HAL_RTC_Init+0x118>
  {
    hrtc->State = HAL_RTC_STATE_READY;
 8005332:	687b      	ldr	r3, [r7, #4]
 8005334:	2201      	movs	r2, #1
 8005336:	775a      	strb	r2, [r3, #29]
  }

  return status;
 8005338:	230f      	movs	r3, #15
 800533a:	18fb      	adds	r3, r7, r3
 800533c:	781b      	ldrb	r3, [r3, #0]
}
 800533e:	0018      	movs	r0, r3
 8005340:	46bd      	mov	sp, r7
 8005342:	b004      	add	sp, #16
 8005344:	bdb0      	pop	{r4, r5, r7, pc}
 8005346:	46c0      	nop			@ (mov r8, r8)
 8005348:	ff8fffbf 	.word	0xff8fffbf
 800534c:	fffbffff 	.word	0xfffbffff

08005350 <HAL_RTC_SetTime>:
  *            @arg RTC_FORMAT_BIN: Binary data format
  *            @arg RTC_FORMAT_BCD: BCD data format
  * @retval HAL status
  */
HAL_StatusTypeDef HAL_RTC_SetTime(RTC_HandleTypeDef *hrtc, RTC_TimeTypeDef *sTime, uint32_t Format)
{
 8005350:	b5b0      	push	{r4, r5, r7, lr}
 8005352:	b086      	sub	sp, #24
 8005354:	af00      	add	r7, sp, #0
 8005356:	60f8      	str	r0, [r7, #12]
 8005358:	60b9      	str	r1, [r7, #8]
 800535a:	607a      	str	r2, [r7, #4]
  uint32_t tmpreg = 0U;
 800535c:	2300      	movs	r3, #0
 800535e:	617b      	str	r3, [r7, #20]
  assert_param(IS_RTC_FORMAT(Format));
  assert_param(IS_RTC_DAYLIGHT_SAVING(sTime->DayLightSaving));
  assert_param(IS_RTC_STORE_OPERATION(sTime->StoreOperation));

  /* Process Locked */
  __HAL_LOCK(hrtc);
 8005360:	68fb      	ldr	r3, [r7, #12]
 8005362:	7f1b      	ldrb	r3, [r3, #28]
 8005364:	2b01      	cmp	r3, #1
 8005366:	d101      	bne.n	800536c <HAL_RTC_SetTime+0x1c>
 8005368:	2302      	movs	r3, #2
 800536a:	e08e      	b.n	800548a <HAL_RTC_SetTime+0x13a>
 800536c:	68fb      	ldr	r3, [r7, #12]
 800536e:	2201      	movs	r2, #1
 8005370:	771a      	strb	r2, [r3, #28]

  hrtc->State = HAL_RTC_STATE_BUSY;
 8005372:	68fb      	ldr	r3, [r7, #12]
 8005374:	2202      	movs	r2, #2
 8005376:	775a      	strb	r2, [r3, #29]

  if (Format == RTC_FORMAT_BIN)
 8005378:	687b      	ldr	r3, [r7, #4]
 800537a:	2b00      	cmp	r3, #0
 800537c:	d125      	bne.n	80053ca <HAL_RTC_SetTime+0x7a>
  {
    if ((hrtc->Instance->CR & RTC_CR_FMT) != 0U)
 800537e:	68fb      	ldr	r3, [r7, #12]
 8005380:	681b      	ldr	r3, [r3, #0]
 8005382:	689b      	ldr	r3, [r3, #8]
 8005384:	2240      	movs	r2, #64	@ 0x40
 8005386:	4013      	ands	r3, r2
 8005388:	d102      	bne.n	8005390 <HAL_RTC_SetTime+0x40>
      assert_param(IS_RTC_HOUR12(sTime->Hours));
      assert_param(IS_RTC_HOURFORMAT12(sTime->TimeFormat));
    }
    else
    {
      sTime->TimeFormat = 0x00U;
 800538a:	68bb      	ldr	r3, [r7, #8]
 800538c:	2200      	movs	r2, #0
 800538e:	70da      	strb	r2, [r3, #3]
      assert_param(IS_RTC_HOUR24(sTime->Hours));
    }
    assert_param(IS_RTC_MINUTES(sTime->Minutes));
    assert_param(IS_RTC_SECONDS(sTime->Seconds));

    tmpreg = (uint32_t)(( (uint32_t)RTC_ByteToBcd2(sTime->Hours)   << RTC_TR_HU_Pos)  | \
 8005390:	68bb      	ldr	r3, [r7, #8]
 8005392:	781b      	ldrb	r3, [r3, #0]
 8005394:	0018      	movs	r0, r3
 8005396:	f000 f9a5 	bl	80056e4 <RTC_ByteToBcd2>
 800539a:	0003      	movs	r3, r0
 800539c:	041c      	lsls	r4, r3, #16
                        ( (uint32_t)RTC_ByteToBcd2(sTime->Minutes) << RTC_TR_MNU_Pos) | \
 800539e:	68bb      	ldr	r3, [r7, #8]
 80053a0:	785b      	ldrb	r3, [r3, #1]
 80053a2:	0018      	movs	r0, r3
 80053a4:	f000 f99e 	bl	80056e4 <RTC_ByteToBcd2>
 80053a8:	0003      	movs	r3, r0
 80053aa:	021b      	lsls	r3, r3, #8
    tmpreg = (uint32_t)(( (uint32_t)RTC_ByteToBcd2(sTime->Hours)   << RTC_TR_HU_Pos)  | \
 80053ac:	431c      	orrs	r4, r3
                        ( (uint32_t)RTC_ByteToBcd2(sTime->Seconds))                   | \
 80053ae:	68bb      	ldr	r3, [r7, #8]
 80053b0:	789b      	ldrb	r3, [r3, #2]
 80053b2:	0018      	movs	r0, r3
 80053b4:	f000 f996 	bl	80056e4 <RTC_ByteToBcd2>
 80053b8:	0003      	movs	r3, r0
                        ( (uint32_t)RTC_ByteToBcd2(sTime->Minutes) << RTC_TR_MNU_Pos) | \
 80053ba:	0022      	movs	r2, r4
 80053bc:	431a      	orrs	r2, r3
                        (((uint32_t)sTime->TimeFormat)             << RTC_TR_PM_Pos));
 80053be:	68bb      	ldr	r3, [r7, #8]
 80053c0:	78db      	ldrb	r3, [r3, #3]
 80053c2:	059b      	lsls	r3, r3, #22
    tmpreg = (uint32_t)(( (uint32_t)RTC_ByteToBcd2(sTime->Hours)   << RTC_TR_HU_Pos)  | \
 80053c4:	4313      	orrs	r3, r2
 80053c6:	617b      	str	r3, [r7, #20]
 80053c8:	e017      	b.n	80053fa <HAL_RTC_SetTime+0xaa>
  }
  else
  {
    if ((hrtc->Instance->CR & RTC_CR_FMT) != 0U)
 80053ca:	68fb      	ldr	r3, [r7, #12]
 80053cc:	681b      	ldr	r3, [r3, #0]
 80053ce:	689b      	ldr	r3, [r3, #8]
 80053d0:	2240      	movs	r2, #64	@ 0x40
 80053d2:	4013      	ands	r3, r2
 80053d4:	d102      	bne.n	80053dc <HAL_RTC_SetTime+0x8c>
      assert_param(IS_RTC_HOUR12(RTC_Bcd2ToByte(sTime->Hours)));
      assert_param(IS_RTC_HOURFORMAT12(sTime->TimeFormat));
    }
    else
    {
      sTime->TimeFormat = 0x00U;
 80053d6:	68bb      	ldr	r3, [r7, #8]
 80053d8:	2200      	movs	r2, #0
 80053da:	70da      	strb	r2, [r3, #3]
      assert_param(IS_RTC_HOUR24(RTC_Bcd2ToByte(sTime->Hours)));
    }
    assert_param(IS_RTC_MINUTES(RTC_Bcd2ToByte(sTime->Minutes)));
    assert_param(IS_RTC_SECONDS(RTC_Bcd2ToByte(sTime->Seconds)));
    tmpreg = (((uint32_t)(sTime->Hours)      << RTC_TR_HU_Pos)  | \
 80053dc:	68bb      	ldr	r3, [r7, #8]
 80053de:	781b      	ldrb	r3, [r3, #0]
 80053e0:	041a      	lsls	r2, r3, #16
              ((uint32_t)(sTime->Minutes)    << RTC_TR_MNU_Pos) | \
 80053e2:	68bb      	ldr	r3, [r7, #8]
 80053e4:	785b      	ldrb	r3, [r3, #1]
 80053e6:	021b      	lsls	r3, r3, #8
    tmpreg = (((uint32_t)(sTime->Hours)      << RTC_TR_HU_Pos)  | \
 80053e8:	4313      	orrs	r3, r2
              ((uint32_t) sTime->Seconds)                       | \
 80053ea:	68ba      	ldr	r2, [r7, #8]
 80053ec:	7892      	ldrb	r2, [r2, #2]
              ((uint32_t)(sTime->Minutes)    << RTC_TR_MNU_Pos) | \
 80053ee:	431a      	orrs	r2, r3
              ((uint32_t)(sTime->TimeFormat) << RTC_TR_PM_Pos));
 80053f0:	68bb      	ldr	r3, [r7, #8]
 80053f2:	78db      	ldrb	r3, [r3, #3]
 80053f4:	059b      	lsls	r3, r3, #22
    tmpreg = (((uint32_t)(sTime->Hours)      << RTC_TR_HU_Pos)  | \
 80053f6:	4313      	orrs	r3, r2
 80053f8:	617b      	str	r3, [r7, #20]
  }

  /* Disable the write protection for RTC registers */
  __HAL_RTC_WRITEPROTECTION_DISABLE(hrtc);
 80053fa:	68fb      	ldr	r3, [r7, #12]
 80053fc:	681b      	ldr	r3, [r3, #0]
 80053fe:	22ca      	movs	r2, #202	@ 0xca
 8005400:	625a      	str	r2, [r3, #36]	@ 0x24
 8005402:	68fb      	ldr	r3, [r7, #12]
 8005404:	681b      	ldr	r3, [r3, #0]
 8005406:	2253      	movs	r2, #83	@ 0x53
 8005408:	625a      	str	r2, [r3, #36]	@ 0x24

  /* Enter Initialization mode */
  status = RTC_EnterInitMode(hrtc);
 800540a:	2513      	movs	r5, #19
 800540c:	197c      	adds	r4, r7, r5
 800540e:	68fb      	ldr	r3, [r7, #12]
 8005410:	0018      	movs	r0, r3
 8005412:	f000 f8fb 	bl	800560c <RTC_EnterInitMode>
 8005416:	0003      	movs	r3, r0
 8005418:	7023      	strb	r3, [r4, #0]

  if (status == HAL_OK)
 800541a:	0028      	movs	r0, r5
 800541c:	183b      	adds	r3, r7, r0
 800541e:	781b      	ldrb	r3, [r3, #0]
 8005420:	2b00      	cmp	r3, #0
 8005422:	d120      	bne.n	8005466 <HAL_RTC_SetTime+0x116>
  {
    /* Set the RTC_TR register */
    hrtc->Instance->TR = (uint32_t)(tmpreg & RTC_TR_RESERVED_MASK);
 8005424:	68fb      	ldr	r3, [r7, #12]
 8005426:	681b      	ldr	r3, [r3, #0]
 8005428:	697a      	ldr	r2, [r7, #20]
 800542a:	491a      	ldr	r1, [pc, #104]	@ (8005494 <HAL_RTC_SetTime+0x144>)
 800542c:	400a      	ands	r2, r1
 800542e:	601a      	str	r2, [r3, #0]

    /* Clear the bits to be configured (Deprecated. Use HAL_RTC_DST_xxx functions instead) */
    hrtc->Instance->CR &= (uint32_t)~RTC_CR_BKP;
 8005430:	68fb      	ldr	r3, [r7, #12]
 8005432:	681b      	ldr	r3, [r3, #0]
 8005434:	689a      	ldr	r2, [r3, #8]
 8005436:	68fb      	ldr	r3, [r7, #12]
 8005438:	681b      	ldr	r3, [r3, #0]
 800543a:	4917      	ldr	r1, [pc, #92]	@ (8005498 <HAL_RTC_SetTime+0x148>)
 800543c:	400a      	ands	r2, r1
 800543e:	609a      	str	r2, [r3, #8]

    /* Configure the RTC_CR register (Deprecated. Use HAL_RTC_DST_xxx functions instead) */
    hrtc->Instance->CR |= (uint32_t)(sTime->DayLightSaving | sTime->StoreOperation);
 8005440:	68fb      	ldr	r3, [r7, #12]
 8005442:	681b      	ldr	r3, [r3, #0]
 8005444:	6899      	ldr	r1, [r3, #8]
 8005446:	68bb      	ldr	r3, [r7, #8]
 8005448:	68da      	ldr	r2, [r3, #12]
 800544a:	68bb      	ldr	r3, [r7, #8]
 800544c:	691b      	ldr	r3, [r3, #16]
 800544e:	431a      	orrs	r2, r3
 8005450:	68fb      	ldr	r3, [r7, #12]
 8005452:	681b      	ldr	r3, [r3, #0]
 8005454:	430a      	orrs	r2, r1
 8005456:	609a      	str	r2, [r3, #8]

    /* Exit Initialization mode */
    status = RTC_ExitInitMode(hrtc);
 8005458:	183c      	adds	r4, r7, r0
 800545a:	68fb      	ldr	r3, [r7, #12]
 800545c:	0018      	movs	r0, r3
 800545e:	f000 f918 	bl	8005692 <RTC_ExitInitMode>
 8005462:	0003      	movs	r3, r0
 8005464:	7023      	strb	r3, [r4, #0]
  }

  if (status == HAL_OK)
 8005466:	2313      	movs	r3, #19
 8005468:	18fb      	adds	r3, r7, r3
 800546a:	781b      	ldrb	r3, [r3, #0]
 800546c:	2b00      	cmp	r3, #0
 800546e:	d102      	bne.n	8005476 <HAL_RTC_SetTime+0x126>
  {
    hrtc->State = HAL_RTC_STATE_READY;
 8005470:	68fb      	ldr	r3, [r7, #12]
 8005472:	2201      	movs	r2, #1
 8005474:	775a      	strb	r2, [r3, #29]
  }

  /* Enable the write protection for RTC registers */
  __HAL_RTC_WRITEPROTECTION_ENABLE(hrtc);
 8005476:	68fb      	ldr	r3, [r7, #12]
 8005478:	681b      	ldr	r3, [r3, #0]
 800547a:	22ff      	movs	r2, #255	@ 0xff
 800547c:	625a      	str	r2, [r3, #36]	@ 0x24

  /* Process Unlocked */
  __HAL_UNLOCK(hrtc);
 800547e:	68fb      	ldr	r3, [r7, #12]
 8005480:	2200      	movs	r2, #0
 8005482:	771a      	strb	r2, [r3, #28]

  return status;
 8005484:	2313      	movs	r3, #19
 8005486:	18fb      	adds	r3, r7, r3
 8005488:	781b      	ldrb	r3, [r3, #0]
}
 800548a:	0018      	movs	r0, r3
 800548c:	46bd      	mov	sp, r7
 800548e:	b006      	add	sp, #24
 8005490:	bdb0      	pop	{r4, r5, r7, pc}
 8005492:	46c0      	nop			@ (mov r8, r8)
 8005494:	007f7f7f 	.word	0x007f7f7f
 8005498:	fffbffff 	.word	0xfffbffff

0800549c <HAL_RTC_SetDate>:
  *            @arg RTC_FORMAT_BIN: Binary data format
  *            @arg RTC_FORMAT_BCD: BCD data format
  * @retval HAL status
  */
HAL_StatusTypeDef HAL_RTC_SetDate(RTC_HandleTypeDef *hrtc, RTC_DateTypeDef *sDate, uint32_t Format)
{
 800549c:	b5b0      	push	{r4, r5, r7, lr}
 800549e:	b086      	sub	sp, #24
 80054a0:	af00      	add	r7, sp, #0
 80054a2:	60f8      	str	r0, [r7, #12]
 80054a4:	60b9      	str	r1, [r7, #8]
 80054a6:	607a      	str	r2, [r7, #4]
  uint32_t datetmpreg = 0U;
 80054a8:	2300      	movs	r3, #0
 80054aa:	617b      	str	r3, [r7, #20]

  /* Check the parameters */
  assert_param(IS_RTC_FORMAT(Format));

  /* Process Locked */
  __HAL_LOCK(hrtc);
 80054ac:	68fb      	ldr	r3, [r7, #12]
 80054ae:	7f1b      	ldrb	r3, [r3, #28]
 80054b0:	2b01      	cmp	r3, #1
 80054b2:	d101      	bne.n	80054b8 <HAL_RTC_SetDate+0x1c>
 80054b4:	2302      	movs	r3, #2
 80054b6:	e07a      	b.n	80055ae <HAL_RTC_SetDate+0x112>
 80054b8:	68fb      	ldr	r3, [r7, #12]
 80054ba:	2201      	movs	r2, #1
 80054bc:	771a      	strb	r2, [r3, #28]

  hrtc->State = HAL_RTC_STATE_BUSY;
 80054be:	68fb      	ldr	r3, [r7, #12]
 80054c0:	2202      	movs	r2, #2
 80054c2:	775a      	strb	r2, [r3, #29]

  if ((Format == RTC_FORMAT_BIN) && ((sDate->Month & 0x10U) == 0x10U))
 80054c4:	687b      	ldr	r3, [r7, #4]
 80054c6:	2b00      	cmp	r3, #0
 80054c8:	d10e      	bne.n	80054e8 <HAL_RTC_SetDate+0x4c>
 80054ca:	68bb      	ldr	r3, [r7, #8]
 80054cc:	785b      	ldrb	r3, [r3, #1]
 80054ce:	001a      	movs	r2, r3
 80054d0:	2310      	movs	r3, #16
 80054d2:	4013      	ands	r3, r2
 80054d4:	d008      	beq.n	80054e8 <HAL_RTC_SetDate+0x4c>
  {
    sDate->Month = (uint8_t)((sDate->Month & (uint8_t)~(0x10U)) + (uint8_t)0x0AU);
 80054d6:	68bb      	ldr	r3, [r7, #8]
 80054d8:	785b      	ldrb	r3, [r3, #1]
 80054da:	2210      	movs	r2, #16
 80054dc:	4393      	bics	r3, r2
 80054de:	b2db      	uxtb	r3, r3
 80054e0:	330a      	adds	r3, #10
 80054e2:	b2da      	uxtb	r2, r3
 80054e4:	68bb      	ldr	r3, [r7, #8]
 80054e6:	705a      	strb	r2, [r3, #1]
  }

  assert_param(IS_RTC_WEEKDAY(sDate->WeekDay));

  if (Format == RTC_FORMAT_BIN)
 80054e8:	687b      	ldr	r3, [r7, #4]
 80054ea:	2b00      	cmp	r3, #0
 80054ec:	d11c      	bne.n	8005528 <HAL_RTC_SetDate+0x8c>
  {
    assert_param(IS_RTC_YEAR(sDate->Year));
    assert_param(IS_RTC_MONTH(sDate->Month));
    assert_param(IS_RTC_DATE(sDate->Date));

    datetmpreg = (((uint32_t)RTC_ByteToBcd2(sDate->Year)  << RTC_DR_YU_Pos) | \
 80054ee:	68bb      	ldr	r3, [r7, #8]
 80054f0:	78db      	ldrb	r3, [r3, #3]
 80054f2:	0018      	movs	r0, r3
 80054f4:	f000 f8f6 	bl	80056e4 <RTC_ByteToBcd2>
 80054f8:	0003      	movs	r3, r0
 80054fa:	041c      	lsls	r4, r3, #16
                  ((uint32_t)RTC_ByteToBcd2(sDate->Month) << RTC_DR_MU_Pos) | \
 80054fc:	68bb      	ldr	r3, [r7, #8]
 80054fe:	785b      	ldrb	r3, [r3, #1]
 8005500:	0018      	movs	r0, r3
 8005502:	f000 f8ef 	bl	80056e4 <RTC_ByteToBcd2>
 8005506:	0003      	movs	r3, r0
 8005508:	021b      	lsls	r3, r3, #8
    datetmpreg = (((uint32_t)RTC_ByteToBcd2(sDate->Year)  << RTC_DR_YU_Pos) | \
 800550a:	431c      	orrs	r4, r3
                  ((uint32_t)RTC_ByteToBcd2(sDate->Date))                   | \
 800550c:	68bb      	ldr	r3, [r7, #8]
 800550e:	789b      	ldrb	r3, [r3, #2]
 8005510:	0018      	movs	r0, r3
 8005512:	f000 f8e7 	bl	80056e4 <RTC_ByteToBcd2>
 8005516:	0003      	movs	r3, r0
                  ((uint32_t)RTC_ByteToBcd2(sDate->Month) << RTC_DR_MU_Pos) | \
 8005518:	0022      	movs	r2, r4
 800551a:	431a      	orrs	r2, r3
                  ((uint32_t)sDate->WeekDay               << RTC_DR_WDU_Pos));
 800551c:	68bb      	ldr	r3, [r7, #8]
 800551e:	781b      	ldrb	r3, [r3, #0]
 8005520:	035b      	lsls	r3, r3, #13
    datetmpreg = (((uint32_t)RTC_ByteToBcd2(sDate->Year)  << RTC_DR_YU_Pos) | \
 8005522:	4313      	orrs	r3, r2
 8005524:	617b      	str	r3, [r7, #20]
 8005526:	e00e      	b.n	8005546 <HAL_RTC_SetDate+0xaa>
  {
    assert_param(IS_RTC_YEAR(RTC_Bcd2ToByte(sDate->Year)));
    assert_param(IS_RTC_MONTH(RTC_Bcd2ToByte(sDate->Month)));
    assert_param(IS_RTC_DATE(RTC_Bcd2ToByte(sDate->Date)));

    datetmpreg = ((((uint32_t)sDate->Year)    << RTC_DR_YU_Pos) | \
 8005528:	68bb      	ldr	r3, [r7, #8]
 800552a:	78db      	ldrb	r3, [r3, #3]
 800552c:	041a      	lsls	r2, r3, #16
                  (((uint32_t)sDate->Month)   << RTC_DR_MU_Pos) | \
 800552e:	68bb      	ldr	r3, [r7, #8]
 8005530:	785b      	ldrb	r3, [r3, #1]
 8005532:	021b      	lsls	r3, r3, #8
    datetmpreg = ((((uint32_t)sDate->Year)    << RTC_DR_YU_Pos) | \
 8005534:	4313      	orrs	r3, r2
                  ((uint32_t) sDate->Date)                      | \
 8005536:	68ba      	ldr	r2, [r7, #8]
 8005538:	7892      	ldrb	r2, [r2, #2]
                  (((uint32_t)sDate->Month)   << RTC_DR_MU_Pos) | \
 800553a:	431a      	orrs	r2, r3
                  (((uint32_t)sDate->WeekDay) << RTC_DR_WDU_Pos));
 800553c:	68bb      	ldr	r3, [r7, #8]
 800553e:	781b      	ldrb	r3, [r3, #0]
 8005540:	035b      	lsls	r3, r3, #13
    datetmpreg = ((((uint32_t)sDate->Year)    << RTC_DR_YU_Pos) | \
 8005542:	4313      	orrs	r3, r2
 8005544:	617b      	str	r3, [r7, #20]
  }

  /* Disable the write protection for RTC registers */
  __HAL_RTC_WRITEPROTECTION_DISABLE(hrtc);
 8005546:	68fb      	ldr	r3, [r7, #12]
 8005548:	681b      	ldr	r3, [r3, #0]
 800554a:	22ca      	movs	r2, #202	@ 0xca
 800554c:	625a      	str	r2, [r3, #36]	@ 0x24
 800554e:	68fb      	ldr	r3, [r7, #12]
 8005550:	681b      	ldr	r3, [r3, #0]
 8005552:	2253      	movs	r2, #83	@ 0x53
 8005554:	625a      	str	r2, [r3, #36]	@ 0x24

  /* Enter Initialization mode */
  status = RTC_EnterInitMode(hrtc);
 8005556:	2513      	movs	r5, #19
 8005558:	197c      	adds	r4, r7, r5
 800555a:	68fb      	ldr	r3, [r7, #12]
 800555c:	0018      	movs	r0, r3
 800555e:	f000 f855 	bl	800560c <RTC_EnterInitMode>
 8005562:	0003      	movs	r3, r0
 8005564:	7023      	strb	r3, [r4, #0]

  if (status == HAL_OK)
 8005566:	0028      	movs	r0, r5
 8005568:	183b      	adds	r3, r7, r0
 800556a:	781b      	ldrb	r3, [r3, #0]
 800556c:	2b00      	cmp	r3, #0
 800556e:	d10c      	bne.n	800558a <HAL_RTC_SetDate+0xee>
  {
    /* Set the RTC_DR register */
    hrtc->Instance->DR = (uint32_t)(datetmpreg & RTC_DR_RESERVED_MASK);
 8005570:	68fb      	ldr	r3, [r7, #12]
 8005572:	681b      	ldr	r3, [r3, #0]
 8005574:	697a      	ldr	r2, [r7, #20]
 8005576:	4910      	ldr	r1, [pc, #64]	@ (80055b8 <HAL_RTC_SetDate+0x11c>)
 8005578:	400a      	ands	r2, r1
 800557a:	605a      	str	r2, [r3, #4]

    /* Exit Initialization mode */
    status = RTC_ExitInitMode(hrtc);
 800557c:	183c      	adds	r4, r7, r0
 800557e:	68fb      	ldr	r3, [r7, #12]
 8005580:	0018      	movs	r0, r3
 8005582:	f000 f886 	bl	8005692 <RTC_ExitInitMode>
 8005586:	0003      	movs	r3, r0
 8005588:	7023      	strb	r3, [r4, #0]
  }

  if (status == HAL_OK)
 800558a:	2313      	movs	r3, #19
 800558c:	18fb      	adds	r3, r7, r3
 800558e:	781b      	ldrb	r3, [r3, #0]
 8005590:	2b00      	cmp	r3, #0
 8005592:	d102      	bne.n	800559a <HAL_RTC_SetDate+0xfe>
  {
    hrtc->State = HAL_RTC_STATE_READY;
 8005594:	68fb      	ldr	r3, [r7, #12]
 8005596:	2201      	movs	r2, #1
 8005598:	775a      	strb	r2, [r3, #29]
  }

  /* Enable the write protection for RTC registers */
  __HAL_RTC_WRITEPROTECTION_ENABLE(hrtc);
 800559a:	68fb      	ldr	r3, [r7, #12]
 800559c:	681b      	ldr	r3, [r3, #0]
 800559e:	22ff      	movs	r2, #255	@ 0xff
 80055a0:	625a      	str	r2, [r3, #36]	@ 0x24

  /* Process Unlocked */
  __HAL_UNLOCK(hrtc);
 80055a2:	68fb      	ldr	r3, [r7, #12]
 80055a4:	2200      	movs	r2, #0
 80055a6:	771a      	strb	r2, [r3, #28]

  return status;
 80055a8:	2313      	movs	r3, #19
 80055aa:	18fb      	adds	r3, r7, r3
 80055ac:	781b      	ldrb	r3, [r3, #0]
}
 80055ae:	0018      	movs	r0, r3
 80055b0:	46bd      	mov	sp, r7
 80055b2:	b006      	add	sp, #24
 80055b4:	bdb0      	pop	{r4, r5, r7, pc}
 80055b6:	46c0      	nop			@ (mov r8, r8)
 80055b8:	00ffff3f 	.word	0x00ffff3f

080055bc <HAL_RTC_WaitForSynchro>:
  * @param  hrtc pointer to a RTC_HandleTypeDef structure that contains
  *                the configuration information for RTC.
  * @retval HAL status
  */
HAL_StatusTypeDef HAL_RTC_WaitForSynchro(RTC_HandleTypeDef *hrtc)
{
 80055bc:	b580      	push	{r7, lr}
 80055be:	b084      	sub	sp, #16
 80055c0:	af00      	add	r7, sp, #0
 80055c2:	6078      	str	r0, [r7, #4]
  uint32_t tickstart = 0U;
 80055c4:	2300      	movs	r3, #0
 80055c6:	60fb      	str	r3, [r7, #12]

  /* Clear RSF flag, keep reserved bits at reset values (setting other flags has no effect) */
  hrtc->Instance->ISR = ((uint32_t)(RTC_RSF_MASK & RTC_ISR_RESERVED_MASK));
 80055c8:	687b      	ldr	r3, [r7, #4]
 80055ca:	681b      	ldr	r3, [r3, #0]
 80055cc:	4a0e      	ldr	r2, [pc, #56]	@ (8005608 <HAL_RTC_WaitForSynchro+0x4c>)
 80055ce:	60da      	str	r2, [r3, #12]

  /* Get tick */
  tickstart = HAL_GetTick();
 80055d0:	f7fe fb4e 	bl	8003c70 <HAL_GetTick>
 80055d4:	0003      	movs	r3, r0
 80055d6:	60fb      	str	r3, [r7, #12]

  /* Wait the registers to be synchronised */
  while ((hrtc->Instance->ISR & RTC_ISR_RSF) == 0U)
 80055d8:	e00a      	b.n	80055f0 <HAL_RTC_WaitForSynchro+0x34>
  {
    if ((HAL_GetTick() - tickstart) > RTC_TIMEOUT_VALUE)
 80055da:	f7fe fb49 	bl	8003c70 <HAL_GetTick>
 80055de:	0002      	movs	r2, r0
 80055e0:	68fb      	ldr	r3, [r7, #12]
 80055e2:	1ad2      	subs	r2, r2, r3
 80055e4:	23fa      	movs	r3, #250	@ 0xfa
 80055e6:	009b      	lsls	r3, r3, #2
 80055e8:	429a      	cmp	r2, r3
 80055ea:	d901      	bls.n	80055f0 <HAL_RTC_WaitForSynchro+0x34>
    {
      return HAL_TIMEOUT;
 80055ec:	2303      	movs	r3, #3
 80055ee:	e006      	b.n	80055fe <HAL_RTC_WaitForSynchro+0x42>
  while ((hrtc->Instance->ISR & RTC_ISR_RSF) == 0U)
 80055f0:	687b      	ldr	r3, [r7, #4]
 80055f2:	681b      	ldr	r3, [r3, #0]
 80055f4:	68db      	ldr	r3, [r3, #12]
 80055f6:	2220      	movs	r2, #32
 80055f8:	4013      	ands	r3, r2
 80055fa:	d0ee      	beq.n	80055da <HAL_RTC_WaitForSynchro+0x1e>
    }
  }

  return HAL_OK;
 80055fc:	2300      	movs	r3, #0
}
 80055fe:	0018      	movs	r0, r3
 8005600:	46bd      	mov	sp, r7
 8005602:	b004      	add	sp, #16
 8005604:	bd80      	pop	{r7, pc}
 8005606:	46c0      	nop			@ (mov r8, r8)
 8005608:	00017d5d 	.word	0x00017d5d

0800560c <RTC_EnterInitMode>:
  * @param  hrtc pointer to a RTC_HandleTypeDef structure that contains
  *                the configuration information for RTC.
  * @retval HAL status
  */
HAL_StatusTypeDef RTC_EnterInitMode(RTC_HandleTypeDef *hrtc)
{
 800560c:	b580      	push	{r7, lr}
 800560e:	b084      	sub	sp, #16
 8005610:	af00      	add	r7, sp, #0
 8005612:	6078      	str	r0, [r7, #4]
  uint32_t tickstart = 0U;
 8005614:	2300      	movs	r3, #0
 8005616:	60bb      	str	r3, [r7, #8]
  HAL_StatusTypeDef status = HAL_OK;
 8005618:	230f      	movs	r3, #15
 800561a:	18fb      	adds	r3, r7, r3
 800561c:	2200      	movs	r2, #0
 800561e:	701a      	strb	r2, [r3, #0]

  /* Check that Initialization mode is not already set */
  if (READ_BIT(hrtc->Instance->ISR, RTC_ISR_INITF) == 0U)
 8005620:	687b      	ldr	r3, [r7, #4]
 8005622:	681b      	ldr	r3, [r3, #0]
 8005624:	68db      	ldr	r3, [r3, #12]
 8005626:	2240      	movs	r2, #64	@ 0x40
 8005628:	4013      	ands	r3, r2
 800562a:	d12b      	bne.n	8005684 <RTC_EnterInitMode+0x78>
  {
    /* Set INIT bit to enter Initialization mode */
    SET_BIT(hrtc->Instance->ISR, RTC_ISR_INIT);
 800562c:	687b      	ldr	r3, [r7, #4]
 800562e:	681b      	ldr	r3, [r3, #0]
 8005630:	68da      	ldr	r2, [r3, #12]
 8005632:	687b      	ldr	r3, [r7, #4]
 8005634:	681b      	ldr	r3, [r3, #0]
 8005636:	2180      	movs	r1, #128	@ 0x80
 8005638:	430a      	orrs	r2, r1
 800563a:	60da      	str	r2, [r3, #12]

    /* Get tick */
    tickstart = HAL_GetTick();
 800563c:	f7fe fb18 	bl	8003c70 <HAL_GetTick>
 8005640:	0003      	movs	r3, r0
 8005642:	60bb      	str	r3, [r7, #8]

    /* Wait till RTC is in INIT state and if timeout is reached exit */
    while ((READ_BIT(hrtc->Instance->ISR, RTC_ISR_INITF) == 0U) && (status != HAL_ERROR))
 8005644:	e013      	b.n	800566e <RTC_EnterInitMode+0x62>
    {
      if ((HAL_GetTick() - tickstart) > RTC_TIMEOUT_VALUE)
 8005646:	f7fe fb13 	bl	8003c70 <HAL_GetTick>
 800564a:	0002      	movs	r2, r0
 800564c:	68bb      	ldr	r3, [r7, #8]
 800564e:	1ad2      	subs	r2, r2, r3
 8005650:	200f      	movs	r0, #15
 8005652:	183b      	adds	r3, r7, r0
 8005654:	1839      	adds	r1, r7, r0
 8005656:	7809      	ldrb	r1, [r1, #0]
 8005658:	7019      	strb	r1, [r3, #0]
 800565a:	23fa      	movs	r3, #250	@ 0xfa
 800565c:	009b      	lsls	r3, r3, #2
 800565e:	429a      	cmp	r2, r3
 8005660:	d905      	bls.n	800566e <RTC_EnterInitMode+0x62>
      {
        /* Set RTC state */
        hrtc->State = HAL_RTC_STATE_ERROR;
 8005662:	687b      	ldr	r3, [r7, #4]
 8005664:	2204      	movs	r2, #4
 8005666:	775a      	strb	r2, [r3, #29]
        status = HAL_ERROR;
 8005668:	183b      	adds	r3, r7, r0
 800566a:	2201      	movs	r2, #1
 800566c:	701a      	strb	r2, [r3, #0]
    while ((READ_BIT(hrtc->Instance->ISR, RTC_ISR_INITF) == 0U) && (status != HAL_ERROR))
 800566e:	687b      	ldr	r3, [r7, #4]
 8005670:	681b      	ldr	r3, [r3, #0]
 8005672:	68db      	ldr	r3, [r3, #12]
 8005674:	2240      	movs	r2, #64	@ 0x40
 8005676:	4013      	ands	r3, r2
 8005678:	d104      	bne.n	8005684 <RTC_EnterInitMode+0x78>
 800567a:	230f      	movs	r3, #15
 800567c:	18fb      	adds	r3, r7, r3
 800567e:	781b      	ldrb	r3, [r3, #0]
 8005680:	2b01      	cmp	r3, #1
 8005682:	d1e0      	bne.n	8005646 <RTC_EnterInitMode+0x3a>
      }
    }
  }

  return status;
 8005684:	230f      	movs	r3, #15
 8005686:	18fb      	adds	r3, r7, r3
 8005688:	781b      	ldrb	r3, [r3, #0]
}
 800568a:	0018      	movs	r0, r3
 800568c:	46bd      	mov	sp, r7
 800568e:	b004      	add	sp, #16
 8005690:	bd80      	pop	{r7, pc}

08005692 <RTC_ExitInitMode>:
  * @param  hrtc pointer to a RTC_HandleTypeDef structure that contains
  *                the configuration information for RTC.
  * @retval HAL status
  */
HAL_StatusTypeDef RTC_ExitInitMode(RTC_HandleTypeDef *hrtc)
{
 8005692:	b590      	push	{r4, r7, lr}
 8005694:	b085      	sub	sp, #20
 8005696:	af00      	add	r7, sp, #0
 8005698:	6078      	str	r0, [r7, #4]
  HAL_StatusTypeDef status = HAL_OK;
 800569a:	240f      	movs	r4, #15
 800569c:	193b      	adds	r3, r7, r4
 800569e:	2200      	movs	r2, #0
 80056a0:	701a      	strb	r2, [r3, #0]

  /* Clear INIT bit to exit Initialization mode */
  CLEAR_BIT(hrtc->Instance->ISR, RTC_ISR_INIT);
 80056a2:	687b      	ldr	r3, [r7, #4]
 80056a4:	681b      	ldr	r3, [r3, #0]
 80056a6:	68da      	ldr	r2, [r3, #12]
 80056a8:	687b      	ldr	r3, [r7, #4]
 80056aa:	681b      	ldr	r3, [r3, #0]
 80056ac:	2180      	movs	r1, #128	@ 0x80
 80056ae:	438a      	bics	r2, r1
 80056b0:	60da      	str	r2, [r3, #12]

  /* If CR_BYPSHAD bit = 0, wait for synchro */
  if (READ_BIT(hrtc->Instance->CR, RTC_CR_BYPSHAD) == 0U)
 80056b2:	687b      	ldr	r3, [r7, #4]
 80056b4:	681b      	ldr	r3, [r3, #0]
 80056b6:	689b      	ldr	r3, [r3, #8]
 80056b8:	2220      	movs	r2, #32
 80056ba:	4013      	ands	r3, r2
 80056bc:	d10b      	bne.n	80056d6 <RTC_ExitInitMode+0x44>
  {
    if (HAL_RTC_WaitForSynchro(hrtc) != HAL_OK)
 80056be:	687b      	ldr	r3, [r7, #4]
 80056c0:	0018      	movs	r0, r3
 80056c2:	f7ff ff7b 	bl	80055bc <HAL_RTC_WaitForSynchro>
 80056c6:	1e03      	subs	r3, r0, #0
 80056c8:	d005      	beq.n	80056d6 <RTC_ExitInitMode+0x44>
    {
      /* Set RTC state */
      hrtc->State = HAL_RTC_STATE_ERROR;
 80056ca:	687b      	ldr	r3, [r7, #4]
 80056cc:	2204      	movs	r2, #4
 80056ce:	775a      	strb	r2, [r3, #29]
      status = HAL_ERROR;
 80056d0:	193b      	adds	r3, r7, r4
 80056d2:	2201      	movs	r2, #1
 80056d4:	701a      	strb	r2, [r3, #0]
    }
  }

  return status;
 80056d6:	230f      	movs	r3, #15
 80056d8:	18fb      	adds	r3, r7, r3
 80056da:	781b      	ldrb	r3, [r3, #0]
}
 80056dc:	0018      	movs	r0, r3
 80056de:	46bd      	mov	sp, r7
 80056e0:	b005      	add	sp, #20
 80056e2:	bd90      	pop	{r4, r7, pc}

080056e4 <RTC_ByteToBcd2>:
  * @brief  Converts a 2-digit number from decimal to BCD format.
  * @param  number decimal-formatted number (from 0 to 99) to be converted
  * @retval Converted byte
  */
uint8_t RTC_ByteToBcd2(uint8_t number)
{
 80056e4:	b580      	push	{r7, lr}
 80056e6:	b084      	sub	sp, #16
 80056e8:	af00      	add	r7, sp, #0
 80056ea:	0002      	movs	r2, r0
 80056ec:	1dfb      	adds	r3, r7, #7
 80056ee:	701a      	strb	r2, [r3, #0]
  uint32_t bcdhigh = 0U;
 80056f0:	2300      	movs	r3, #0
 80056f2:	60fb      	str	r3, [r7, #12]

  while (number >= 10U)
 80056f4:	e007      	b.n	8005706 <RTC_ByteToBcd2+0x22>
  {
    bcdhigh++;
 80056f6:	68fb      	ldr	r3, [r7, #12]
 80056f8:	3301      	adds	r3, #1
 80056fa:	60fb      	str	r3, [r7, #12]
    number -= 10U;
 80056fc:	1dfb      	adds	r3, r7, #7
 80056fe:	1dfa      	adds	r2, r7, #7
 8005700:	7812      	ldrb	r2, [r2, #0]
 8005702:	3a0a      	subs	r2, #10
 8005704:	701a      	strb	r2, [r3, #0]
  while (number >= 10U)
 8005706:	1dfb      	adds	r3, r7, #7
 8005708:	781b      	ldrb	r3, [r3, #0]
 800570a:	2b09      	cmp	r3, #9
 800570c:	d8f3      	bhi.n	80056f6 <RTC_ByteToBcd2+0x12>
  }

  return ((uint8_t)(bcdhigh << 4U) | number);
 800570e:	68fb      	ldr	r3, [r7, #12]
 8005710:	b2db      	uxtb	r3, r3
 8005712:	011b      	lsls	r3, r3, #4
 8005714:	b2da      	uxtb	r2, r3
 8005716:	1dfb      	adds	r3, r7, #7
 8005718:	781b      	ldrb	r3, [r3, #0]
 800571a:	4313      	orrs	r3, r2
 800571c:	b2db      	uxtb	r3, r3
}
 800571e:	0018      	movs	r0, r3
 8005720:	46bd      	mov	sp, r7
 8005722:	b004      	add	sp, #16
 8005724:	bd80      	pop	{r7, pc}
	...

08005728 <HAL_SPI_Init>:
  * @param  hspi pointer to a SPI_HandleTypeDef structure that contains
  *               the configuration information for SPI module.
  * @retval HAL status
  */
HAL_StatusTypeDef HAL_SPI_Init(SPI_HandleTypeDef *hspi)
{
 8005728:	b580      	push	{r7, lr}
 800572a:	b084      	sub	sp, #16
 800572c:	af00      	add	r7, sp, #0
 800572e:	6078      	str	r0, [r7, #4]
  uint32_t frxth;

  /* Check the SPI handle allocation */
  if (hspi == NULL)
 8005730:	687b      	ldr	r3, [r7, #4]
 8005732:	2b00      	cmp	r3, #0
 8005734:	d101      	bne.n	800573a <HAL_SPI_Init+0x12>
  {
    return HAL_ERROR;
 8005736:	2301      	movs	r3, #1
 8005738:	e0a8      	b.n	800588c <HAL_SPI_Init+0x164>
  assert_param(IS_SPI_NSS(hspi->Init.NSS));
  assert_param(IS_SPI_NSSP(hspi->Init.NSSPMode));
  assert_param(IS_SPI_BAUDRATE_PRESCALER(hspi->Init.BaudRatePrescaler));
  assert_param(IS_SPI_FIRST_BIT(hspi->Init.FirstBit));
  assert_param(IS_SPI_TIMODE(hspi->Init.TIMode));
  if (hspi->Init.TIMode == SPI_TIMODE_DISABLE)
 800573a:	687b      	ldr	r3, [r7, #4]
 800573c:	6a5b      	ldr	r3, [r3, #36]	@ 0x24
 800573e:	2b00      	cmp	r3, #0
 8005740:	d109      	bne.n	8005756 <HAL_SPI_Init+0x2e>
  {
    assert_param(IS_SPI_CPOL(hspi->Init.CLKPolarity));
    assert_param(IS_SPI_CPHA(hspi->Init.CLKPhase));

    if (hspi->Init.Mode == SPI_MODE_MASTER)
 8005742:	687b      	ldr	r3, [r7, #4]
 8005744:	685a      	ldr	r2, [r3, #4]
 8005746:	2382      	movs	r3, #130	@ 0x82
 8005748:	005b      	lsls	r3, r3, #1
 800574a:	429a      	cmp	r2, r3
 800574c:	d009      	beq.n	8005762 <HAL_SPI_Init+0x3a>
      assert_param(IS_SPI_BAUDRATE_PRESCALER(hspi->Init.BaudRatePrescaler));
    }
    else
    {
      /* Baudrate prescaler not use in Motoraola Slave mode. force to default value */
      hspi->Init.BaudRatePrescaler = SPI_BAUDRATEPRESCALER_2;
 800574e:	687b      	ldr	r3, [r7, #4]
 8005750:	2200      	movs	r2, #0
 8005752:	61da      	str	r2, [r3, #28]
 8005754:	e005      	b.n	8005762 <HAL_SPI_Init+0x3a>
  else
  {
    assert_param(IS_SPI_BAUDRATE_PRESCALER(hspi->Init.BaudRatePrescaler));

    /* Force polarity and phase to TI protocaol requirements */
    hspi->Init.CLKPolarity = SPI_POLARITY_LOW;
 8005756:	687b      	ldr	r3, [r7, #4]
 8005758:	2200      	movs	r2, #0
 800575a:	611a      	str	r2, [r3, #16]
    hspi->Init.CLKPhase    = SPI_PHASE_1EDGE;
 800575c:	687b      	ldr	r3, [r7, #4]
 800575e:	2200      	movs	r2, #0
 8005760:	615a      	str	r2, [r3, #20]
  {
    assert_param(IS_SPI_CRC_POLYNOMIAL(hspi->Init.CRCPolynomial));
    assert_param(IS_SPI_CRC_LENGTH(hspi->Init.CRCLength));
  }
#else
  hspi->Init.CRCCalculation = SPI_CRCCALCULATION_DISABLE;
 8005762:	687b      	ldr	r3, [r7, #4]
 8005764:	2200      	movs	r2, #0
 8005766:	629a      	str	r2, [r3, #40]	@ 0x28
#endif /* USE_SPI_CRC */

  if (hspi->State == HAL_SPI_STATE_RESET)
 8005768:	687b      	ldr	r3, [r7, #4]
 800576a:	225d      	movs	r2, #93	@ 0x5d
 800576c:	5c9b      	ldrb	r3, [r3, r2]
 800576e:	b2db      	uxtb	r3, r3
 8005770:	2b00      	cmp	r3, #0
 8005772:	d107      	bne.n	8005784 <HAL_SPI_Init+0x5c>
  {
    /* Allocate lock resource and initialize it */
    hspi->Lock = HAL_UNLOCKED;
 8005774:	687b      	ldr	r3, [r7, #4]
 8005776:	225c      	movs	r2, #92	@ 0x5c
 8005778:	2100      	movs	r1, #0
 800577a:	5499      	strb	r1, [r3, r2]

    /* Init the low level hardware : GPIO, CLOCK, NVIC... */
    hspi->MspInitCallback(hspi);
#else
    /* Init the low level hardware : GPIO, CLOCK, NVIC... */
    HAL_SPI_MspInit(hspi);
 800577c:	687b      	ldr	r3, [r7, #4]
 800577e:	0018      	movs	r0, r3
 8005780:	f7fd fff8 	bl	8003774 <HAL_SPI_MspInit>
#endif /* USE_HAL_SPI_REGISTER_CALLBACKS */
  }

  hspi->State = HAL_SPI_STATE_BUSY;
 8005784:	687b      	ldr	r3, [r7, #4]
 8005786:	225d      	movs	r2, #93	@ 0x5d
 8005788:	2102      	movs	r1, #2
 800578a:	5499      	strb	r1, [r3, r2]

  /* Disable the selected SPI peripheral */
  __HAL_SPI_DISABLE(hspi);
 800578c:	687b      	ldr	r3, [r7, #4]
 800578e:	681b      	ldr	r3, [r3, #0]
 8005790:	681a      	ldr	r2, [r3, #0]
 8005792:	687b      	ldr	r3, [r7, #4]
 8005794:	681b      	ldr	r3, [r3, #0]
 8005796:	2140      	movs	r1, #64	@ 0x40
 8005798:	438a      	bics	r2, r1
 800579a:	601a      	str	r2, [r3, #0]

  /* Align by default the rs fifo threshold on the data size */
  if (hspi->Init.DataSize > SPI_DATASIZE_8BIT)
 800579c:	687b      	ldr	r3, [r7, #4]
 800579e:	68da      	ldr	r2, [r3, #12]
 80057a0:	23e0      	movs	r3, #224	@ 0xe0
 80057a2:	00db      	lsls	r3, r3, #3
 80057a4:	429a      	cmp	r2, r3
 80057a6:	d902      	bls.n	80057ae <HAL_SPI_Init+0x86>
  {
    frxth = SPI_RXFIFO_THRESHOLD_HF;
 80057a8:	2300      	movs	r3, #0
 80057aa:	60fb      	str	r3, [r7, #12]
 80057ac:	e002      	b.n	80057b4 <HAL_SPI_Init+0x8c>
  }
  else
  {
    frxth = SPI_RXFIFO_THRESHOLD_QF;
 80057ae:	2380      	movs	r3, #128	@ 0x80
 80057b0:	015b      	lsls	r3, r3, #5
 80057b2:	60fb      	str	r3, [r7, #12]
  }

  /* CRC calculation is valid only for 16Bit and 8 Bit */
  if ((hspi->Init.DataSize != SPI_DATASIZE_16BIT) && (hspi->Init.DataSize != SPI_DATASIZE_8BIT))
 80057b4:	687b      	ldr	r3, [r7, #4]
 80057b6:	68da      	ldr	r2, [r3, #12]
 80057b8:	23f0      	movs	r3, #240	@ 0xf0
 80057ba:	011b      	lsls	r3, r3, #4
 80057bc:	429a      	cmp	r2, r3
 80057be:	d008      	beq.n	80057d2 <HAL_SPI_Init+0xaa>
 80057c0:	687b      	ldr	r3, [r7, #4]
 80057c2:	68da      	ldr	r2, [r3, #12]
 80057c4:	23e0      	movs	r3, #224	@ 0xe0
 80057c6:	00db      	lsls	r3, r3, #3
 80057c8:	429a      	cmp	r2, r3
 80057ca:	d002      	beq.n	80057d2 <HAL_SPI_Init+0xaa>
  {
    /* CRC must be disabled */
    hspi->Init.CRCCalculation = SPI_CRCCALCULATION_DISABLE;
 80057cc:	687b      	ldr	r3, [r7, #4]
 80057ce:	2200      	movs	r2, #0
 80057d0:	629a      	str	r2, [r3, #40]	@ 0x28
  }

  /*----------------------- SPIx CR1 & CR2 Configuration ---------------------*/
  /* Configure : SPI Mode, Communication Mode, Clock polarity and phase, NSS management,
  Communication speed, First bit and CRC calculation state */
  WRITE_REG(hspi->Instance->CR1, ((hspi->Init.Mode & (SPI_CR1_MSTR | SPI_CR1_SSI)) |
 80057d2:	687b      	ldr	r3, [r7, #4]
 80057d4:	685a      	ldr	r2, [r3, #4]
 80057d6:	2382      	movs	r3, #130	@ 0x82
 80057d8:	005b      	lsls	r3, r3, #1
 80057da:	401a      	ands	r2, r3
 80057dc:	687b      	ldr	r3, [r7, #4]
 80057de:	6899      	ldr	r1, [r3, #8]
 80057e0:	2384      	movs	r3, #132	@ 0x84
 80057e2:	021b      	lsls	r3, r3, #8
 80057e4:	400b      	ands	r3, r1
 80057e6:	431a      	orrs	r2, r3
 80057e8:	687b      	ldr	r3, [r7, #4]
 80057ea:	691b      	ldr	r3, [r3, #16]
 80057ec:	2102      	movs	r1, #2
 80057ee:	400b      	ands	r3, r1
 80057f0:	431a      	orrs	r2, r3
 80057f2:	687b      	ldr	r3, [r7, #4]
 80057f4:	695b      	ldr	r3, [r3, #20]
 80057f6:	2101      	movs	r1, #1
 80057f8:	400b      	ands	r3, r1
 80057fa:	431a      	orrs	r2, r3
 80057fc:	687b      	ldr	r3, [r7, #4]
 80057fe:	6999      	ldr	r1, [r3, #24]
 8005800:	2380      	movs	r3, #128	@ 0x80
 8005802:	009b      	lsls	r3, r3, #2
 8005804:	400b      	ands	r3, r1
 8005806:	431a      	orrs	r2, r3
 8005808:	687b      	ldr	r3, [r7, #4]
 800580a:	69db      	ldr	r3, [r3, #28]
 800580c:	2138      	movs	r1, #56	@ 0x38
 800580e:	400b      	ands	r3, r1
 8005810:	431a      	orrs	r2, r3
 8005812:	687b      	ldr	r3, [r7, #4]
 8005814:	6a1b      	ldr	r3, [r3, #32]
 8005816:	2180      	movs	r1, #128	@ 0x80
 8005818:	400b      	ands	r3, r1
 800581a:	431a      	orrs	r2, r3
 800581c:	0011      	movs	r1, r2
 800581e:	687b      	ldr	r3, [r7, #4]
 8005820:	6a9a      	ldr	r2, [r3, #40]	@ 0x28
 8005822:	2380      	movs	r3, #128	@ 0x80
 8005824:	019b      	lsls	r3, r3, #6
 8005826:	401a      	ands	r2, r3
 8005828:	687b      	ldr	r3, [r7, #4]
 800582a:	681b      	ldr	r3, [r3, #0]
 800582c:	430a      	orrs	r2, r1
 800582e:	601a      	str	r2, [r3, #0]
    }
  }
#endif /* USE_SPI_CRC */

  /* Configure : NSS management, TI Mode, NSS Pulse, Data size and Rx Fifo threshold */
  WRITE_REG(hspi->Instance->CR2, (((hspi->Init.NSS >> 16U) & SPI_CR2_SSOE) |
 8005830:	687b      	ldr	r3, [r7, #4]
 8005832:	699b      	ldr	r3, [r3, #24]
 8005834:	0c1b      	lsrs	r3, r3, #16
 8005836:	2204      	movs	r2, #4
 8005838:	401a      	ands	r2, r3
 800583a:	687b      	ldr	r3, [r7, #4]
 800583c:	6a5b      	ldr	r3, [r3, #36]	@ 0x24
 800583e:	2110      	movs	r1, #16
 8005840:	400b      	ands	r3, r1
 8005842:	431a      	orrs	r2, r3
 8005844:	687b      	ldr	r3, [r7, #4]
 8005846:	6b5b      	ldr	r3, [r3, #52]	@ 0x34
 8005848:	2108      	movs	r1, #8
 800584a:	400b      	ands	r3, r1
 800584c:	431a      	orrs	r2, r3
 800584e:	687b      	ldr	r3, [r7, #4]
 8005850:	68d9      	ldr	r1, [r3, #12]
 8005852:	23f0      	movs	r3, #240	@ 0xf0
 8005854:	011b      	lsls	r3, r3, #4
 8005856:	400b      	ands	r3, r1
 8005858:	431a      	orrs	r2, r3
 800585a:	0011      	movs	r1, r2
 800585c:	68fa      	ldr	r2, [r7, #12]
 800585e:	2380      	movs	r3, #128	@ 0x80
 8005860:	015b      	lsls	r3, r3, #5
 8005862:	401a      	ands	r2, r3
 8005864:	687b      	ldr	r3, [r7, #4]
 8005866:	681b      	ldr	r3, [r3, #0]
 8005868:	430a      	orrs	r2, r1
 800586a:	605a      	str	r2, [r3, #4]
  }
#endif /* USE_SPI_CRC */

#if defined(SPI_I2SCFGR_I2SMOD)
  /* Activate the SPI mode (Make sure that I2SMOD bit in I2SCFGR register is reset) */
  CLEAR_BIT(hspi->Instance->I2SCFGR, SPI_I2SCFGR_I2SMOD);
 800586c:	687b      	ldr	r3, [r7, #4]
 800586e:	681b      	ldr	r3, [r3, #0]
 8005870:	69da      	ldr	r2, [r3, #28]
 8005872:	687b      	ldr	r3, [r7, #4]
 8005874:	681b      	ldr	r3, [r3, #0]
 8005876:	4907      	ldr	r1, [pc, #28]	@ (8005894 <HAL_SPI_Init+0x16c>)
 8005878:	400a      	ands	r2, r1
 800587a:	61da      	str	r2, [r3, #28]
#endif /* SPI_I2SCFGR_I2SMOD */

  hspi->ErrorCode = HAL_SPI_ERROR_NONE;
 800587c:	687b      	ldr	r3, [r7, #4]
 800587e:	2200      	movs	r2, #0
 8005880:	661a      	str	r2, [r3, #96]	@ 0x60
  hspi->State     = HAL_SPI_STATE_READY;
 8005882:	687b      	ldr	r3, [r7, #4]
 8005884:	225d      	movs	r2, #93	@ 0x5d
 8005886:	2101      	movs	r1, #1
 8005888:	5499      	strb	r1, [r3, r2]

  return HAL_OK;
 800588a:	2300      	movs	r3, #0
}
 800588c:	0018      	movs	r0, r3
 800588e:	46bd      	mov	sp, r7
 8005890:	b004      	add	sp, #16
 8005892:	bd80      	pop	{r7, pc}
 8005894:	fffff7ff 	.word	0xfffff7ff

08005898 <HAL_SPI_Transmit>:
  * @param  Size amount of data to be sent
  * @param  Timeout Timeout duration
  * @retval HAL status
  */
HAL_StatusTypeDef HAL_SPI_Transmit(SPI_HandleTypeDef *hspi, uint8_t *pData, uint16_t Size, uint32_t Timeout)
{
 8005898:	b580      	push	{r7, lr}
 800589a:	b088      	sub	sp, #32
 800589c:	af00      	add	r7, sp, #0
 800589e:	60f8      	str	r0, [r7, #12]
 80058a0:	60b9      	str	r1, [r7, #8]
 80058a2:	603b      	str	r3, [r7, #0]
 80058a4:	1dbb      	adds	r3, r7, #6
 80058a6:	801a      	strh	r2, [r3, #0]
  uint32_t tickstart;
  HAL_StatusTypeDef errorcode = HAL_OK;
 80058a8:	231f      	movs	r3, #31
 80058aa:	18fb      	adds	r3, r7, r3
 80058ac:	2200      	movs	r2, #0
 80058ae:	701a      	strb	r2, [r3, #0]

  /* Check Direction parameter */
  assert_param(IS_SPI_DIRECTION_2LINES_OR_1LINE(hspi->Init.Direction));

  /* Process Locked */
  __HAL_LOCK(hspi);
 80058b0:	68fb      	ldr	r3, [r7, #12]
 80058b2:	225c      	movs	r2, #92	@ 0x5c
 80058b4:	5c9b      	ldrb	r3, [r3, r2]
 80058b6:	2b01      	cmp	r3, #1
 80058b8:	d101      	bne.n	80058be <HAL_SPI_Transmit+0x26>
 80058ba:	2302      	movs	r3, #2
 80058bc:	e147      	b.n	8005b4e <HAL_SPI_Transmit+0x2b6>
 80058be:	68fb      	ldr	r3, [r7, #12]
 80058c0:	225c      	movs	r2, #92	@ 0x5c
 80058c2:	2101      	movs	r1, #1
 80058c4:	5499      	strb	r1, [r3, r2]

  /* Init tickstart for timeout management*/
  tickstart = HAL_GetTick();
 80058c6:	f7fe f9d3 	bl	8003c70 <HAL_GetTick>
 80058ca:	0003      	movs	r3, r0
 80058cc:	61bb      	str	r3, [r7, #24]
  initial_TxXferCount = Size;
 80058ce:	2316      	movs	r3, #22
 80058d0:	18fb      	adds	r3, r7, r3
 80058d2:	1dba      	adds	r2, r7, #6
 80058d4:	8812      	ldrh	r2, [r2, #0]
 80058d6:	801a      	strh	r2, [r3, #0]

  if (hspi->State != HAL_SPI_STATE_READY)
 80058d8:	68fb      	ldr	r3, [r7, #12]
 80058da:	225d      	movs	r2, #93	@ 0x5d
 80058dc:	5c9b      	ldrb	r3, [r3, r2]
 80058de:	b2db      	uxtb	r3, r3
 80058e0:	2b01      	cmp	r3, #1
 80058e2:	d004      	beq.n	80058ee <HAL_SPI_Transmit+0x56>
  {
    errorcode = HAL_BUSY;
 80058e4:	231f      	movs	r3, #31
 80058e6:	18fb      	adds	r3, r7, r3
 80058e8:	2202      	movs	r2, #2
 80058ea:	701a      	strb	r2, [r3, #0]
    goto error;
 80058ec:	e128      	b.n	8005b40 <HAL_SPI_Transmit+0x2a8>
  }

  if ((pData == NULL) || (Size == 0U))
 80058ee:	68bb      	ldr	r3, [r7, #8]
 80058f0:	2b00      	cmp	r3, #0
 80058f2:	d003      	beq.n	80058fc <HAL_SPI_Transmit+0x64>
 80058f4:	1dbb      	adds	r3, r7, #6
 80058f6:	881b      	ldrh	r3, [r3, #0]
 80058f8:	2b00      	cmp	r3, #0
 80058fa:	d104      	bne.n	8005906 <HAL_SPI_Transmit+0x6e>
  {
    errorcode = HAL_ERROR;
 80058fc:	231f      	movs	r3, #31
 80058fe:	18fb      	adds	r3, r7, r3
 8005900:	2201      	movs	r2, #1
 8005902:	701a      	strb	r2, [r3, #0]
    goto error;
 8005904:	e11c      	b.n	8005b40 <HAL_SPI_Transmit+0x2a8>
  }

  /* Set the transaction information */
  hspi->State       = HAL_SPI_STATE_BUSY_TX;
 8005906:	68fb      	ldr	r3, [r7, #12]
 8005908:	225d      	movs	r2, #93	@ 0x5d
 800590a:	2103      	movs	r1, #3
 800590c:	5499      	strb	r1, [r3, r2]
  hspi->ErrorCode   = HAL_SPI_ERROR_NONE;
 800590e:	68fb      	ldr	r3, [r7, #12]
 8005910:	2200      	movs	r2, #0
 8005912:	661a      	str	r2, [r3, #96]	@ 0x60
  hspi->pTxBuffPtr  = (uint8_t *)pData;
 8005914:	68fb      	ldr	r3, [r7, #12]
 8005916:	68ba      	ldr	r2, [r7, #8]
 8005918:	639a      	str	r2, [r3, #56]	@ 0x38
  hspi->TxXferSize  = Size;
 800591a:	68fb      	ldr	r3, [r7, #12]
 800591c:	1dba      	adds	r2, r7, #6
 800591e:	8812      	ldrh	r2, [r2, #0]
 8005920:	879a      	strh	r2, [r3, #60]	@ 0x3c
  hspi->TxXferCount = Size;
 8005922:	68fb      	ldr	r3, [r7, #12]
 8005924:	1dba      	adds	r2, r7, #6
 8005926:	8812      	ldrh	r2, [r2, #0]
 8005928:	87da      	strh	r2, [r3, #62]	@ 0x3e

  /*Init field not used in handle to zero */
  hspi->pRxBuffPtr  = (uint8_t *)NULL;
 800592a:	68fb      	ldr	r3, [r7, #12]
 800592c:	2200      	movs	r2, #0
 800592e:	641a      	str	r2, [r3, #64]	@ 0x40
  hspi->RxXferSize  = 0U;
 8005930:	68fb      	ldr	r3, [r7, #12]
 8005932:	2244      	movs	r2, #68	@ 0x44
 8005934:	2100      	movs	r1, #0
 8005936:	5299      	strh	r1, [r3, r2]
  hspi->RxXferCount = 0U;
 8005938:	68fb      	ldr	r3, [r7, #12]
 800593a:	2246      	movs	r2, #70	@ 0x46
 800593c:	2100      	movs	r1, #0
 800593e:	5299      	strh	r1, [r3, r2]
  hspi->TxISR       = NULL;
 8005940:	68fb      	ldr	r3, [r7, #12]
 8005942:	2200      	movs	r2, #0
 8005944:	651a      	str	r2, [r3, #80]	@ 0x50
  hspi->RxISR       = NULL;
 8005946:	68fb      	ldr	r3, [r7, #12]
 8005948:	2200      	movs	r2, #0
 800594a:	64da      	str	r2, [r3, #76]	@ 0x4c

  /* Configure communication direction : 1Line */
  if (hspi->Init.Direction == SPI_DIRECTION_1LINE)
 800594c:	68fb      	ldr	r3, [r7, #12]
 800594e:	689a      	ldr	r2, [r3, #8]
 8005950:	2380      	movs	r3, #128	@ 0x80
 8005952:	021b      	lsls	r3, r3, #8
 8005954:	429a      	cmp	r2, r3
 8005956:	d110      	bne.n	800597a <HAL_SPI_Transmit+0xe2>
  {
    /* Disable SPI Peripheral before set 1Line direction (BIDIOE bit) */
    __HAL_SPI_DISABLE(hspi);
 8005958:	68fb      	ldr	r3, [r7, #12]
 800595a:	681b      	ldr	r3, [r3, #0]
 800595c:	681a      	ldr	r2, [r3, #0]
 800595e:	68fb      	ldr	r3, [r7, #12]
 8005960:	681b      	ldr	r3, [r3, #0]
 8005962:	2140      	movs	r1, #64	@ 0x40
 8005964:	438a      	bics	r2, r1
 8005966:	601a      	str	r2, [r3, #0]
    SPI_1LINE_TX(hspi);
 8005968:	68fb      	ldr	r3, [r7, #12]
 800596a:	681b      	ldr	r3, [r3, #0]
 800596c:	681a      	ldr	r2, [r3, #0]
 800596e:	68fb      	ldr	r3, [r7, #12]
 8005970:	681b      	ldr	r3, [r3, #0]
 8005972:	2180      	movs	r1, #128	@ 0x80
 8005974:	01c9      	lsls	r1, r1, #7
 8005976:	430a      	orrs	r2, r1
 8005978:	601a      	str	r2, [r3, #0]
    SPI_RESET_CRC(hspi);
  }
#endif /* USE_SPI_CRC */

  /* Check if the SPI is already enabled */
  if ((hspi->Instance->CR1 & SPI_CR1_SPE) != SPI_CR1_SPE)
 800597a:	68fb      	ldr	r3, [r7, #12]
 800597c:	681b      	ldr	r3, [r3, #0]
 800597e:	681b      	ldr	r3, [r3, #0]
 8005980:	2240      	movs	r2, #64	@ 0x40
 8005982:	4013      	ands	r3, r2
 8005984:	2b40      	cmp	r3, #64	@ 0x40
 8005986:	d007      	beq.n	8005998 <HAL_SPI_Transmit+0x100>
  {
    /* Enable SPI peripheral */
    __HAL_SPI_ENABLE(hspi);
 8005988:	68fb      	ldr	r3, [r7, #12]
 800598a:	681b      	ldr	r3, [r3, #0]
 800598c:	681a      	ldr	r2, [r3, #0]
 800598e:	68fb      	ldr	r3, [r7, #12]
 8005990:	681b      	ldr	r3, [r3, #0]
 8005992:	2140      	movs	r1, #64	@ 0x40
 8005994:	430a      	orrs	r2, r1
 8005996:	601a      	str	r2, [r3, #0]
  }

  /* Transmit data in 16 Bit mode */
  if (hspi->Init.DataSize > SPI_DATASIZE_8BIT)
 8005998:	68fb      	ldr	r3, [r7, #12]
 800599a:	68da      	ldr	r2, [r3, #12]
 800599c:	23e0      	movs	r3, #224	@ 0xe0
 800599e:	00db      	lsls	r3, r3, #3
 80059a0:	429a      	cmp	r2, r3
 80059a2:	d952      	bls.n	8005a4a <HAL_SPI_Transmit+0x1b2>
  {
    if ((hspi->Init.Mode == SPI_MODE_SLAVE) || (initial_TxXferCount == 0x01U))
 80059a4:	68fb      	ldr	r3, [r7, #12]
 80059a6:	685b      	ldr	r3, [r3, #4]
 80059a8:	2b00      	cmp	r3, #0
 80059aa:	d004      	beq.n	80059b6 <HAL_SPI_Transmit+0x11e>
 80059ac:	2316      	movs	r3, #22
 80059ae:	18fb      	adds	r3, r7, r3
 80059b0:	881b      	ldrh	r3, [r3, #0]
 80059b2:	2b01      	cmp	r3, #1
 80059b4:	d143      	bne.n	8005a3e <HAL_SPI_Transmit+0x1a6>
    {
      hspi->Instance->DR = *((uint16_t *)hspi->pTxBuffPtr);
 80059b6:	68fb      	ldr	r3, [r7, #12]
 80059b8:	6b9b      	ldr	r3, [r3, #56]	@ 0x38
 80059ba:	881a      	ldrh	r2, [r3, #0]
 80059bc:	68fb      	ldr	r3, [r7, #12]
 80059be:	681b      	ldr	r3, [r3, #0]
 80059c0:	60da      	str	r2, [r3, #12]
      hspi->pTxBuffPtr += sizeof(uint16_t);
 80059c2:	68fb      	ldr	r3, [r7, #12]
 80059c4:	6b9b      	ldr	r3, [r3, #56]	@ 0x38
 80059c6:	1c9a      	adds	r2, r3, #2
 80059c8:	68fb      	ldr	r3, [r7, #12]
 80059ca:	639a      	str	r2, [r3, #56]	@ 0x38
      hspi->TxXferCount--;
 80059cc:	68fb      	ldr	r3, [r7, #12]
 80059ce:	8fdb      	ldrh	r3, [r3, #62]	@ 0x3e
 80059d0:	b29b      	uxth	r3, r3
 80059d2:	3b01      	subs	r3, #1
 80059d4:	b29a      	uxth	r2, r3
 80059d6:	68fb      	ldr	r3, [r7, #12]
 80059d8:	87da      	strh	r2, [r3, #62]	@ 0x3e
    }
    /* Transmit data in 16 Bit mode */
    while (hspi->TxXferCount > 0U)
 80059da:	e030      	b.n	8005a3e <HAL_SPI_Transmit+0x1a6>
    {
      /* Wait until TXE flag is set to send data */
      if (__HAL_SPI_GET_FLAG(hspi, SPI_FLAG_TXE))
 80059dc:	68fb      	ldr	r3, [r7, #12]
 80059de:	681b      	ldr	r3, [r3, #0]
 80059e0:	689b      	ldr	r3, [r3, #8]
 80059e2:	2202      	movs	r2, #2
 80059e4:	4013      	ands	r3, r2
 80059e6:	2b02      	cmp	r3, #2
 80059e8:	d112      	bne.n	8005a10 <HAL_SPI_Transmit+0x178>
      {
        hspi->Instance->DR = *((uint16_t *)hspi->pTxBuffPtr);
 80059ea:	68fb      	ldr	r3, [r7, #12]
 80059ec:	6b9b      	ldr	r3, [r3, #56]	@ 0x38
 80059ee:	881a      	ldrh	r2, [r3, #0]
 80059f0:	68fb      	ldr	r3, [r7, #12]
 80059f2:	681b      	ldr	r3, [r3, #0]
 80059f4:	60da      	str	r2, [r3, #12]
        hspi->pTxBuffPtr += sizeof(uint16_t);
 80059f6:	68fb      	ldr	r3, [r7, #12]
 80059f8:	6b9b      	ldr	r3, [r3, #56]	@ 0x38
 80059fa:	1c9a      	adds	r2, r3, #2
 80059fc:	68fb      	ldr	r3, [r7, #12]
 80059fe:	639a      	str	r2, [r3, #56]	@ 0x38
        hspi->TxXferCount--;
 8005a00:	68fb      	ldr	r3, [r7, #12]
 8005a02:	8fdb      	ldrh	r3, [r3, #62]	@ 0x3e
 8005a04:	b29b      	uxth	r3, r3
 8005a06:	3b01      	subs	r3, #1
 8005a08:	b29a      	uxth	r2, r3
 8005a0a:	68fb      	ldr	r3, [r7, #12]
 8005a0c:	87da      	strh	r2, [r3, #62]	@ 0x3e
 8005a0e:	e016      	b.n	8005a3e <HAL_SPI_Transmit+0x1a6>
      }
      else
      {
        /* Timeout management */
        if ((((HAL_GetTick() - tickstart) >=  Timeout) && (Timeout != HAL_MAX_DELAY)) || (Timeout == 0U))
 8005a10:	f7fe f92e 	bl	8003c70 <HAL_GetTick>
 8005a14:	0002      	movs	r2, r0
 8005a16:	69bb      	ldr	r3, [r7, #24]
 8005a18:	1ad3      	subs	r3, r2, r3
 8005a1a:	683a      	ldr	r2, [r7, #0]
 8005a1c:	429a      	cmp	r2, r3
 8005a1e:	d802      	bhi.n	8005a26 <HAL_SPI_Transmit+0x18e>
 8005a20:	683b      	ldr	r3, [r7, #0]
 8005a22:	3301      	adds	r3, #1
 8005a24:	d102      	bne.n	8005a2c <HAL_SPI_Transmit+0x194>
 8005a26:	683b      	ldr	r3, [r7, #0]
 8005a28:	2b00      	cmp	r3, #0
 8005a2a:	d108      	bne.n	8005a3e <HAL_SPI_Transmit+0x1a6>
        {
          errorcode = HAL_TIMEOUT;
 8005a2c:	231f      	movs	r3, #31
 8005a2e:	18fb      	adds	r3, r7, r3
 8005a30:	2203      	movs	r2, #3
 8005a32:	701a      	strb	r2, [r3, #0]
          hspi->State = HAL_SPI_STATE_READY;
 8005a34:	68fb      	ldr	r3, [r7, #12]
 8005a36:	225d      	movs	r2, #93	@ 0x5d
 8005a38:	2101      	movs	r1, #1
 8005a3a:	5499      	strb	r1, [r3, r2]
          goto error;
 8005a3c:	e080      	b.n	8005b40 <HAL_SPI_Transmit+0x2a8>
    while (hspi->TxXferCount > 0U)
 8005a3e:	68fb      	ldr	r3, [r7, #12]
 8005a40:	8fdb      	ldrh	r3, [r3, #62]	@ 0x3e
 8005a42:	b29b      	uxth	r3, r3
 8005a44:	2b00      	cmp	r3, #0
 8005a46:	d1c9      	bne.n	80059dc <HAL_SPI_Transmit+0x144>
 8005a48:	e053      	b.n	8005af2 <HAL_SPI_Transmit+0x25a>
    }
  }
  /* Transmit data in 8 Bit mode */
  else
  {
    if ((hspi->Init.Mode == SPI_MODE_SLAVE) || (initial_TxXferCount == 0x01U))
 8005a4a:	68fb      	ldr	r3, [r7, #12]
 8005a4c:	685b      	ldr	r3, [r3, #4]
 8005a4e:	2b00      	cmp	r3, #0
 8005a50:	d004      	beq.n	8005a5c <HAL_SPI_Transmit+0x1c4>
 8005a52:	2316      	movs	r3, #22
 8005a54:	18fb      	adds	r3, r7, r3
 8005a56:	881b      	ldrh	r3, [r3, #0]
 8005a58:	2b01      	cmp	r3, #1
 8005a5a:	d145      	bne.n	8005ae8 <HAL_SPI_Transmit+0x250>
    {
      *((__IO uint8_t *)&hspi->Instance->DR) = (*hspi->pTxBuffPtr);
 8005a5c:	68fb      	ldr	r3, [r7, #12]
 8005a5e:	6b9a      	ldr	r2, [r3, #56]	@ 0x38
 8005a60:	68fb      	ldr	r3, [r7, #12]
 8005a62:	681b      	ldr	r3, [r3, #0]
 8005a64:	330c      	adds	r3, #12
 8005a66:	7812      	ldrb	r2, [r2, #0]
 8005a68:	701a      	strb	r2, [r3, #0]
      hspi->pTxBuffPtr += sizeof(uint8_t);
 8005a6a:	68fb      	ldr	r3, [r7, #12]
 8005a6c:	6b9b      	ldr	r3, [r3, #56]	@ 0x38
 8005a6e:	1c5a      	adds	r2, r3, #1
 8005a70:	68fb      	ldr	r3, [r7, #12]
 8005a72:	639a      	str	r2, [r3, #56]	@ 0x38
      hspi->TxXferCount--;
 8005a74:	68fb      	ldr	r3, [r7, #12]
 8005a76:	8fdb      	ldrh	r3, [r3, #62]	@ 0x3e
 8005a78:	b29b      	uxth	r3, r3
 8005a7a:	3b01      	subs	r3, #1
 8005a7c:	b29a      	uxth	r2, r3
 8005a7e:	68fb      	ldr	r3, [r7, #12]
 8005a80:	87da      	strh	r2, [r3, #62]	@ 0x3e
    }
    while (hspi->TxXferCount > 0U)
 8005a82:	e031      	b.n	8005ae8 <HAL_SPI_Transmit+0x250>
    {
      /* Wait until TXE flag is set to send data */
      if (__HAL_SPI_GET_FLAG(hspi, SPI_FLAG_TXE))
 8005a84:	68fb      	ldr	r3, [r7, #12]
 8005a86:	681b      	ldr	r3, [r3, #0]
 8005a88:	689b      	ldr	r3, [r3, #8]
 8005a8a:	2202      	movs	r2, #2
 8005a8c:	4013      	ands	r3, r2
 8005a8e:	2b02      	cmp	r3, #2
 8005a90:	d113      	bne.n	8005aba <HAL_SPI_Transmit+0x222>
      {
        *((__IO uint8_t *)&hspi->Instance->DR) = (*hspi->pTxBuffPtr);
 8005a92:	68fb      	ldr	r3, [r7, #12]
 8005a94:	6b9a      	ldr	r2, [r3, #56]	@ 0x38
 8005a96:	68fb      	ldr	r3, [r7, #12]
 8005a98:	681b      	ldr	r3, [r3, #0]
 8005a9a:	330c      	adds	r3, #12
 8005a9c:	7812      	ldrb	r2, [r2, #0]
 8005a9e:	701a      	strb	r2, [r3, #0]
        hspi->pTxBuffPtr += sizeof(uint8_t);
 8005aa0:	68fb      	ldr	r3, [r7, #12]
 8005aa2:	6b9b      	ldr	r3, [r3, #56]	@ 0x38
 8005aa4:	1c5a      	adds	r2, r3, #1
 8005aa6:	68fb      	ldr	r3, [r7, #12]
 8005aa8:	639a      	str	r2, [r3, #56]	@ 0x38
        hspi->TxXferCount--;
 8005aaa:	68fb      	ldr	r3, [r7, #12]
 8005aac:	8fdb      	ldrh	r3, [r3, #62]	@ 0x3e
 8005aae:	b29b      	uxth	r3, r3
 8005ab0:	3b01      	subs	r3, #1
 8005ab2:	b29a      	uxth	r2, r3
 8005ab4:	68fb      	ldr	r3, [r7, #12]
 8005ab6:	87da      	strh	r2, [r3, #62]	@ 0x3e
 8005ab8:	e016      	b.n	8005ae8 <HAL_SPI_Transmit+0x250>
      }
      else
      {
        /* Timeout management */
        if ((((HAL_GetTick() - tickstart) >=  Timeout) && (Timeout != HAL_MAX_DELAY)) || (Timeout == 0U))
 8005aba:	f7fe f8d9 	bl	8003c70 <HAL_GetTick>
 8005abe:	0002      	movs	r2, r0
 8005ac0:	69bb      	ldr	r3, [r7, #24]
 8005ac2:	1ad3      	subs	r3, r2, r3
 8005ac4:	683a      	ldr	r2, [r7, #0]
 8005ac6:	429a      	cmp	r2, r3
 8005ac8:	d802      	bhi.n	8005ad0 <HAL_SPI_Transmit+0x238>
 8005aca:	683b      	ldr	r3, [r7, #0]
 8005acc:	3301      	adds	r3, #1
 8005ace:	d102      	bne.n	8005ad6 <HAL_SPI_Transmit+0x23e>
 8005ad0:	683b      	ldr	r3, [r7, #0]
 8005ad2:	2b00      	cmp	r3, #0
 8005ad4:	d108      	bne.n	8005ae8 <HAL_SPI_Transmit+0x250>
        {
          errorcode = HAL_TIMEOUT;
 8005ad6:	231f      	movs	r3, #31
 8005ad8:	18fb      	adds	r3, r7, r3
 8005ada:	2203      	movs	r2, #3
 8005adc:	701a      	strb	r2, [r3, #0]
          hspi->State = HAL_SPI_STATE_READY;
 8005ade:	68fb      	ldr	r3, [r7, #12]
 8005ae0:	225d      	movs	r2, #93	@ 0x5d
 8005ae2:	2101      	movs	r1, #1
 8005ae4:	5499      	strb	r1, [r3, r2]
          goto error;
 8005ae6:	e02b      	b.n	8005b40 <HAL_SPI_Transmit+0x2a8>
    while (hspi->TxXferCount > 0U)
 8005ae8:	68fb      	ldr	r3, [r7, #12]
 8005aea:	8fdb      	ldrh	r3, [r3, #62]	@ 0x3e
 8005aec:	b29b      	uxth	r3, r3
 8005aee:	2b00      	cmp	r3, #0
 8005af0:	d1c8      	bne.n	8005a84 <HAL_SPI_Transmit+0x1ec>
    SET_BIT(hspi->Instance->CR1, SPI_CR1_CRCNEXT);
  }
#endif /* USE_SPI_CRC */

  /* Check the end of the transaction */
  if (SPI_EndRxTxTransaction(hspi, Timeout, tickstart) != HAL_OK)
 8005af2:	69ba      	ldr	r2, [r7, #24]
 8005af4:	6839      	ldr	r1, [r7, #0]
 8005af6:	68fb      	ldr	r3, [r7, #12]
 8005af8:	0018      	movs	r0, r3
 8005afa:	f000 fcef 	bl	80064dc <SPI_EndRxTxTransaction>
 8005afe:	1e03      	subs	r3, r0, #0
 8005b00:	d002      	beq.n	8005b08 <HAL_SPI_Transmit+0x270>
  {
    hspi->ErrorCode = HAL_SPI_ERROR_FLAG;
 8005b02:	68fb      	ldr	r3, [r7, #12]
 8005b04:	2220      	movs	r2, #32
 8005b06:	661a      	str	r2, [r3, #96]	@ 0x60
  }

  /* Clear overrun flag in 2 Lines communication mode because received is not read */
  if (hspi->Init.Direction == SPI_DIRECTION_2LINES)
 8005b08:	68fb      	ldr	r3, [r7, #12]
 8005b0a:	689b      	ldr	r3, [r3, #8]
 8005b0c:	2b00      	cmp	r3, #0
 8005b0e:	d10a      	bne.n	8005b26 <HAL_SPI_Transmit+0x28e>
  {
    __HAL_SPI_CLEAR_OVRFLAG(hspi);
 8005b10:	2300      	movs	r3, #0
 8005b12:	613b      	str	r3, [r7, #16]
 8005b14:	68fb      	ldr	r3, [r7, #12]
 8005b16:	681b      	ldr	r3, [r3, #0]
 8005b18:	68db      	ldr	r3, [r3, #12]
 8005b1a:	613b      	str	r3, [r7, #16]
 8005b1c:	68fb      	ldr	r3, [r7, #12]
 8005b1e:	681b      	ldr	r3, [r3, #0]
 8005b20:	689b      	ldr	r3, [r3, #8]
 8005b22:	613b      	str	r3, [r7, #16]
 8005b24:	693b      	ldr	r3, [r7, #16]
  }

  if (hspi->ErrorCode != HAL_SPI_ERROR_NONE)
 8005b26:	68fb      	ldr	r3, [r7, #12]
 8005b28:	6e1b      	ldr	r3, [r3, #96]	@ 0x60
 8005b2a:	2b00      	cmp	r3, #0
 8005b2c:	d004      	beq.n	8005b38 <HAL_SPI_Transmit+0x2a0>
  {
    errorcode = HAL_ERROR;
 8005b2e:	231f      	movs	r3, #31
 8005b30:	18fb      	adds	r3, r7, r3
 8005b32:	2201      	movs	r2, #1
 8005b34:	701a      	strb	r2, [r3, #0]
 8005b36:	e003      	b.n	8005b40 <HAL_SPI_Transmit+0x2a8>
  }
  else
  {
    hspi->State = HAL_SPI_STATE_READY;
 8005b38:	68fb      	ldr	r3, [r7, #12]
 8005b3a:	225d      	movs	r2, #93	@ 0x5d
 8005b3c:	2101      	movs	r1, #1
 8005b3e:	5499      	strb	r1, [r3, r2]
  }

error:
  /* Process Unlocked */
  __HAL_UNLOCK(hspi);
 8005b40:	68fb      	ldr	r3, [r7, #12]
 8005b42:	225c      	movs	r2, #92	@ 0x5c
 8005b44:	2100      	movs	r1, #0
 8005b46:	5499      	strb	r1, [r3, r2]
  return errorcode;
 8005b48:	231f      	movs	r3, #31
 8005b4a:	18fb      	adds	r3, r7, r3
 8005b4c:	781b      	ldrb	r3, [r3, #0]
}
 8005b4e:	0018      	movs	r0, r3
 8005b50:	46bd      	mov	sp, r7
 8005b52:	b008      	add	sp, #32
 8005b54:	bd80      	pop	{r7, pc}
	...

08005b58 <HAL_SPI_Receive>:
  * @param  Size amount of data to be received
  * @param  Timeout Timeout duration
  * @retval HAL status
  */
HAL_StatusTypeDef HAL_SPI_Receive(SPI_HandleTypeDef *hspi, uint8_t *pData, uint16_t Size, uint32_t Timeout)
{
 8005b58:	b590      	push	{r4, r7, lr}
 8005b5a:	b089      	sub	sp, #36	@ 0x24
 8005b5c:	af02      	add	r7, sp, #8
 8005b5e:	60f8      	str	r0, [r7, #12]
 8005b60:	60b9      	str	r1, [r7, #8]
 8005b62:	603b      	str	r3, [r7, #0]
 8005b64:	1dbb      	adds	r3, r7, #6
 8005b66:	801a      	strh	r2, [r3, #0]
  __IO uint32_t tmpreg = 0U;
  __IO uint8_t  *ptmpreg8;
  __IO uint8_t  tmpreg8 = 0;
#endif /* USE_SPI_CRC */
  uint32_t tickstart;
  HAL_StatusTypeDef errorcode = HAL_OK;
 8005b68:	2117      	movs	r1, #23
 8005b6a:	187b      	adds	r3, r7, r1
 8005b6c:	2200      	movs	r2, #0
 8005b6e:	701a      	strb	r2, [r3, #0]

  if (hspi->State != HAL_SPI_STATE_READY)
 8005b70:	68fb      	ldr	r3, [r7, #12]
 8005b72:	225d      	movs	r2, #93	@ 0x5d
 8005b74:	5c9b      	ldrb	r3, [r3, r2]
 8005b76:	b2db      	uxtb	r3, r3
 8005b78:	2b01      	cmp	r3, #1
 8005b7a:	d003      	beq.n	8005b84 <HAL_SPI_Receive+0x2c>
  {
    errorcode = HAL_BUSY;
 8005b7c:	187b      	adds	r3, r7, r1
 8005b7e:	2202      	movs	r2, #2
 8005b80:	701a      	strb	r2, [r3, #0]
    goto error;
 8005b82:	e12b      	b.n	8005ddc <HAL_SPI_Receive+0x284>
  }

  if ((hspi->Init.Mode == SPI_MODE_MASTER) && (hspi->Init.Direction == SPI_DIRECTION_2LINES))
 8005b84:	68fb      	ldr	r3, [r7, #12]
 8005b86:	685a      	ldr	r2, [r3, #4]
 8005b88:	2382      	movs	r3, #130	@ 0x82
 8005b8a:	005b      	lsls	r3, r3, #1
 8005b8c:	429a      	cmp	r2, r3
 8005b8e:	d113      	bne.n	8005bb8 <HAL_SPI_Receive+0x60>
 8005b90:	68fb      	ldr	r3, [r7, #12]
 8005b92:	689b      	ldr	r3, [r3, #8]
 8005b94:	2b00      	cmp	r3, #0
 8005b96:	d10f      	bne.n	8005bb8 <HAL_SPI_Receive+0x60>
  {
    hspi->State = HAL_SPI_STATE_BUSY_RX;
 8005b98:	68fb      	ldr	r3, [r7, #12]
 8005b9a:	225d      	movs	r2, #93	@ 0x5d
 8005b9c:	2104      	movs	r1, #4
 8005b9e:	5499      	strb	r1, [r3, r2]
    /* Call transmit-receive function to send Dummy data on Tx line and generate clock on CLK line */
    return HAL_SPI_TransmitReceive(hspi, pData, pData, Size, Timeout);
 8005ba0:	1dbb      	adds	r3, r7, #6
 8005ba2:	881c      	ldrh	r4, [r3, #0]
 8005ba4:	68ba      	ldr	r2, [r7, #8]
 8005ba6:	68b9      	ldr	r1, [r7, #8]
 8005ba8:	68f8      	ldr	r0, [r7, #12]
 8005baa:	683b      	ldr	r3, [r7, #0]
 8005bac:	9300      	str	r3, [sp, #0]
 8005bae:	0023      	movs	r3, r4
 8005bb0:	f000 f924 	bl	8005dfc <HAL_SPI_TransmitReceive>
 8005bb4:	0003      	movs	r3, r0
 8005bb6:	e118      	b.n	8005dea <HAL_SPI_Receive+0x292>
  }

  /* Process Locked */
  __HAL_LOCK(hspi);
 8005bb8:	68fb      	ldr	r3, [r7, #12]
 8005bba:	225c      	movs	r2, #92	@ 0x5c
 8005bbc:	5c9b      	ldrb	r3, [r3, r2]
 8005bbe:	2b01      	cmp	r3, #1
 8005bc0:	d101      	bne.n	8005bc6 <HAL_SPI_Receive+0x6e>
 8005bc2:	2302      	movs	r3, #2
 8005bc4:	e111      	b.n	8005dea <HAL_SPI_Receive+0x292>
 8005bc6:	68fb      	ldr	r3, [r7, #12]
 8005bc8:	225c      	movs	r2, #92	@ 0x5c
 8005bca:	2101      	movs	r1, #1
 8005bcc:	5499      	strb	r1, [r3, r2]

  /* Init tickstart for timeout management*/
  tickstart = HAL_GetTick();
 8005bce:	f7fe f84f 	bl	8003c70 <HAL_GetTick>
 8005bd2:	0003      	movs	r3, r0
 8005bd4:	613b      	str	r3, [r7, #16]

  if ((pData == NULL) || (Size == 0U))
 8005bd6:	68bb      	ldr	r3, [r7, #8]
 8005bd8:	2b00      	cmp	r3, #0
 8005bda:	d003      	beq.n	8005be4 <HAL_SPI_Receive+0x8c>
 8005bdc:	1dbb      	adds	r3, r7, #6
 8005bde:	881b      	ldrh	r3, [r3, #0]
 8005be0:	2b00      	cmp	r3, #0
 8005be2:	d104      	bne.n	8005bee <HAL_SPI_Receive+0x96>
  {
    errorcode = HAL_ERROR;
 8005be4:	2317      	movs	r3, #23
 8005be6:	18fb      	adds	r3, r7, r3
 8005be8:	2201      	movs	r2, #1
 8005bea:	701a      	strb	r2, [r3, #0]
    goto error;
 8005bec:	e0f6      	b.n	8005ddc <HAL_SPI_Receive+0x284>
  }

  /* Set the transaction information */
  hspi->State       = HAL_SPI_STATE_BUSY_RX;
 8005bee:	68fb      	ldr	r3, [r7, #12]
 8005bf0:	225d      	movs	r2, #93	@ 0x5d
 8005bf2:	2104      	movs	r1, #4
 8005bf4:	5499      	strb	r1, [r3, r2]
  hspi->ErrorCode   = HAL_SPI_ERROR_NONE;
 8005bf6:	68fb      	ldr	r3, [r7, #12]
 8005bf8:	2200      	movs	r2, #0
 8005bfa:	661a      	str	r2, [r3, #96]	@ 0x60
  hspi->pRxBuffPtr  = (uint8_t *)pData;
 8005bfc:	68fb      	ldr	r3, [r7, #12]
 8005bfe:	68ba      	ldr	r2, [r7, #8]
 8005c00:	641a      	str	r2, [r3, #64]	@ 0x40
  hspi->RxXferSize  = Size;
 8005c02:	68fb      	ldr	r3, [r7, #12]
 8005c04:	1dba      	adds	r2, r7, #6
 8005c06:	2144      	movs	r1, #68	@ 0x44
 8005c08:	8812      	ldrh	r2, [r2, #0]
 8005c0a:	525a      	strh	r2, [r3, r1]
  hspi->RxXferCount = Size;
 8005c0c:	68fb      	ldr	r3, [r7, #12]
 8005c0e:	1dba      	adds	r2, r7, #6
 8005c10:	2146      	movs	r1, #70	@ 0x46
 8005c12:	8812      	ldrh	r2, [r2, #0]
 8005c14:	525a      	strh	r2, [r3, r1]

  /*Init field not used in handle to zero */
  hspi->pTxBuffPtr  = (uint8_t *)NULL;
 8005c16:	68fb      	ldr	r3, [r7, #12]
 8005c18:	2200      	movs	r2, #0
 8005c1a:	639a      	str	r2, [r3, #56]	@ 0x38
  hspi->TxXferSize  = 0U;
 8005c1c:	68fb      	ldr	r3, [r7, #12]
 8005c1e:	2200      	movs	r2, #0
 8005c20:	879a      	strh	r2, [r3, #60]	@ 0x3c
  hspi->TxXferCount = 0U;
 8005c22:	68fb      	ldr	r3, [r7, #12]
 8005c24:	2200      	movs	r2, #0
 8005c26:	87da      	strh	r2, [r3, #62]	@ 0x3e
  hspi->RxISR       = NULL;
 8005c28:	68fb      	ldr	r3, [r7, #12]
 8005c2a:	2200      	movs	r2, #0
 8005c2c:	64da      	str	r2, [r3, #76]	@ 0x4c
  hspi->TxISR       = NULL;
 8005c2e:	68fb      	ldr	r3, [r7, #12]
 8005c30:	2200      	movs	r2, #0
 8005c32:	651a      	str	r2, [r3, #80]	@ 0x50
    hspi->RxXferCount--;
  }
#endif /* USE_SPI_CRC */

  /* Set the Rx Fifo threshold */
  if (hspi->Init.DataSize > SPI_DATASIZE_8BIT)
 8005c34:	68fb      	ldr	r3, [r7, #12]
 8005c36:	68da      	ldr	r2, [r3, #12]
 8005c38:	23e0      	movs	r3, #224	@ 0xe0
 8005c3a:	00db      	lsls	r3, r3, #3
 8005c3c:	429a      	cmp	r2, r3
 8005c3e:	d908      	bls.n	8005c52 <HAL_SPI_Receive+0xfa>
  {
    /* Set RX Fifo threshold according the reception data length: 16bit */
    CLEAR_BIT(hspi->Instance->CR2, SPI_RXFIFO_THRESHOLD);
 8005c40:	68fb      	ldr	r3, [r7, #12]
 8005c42:	681b      	ldr	r3, [r3, #0]
 8005c44:	685a      	ldr	r2, [r3, #4]
 8005c46:	68fb      	ldr	r3, [r7, #12]
 8005c48:	681b      	ldr	r3, [r3, #0]
 8005c4a:	496a      	ldr	r1, [pc, #424]	@ (8005df4 <HAL_SPI_Receive+0x29c>)
 8005c4c:	400a      	ands	r2, r1
 8005c4e:	605a      	str	r2, [r3, #4]
 8005c50:	e008      	b.n	8005c64 <HAL_SPI_Receive+0x10c>
  }
  else
  {
    /* Set RX Fifo threshold according the reception data length: 8bit */
    SET_BIT(hspi->Instance->CR2, SPI_RXFIFO_THRESHOLD);
 8005c52:	68fb      	ldr	r3, [r7, #12]
 8005c54:	681b      	ldr	r3, [r3, #0]
 8005c56:	685a      	ldr	r2, [r3, #4]
 8005c58:	68fb      	ldr	r3, [r7, #12]
 8005c5a:	681b      	ldr	r3, [r3, #0]
 8005c5c:	2180      	movs	r1, #128	@ 0x80
 8005c5e:	0149      	lsls	r1, r1, #5
 8005c60:	430a      	orrs	r2, r1
 8005c62:	605a      	str	r2, [r3, #4]
  }

  /* Configure communication direction: 1Line */
  if (hspi->Init.Direction == SPI_DIRECTION_1LINE)
 8005c64:	68fb      	ldr	r3, [r7, #12]
 8005c66:	689a      	ldr	r2, [r3, #8]
 8005c68:	2380      	movs	r3, #128	@ 0x80
 8005c6a:	021b      	lsls	r3, r3, #8
 8005c6c:	429a      	cmp	r2, r3
 8005c6e:	d10f      	bne.n	8005c90 <HAL_SPI_Receive+0x138>
  {
    /* Disable SPI Peripheral before set 1Line direction (BIDIOE bit) */
    __HAL_SPI_DISABLE(hspi);
 8005c70:	68fb      	ldr	r3, [r7, #12]
 8005c72:	681b      	ldr	r3, [r3, #0]
 8005c74:	681a      	ldr	r2, [r3, #0]
 8005c76:	68fb      	ldr	r3, [r7, #12]
 8005c78:	681b      	ldr	r3, [r3, #0]
 8005c7a:	2140      	movs	r1, #64	@ 0x40
 8005c7c:	438a      	bics	r2, r1
 8005c7e:	601a      	str	r2, [r3, #0]
    SPI_1LINE_RX(hspi);
 8005c80:	68fb      	ldr	r3, [r7, #12]
 8005c82:	681b      	ldr	r3, [r3, #0]
 8005c84:	681a      	ldr	r2, [r3, #0]
 8005c86:	68fb      	ldr	r3, [r7, #12]
 8005c88:	681b      	ldr	r3, [r3, #0]
 8005c8a:	495b      	ldr	r1, [pc, #364]	@ (8005df8 <HAL_SPI_Receive+0x2a0>)
 8005c8c:	400a      	ands	r2, r1
 8005c8e:	601a      	str	r2, [r3, #0]
  }

  /* Check if the SPI is already enabled */
  if ((hspi->Instance->CR1 & SPI_CR1_SPE) != SPI_CR1_SPE)
 8005c90:	68fb      	ldr	r3, [r7, #12]
 8005c92:	681b      	ldr	r3, [r3, #0]
 8005c94:	681b      	ldr	r3, [r3, #0]
 8005c96:	2240      	movs	r2, #64	@ 0x40
 8005c98:	4013      	ands	r3, r2
 8005c9a:	2b40      	cmp	r3, #64	@ 0x40
 8005c9c:	d007      	beq.n	8005cae <HAL_SPI_Receive+0x156>
  {
    /* Enable SPI peripheral */
    __HAL_SPI_ENABLE(hspi);
 8005c9e:	68fb      	ldr	r3, [r7, #12]
 8005ca0:	681b      	ldr	r3, [r3, #0]
 8005ca2:	681a      	ldr	r2, [r3, #0]
 8005ca4:	68fb      	ldr	r3, [r7, #12]
 8005ca6:	681b      	ldr	r3, [r3, #0]
 8005ca8:	2140      	movs	r1, #64	@ 0x40
 8005caa:	430a      	orrs	r2, r1
 8005cac:	601a      	str	r2, [r3, #0]
  }

  /* Receive data in 8 Bit mode */
  if (hspi->Init.DataSize <= SPI_DATASIZE_8BIT)
 8005cae:	68fb      	ldr	r3, [r7, #12]
 8005cb0:	68da      	ldr	r2, [r3, #12]
 8005cb2:	23e0      	movs	r3, #224	@ 0xe0
 8005cb4:	00db      	lsls	r3, r3, #3
 8005cb6:	429a      	cmp	r2, r3
 8005cb8:	d900      	bls.n	8005cbc <HAL_SPI_Receive+0x164>
 8005cba:	e071      	b.n	8005da0 <HAL_SPI_Receive+0x248>
  {
    /* Transfer loop */
    while (hspi->RxXferCount > 0U)
 8005cbc:	e035      	b.n	8005d2a <HAL_SPI_Receive+0x1d2>
    {
      /* Check the RXNE flag */
      if (__HAL_SPI_GET_FLAG(hspi, SPI_FLAG_RXNE))
 8005cbe:	68fb      	ldr	r3, [r7, #12]
 8005cc0:	681b      	ldr	r3, [r3, #0]
 8005cc2:	689b      	ldr	r3, [r3, #8]
 8005cc4:	2201      	movs	r2, #1
 8005cc6:	4013      	ands	r3, r2
 8005cc8:	2b01      	cmp	r3, #1
 8005cca:	d117      	bne.n	8005cfc <HAL_SPI_Receive+0x1a4>
      {
        /* read the received data */
        (* (uint8_t *)hspi->pRxBuffPtr) = *(__IO uint8_t *)&hspi->Instance->DR;
 8005ccc:	68fb      	ldr	r3, [r7, #12]
 8005cce:	681b      	ldr	r3, [r3, #0]
 8005cd0:	330c      	adds	r3, #12
 8005cd2:	001a      	movs	r2, r3
 8005cd4:	68fb      	ldr	r3, [r7, #12]
 8005cd6:	6c1b      	ldr	r3, [r3, #64]	@ 0x40
 8005cd8:	7812      	ldrb	r2, [r2, #0]
 8005cda:	b2d2      	uxtb	r2, r2
 8005cdc:	701a      	strb	r2, [r3, #0]
        hspi->pRxBuffPtr += sizeof(uint8_t);
 8005cde:	68fb      	ldr	r3, [r7, #12]
 8005ce0:	6c1b      	ldr	r3, [r3, #64]	@ 0x40
 8005ce2:	1c5a      	adds	r2, r3, #1
 8005ce4:	68fb      	ldr	r3, [r7, #12]
 8005ce6:	641a      	str	r2, [r3, #64]	@ 0x40
        hspi->RxXferCount--;
 8005ce8:	68fb      	ldr	r3, [r7, #12]
 8005cea:	2246      	movs	r2, #70	@ 0x46
 8005cec:	5a9b      	ldrh	r3, [r3, r2]
 8005cee:	b29b      	uxth	r3, r3
 8005cf0:	3b01      	subs	r3, #1
 8005cf2:	b299      	uxth	r1, r3
 8005cf4:	68fb      	ldr	r3, [r7, #12]
 8005cf6:	2246      	movs	r2, #70	@ 0x46
 8005cf8:	5299      	strh	r1, [r3, r2]
 8005cfa:	e016      	b.n	8005d2a <HAL_SPI_Receive+0x1d2>
      }
      else
      {
        /* Timeout management */
        if ((((HAL_GetTick() - tickstart) >=  Timeout) && (Timeout != HAL_MAX_DELAY)) || (Timeout == 0U))
 8005cfc:	f7fd ffb8 	bl	8003c70 <HAL_GetTick>
 8005d00:	0002      	movs	r2, r0
 8005d02:	693b      	ldr	r3, [r7, #16]
 8005d04:	1ad3      	subs	r3, r2, r3
 8005d06:	683a      	ldr	r2, [r7, #0]
 8005d08:	429a      	cmp	r2, r3
 8005d0a:	d802      	bhi.n	8005d12 <HAL_SPI_Receive+0x1ba>
 8005d0c:	683b      	ldr	r3, [r7, #0]
 8005d0e:	3301      	adds	r3, #1
 8005d10:	d102      	bne.n	8005d18 <HAL_SPI_Receive+0x1c0>
 8005d12:	683b      	ldr	r3, [r7, #0]
 8005d14:	2b00      	cmp	r3, #0
 8005d16:	d108      	bne.n	8005d2a <HAL_SPI_Receive+0x1d2>
        {
          errorcode = HAL_TIMEOUT;
 8005d18:	2317      	movs	r3, #23
 8005d1a:	18fb      	adds	r3, r7, r3
 8005d1c:	2203      	movs	r2, #3
 8005d1e:	701a      	strb	r2, [r3, #0]
          hspi->State = HAL_SPI_STATE_READY;
 8005d20:	68fb      	ldr	r3, [r7, #12]
 8005d22:	225d      	movs	r2, #93	@ 0x5d
 8005d24:	2101      	movs	r1, #1
 8005d26:	5499      	strb	r1, [r3, r2]
          goto error;
 8005d28:	e058      	b.n	8005ddc <HAL_SPI_Receive+0x284>
    while (hspi->RxXferCount > 0U)
 8005d2a:	68fb      	ldr	r3, [r7, #12]
 8005d2c:	2246      	movs	r2, #70	@ 0x46
 8005d2e:	5a9b      	ldrh	r3, [r3, r2]
 8005d30:	b29b      	uxth	r3, r3
 8005d32:	2b00      	cmp	r3, #0
 8005d34:	d1c3      	bne.n	8005cbe <HAL_SPI_Receive+0x166>
 8005d36:	e039      	b.n	8005dac <HAL_SPI_Receive+0x254>
  {
    /* Transfer loop */
    while (hspi->RxXferCount > 0U)
    {
      /* Check the RXNE flag */
      if (__HAL_SPI_GET_FLAG(hspi, SPI_FLAG_RXNE))
 8005d38:	68fb      	ldr	r3, [r7, #12]
 8005d3a:	681b      	ldr	r3, [r3, #0]
 8005d3c:	689b      	ldr	r3, [r3, #8]
 8005d3e:	2201      	movs	r2, #1
 8005d40:	4013      	ands	r3, r2
 8005d42:	2b01      	cmp	r3, #1
 8005d44:	d115      	bne.n	8005d72 <HAL_SPI_Receive+0x21a>
      {
        *((uint16_t *)hspi->pRxBuffPtr) = (uint16_t)hspi->Instance->DR;
 8005d46:	68fb      	ldr	r3, [r7, #12]
 8005d48:	681b      	ldr	r3, [r3, #0]
 8005d4a:	68da      	ldr	r2, [r3, #12]
 8005d4c:	68fb      	ldr	r3, [r7, #12]
 8005d4e:	6c1b      	ldr	r3, [r3, #64]	@ 0x40
 8005d50:	b292      	uxth	r2, r2
 8005d52:	801a      	strh	r2, [r3, #0]
        hspi->pRxBuffPtr += sizeof(uint16_t);
 8005d54:	68fb      	ldr	r3, [r7, #12]
 8005d56:	6c1b      	ldr	r3, [r3, #64]	@ 0x40
 8005d58:	1c9a      	adds	r2, r3, #2
 8005d5a:	68fb      	ldr	r3, [r7, #12]
 8005d5c:	641a      	str	r2, [r3, #64]	@ 0x40
        hspi->RxXferCount--;
 8005d5e:	68fb      	ldr	r3, [r7, #12]
 8005d60:	2246      	movs	r2, #70	@ 0x46
 8005d62:	5a9b      	ldrh	r3, [r3, r2]
 8005d64:	b29b      	uxth	r3, r3
 8005d66:	3b01      	subs	r3, #1
 8005d68:	b299      	uxth	r1, r3
 8005d6a:	68fb      	ldr	r3, [r7, #12]
 8005d6c:	2246      	movs	r2, #70	@ 0x46
 8005d6e:	5299      	strh	r1, [r3, r2]
 8005d70:	e016      	b.n	8005da0 <HAL_SPI_Receive+0x248>
      }
      else
      {
        /* Timeout management */
        if ((((HAL_GetTick() - tickstart) >=  Timeout) && (Timeout != HAL_MAX_DELAY)) || (Timeout == 0U))
 8005d72:	f7fd ff7d 	bl	8003c70 <HAL_GetTick>
 8005d76:	0002      	movs	r2, r0
 8005d78:	693b      	ldr	r3, [r7, #16]
 8005d7a:	1ad3      	subs	r3, r2, r3
 8005d7c:	683a      	ldr	r2, [r7, #0]
 8005d7e:	429a      	cmp	r2, r3
 8005d80:	d802      	bhi.n	8005d88 <HAL_SPI_Receive+0x230>
 8005d82:	683b      	ldr	r3, [r7, #0]
 8005d84:	3301      	adds	r3, #1
 8005d86:	d102      	bne.n	8005d8e <HAL_SPI_Receive+0x236>
 8005d88:	683b      	ldr	r3, [r7, #0]
 8005d8a:	2b00      	cmp	r3, #0
 8005d8c:	d108      	bne.n	8005da0 <HAL_SPI_Receive+0x248>
        {
          errorcode = HAL_TIMEOUT;
 8005d8e:	2317      	movs	r3, #23
 8005d90:	18fb      	adds	r3, r7, r3
 8005d92:	2203      	movs	r2, #3
 8005d94:	701a      	strb	r2, [r3, #0]
          hspi->State = HAL_SPI_STATE_READY;
 8005d96:	68fb      	ldr	r3, [r7, #12]
 8005d98:	225d      	movs	r2, #93	@ 0x5d
 8005d9a:	2101      	movs	r1, #1
 8005d9c:	5499      	strb	r1, [r3, r2]
          goto error;
 8005d9e:	e01d      	b.n	8005ddc <HAL_SPI_Receive+0x284>
    while (hspi->RxXferCount > 0U)
 8005da0:	68fb      	ldr	r3, [r7, #12]
 8005da2:	2246      	movs	r2, #70	@ 0x46
 8005da4:	5a9b      	ldrh	r3, [r3, r2]
 8005da6:	b29b      	uxth	r3, r3
 8005da8:	2b00      	cmp	r3, #0
 8005daa:	d1c5      	bne.n	8005d38 <HAL_SPI_Receive+0x1e0>
    }
  }
#endif /* USE_SPI_CRC */

  /* Check the end of the transaction */
  if (SPI_EndRxTransaction(hspi, Timeout, tickstart) != HAL_OK)
 8005dac:	693a      	ldr	r2, [r7, #16]
 8005dae:	6839      	ldr	r1, [r7, #0]
 8005db0:	68fb      	ldr	r3, [r7, #12]
 8005db2:	0018      	movs	r0, r3
 8005db4:	f000 fb34 	bl	8006420 <SPI_EndRxTransaction>
 8005db8:	1e03      	subs	r3, r0, #0
 8005dba:	d002      	beq.n	8005dc2 <HAL_SPI_Receive+0x26a>
  {
    hspi->ErrorCode = HAL_SPI_ERROR_FLAG;
 8005dbc:	68fb      	ldr	r3, [r7, #12]
 8005dbe:	2220      	movs	r2, #32
 8005dc0:	661a      	str	r2, [r3, #96]	@ 0x60
    SET_BIT(hspi->ErrorCode, HAL_SPI_ERROR_CRC);
    __HAL_SPI_CLEAR_CRCERRFLAG(hspi);
  }
#endif /* USE_SPI_CRC */

  if (hspi->ErrorCode != HAL_SPI_ERROR_NONE)
 8005dc2:	68fb      	ldr	r3, [r7, #12]
 8005dc4:	6e1b      	ldr	r3, [r3, #96]	@ 0x60
 8005dc6:	2b00      	cmp	r3, #0
 8005dc8:	d004      	beq.n	8005dd4 <HAL_SPI_Receive+0x27c>
  {
    errorcode = HAL_ERROR;
 8005dca:	2317      	movs	r3, #23
 8005dcc:	18fb      	adds	r3, r7, r3
 8005dce:	2201      	movs	r2, #1
 8005dd0:	701a      	strb	r2, [r3, #0]
 8005dd2:	e003      	b.n	8005ddc <HAL_SPI_Receive+0x284>
  }
  else
  {
    hspi->State = HAL_SPI_STATE_READY;
 8005dd4:	68fb      	ldr	r3, [r7, #12]
 8005dd6:	225d      	movs	r2, #93	@ 0x5d
 8005dd8:	2101      	movs	r1, #1
 8005dda:	5499      	strb	r1, [r3, r2]
  }

error :
  __HAL_UNLOCK(hspi);
 8005ddc:	68fb      	ldr	r3, [r7, #12]
 8005dde:	225c      	movs	r2, #92	@ 0x5c
 8005de0:	2100      	movs	r1, #0
 8005de2:	5499      	strb	r1, [r3, r2]
  return errorcode;
 8005de4:	2317      	movs	r3, #23
 8005de6:	18fb      	adds	r3, r7, r3
 8005de8:	781b      	ldrb	r3, [r3, #0]
}
 8005dea:	0018      	movs	r0, r3
 8005dec:	46bd      	mov	sp, r7
 8005dee:	b007      	add	sp, #28
 8005df0:	bd90      	pop	{r4, r7, pc}
 8005df2:	46c0      	nop			@ (mov r8, r8)
 8005df4:	ffffefff 	.word	0xffffefff
 8005df8:	ffffbfff 	.word	0xffffbfff

08005dfc <HAL_SPI_TransmitReceive>:
  * @param  Timeout Timeout duration
  * @retval HAL status
  */
HAL_StatusTypeDef HAL_SPI_TransmitReceive(SPI_HandleTypeDef *hspi, uint8_t *pTxData, uint8_t *pRxData, uint16_t Size,
                                          uint32_t Timeout)
{
 8005dfc:	b580      	push	{r7, lr}
 8005dfe:	b08a      	sub	sp, #40	@ 0x28
 8005e00:	af00      	add	r7, sp, #0
 8005e02:	60f8      	str	r0, [r7, #12]
 8005e04:	60b9      	str	r1, [r7, #8]
 8005e06:	607a      	str	r2, [r7, #4]
 8005e08:	001a      	movs	r2, r3
 8005e0a:	1cbb      	adds	r3, r7, #2
 8005e0c:	801a      	strh	r2, [r3, #0]
  __IO uint8_t  *ptmpreg8;
  __IO uint8_t  tmpreg8 = 0;
#endif /* USE_SPI_CRC */

  /* Variable used to alternate Rx and Tx during transfer */
  uint32_t             txallowed = 1U;
 8005e0e:	2301      	movs	r3, #1
 8005e10:	627b      	str	r3, [r7, #36]	@ 0x24
  HAL_StatusTypeDef    errorcode = HAL_OK;
 8005e12:	2323      	movs	r3, #35	@ 0x23
 8005e14:	18fb      	adds	r3, r7, r3
 8005e16:	2200      	movs	r2, #0
 8005e18:	701a      	strb	r2, [r3, #0]

  /* Check Direction parameter */
  assert_param(IS_SPI_DIRECTION_2LINES(hspi->Init.Direction));

  /* Process Locked */
  __HAL_LOCK(hspi);
 8005e1a:	68fb      	ldr	r3, [r7, #12]
 8005e1c:	225c      	movs	r2, #92	@ 0x5c
 8005e1e:	5c9b      	ldrb	r3, [r3, r2]
 8005e20:	2b01      	cmp	r3, #1
 8005e22:	d101      	bne.n	8005e28 <HAL_SPI_TransmitReceive+0x2c>
 8005e24:	2302      	movs	r3, #2
 8005e26:	e1c4      	b.n	80061b2 <HAL_SPI_TransmitReceive+0x3b6>
 8005e28:	68fb      	ldr	r3, [r7, #12]
 8005e2a:	225c      	movs	r2, #92	@ 0x5c
 8005e2c:	2101      	movs	r1, #1
 8005e2e:	5499      	strb	r1, [r3, r2]

  /* Init tickstart for timeout management*/
  tickstart = HAL_GetTick();
 8005e30:	f7fd ff1e 	bl	8003c70 <HAL_GetTick>
 8005e34:	0003      	movs	r3, r0
 8005e36:	61fb      	str	r3, [r7, #28]

  /* Init temporary variables */
  tmp_state           = hspi->State;
 8005e38:	201b      	movs	r0, #27
 8005e3a:	183b      	adds	r3, r7, r0
 8005e3c:	68fa      	ldr	r2, [r7, #12]
 8005e3e:	215d      	movs	r1, #93	@ 0x5d
 8005e40:	5c52      	ldrb	r2, [r2, r1]
 8005e42:	701a      	strb	r2, [r3, #0]
  tmp_mode            = hspi->Init.Mode;
 8005e44:	68fb      	ldr	r3, [r7, #12]
 8005e46:	685b      	ldr	r3, [r3, #4]
 8005e48:	617b      	str	r3, [r7, #20]
  initial_TxXferCount = Size;
 8005e4a:	2312      	movs	r3, #18
 8005e4c:	18fb      	adds	r3, r7, r3
 8005e4e:	1cba      	adds	r2, r7, #2
 8005e50:	8812      	ldrh	r2, [r2, #0]
 8005e52:	801a      	strh	r2, [r3, #0]
#if (USE_SPI_CRC != 0U)
  spi_cr1             = READ_REG(hspi->Instance->CR1);
  spi_cr2             = READ_REG(hspi->Instance->CR2);
#endif /* USE_SPI_CRC */

  if (!((tmp_state == HAL_SPI_STATE_READY) || \
 8005e54:	183b      	adds	r3, r7, r0
 8005e56:	781b      	ldrb	r3, [r3, #0]
 8005e58:	2b01      	cmp	r3, #1
 8005e5a:	d011      	beq.n	8005e80 <HAL_SPI_TransmitReceive+0x84>
 8005e5c:	697a      	ldr	r2, [r7, #20]
 8005e5e:	2382      	movs	r3, #130	@ 0x82
 8005e60:	005b      	lsls	r3, r3, #1
 8005e62:	429a      	cmp	r2, r3
 8005e64:	d107      	bne.n	8005e76 <HAL_SPI_TransmitReceive+0x7a>
        ((tmp_mode == SPI_MODE_MASTER) && (hspi->Init.Direction == SPI_DIRECTION_2LINES) && (tmp_state == HAL_SPI_STATE_BUSY_RX))))
 8005e66:	68fb      	ldr	r3, [r7, #12]
 8005e68:	689b      	ldr	r3, [r3, #8]
 8005e6a:	2b00      	cmp	r3, #0
 8005e6c:	d103      	bne.n	8005e76 <HAL_SPI_TransmitReceive+0x7a>
 8005e6e:	183b      	adds	r3, r7, r0
 8005e70:	781b      	ldrb	r3, [r3, #0]
 8005e72:	2b04      	cmp	r3, #4
 8005e74:	d004      	beq.n	8005e80 <HAL_SPI_TransmitReceive+0x84>
  {
    errorcode = HAL_BUSY;
 8005e76:	2323      	movs	r3, #35	@ 0x23
 8005e78:	18fb      	adds	r3, r7, r3
 8005e7a:	2202      	movs	r2, #2
 8005e7c:	701a      	strb	r2, [r3, #0]
    goto error;
 8005e7e:	e191      	b.n	80061a4 <HAL_SPI_TransmitReceive+0x3a8>
  }

  if ((pTxData == NULL) || (pRxData == NULL) || (Size == 0U))
 8005e80:	68bb      	ldr	r3, [r7, #8]
 8005e82:	2b00      	cmp	r3, #0
 8005e84:	d006      	beq.n	8005e94 <HAL_SPI_TransmitReceive+0x98>
 8005e86:	687b      	ldr	r3, [r7, #4]
 8005e88:	2b00      	cmp	r3, #0
 8005e8a:	d003      	beq.n	8005e94 <HAL_SPI_TransmitReceive+0x98>
 8005e8c:	1cbb      	adds	r3, r7, #2
 8005e8e:	881b      	ldrh	r3, [r3, #0]
 8005e90:	2b00      	cmp	r3, #0
 8005e92:	d104      	bne.n	8005e9e <HAL_SPI_TransmitReceive+0xa2>
  {
    errorcode = HAL_ERROR;
 8005e94:	2323      	movs	r3, #35	@ 0x23
 8005e96:	18fb      	adds	r3, r7, r3
 8005e98:	2201      	movs	r2, #1
 8005e9a:	701a      	strb	r2, [r3, #0]
    goto error;
 8005e9c:	e182      	b.n	80061a4 <HAL_SPI_TransmitReceive+0x3a8>
  }

  /* Don't overwrite in case of HAL_SPI_STATE_BUSY_RX */
  if (hspi->State != HAL_SPI_STATE_BUSY_RX)
 8005e9e:	68fb      	ldr	r3, [r7, #12]
 8005ea0:	225d      	movs	r2, #93	@ 0x5d
 8005ea2:	5c9b      	ldrb	r3, [r3, r2]
 8005ea4:	b2db      	uxtb	r3, r3
 8005ea6:	2b04      	cmp	r3, #4
 8005ea8:	d003      	beq.n	8005eb2 <HAL_SPI_TransmitReceive+0xb6>
  {
    hspi->State = HAL_SPI_STATE_BUSY_TX_RX;
 8005eaa:	68fb      	ldr	r3, [r7, #12]
 8005eac:	225d      	movs	r2, #93	@ 0x5d
 8005eae:	2105      	movs	r1, #5
 8005eb0:	5499      	strb	r1, [r3, r2]
  }

  /* Set the transaction information */
  hspi->ErrorCode   = HAL_SPI_ERROR_NONE;
 8005eb2:	68fb      	ldr	r3, [r7, #12]
 8005eb4:	2200      	movs	r2, #0
 8005eb6:	661a      	str	r2, [r3, #96]	@ 0x60
  hspi->pRxBuffPtr  = (uint8_t *)pRxData;
 8005eb8:	68fb      	ldr	r3, [r7, #12]
 8005eba:	687a      	ldr	r2, [r7, #4]
 8005ebc:	641a      	str	r2, [r3, #64]	@ 0x40
  hspi->RxXferCount = Size;
 8005ebe:	68fb      	ldr	r3, [r7, #12]
 8005ec0:	1cba      	adds	r2, r7, #2
 8005ec2:	2146      	movs	r1, #70	@ 0x46
 8005ec4:	8812      	ldrh	r2, [r2, #0]
 8005ec6:	525a      	strh	r2, [r3, r1]
  hspi->RxXferSize  = Size;
 8005ec8:	68fb      	ldr	r3, [r7, #12]
 8005eca:	1cba      	adds	r2, r7, #2
 8005ecc:	2144      	movs	r1, #68	@ 0x44
 8005ece:	8812      	ldrh	r2, [r2, #0]
 8005ed0:	525a      	strh	r2, [r3, r1]
  hspi->pTxBuffPtr  = (uint8_t *)pTxData;
 8005ed2:	68fb      	ldr	r3, [r7, #12]
 8005ed4:	68ba      	ldr	r2, [r7, #8]
 8005ed6:	639a      	str	r2, [r3, #56]	@ 0x38
  hspi->TxXferCount = Size;
 8005ed8:	68fb      	ldr	r3, [r7, #12]
 8005eda:	1cba      	adds	r2, r7, #2
 8005edc:	8812      	ldrh	r2, [r2, #0]
 8005ede:	87da      	strh	r2, [r3, #62]	@ 0x3e
  hspi->TxXferSize  = Size;
 8005ee0:	68fb      	ldr	r3, [r7, #12]
 8005ee2:	1cba      	adds	r2, r7, #2
 8005ee4:	8812      	ldrh	r2, [r2, #0]
 8005ee6:	879a      	strh	r2, [r3, #60]	@ 0x3c

  /*Init field not used in handle to zero */
  hspi->RxISR       = NULL;
 8005ee8:	68fb      	ldr	r3, [r7, #12]
 8005eea:	2200      	movs	r2, #0
 8005eec:	64da      	str	r2, [r3, #76]	@ 0x4c
  hspi->TxISR       = NULL;
 8005eee:	68fb      	ldr	r3, [r7, #12]
 8005ef0:	2200      	movs	r2, #0
 8005ef2:	651a      	str	r2, [r3, #80]	@ 0x50
    SPI_RESET_CRC(hspi);
  }
#endif /* USE_SPI_CRC */

  /* Set the Rx Fifo threshold */
  if (hspi->Init.DataSize > SPI_DATASIZE_8BIT)
 8005ef4:	68fb      	ldr	r3, [r7, #12]
 8005ef6:	68da      	ldr	r2, [r3, #12]
 8005ef8:	23e0      	movs	r3, #224	@ 0xe0
 8005efa:	00db      	lsls	r3, r3, #3
 8005efc:	429a      	cmp	r2, r3
 8005efe:	d908      	bls.n	8005f12 <HAL_SPI_TransmitReceive+0x116>
  {
    /* Set fiforxthreshold according the reception data length: 16bit */
    CLEAR_BIT(hspi->Instance->CR2, SPI_RXFIFO_THRESHOLD);
 8005f00:	68fb      	ldr	r3, [r7, #12]
 8005f02:	681b      	ldr	r3, [r3, #0]
 8005f04:	685a      	ldr	r2, [r3, #4]
 8005f06:	68fb      	ldr	r3, [r7, #12]
 8005f08:	681b      	ldr	r3, [r3, #0]
 8005f0a:	49ac      	ldr	r1, [pc, #688]	@ (80061bc <HAL_SPI_TransmitReceive+0x3c0>)
 8005f0c:	400a      	ands	r2, r1
 8005f0e:	605a      	str	r2, [r3, #4]
 8005f10:	e008      	b.n	8005f24 <HAL_SPI_TransmitReceive+0x128>
  }
  else
  {
    /* Set fiforxthreshold according the reception data length: 8bit */
    SET_BIT(hspi->Instance->CR2, SPI_RXFIFO_THRESHOLD);
 8005f12:	68fb      	ldr	r3, [r7, #12]
 8005f14:	681b      	ldr	r3, [r3, #0]
 8005f16:	685a      	ldr	r2, [r3, #4]
 8005f18:	68fb      	ldr	r3, [r7, #12]
 8005f1a:	681b      	ldr	r3, [r3, #0]
 8005f1c:	2180      	movs	r1, #128	@ 0x80
 8005f1e:	0149      	lsls	r1, r1, #5
 8005f20:	430a      	orrs	r2, r1
 8005f22:	605a      	str	r2, [r3, #4]
  }

  /* Check if the SPI is already enabled */
  if ((hspi->Instance->CR1 & SPI_CR1_SPE) != SPI_CR1_SPE)
 8005f24:	68fb      	ldr	r3, [r7, #12]
 8005f26:	681b      	ldr	r3, [r3, #0]
 8005f28:	681b      	ldr	r3, [r3, #0]
 8005f2a:	2240      	movs	r2, #64	@ 0x40
 8005f2c:	4013      	ands	r3, r2
 8005f2e:	2b40      	cmp	r3, #64	@ 0x40
 8005f30:	d007      	beq.n	8005f42 <HAL_SPI_TransmitReceive+0x146>
  {
    /* Enable SPI peripheral */
    __HAL_SPI_ENABLE(hspi);
 8005f32:	68fb      	ldr	r3, [r7, #12]
 8005f34:	681b      	ldr	r3, [r3, #0]
 8005f36:	681a      	ldr	r2, [r3, #0]
 8005f38:	68fb      	ldr	r3, [r7, #12]
 8005f3a:	681b      	ldr	r3, [r3, #0]
 8005f3c:	2140      	movs	r1, #64	@ 0x40
 8005f3e:	430a      	orrs	r2, r1
 8005f40:	601a      	str	r2, [r3, #0]
  }

  /* Transmit and Receive data in 16 Bit mode */
  if (hspi->Init.DataSize > SPI_DATASIZE_8BIT)
 8005f42:	68fb      	ldr	r3, [r7, #12]
 8005f44:	68da      	ldr	r2, [r3, #12]
 8005f46:	23e0      	movs	r3, #224	@ 0xe0
 8005f48:	00db      	lsls	r3, r3, #3
 8005f4a:	429a      	cmp	r2, r3
 8005f4c:	d800      	bhi.n	8005f50 <HAL_SPI_TransmitReceive+0x154>
 8005f4e:	e083      	b.n	8006058 <HAL_SPI_TransmitReceive+0x25c>
  {
    if ((hspi->Init.Mode == SPI_MODE_SLAVE) || (initial_TxXferCount == 0x01U))
 8005f50:	68fb      	ldr	r3, [r7, #12]
 8005f52:	685b      	ldr	r3, [r3, #4]
 8005f54:	2b00      	cmp	r3, #0
 8005f56:	d005      	beq.n	8005f64 <HAL_SPI_TransmitReceive+0x168>
 8005f58:	2312      	movs	r3, #18
 8005f5a:	18fb      	adds	r3, r7, r3
 8005f5c:	881b      	ldrh	r3, [r3, #0]
 8005f5e:	2b01      	cmp	r3, #1
 8005f60:	d000      	beq.n	8005f64 <HAL_SPI_TransmitReceive+0x168>
 8005f62:	e06d      	b.n	8006040 <HAL_SPI_TransmitReceive+0x244>
    {
      hspi->Instance->DR = *((uint16_t *)hspi->pTxBuffPtr);
 8005f64:	68fb      	ldr	r3, [r7, #12]
 8005f66:	6b9b      	ldr	r3, [r3, #56]	@ 0x38
 8005f68:	881a      	ldrh	r2, [r3, #0]
 8005f6a:	68fb      	ldr	r3, [r7, #12]
 8005f6c:	681b      	ldr	r3, [r3, #0]
 8005f6e:	60da      	str	r2, [r3, #12]
      hspi->pTxBuffPtr += sizeof(uint16_t);
 8005f70:	68fb      	ldr	r3, [r7, #12]
 8005f72:	6b9b      	ldr	r3, [r3, #56]	@ 0x38
 8005f74:	1c9a      	adds	r2, r3, #2
 8005f76:	68fb      	ldr	r3, [r7, #12]
 8005f78:	639a      	str	r2, [r3, #56]	@ 0x38
      hspi->TxXferCount--;
 8005f7a:	68fb      	ldr	r3, [r7, #12]
 8005f7c:	8fdb      	ldrh	r3, [r3, #62]	@ 0x3e
 8005f7e:	b29b      	uxth	r3, r3
 8005f80:	3b01      	subs	r3, #1
 8005f82:	b29a      	uxth	r2, r3
 8005f84:	68fb      	ldr	r3, [r7, #12]
 8005f86:	87da      	strh	r2, [r3, #62]	@ 0x3e
        SET_BIT(hspi->Instance->CR1, SPI_CR1_CRCNEXT);
      }
#endif /* USE_SPI_CRC */

    }
    while ((hspi->TxXferCount > 0U) || (hspi->RxXferCount > 0U))
 8005f88:	e05a      	b.n	8006040 <HAL_SPI_TransmitReceive+0x244>
    {
      /* Check TXE flag */
      if ((__HAL_SPI_GET_FLAG(hspi, SPI_FLAG_TXE)) && (hspi->TxXferCount > 0U) && (txallowed == 1U))
 8005f8a:	68fb      	ldr	r3, [r7, #12]
 8005f8c:	681b      	ldr	r3, [r3, #0]
 8005f8e:	689b      	ldr	r3, [r3, #8]
 8005f90:	2202      	movs	r2, #2
 8005f92:	4013      	ands	r3, r2
 8005f94:	2b02      	cmp	r3, #2
 8005f96:	d11b      	bne.n	8005fd0 <HAL_SPI_TransmitReceive+0x1d4>
 8005f98:	68fb      	ldr	r3, [r7, #12]
 8005f9a:	8fdb      	ldrh	r3, [r3, #62]	@ 0x3e
 8005f9c:	b29b      	uxth	r3, r3
 8005f9e:	2b00      	cmp	r3, #0
 8005fa0:	d016      	beq.n	8005fd0 <HAL_SPI_TransmitReceive+0x1d4>
 8005fa2:	6a7b      	ldr	r3, [r7, #36]	@ 0x24
 8005fa4:	2b01      	cmp	r3, #1
 8005fa6:	d113      	bne.n	8005fd0 <HAL_SPI_TransmitReceive+0x1d4>
      {
        hspi->Instance->DR = *((uint16_t *)hspi->pTxBuffPtr);
 8005fa8:	68fb      	ldr	r3, [r7, #12]
 8005faa:	6b9b      	ldr	r3, [r3, #56]	@ 0x38
 8005fac:	881a      	ldrh	r2, [r3, #0]
 8005fae:	68fb      	ldr	r3, [r7, #12]
 8005fb0:	681b      	ldr	r3, [r3, #0]
 8005fb2:	60da      	str	r2, [r3, #12]
        hspi->pTxBuffPtr += sizeof(uint16_t);
 8005fb4:	68fb      	ldr	r3, [r7, #12]
 8005fb6:	6b9b      	ldr	r3, [r3, #56]	@ 0x38
 8005fb8:	1c9a      	adds	r2, r3, #2
 8005fba:	68fb      	ldr	r3, [r7, #12]
 8005fbc:	639a      	str	r2, [r3, #56]	@ 0x38
        hspi->TxXferCount--;
 8005fbe:	68fb      	ldr	r3, [r7, #12]
 8005fc0:	8fdb      	ldrh	r3, [r3, #62]	@ 0x3e
 8005fc2:	b29b      	uxth	r3, r3
 8005fc4:	3b01      	subs	r3, #1
 8005fc6:	b29a      	uxth	r2, r3
 8005fc8:	68fb      	ldr	r3, [r7, #12]
 8005fca:	87da      	strh	r2, [r3, #62]	@ 0x3e
        /* Next Data is a reception (Rx). Tx not allowed */
        txallowed = 0U;
 8005fcc:	2300      	movs	r3, #0
 8005fce:	627b      	str	r3, [r7, #36]	@ 0x24
        }
#endif /* USE_SPI_CRC */
      }

      /* Check RXNE flag */
      if ((__HAL_SPI_GET_FLAG(hspi, SPI_FLAG_RXNE)) && (hspi->RxXferCount > 0U))
 8005fd0:	68fb      	ldr	r3, [r7, #12]
 8005fd2:	681b      	ldr	r3, [r3, #0]
 8005fd4:	689b      	ldr	r3, [r3, #8]
 8005fd6:	2201      	movs	r2, #1
 8005fd8:	4013      	ands	r3, r2
 8005fda:	2b01      	cmp	r3, #1
 8005fdc:	d11c      	bne.n	8006018 <HAL_SPI_TransmitReceive+0x21c>
 8005fde:	68fb      	ldr	r3, [r7, #12]
 8005fe0:	2246      	movs	r2, #70	@ 0x46
 8005fe2:	5a9b      	ldrh	r3, [r3, r2]
 8005fe4:	b29b      	uxth	r3, r3
 8005fe6:	2b00      	cmp	r3, #0
 8005fe8:	d016      	beq.n	8006018 <HAL_SPI_TransmitReceive+0x21c>
      {
        *((uint16_t *)hspi->pRxBuffPtr) = (uint16_t)hspi->Instance->DR;
 8005fea:	68fb      	ldr	r3, [r7, #12]
 8005fec:	681b      	ldr	r3, [r3, #0]
 8005fee:	68da      	ldr	r2, [r3, #12]
 8005ff0:	68fb      	ldr	r3, [r7, #12]
 8005ff2:	6c1b      	ldr	r3, [r3, #64]	@ 0x40
 8005ff4:	b292      	uxth	r2, r2
 8005ff6:	801a      	strh	r2, [r3, #0]
        hspi->pRxBuffPtr += sizeof(uint16_t);
 8005ff8:	68fb      	ldr	r3, [r7, #12]
 8005ffa:	6c1b      	ldr	r3, [r3, #64]	@ 0x40
 8005ffc:	1c9a      	adds	r2, r3, #2
 8005ffe:	68fb      	ldr	r3, [r7, #12]
 8006000:	641a      	str	r2, [r3, #64]	@ 0x40
        hspi->RxXferCount--;
 8006002:	68fb      	ldr	r3, [r7, #12]
 8006004:	2246      	movs	r2, #70	@ 0x46
 8006006:	5a9b      	ldrh	r3, [r3, r2]
 8006008:	b29b      	uxth	r3, r3
 800600a:	3b01      	subs	r3, #1
 800600c:	b299      	uxth	r1, r3
 800600e:	68fb      	ldr	r3, [r7, #12]
 8006010:	2246      	movs	r2, #70	@ 0x46
 8006012:	5299      	strh	r1, [r3, r2]
        /* Next Data is a Transmission (Tx). Tx is allowed */
        txallowed = 1U;
 8006014:	2301      	movs	r3, #1
 8006016:	627b      	str	r3, [r7, #36]	@ 0x24
      }
      if (((HAL_GetTick() - tickstart) >=  Timeout) && (Timeout != HAL_MAX_DELAY))
 8006018:	f7fd fe2a 	bl	8003c70 <HAL_GetTick>
 800601c:	0002      	movs	r2, r0
 800601e:	69fb      	ldr	r3, [r7, #28]
 8006020:	1ad3      	subs	r3, r2, r3
 8006022:	6b3a      	ldr	r2, [r7, #48]	@ 0x30
 8006024:	429a      	cmp	r2, r3
 8006026:	d80b      	bhi.n	8006040 <HAL_SPI_TransmitReceive+0x244>
 8006028:	6b3b      	ldr	r3, [r7, #48]	@ 0x30
 800602a:	3301      	adds	r3, #1
 800602c:	d008      	beq.n	8006040 <HAL_SPI_TransmitReceive+0x244>
      {
        errorcode = HAL_TIMEOUT;
 800602e:	2323      	movs	r3, #35	@ 0x23
 8006030:	18fb      	adds	r3, r7, r3
 8006032:	2203      	movs	r2, #3
 8006034:	701a      	strb	r2, [r3, #0]
        hspi->State = HAL_SPI_STATE_READY;
 8006036:	68fb      	ldr	r3, [r7, #12]
 8006038:	225d      	movs	r2, #93	@ 0x5d
 800603a:	2101      	movs	r1, #1
 800603c:	5499      	strb	r1, [r3, r2]
        goto error;
 800603e:	e0b1      	b.n	80061a4 <HAL_SPI_TransmitReceive+0x3a8>
    while ((hspi->TxXferCount > 0U) || (hspi->RxXferCount > 0U))
 8006040:	68fb      	ldr	r3, [r7, #12]
 8006042:	8fdb      	ldrh	r3, [r3, #62]	@ 0x3e
 8006044:	b29b      	uxth	r3, r3
 8006046:	2b00      	cmp	r3, #0
 8006048:	d19f      	bne.n	8005f8a <HAL_SPI_TransmitReceive+0x18e>
 800604a:	68fb      	ldr	r3, [r7, #12]
 800604c:	2246      	movs	r2, #70	@ 0x46
 800604e:	5a9b      	ldrh	r3, [r3, r2]
 8006050:	b29b      	uxth	r3, r3
 8006052:	2b00      	cmp	r3, #0
 8006054:	d199      	bne.n	8005f8a <HAL_SPI_TransmitReceive+0x18e>
 8006056:	e089      	b.n	800616c <HAL_SPI_TransmitReceive+0x370>
    }
  }
  /* Transmit and Receive data in 8 Bit mode */
  else
  {
    if ((hspi->Init.Mode == SPI_MODE_SLAVE) || (initial_TxXferCount == 0x01U))
 8006058:	68fb      	ldr	r3, [r7, #12]
 800605a:	685b      	ldr	r3, [r3, #4]
 800605c:	2b00      	cmp	r3, #0
 800605e:	d005      	beq.n	800606c <HAL_SPI_TransmitReceive+0x270>
 8006060:	2312      	movs	r3, #18
 8006062:	18fb      	adds	r3, r7, r3
 8006064:	881b      	ldrh	r3, [r3, #0]
 8006066:	2b01      	cmp	r3, #1
 8006068:	d000      	beq.n	800606c <HAL_SPI_TransmitReceive+0x270>
 800606a:	e074      	b.n	8006156 <HAL_SPI_TransmitReceive+0x35a>
    {
      *((__IO uint8_t *)&hspi->Instance->DR) = (*hspi->pTxBuffPtr);
 800606c:	68fb      	ldr	r3, [r7, #12]
 800606e:	6b9a      	ldr	r2, [r3, #56]	@ 0x38
 8006070:	68fb      	ldr	r3, [r7, #12]
 8006072:	681b      	ldr	r3, [r3, #0]
 8006074:	330c      	adds	r3, #12
 8006076:	7812      	ldrb	r2, [r2, #0]
 8006078:	701a      	strb	r2, [r3, #0]
      hspi->pTxBuffPtr += sizeof(uint8_t);
 800607a:	68fb      	ldr	r3, [r7, #12]
 800607c:	6b9b      	ldr	r3, [r3, #56]	@ 0x38
 800607e:	1c5a      	adds	r2, r3, #1
 8006080:	68fb      	ldr	r3, [r7, #12]
 8006082:	639a      	str	r2, [r3, #56]	@ 0x38
      hspi->TxXferCount--;
 8006084:	68fb      	ldr	r3, [r7, #12]
 8006086:	8fdb      	ldrh	r3, [r3, #62]	@ 0x3e
 8006088:	b29b      	uxth	r3, r3
 800608a:	3b01      	subs	r3, #1
 800608c:	b29a      	uxth	r2, r3
 800608e:	68fb      	ldr	r3, [r7, #12]
 8006090:	87da      	strh	r2, [r3, #62]	@ 0x3e
        }
        SET_BIT(hspi->Instance->CR1, SPI_CR1_CRCNEXT);
      }
#endif /* USE_SPI_CRC */
    }
    while ((hspi->TxXferCount > 0U) || (hspi->RxXferCount > 0U))
 8006092:	e060      	b.n	8006156 <HAL_SPI_TransmitReceive+0x35a>
    {
      /* Check TXE flag */
      if ((__HAL_SPI_GET_FLAG(hspi, SPI_FLAG_TXE)) && (hspi->TxXferCount > 0U) && (txallowed == 1U))
 8006094:	68fb      	ldr	r3, [r7, #12]
 8006096:	681b      	ldr	r3, [r3, #0]
 8006098:	689b      	ldr	r3, [r3, #8]
 800609a:	2202      	movs	r2, #2
 800609c:	4013      	ands	r3, r2
 800609e:	2b02      	cmp	r3, #2
 80060a0:	d11c      	bne.n	80060dc <HAL_SPI_TransmitReceive+0x2e0>
 80060a2:	68fb      	ldr	r3, [r7, #12]
 80060a4:	8fdb      	ldrh	r3, [r3, #62]	@ 0x3e
 80060a6:	b29b      	uxth	r3, r3
 80060a8:	2b00      	cmp	r3, #0
 80060aa:	d017      	beq.n	80060dc <HAL_SPI_TransmitReceive+0x2e0>
 80060ac:	6a7b      	ldr	r3, [r7, #36]	@ 0x24
 80060ae:	2b01      	cmp	r3, #1
 80060b0:	d114      	bne.n	80060dc <HAL_SPI_TransmitReceive+0x2e0>
      {
        *(__IO uint8_t *)&hspi->Instance->DR = (*hspi->pTxBuffPtr);
 80060b2:	68fb      	ldr	r3, [r7, #12]
 80060b4:	6b9a      	ldr	r2, [r3, #56]	@ 0x38
 80060b6:	68fb      	ldr	r3, [r7, #12]
 80060b8:	681b      	ldr	r3, [r3, #0]
 80060ba:	330c      	adds	r3, #12
 80060bc:	7812      	ldrb	r2, [r2, #0]
 80060be:	701a      	strb	r2, [r3, #0]
        hspi->pTxBuffPtr++;
 80060c0:	68fb      	ldr	r3, [r7, #12]
 80060c2:	6b9b      	ldr	r3, [r3, #56]	@ 0x38
 80060c4:	1c5a      	adds	r2, r3, #1
 80060c6:	68fb      	ldr	r3, [r7, #12]
 80060c8:	639a      	str	r2, [r3, #56]	@ 0x38
        hspi->TxXferCount--;
 80060ca:	68fb      	ldr	r3, [r7, #12]
 80060cc:	8fdb      	ldrh	r3, [r3, #62]	@ 0x3e
 80060ce:	b29b      	uxth	r3, r3
 80060d0:	3b01      	subs	r3, #1
 80060d2:	b29a      	uxth	r2, r3
 80060d4:	68fb      	ldr	r3, [r7, #12]
 80060d6:	87da      	strh	r2, [r3, #62]	@ 0x3e
        /* Next Data is a reception (Rx). Tx not allowed */
        txallowed = 0U;
 80060d8:	2300      	movs	r3, #0
 80060da:	627b      	str	r3, [r7, #36]	@ 0x24
        }
#endif /* USE_SPI_CRC */
      }

      /* Wait until RXNE flag is reset */
      if ((__HAL_SPI_GET_FLAG(hspi, SPI_FLAG_RXNE)) && (hspi->RxXferCount > 0U))
 80060dc:	68fb      	ldr	r3, [r7, #12]
 80060de:	681b      	ldr	r3, [r3, #0]
 80060e0:	689b      	ldr	r3, [r3, #8]
 80060e2:	2201      	movs	r2, #1
 80060e4:	4013      	ands	r3, r2
 80060e6:	2b01      	cmp	r3, #1
 80060e8:	d11e      	bne.n	8006128 <HAL_SPI_TransmitReceive+0x32c>
 80060ea:	68fb      	ldr	r3, [r7, #12]
 80060ec:	2246      	movs	r2, #70	@ 0x46
 80060ee:	5a9b      	ldrh	r3, [r3, r2]
 80060f0:	b29b      	uxth	r3, r3
 80060f2:	2b00      	cmp	r3, #0
 80060f4:	d018      	beq.n	8006128 <HAL_SPI_TransmitReceive+0x32c>
      {
        (*(uint8_t *)hspi->pRxBuffPtr) = *(__IO uint8_t *)&hspi->Instance->DR;
 80060f6:	68fb      	ldr	r3, [r7, #12]
 80060f8:	681b      	ldr	r3, [r3, #0]
 80060fa:	330c      	adds	r3, #12
 80060fc:	001a      	movs	r2, r3
 80060fe:	68fb      	ldr	r3, [r7, #12]
 8006100:	6c1b      	ldr	r3, [r3, #64]	@ 0x40
 8006102:	7812      	ldrb	r2, [r2, #0]
 8006104:	b2d2      	uxtb	r2, r2
 8006106:	701a      	strb	r2, [r3, #0]
        hspi->pRxBuffPtr++;
 8006108:	68fb      	ldr	r3, [r7, #12]
 800610a:	6c1b      	ldr	r3, [r3, #64]	@ 0x40
 800610c:	1c5a      	adds	r2, r3, #1
 800610e:	68fb      	ldr	r3, [r7, #12]
 8006110:	641a      	str	r2, [r3, #64]	@ 0x40
        hspi->RxXferCount--;
 8006112:	68fb      	ldr	r3, [r7, #12]
 8006114:	2246      	movs	r2, #70	@ 0x46
 8006116:	5a9b      	ldrh	r3, [r3, r2]
 8006118:	b29b      	uxth	r3, r3
 800611a:	3b01      	subs	r3, #1
 800611c:	b299      	uxth	r1, r3
 800611e:	68fb      	ldr	r3, [r7, #12]
 8006120:	2246      	movs	r2, #70	@ 0x46
 8006122:	5299      	strh	r1, [r3, r2]
        /* Next Data is a Transmission (Tx). Tx is allowed */
        txallowed = 1U;
 8006124:	2301      	movs	r3, #1
 8006126:	627b      	str	r3, [r7, #36]	@ 0x24
      }
      if ((((HAL_GetTick() - tickstart) >=  Timeout) && ((Timeout != HAL_MAX_DELAY))) || (Timeout == 0U))
 8006128:	f7fd fda2 	bl	8003c70 <HAL_GetTick>
 800612c:	0002      	movs	r2, r0
 800612e:	69fb      	ldr	r3, [r7, #28]
 8006130:	1ad3      	subs	r3, r2, r3
 8006132:	6b3a      	ldr	r2, [r7, #48]	@ 0x30
 8006134:	429a      	cmp	r2, r3
 8006136:	d802      	bhi.n	800613e <HAL_SPI_TransmitReceive+0x342>
 8006138:	6b3b      	ldr	r3, [r7, #48]	@ 0x30
 800613a:	3301      	adds	r3, #1
 800613c:	d102      	bne.n	8006144 <HAL_SPI_TransmitReceive+0x348>
 800613e:	6b3b      	ldr	r3, [r7, #48]	@ 0x30
 8006140:	2b00      	cmp	r3, #0
 8006142:	d108      	bne.n	8006156 <HAL_SPI_TransmitReceive+0x35a>
      {
        errorcode = HAL_TIMEOUT;
 8006144:	2323      	movs	r3, #35	@ 0x23
 8006146:	18fb      	adds	r3, r7, r3
 8006148:	2203      	movs	r2, #3
 800614a:	701a      	strb	r2, [r3, #0]
        hspi->State = HAL_SPI_STATE_READY;
 800614c:	68fb      	ldr	r3, [r7, #12]
 800614e:	225d      	movs	r2, #93	@ 0x5d
 8006150:	2101      	movs	r1, #1
 8006152:	5499      	strb	r1, [r3, r2]
        goto error;
 8006154:	e026      	b.n	80061a4 <HAL_SPI_TransmitReceive+0x3a8>
    while ((hspi->TxXferCount > 0U) || (hspi->RxXferCount > 0U))
 8006156:	68fb      	ldr	r3, [r7, #12]
 8006158:	8fdb      	ldrh	r3, [r3, #62]	@ 0x3e
 800615a:	b29b      	uxth	r3, r3
 800615c:	2b00      	cmp	r3, #0
 800615e:	d199      	bne.n	8006094 <HAL_SPI_TransmitReceive+0x298>
 8006160:	68fb      	ldr	r3, [r7, #12]
 8006162:	2246      	movs	r2, #70	@ 0x46
 8006164:	5a9b      	ldrh	r3, [r3, r2]
 8006166:	b29b      	uxth	r3, r3
 8006168:	2b00      	cmp	r3, #0
 800616a:	d193      	bne.n	8006094 <HAL_SPI_TransmitReceive+0x298>
    errorcode = HAL_ERROR;
  }
#endif /* USE_SPI_CRC */

  /* Check the end of the transaction */
  if (SPI_EndRxTxTransaction(hspi, Timeout, tickstart) != HAL_OK)
 800616c:	69fa      	ldr	r2, [r7, #28]
 800616e:	6b39      	ldr	r1, [r7, #48]	@ 0x30
 8006170:	68fb      	ldr	r3, [r7, #12]
 8006172:	0018      	movs	r0, r3
 8006174:	f000 f9b2 	bl	80064dc <SPI_EndRxTxTransaction>
 8006178:	1e03      	subs	r3, r0, #0
 800617a:	d006      	beq.n	800618a <HAL_SPI_TransmitReceive+0x38e>
  {
    errorcode = HAL_ERROR;
 800617c:	2323      	movs	r3, #35	@ 0x23
 800617e:	18fb      	adds	r3, r7, r3
 8006180:	2201      	movs	r2, #1
 8006182:	701a      	strb	r2, [r3, #0]
    hspi->ErrorCode = HAL_SPI_ERROR_FLAG;
 8006184:	68fb      	ldr	r3, [r7, #12]
 8006186:	2220      	movs	r2, #32
 8006188:	661a      	str	r2, [r3, #96]	@ 0x60
  }

  if (hspi->ErrorCode != HAL_SPI_ERROR_NONE)
 800618a:	68fb      	ldr	r3, [r7, #12]
 800618c:	6e1b      	ldr	r3, [r3, #96]	@ 0x60
 800618e:	2b00      	cmp	r3, #0
 8006190:	d004      	beq.n	800619c <HAL_SPI_TransmitReceive+0x3a0>
  {
    errorcode = HAL_ERROR;
 8006192:	2323      	movs	r3, #35	@ 0x23
 8006194:	18fb      	adds	r3, r7, r3
 8006196:	2201      	movs	r2, #1
 8006198:	701a      	strb	r2, [r3, #0]
 800619a:	e003      	b.n	80061a4 <HAL_SPI_TransmitReceive+0x3a8>
  }
  else
  {
    hspi->State = HAL_SPI_STATE_READY;
 800619c:	68fb      	ldr	r3, [r7, #12]
 800619e:	225d      	movs	r2, #93	@ 0x5d
 80061a0:	2101      	movs	r1, #1
 80061a2:	5499      	strb	r1, [r3, r2]
  }
  
error :
  __HAL_UNLOCK(hspi);
 80061a4:	68fb      	ldr	r3, [r7, #12]
 80061a6:	225c      	movs	r2, #92	@ 0x5c
 80061a8:	2100      	movs	r1, #0
 80061aa:	5499      	strb	r1, [r3, r2]
  return errorcode;
 80061ac:	2323      	movs	r3, #35	@ 0x23
 80061ae:	18fb      	adds	r3, r7, r3
 80061b0:	781b      	ldrb	r3, [r3, #0]
}
 80061b2:	0018      	movs	r0, r3
 80061b4:	46bd      	mov	sp, r7
 80061b6:	b00a      	add	sp, #40	@ 0x28
 80061b8:	bd80      	pop	{r7, pc}
 80061ba:	46c0      	nop			@ (mov r8, r8)
 80061bc:	ffffefff 	.word	0xffffefff

080061c0 <SPI_WaitFlagStateUntilTimeout>:
  * @param  Tickstart tick start value
  * @retval HAL status
  */
static HAL_StatusTypeDef SPI_WaitFlagStateUntilTimeout(SPI_HandleTypeDef *hspi, uint32_t Flag, FlagStatus State,
                                                       uint32_t Timeout, uint32_t Tickstart)
{
 80061c0:	b580      	push	{r7, lr}
 80061c2:	b088      	sub	sp, #32
 80061c4:	af00      	add	r7, sp, #0
 80061c6:	60f8      	str	r0, [r7, #12]
 80061c8:	60b9      	str	r1, [r7, #8]
 80061ca:	603b      	str	r3, [r7, #0]
 80061cc:	1dfb      	adds	r3, r7, #7
 80061ce:	701a      	strb	r2, [r3, #0]
  __IO uint32_t count;
  uint32_t tmp_timeout;
  uint32_t tmp_tickstart;

  /* Adjust Timeout value  in case of end of transfer */
  tmp_timeout   = Timeout - (HAL_GetTick() - Tickstart);
 80061d0:	f7fd fd4e 	bl	8003c70 <HAL_GetTick>
 80061d4:	0002      	movs	r2, r0
 80061d6:	6abb      	ldr	r3, [r7, #40]	@ 0x28
 80061d8:	1a9b      	subs	r3, r3, r2
 80061da:	683a      	ldr	r2, [r7, #0]
 80061dc:	18d3      	adds	r3, r2, r3
 80061de:	61fb      	str	r3, [r7, #28]
  tmp_tickstart = HAL_GetTick();
 80061e0:	f7fd fd46 	bl	8003c70 <HAL_GetTick>
 80061e4:	0003      	movs	r3, r0
 80061e6:	61bb      	str	r3, [r7, #24]

  /* Calculate Timeout based on a software loop to avoid blocking issue if Systick is disabled */
  count = tmp_timeout * ((SystemCoreClock * 32U) >> 20U);
 80061e8:	4b3a      	ldr	r3, [pc, #232]	@ (80062d4 <SPI_WaitFlagStateUntilTimeout+0x114>)
 80061ea:	681b      	ldr	r3, [r3, #0]
 80061ec:	015b      	lsls	r3, r3, #5
 80061ee:	0d1b      	lsrs	r3, r3, #20
 80061f0:	69fa      	ldr	r2, [r7, #28]
 80061f2:	4353      	muls	r3, r2
 80061f4:	617b      	str	r3, [r7, #20]

  while ((__HAL_SPI_GET_FLAG(hspi, Flag) ? SET : RESET) != State)
 80061f6:	e058      	b.n	80062aa <SPI_WaitFlagStateUntilTimeout+0xea>
  {
    if (Timeout != HAL_MAX_DELAY)
 80061f8:	683b      	ldr	r3, [r7, #0]
 80061fa:	3301      	adds	r3, #1
 80061fc:	d055      	beq.n	80062aa <SPI_WaitFlagStateUntilTimeout+0xea>
    {
      if (((HAL_GetTick() - tmp_tickstart) >= tmp_timeout) || (tmp_timeout == 0U))
 80061fe:	f7fd fd37 	bl	8003c70 <HAL_GetTick>
 8006202:	0002      	movs	r2, r0
 8006204:	69bb      	ldr	r3, [r7, #24]
 8006206:	1ad3      	subs	r3, r2, r3
 8006208:	69fa      	ldr	r2, [r7, #28]
 800620a:	429a      	cmp	r2, r3
 800620c:	d902      	bls.n	8006214 <SPI_WaitFlagStateUntilTimeout+0x54>
 800620e:	69fb      	ldr	r3, [r7, #28]
 8006210:	2b00      	cmp	r3, #0
 8006212:	d142      	bne.n	800629a <SPI_WaitFlagStateUntilTimeout+0xda>
        /* Disable the SPI and reset the CRC: the CRC value should be cleared
           on both master and slave sides in order to resynchronize the master
           and slave for their respective CRC calculation */

        /* Disable TXE, RXNE and ERR interrupts for the interrupt process */
        __HAL_SPI_DISABLE_IT(hspi, (SPI_IT_TXE | SPI_IT_RXNE | SPI_IT_ERR));
 8006214:	68fb      	ldr	r3, [r7, #12]
 8006216:	681b      	ldr	r3, [r3, #0]
 8006218:	685a      	ldr	r2, [r3, #4]
 800621a:	68fb      	ldr	r3, [r7, #12]
 800621c:	681b      	ldr	r3, [r3, #0]
 800621e:	21e0      	movs	r1, #224	@ 0xe0
 8006220:	438a      	bics	r2, r1
 8006222:	605a      	str	r2, [r3, #4]

        if ((hspi->Init.Mode == SPI_MODE_MASTER) && ((hspi->Init.Direction == SPI_DIRECTION_1LINE)
 8006224:	68fb      	ldr	r3, [r7, #12]
 8006226:	685a      	ldr	r2, [r3, #4]
 8006228:	2382      	movs	r3, #130	@ 0x82
 800622a:	005b      	lsls	r3, r3, #1
 800622c:	429a      	cmp	r2, r3
 800622e:	d113      	bne.n	8006258 <SPI_WaitFlagStateUntilTimeout+0x98>
 8006230:	68fb      	ldr	r3, [r7, #12]
 8006232:	689a      	ldr	r2, [r3, #8]
 8006234:	2380      	movs	r3, #128	@ 0x80
 8006236:	021b      	lsls	r3, r3, #8
 8006238:	429a      	cmp	r2, r3
 800623a:	d005      	beq.n	8006248 <SPI_WaitFlagStateUntilTimeout+0x88>
                                                     || (hspi->Init.Direction == SPI_DIRECTION_2LINES_RXONLY)))
 800623c:	68fb      	ldr	r3, [r7, #12]
 800623e:	689a      	ldr	r2, [r3, #8]
 8006240:	2380      	movs	r3, #128	@ 0x80
 8006242:	00db      	lsls	r3, r3, #3
 8006244:	429a      	cmp	r2, r3
 8006246:	d107      	bne.n	8006258 <SPI_WaitFlagStateUntilTimeout+0x98>
        {
          /* Disable SPI peripheral */
          __HAL_SPI_DISABLE(hspi);
 8006248:	68fb      	ldr	r3, [r7, #12]
 800624a:	681b      	ldr	r3, [r3, #0]
 800624c:	681a      	ldr	r2, [r3, #0]
 800624e:	68fb      	ldr	r3, [r7, #12]
 8006250:	681b      	ldr	r3, [r3, #0]
 8006252:	2140      	movs	r1, #64	@ 0x40
 8006254:	438a      	bics	r2, r1
 8006256:	601a      	str	r2, [r3, #0]
        }

        /* Reset CRC Calculation */
        if (hspi->Init.CRCCalculation == SPI_CRCCALCULATION_ENABLE)
 8006258:	68fb      	ldr	r3, [r7, #12]
 800625a:	6a9a      	ldr	r2, [r3, #40]	@ 0x28
 800625c:	2380      	movs	r3, #128	@ 0x80
 800625e:	019b      	lsls	r3, r3, #6
 8006260:	429a      	cmp	r2, r3
 8006262:	d110      	bne.n	8006286 <SPI_WaitFlagStateUntilTimeout+0xc6>
        {
          SPI_RESET_CRC(hspi);
 8006264:	68fb      	ldr	r3, [r7, #12]
 8006266:	681b      	ldr	r3, [r3, #0]
 8006268:	681a      	ldr	r2, [r3, #0]
 800626a:	68fb      	ldr	r3, [r7, #12]
 800626c:	681b      	ldr	r3, [r3, #0]
 800626e:	491a      	ldr	r1, [pc, #104]	@ (80062d8 <SPI_WaitFlagStateUntilTimeout+0x118>)
 8006270:	400a      	ands	r2, r1
 8006272:	601a      	str	r2, [r3, #0]
 8006274:	68fb      	ldr	r3, [r7, #12]
 8006276:	681b      	ldr	r3, [r3, #0]
 8006278:	681a      	ldr	r2, [r3, #0]
 800627a:	68fb      	ldr	r3, [r7, #12]
 800627c:	681b      	ldr	r3, [r3, #0]
 800627e:	2180      	movs	r1, #128	@ 0x80
 8006280:	0189      	lsls	r1, r1, #6
 8006282:	430a      	orrs	r2, r1
 8006284:	601a      	str	r2, [r3, #0]
        }

        hspi->State = HAL_SPI_STATE_READY;
 8006286:	68fb      	ldr	r3, [r7, #12]
 8006288:	225d      	movs	r2, #93	@ 0x5d
 800628a:	2101      	movs	r1, #1
 800628c:	5499      	strb	r1, [r3, r2]

        /* Process Unlocked */
        __HAL_UNLOCK(hspi);
 800628e:	68fb      	ldr	r3, [r7, #12]
 8006290:	225c      	movs	r2, #92	@ 0x5c
 8006292:	2100      	movs	r1, #0
 8006294:	5499      	strb	r1, [r3, r2]

        return HAL_TIMEOUT;
 8006296:	2303      	movs	r3, #3
 8006298:	e017      	b.n	80062ca <SPI_WaitFlagStateUntilTimeout+0x10a>
      }
      /* If Systick is disabled or not incremented, deactivate timeout to go in disable loop procedure */
      if (count == 0U)
 800629a:	697b      	ldr	r3, [r7, #20]
 800629c:	2b00      	cmp	r3, #0
 800629e:	d101      	bne.n	80062a4 <SPI_WaitFlagStateUntilTimeout+0xe4>
      {
        tmp_timeout = 0U;
 80062a0:	2300      	movs	r3, #0
 80062a2:	61fb      	str	r3, [r7, #28]
      }
      count--;
 80062a4:	697b      	ldr	r3, [r7, #20]
 80062a6:	3b01      	subs	r3, #1
 80062a8:	617b      	str	r3, [r7, #20]
  while ((__HAL_SPI_GET_FLAG(hspi, Flag) ? SET : RESET) != State)
 80062aa:	68fb      	ldr	r3, [r7, #12]
 80062ac:	681b      	ldr	r3, [r3, #0]
 80062ae:	689b      	ldr	r3, [r3, #8]
 80062b0:	68ba      	ldr	r2, [r7, #8]
 80062b2:	4013      	ands	r3, r2
 80062b4:	68ba      	ldr	r2, [r7, #8]
 80062b6:	1ad3      	subs	r3, r2, r3
 80062b8:	425a      	negs	r2, r3
 80062ba:	4153      	adcs	r3, r2
 80062bc:	b2db      	uxtb	r3, r3
 80062be:	001a      	movs	r2, r3
 80062c0:	1dfb      	adds	r3, r7, #7
 80062c2:	781b      	ldrb	r3, [r3, #0]
 80062c4:	429a      	cmp	r2, r3
 80062c6:	d197      	bne.n	80061f8 <SPI_WaitFlagStateUntilTimeout+0x38>
    }
  }

  return HAL_OK;
 80062c8:	2300      	movs	r3, #0
}
 80062ca:	0018      	movs	r0, r3
 80062cc:	46bd      	mov	sp, r7
 80062ce:	b008      	add	sp, #32
 80062d0:	bd80      	pop	{r7, pc}
 80062d2:	46c0      	nop			@ (mov r8, r8)
 80062d4:	20000000 	.word	0x20000000
 80062d8:	ffffdfff 	.word	0xffffdfff

080062dc <SPI_WaitFifoStateUntilTimeout>:
  * @param  Tickstart tick start value
  * @retval HAL status
  */
static HAL_StatusTypeDef SPI_WaitFifoStateUntilTimeout(SPI_HandleTypeDef *hspi, uint32_t Fifo, uint32_t State,
                                                       uint32_t Timeout, uint32_t Tickstart)
{
 80062dc:	b580      	push	{r7, lr}
 80062de:	b08a      	sub	sp, #40	@ 0x28
 80062e0:	af00      	add	r7, sp, #0
 80062e2:	60f8      	str	r0, [r7, #12]
 80062e4:	60b9      	str	r1, [r7, #8]
 80062e6:	607a      	str	r2, [r7, #4]
 80062e8:	603b      	str	r3, [r7, #0]
  __IO uint32_t count;
  uint32_t tmp_timeout;
  uint32_t tmp_tickstart;
  __IO uint8_t  *ptmpreg8;
  __IO uint8_t  tmpreg8 = 0;
 80062ea:	2317      	movs	r3, #23
 80062ec:	18fb      	adds	r3, r7, r3
 80062ee:	2200      	movs	r2, #0
 80062f0:	701a      	strb	r2, [r3, #0]

  /* Adjust Timeout value  in case of end of transfer */
  tmp_timeout = Timeout - (HAL_GetTick() - Tickstart);
 80062f2:	f7fd fcbd 	bl	8003c70 <HAL_GetTick>
 80062f6:	0002      	movs	r2, r0
 80062f8:	6b3b      	ldr	r3, [r7, #48]	@ 0x30
 80062fa:	1a9b      	subs	r3, r3, r2
 80062fc:	683a      	ldr	r2, [r7, #0]
 80062fe:	18d3      	adds	r3, r2, r3
 8006300:	627b      	str	r3, [r7, #36]	@ 0x24
  tmp_tickstart = HAL_GetTick();
 8006302:	f7fd fcb5 	bl	8003c70 <HAL_GetTick>
 8006306:	0003      	movs	r3, r0
 8006308:	623b      	str	r3, [r7, #32]

  /* Initialize the 8bit temporary pointer */
  ptmpreg8 = (__IO uint8_t *)&hspi->Instance->DR;
 800630a:	68fb      	ldr	r3, [r7, #12]
 800630c:	681b      	ldr	r3, [r3, #0]
 800630e:	330c      	adds	r3, #12
 8006310:	61fb      	str	r3, [r7, #28]

  /* Calculate Timeout based on a software loop to avoid blocking issue if Systick is disabled */
  count = tmp_timeout * ((SystemCoreClock * 35U) >> 20U);
 8006312:	4b41      	ldr	r3, [pc, #260]	@ (8006418 <SPI_WaitFifoStateUntilTimeout+0x13c>)
 8006314:	681a      	ldr	r2, [r3, #0]
 8006316:	0013      	movs	r3, r2
 8006318:	009b      	lsls	r3, r3, #2
 800631a:	189b      	adds	r3, r3, r2
 800631c:	00da      	lsls	r2, r3, #3
 800631e:	1ad3      	subs	r3, r2, r3
 8006320:	0d1b      	lsrs	r3, r3, #20
 8006322:	6a7a      	ldr	r2, [r7, #36]	@ 0x24
 8006324:	4353      	muls	r3, r2
 8006326:	61bb      	str	r3, [r7, #24]

  while ((hspi->Instance->SR & Fifo) != State)
 8006328:	e068      	b.n	80063fc <SPI_WaitFifoStateUntilTimeout+0x120>
  {
    if ((Fifo == SPI_SR_FRLVL) && (State == SPI_FRLVL_EMPTY))
 800632a:	68ba      	ldr	r2, [r7, #8]
 800632c:	23c0      	movs	r3, #192	@ 0xc0
 800632e:	00db      	lsls	r3, r3, #3
 8006330:	429a      	cmp	r2, r3
 8006332:	d10a      	bne.n	800634a <SPI_WaitFifoStateUntilTimeout+0x6e>
 8006334:	687b      	ldr	r3, [r7, #4]
 8006336:	2b00      	cmp	r3, #0
 8006338:	d107      	bne.n	800634a <SPI_WaitFifoStateUntilTimeout+0x6e>
    {
      /* Flush Data Register by a blank read */
      tmpreg8 = *ptmpreg8;
 800633a:	69fb      	ldr	r3, [r7, #28]
 800633c:	781b      	ldrb	r3, [r3, #0]
 800633e:	b2da      	uxtb	r2, r3
 8006340:	2117      	movs	r1, #23
 8006342:	187b      	adds	r3, r7, r1
 8006344:	701a      	strb	r2, [r3, #0]
      /* To avoid GCC warning */
      UNUSED(tmpreg8);
 8006346:	187b      	adds	r3, r7, r1
 8006348:	781b      	ldrb	r3, [r3, #0]
    }

    if (Timeout != HAL_MAX_DELAY)
 800634a:	683b      	ldr	r3, [r7, #0]
 800634c:	3301      	adds	r3, #1
 800634e:	d055      	beq.n	80063fc <SPI_WaitFifoStateUntilTimeout+0x120>
    {
      if (((HAL_GetTick() - tmp_tickstart) >= tmp_timeout) || (tmp_timeout == 0U))
 8006350:	f7fd fc8e 	bl	8003c70 <HAL_GetTick>
 8006354:	0002      	movs	r2, r0
 8006356:	6a3b      	ldr	r3, [r7, #32]
 8006358:	1ad3      	subs	r3, r2, r3
 800635a:	6a7a      	ldr	r2, [r7, #36]	@ 0x24
 800635c:	429a      	cmp	r2, r3
 800635e:	d902      	bls.n	8006366 <SPI_WaitFifoStateUntilTimeout+0x8a>
 8006360:	6a7b      	ldr	r3, [r7, #36]	@ 0x24
 8006362:	2b00      	cmp	r3, #0
 8006364:	d142      	bne.n	80063ec <SPI_WaitFifoStateUntilTimeout+0x110>
        /* Disable the SPI and reset the CRC: the CRC value should be cleared
           on both master and slave sides in order to resynchronize the master
           and slave for their respective CRC calculation */

        /* Disable TXE, RXNE and ERR interrupts for the interrupt process */
        __HAL_SPI_DISABLE_IT(hspi, (SPI_IT_TXE | SPI_IT_RXNE | SPI_IT_ERR));
 8006366:	68fb      	ldr	r3, [r7, #12]
 8006368:	681b      	ldr	r3, [r3, #0]
 800636a:	685a      	ldr	r2, [r3, #4]
 800636c:	68fb      	ldr	r3, [r7, #12]
 800636e:	681b      	ldr	r3, [r3, #0]
 8006370:	21e0      	movs	r1, #224	@ 0xe0
 8006372:	438a      	bics	r2, r1
 8006374:	605a      	str	r2, [r3, #4]

        if ((hspi->Init.Mode == SPI_MODE_MASTER) && ((hspi->Init.Direction == SPI_DIRECTION_1LINE)
 8006376:	68fb      	ldr	r3, [r7, #12]
 8006378:	685a      	ldr	r2, [r3, #4]
 800637a:	2382      	movs	r3, #130	@ 0x82
 800637c:	005b      	lsls	r3, r3, #1
 800637e:	429a      	cmp	r2, r3
 8006380:	d113      	bne.n	80063aa <SPI_WaitFifoStateUntilTimeout+0xce>
 8006382:	68fb      	ldr	r3, [r7, #12]
 8006384:	689a      	ldr	r2, [r3, #8]
 8006386:	2380      	movs	r3, #128	@ 0x80
 8006388:	021b      	lsls	r3, r3, #8
 800638a:	429a      	cmp	r2, r3
 800638c:	d005      	beq.n	800639a <SPI_WaitFifoStateUntilTimeout+0xbe>
                                                     || (hspi->Init.Direction == SPI_DIRECTION_2LINES_RXONLY)))
 800638e:	68fb      	ldr	r3, [r7, #12]
 8006390:	689a      	ldr	r2, [r3, #8]
 8006392:	2380      	movs	r3, #128	@ 0x80
 8006394:	00db      	lsls	r3, r3, #3
 8006396:	429a      	cmp	r2, r3
 8006398:	d107      	bne.n	80063aa <SPI_WaitFifoStateUntilTimeout+0xce>
        {
          /* Disable SPI peripheral */
          __HAL_SPI_DISABLE(hspi);
 800639a:	68fb      	ldr	r3, [r7, #12]
 800639c:	681b      	ldr	r3, [r3, #0]
 800639e:	681a      	ldr	r2, [r3, #0]
 80063a0:	68fb      	ldr	r3, [r7, #12]
 80063a2:	681b      	ldr	r3, [r3, #0]
 80063a4:	2140      	movs	r1, #64	@ 0x40
 80063a6:	438a      	bics	r2, r1
 80063a8:	601a      	str	r2, [r3, #0]
        }

        /* Reset CRC Calculation */
        if (hspi->Init.CRCCalculation == SPI_CRCCALCULATION_ENABLE)
 80063aa:	68fb      	ldr	r3, [r7, #12]
 80063ac:	6a9a      	ldr	r2, [r3, #40]	@ 0x28
 80063ae:	2380      	movs	r3, #128	@ 0x80
 80063b0:	019b      	lsls	r3, r3, #6
 80063b2:	429a      	cmp	r2, r3
 80063b4:	d110      	bne.n	80063d8 <SPI_WaitFifoStateUntilTimeout+0xfc>
        {
          SPI_RESET_CRC(hspi);
 80063b6:	68fb      	ldr	r3, [r7, #12]
 80063b8:	681b      	ldr	r3, [r3, #0]
 80063ba:	681a      	ldr	r2, [r3, #0]
 80063bc:	68fb      	ldr	r3, [r7, #12]
 80063be:	681b      	ldr	r3, [r3, #0]
 80063c0:	4916      	ldr	r1, [pc, #88]	@ (800641c <SPI_WaitFifoStateUntilTimeout+0x140>)
 80063c2:	400a      	ands	r2, r1
 80063c4:	601a      	str	r2, [r3, #0]
 80063c6:	68fb      	ldr	r3, [r7, #12]
 80063c8:	681b      	ldr	r3, [r3, #0]
 80063ca:	681a      	ldr	r2, [r3, #0]
 80063cc:	68fb      	ldr	r3, [r7, #12]
 80063ce:	681b      	ldr	r3, [r3, #0]
 80063d0:	2180      	movs	r1, #128	@ 0x80
 80063d2:	0189      	lsls	r1, r1, #6
 80063d4:	430a      	orrs	r2, r1
 80063d6:	601a      	str	r2, [r3, #0]
        }

        hspi->State = HAL_SPI_STATE_READY;
 80063d8:	68fb      	ldr	r3, [r7, #12]
 80063da:	225d      	movs	r2, #93	@ 0x5d
 80063dc:	2101      	movs	r1, #1
 80063de:	5499      	strb	r1, [r3, r2]

        /* Process Unlocked */
        __HAL_UNLOCK(hspi);
 80063e0:	68fb      	ldr	r3, [r7, #12]
 80063e2:	225c      	movs	r2, #92	@ 0x5c
 80063e4:	2100      	movs	r1, #0
 80063e6:	5499      	strb	r1, [r3, r2]

        return HAL_TIMEOUT;
 80063e8:	2303      	movs	r3, #3
 80063ea:	e010      	b.n	800640e <SPI_WaitFifoStateUntilTimeout+0x132>
      }
      /* If Systick is disabled or not incremented, deactivate timeout to go in disable loop procedure */
      if (count == 0U)
 80063ec:	69bb      	ldr	r3, [r7, #24]
 80063ee:	2b00      	cmp	r3, #0
 80063f0:	d101      	bne.n	80063f6 <SPI_WaitFifoStateUntilTimeout+0x11a>
      {
        tmp_timeout = 0U;
 80063f2:	2300      	movs	r3, #0
 80063f4:	627b      	str	r3, [r7, #36]	@ 0x24
      }
      count--;
 80063f6:	69bb      	ldr	r3, [r7, #24]
 80063f8:	3b01      	subs	r3, #1
 80063fa:	61bb      	str	r3, [r7, #24]
  while ((hspi->Instance->SR & Fifo) != State)
 80063fc:	68fb      	ldr	r3, [r7, #12]
 80063fe:	681b      	ldr	r3, [r3, #0]
 8006400:	689b      	ldr	r3, [r3, #8]
 8006402:	68ba      	ldr	r2, [r7, #8]
 8006404:	4013      	ands	r3, r2
 8006406:	687a      	ldr	r2, [r7, #4]
 8006408:	429a      	cmp	r2, r3
 800640a:	d18e      	bne.n	800632a <SPI_WaitFifoStateUntilTimeout+0x4e>
    }
  }

  return HAL_OK;
 800640c:	2300      	movs	r3, #0
}
 800640e:	0018      	movs	r0, r3
 8006410:	46bd      	mov	sp, r7
 8006412:	b00a      	add	sp, #40	@ 0x28
 8006414:	bd80      	pop	{r7, pc}
 8006416:	46c0      	nop			@ (mov r8, r8)
 8006418:	20000000 	.word	0x20000000
 800641c:	ffffdfff 	.word	0xffffdfff

08006420 <SPI_EndRxTransaction>:
  * @param  Timeout Timeout duration
  * @param  Tickstart tick start value
  * @retval HAL status
  */
static HAL_StatusTypeDef SPI_EndRxTransaction(SPI_HandleTypeDef *hspi,  uint32_t Timeout, uint32_t Tickstart)
{
 8006420:	b580      	push	{r7, lr}
 8006422:	b086      	sub	sp, #24
 8006424:	af02      	add	r7, sp, #8
 8006426:	60f8      	str	r0, [r7, #12]
 8006428:	60b9      	str	r1, [r7, #8]
 800642a:	607a      	str	r2, [r7, #4]
  if ((hspi->Init.Mode == SPI_MODE_MASTER) && ((hspi->Init.Direction == SPI_DIRECTION_1LINE)
 800642c:	68fb      	ldr	r3, [r7, #12]
 800642e:	685a      	ldr	r2, [r3, #4]
 8006430:	2382      	movs	r3, #130	@ 0x82
 8006432:	005b      	lsls	r3, r3, #1
 8006434:	429a      	cmp	r2, r3
 8006436:	d113      	bne.n	8006460 <SPI_EndRxTransaction+0x40>
 8006438:	68fb      	ldr	r3, [r7, #12]
 800643a:	689a      	ldr	r2, [r3, #8]
 800643c:	2380      	movs	r3, #128	@ 0x80
 800643e:	021b      	lsls	r3, r3, #8
 8006440:	429a      	cmp	r2, r3
 8006442:	d005      	beq.n	8006450 <SPI_EndRxTransaction+0x30>
                                               || (hspi->Init.Direction == SPI_DIRECTION_2LINES_RXONLY)))
 8006444:	68fb      	ldr	r3, [r7, #12]
 8006446:	689a      	ldr	r2, [r3, #8]
 8006448:	2380      	movs	r3, #128	@ 0x80
 800644a:	00db      	lsls	r3, r3, #3
 800644c:	429a      	cmp	r2, r3
 800644e:	d107      	bne.n	8006460 <SPI_EndRxTransaction+0x40>
  {
    /* Disable SPI peripheral */
    __HAL_SPI_DISABLE(hspi);
 8006450:	68fb      	ldr	r3, [r7, #12]
 8006452:	681b      	ldr	r3, [r3, #0]
 8006454:	681a      	ldr	r2, [r3, #0]
 8006456:	68fb      	ldr	r3, [r7, #12]
 8006458:	681b      	ldr	r3, [r3, #0]
 800645a:	2140      	movs	r1, #64	@ 0x40
 800645c:	438a      	bics	r2, r1
 800645e:	601a      	str	r2, [r3, #0]
  }

  /* Control the BSY flag */
  if (SPI_WaitFlagStateUntilTimeout(hspi, SPI_FLAG_BSY, RESET, Timeout, Tickstart) != HAL_OK)
 8006460:	68ba      	ldr	r2, [r7, #8]
 8006462:	68f8      	ldr	r0, [r7, #12]
 8006464:	687b      	ldr	r3, [r7, #4]
 8006466:	9300      	str	r3, [sp, #0]
 8006468:	0013      	movs	r3, r2
 800646a:	2200      	movs	r2, #0
 800646c:	2180      	movs	r1, #128	@ 0x80
 800646e:	f7ff fea7 	bl	80061c0 <SPI_WaitFlagStateUntilTimeout>
 8006472:	1e03      	subs	r3, r0, #0
 8006474:	d007      	beq.n	8006486 <SPI_EndRxTransaction+0x66>
  {
    SET_BIT(hspi->ErrorCode, HAL_SPI_ERROR_FLAG);
 8006476:	68fb      	ldr	r3, [r7, #12]
 8006478:	6e1b      	ldr	r3, [r3, #96]	@ 0x60
 800647a:	2220      	movs	r2, #32
 800647c:	431a      	orrs	r2, r3
 800647e:	68fb      	ldr	r3, [r7, #12]
 8006480:	661a      	str	r2, [r3, #96]	@ 0x60
    return HAL_TIMEOUT;
 8006482:	2303      	movs	r3, #3
 8006484:	e026      	b.n	80064d4 <SPI_EndRxTransaction+0xb4>
  }

  if ((hspi->Init.Mode == SPI_MODE_MASTER) && ((hspi->Init.Direction == SPI_DIRECTION_1LINE)
 8006486:	68fb      	ldr	r3, [r7, #12]
 8006488:	685a      	ldr	r2, [r3, #4]
 800648a:	2382      	movs	r3, #130	@ 0x82
 800648c:	005b      	lsls	r3, r3, #1
 800648e:	429a      	cmp	r2, r3
 8006490:	d11f      	bne.n	80064d2 <SPI_EndRxTransaction+0xb2>
 8006492:	68fb      	ldr	r3, [r7, #12]
 8006494:	689a      	ldr	r2, [r3, #8]
 8006496:	2380      	movs	r3, #128	@ 0x80
 8006498:	021b      	lsls	r3, r3, #8
 800649a:	429a      	cmp	r2, r3
 800649c:	d005      	beq.n	80064aa <SPI_EndRxTransaction+0x8a>
                                               || (hspi->Init.Direction == SPI_DIRECTION_2LINES_RXONLY)))
 800649e:	68fb      	ldr	r3, [r7, #12]
 80064a0:	689a      	ldr	r2, [r3, #8]
 80064a2:	2380      	movs	r3, #128	@ 0x80
 80064a4:	00db      	lsls	r3, r3, #3
 80064a6:	429a      	cmp	r2, r3
 80064a8:	d113      	bne.n	80064d2 <SPI_EndRxTransaction+0xb2>
  {
    /* Empty the FRLVL fifo */
    if (SPI_WaitFifoStateUntilTimeout(hspi, SPI_FLAG_FRLVL, SPI_FRLVL_EMPTY, Timeout, Tickstart) != HAL_OK)
 80064aa:	68ba      	ldr	r2, [r7, #8]
 80064ac:	23c0      	movs	r3, #192	@ 0xc0
 80064ae:	00d9      	lsls	r1, r3, #3
 80064b0:	68f8      	ldr	r0, [r7, #12]
 80064b2:	687b      	ldr	r3, [r7, #4]
 80064b4:	9300      	str	r3, [sp, #0]
 80064b6:	0013      	movs	r3, r2
 80064b8:	2200      	movs	r2, #0
 80064ba:	f7ff ff0f 	bl	80062dc <SPI_WaitFifoStateUntilTimeout>
 80064be:	1e03      	subs	r3, r0, #0
 80064c0:	d007      	beq.n	80064d2 <SPI_EndRxTransaction+0xb2>
    {
      SET_BIT(hspi->ErrorCode, HAL_SPI_ERROR_FLAG);
 80064c2:	68fb      	ldr	r3, [r7, #12]
 80064c4:	6e1b      	ldr	r3, [r3, #96]	@ 0x60
 80064c6:	2220      	movs	r2, #32
 80064c8:	431a      	orrs	r2, r3
 80064ca:	68fb      	ldr	r3, [r7, #12]
 80064cc:	661a      	str	r2, [r3, #96]	@ 0x60
      return HAL_TIMEOUT;
 80064ce:	2303      	movs	r3, #3
 80064d0:	e000      	b.n	80064d4 <SPI_EndRxTransaction+0xb4>
    }
  }
  return HAL_OK;
 80064d2:	2300      	movs	r3, #0
}
 80064d4:	0018      	movs	r0, r3
 80064d6:	46bd      	mov	sp, r7
 80064d8:	b004      	add	sp, #16
 80064da:	bd80      	pop	{r7, pc}

080064dc <SPI_EndRxTxTransaction>:
  * @param  Timeout Timeout duration
  * @param  Tickstart tick start value
  * @retval HAL status
  */
static HAL_StatusTypeDef SPI_EndRxTxTransaction(SPI_HandleTypeDef *hspi, uint32_t Timeout, uint32_t Tickstart)
{
 80064dc:	b580      	push	{r7, lr}
 80064de:	b086      	sub	sp, #24
 80064e0:	af02      	add	r7, sp, #8
 80064e2:	60f8      	str	r0, [r7, #12]
 80064e4:	60b9      	str	r1, [r7, #8]
 80064e6:	607a      	str	r2, [r7, #4]
  /* Control if the TX fifo is empty */
  if (SPI_WaitFifoStateUntilTimeout(hspi, SPI_FLAG_FTLVL, SPI_FTLVL_EMPTY, Timeout, Tickstart) != HAL_OK)
 80064e8:	68ba      	ldr	r2, [r7, #8]
 80064ea:	23c0      	movs	r3, #192	@ 0xc0
 80064ec:	0159      	lsls	r1, r3, #5
 80064ee:	68f8      	ldr	r0, [r7, #12]
 80064f0:	687b      	ldr	r3, [r7, #4]
 80064f2:	9300      	str	r3, [sp, #0]
 80064f4:	0013      	movs	r3, r2
 80064f6:	2200      	movs	r2, #0
 80064f8:	f7ff fef0 	bl	80062dc <SPI_WaitFifoStateUntilTimeout>
 80064fc:	1e03      	subs	r3, r0, #0
 80064fe:	d007      	beq.n	8006510 <SPI_EndRxTxTransaction+0x34>
  {
    SET_BIT(hspi->ErrorCode, HAL_SPI_ERROR_FLAG);
 8006500:	68fb      	ldr	r3, [r7, #12]
 8006502:	6e1b      	ldr	r3, [r3, #96]	@ 0x60
 8006504:	2220      	movs	r2, #32
 8006506:	431a      	orrs	r2, r3
 8006508:	68fb      	ldr	r3, [r7, #12]
 800650a:	661a      	str	r2, [r3, #96]	@ 0x60
    return HAL_TIMEOUT;
 800650c:	2303      	movs	r3, #3
 800650e:	e027      	b.n	8006560 <SPI_EndRxTxTransaction+0x84>
  }

  /* Control the BSY flag */
  if (SPI_WaitFlagStateUntilTimeout(hspi, SPI_FLAG_BSY, RESET, Timeout, Tickstart) != HAL_OK)
 8006510:	68ba      	ldr	r2, [r7, #8]
 8006512:	68f8      	ldr	r0, [r7, #12]
 8006514:	687b      	ldr	r3, [r7, #4]
 8006516:	9300      	str	r3, [sp, #0]
 8006518:	0013      	movs	r3, r2
 800651a:	2200      	movs	r2, #0
 800651c:	2180      	movs	r1, #128	@ 0x80
 800651e:	f7ff fe4f 	bl	80061c0 <SPI_WaitFlagStateUntilTimeout>
 8006522:	1e03      	subs	r3, r0, #0
 8006524:	d007      	beq.n	8006536 <SPI_EndRxTxTransaction+0x5a>
  {
    SET_BIT(hspi->ErrorCode, HAL_SPI_ERROR_FLAG);
 8006526:	68fb      	ldr	r3, [r7, #12]
 8006528:	6e1b      	ldr	r3, [r3, #96]	@ 0x60
 800652a:	2220      	movs	r2, #32
 800652c:	431a      	orrs	r2, r3
 800652e:	68fb      	ldr	r3, [r7, #12]
 8006530:	661a      	str	r2, [r3, #96]	@ 0x60
    return HAL_TIMEOUT;
 8006532:	2303      	movs	r3, #3
 8006534:	e014      	b.n	8006560 <SPI_EndRxTxTransaction+0x84>
  }

  /* Control if the RX fifo is empty */
  if (SPI_WaitFifoStateUntilTimeout(hspi, SPI_FLAG_FRLVL, SPI_FRLVL_EMPTY, Timeout, Tickstart) != HAL_OK)
 8006536:	68ba      	ldr	r2, [r7, #8]
 8006538:	23c0      	movs	r3, #192	@ 0xc0
 800653a:	00d9      	lsls	r1, r3, #3
 800653c:	68f8      	ldr	r0, [r7, #12]
 800653e:	687b      	ldr	r3, [r7, #4]
 8006540:	9300      	str	r3, [sp, #0]
 8006542:	0013      	movs	r3, r2
 8006544:	2200      	movs	r2, #0
 8006546:	f7ff fec9 	bl	80062dc <SPI_WaitFifoStateUntilTimeout>
 800654a:	1e03      	subs	r3, r0, #0
 800654c:	d007      	beq.n	800655e <SPI_EndRxTxTransaction+0x82>
  {
    SET_BIT(hspi->ErrorCode, HAL_SPI_ERROR_FLAG);
 800654e:	68fb      	ldr	r3, [r7, #12]
 8006550:	6e1b      	ldr	r3, [r3, #96]	@ 0x60
 8006552:	2220      	movs	r2, #32
 8006554:	431a      	orrs	r2, r3
 8006556:	68fb      	ldr	r3, [r7, #12]
 8006558:	661a      	str	r2, [r3, #96]	@ 0x60
    return HAL_TIMEOUT;
 800655a:	2303      	movs	r3, #3
 800655c:	e000      	b.n	8006560 <SPI_EndRxTxTransaction+0x84>
  }

  return HAL_OK;
 800655e:	2300      	movs	r3, #0
}
 8006560:	0018      	movs	r0, r3
 8006562:	46bd      	mov	sp, r7
 8006564:	b004      	add	sp, #16
 8006566:	bd80      	pop	{r7, pc}

08006568 <HAL_TIM_Base_Init>:
  *         Ex: call @ref HAL_TIM_Base_DeInit() before HAL_TIM_Base_Init()
  * @param  htim TIM Base handle
  * @retval HAL status
  */
HAL_StatusTypeDef HAL_TIM_Base_Init(TIM_HandleTypeDef *htim)
{
 8006568:	b580      	push	{r7, lr}
 800656a:	b082      	sub	sp, #8
 800656c:	af00      	add	r7, sp, #0
 800656e:	6078      	str	r0, [r7, #4]
  /* Check the TIM handle allocation */
  if (htim == NULL)
 8006570:	687b      	ldr	r3, [r7, #4]
 8006572:	2b00      	cmp	r3, #0
 8006574:	d101      	bne.n	800657a <HAL_TIM_Base_Init+0x12>
  {
    return HAL_ERROR;
 8006576:	2301      	movs	r3, #1
 8006578:	e042      	b.n	8006600 <HAL_TIM_Base_Init+0x98>
  assert_param(IS_TIM_COUNTER_MODE(htim->Init.CounterMode));
  assert_param(IS_TIM_CLOCKDIVISION_DIV(htim->Init.ClockDivision));
  assert_param(IS_TIM_PERIOD(htim, htim->Init.Period));
  assert_param(IS_TIM_AUTORELOAD_PRELOAD(htim->Init.AutoReloadPreload));

  if (htim->State == HAL_TIM_STATE_RESET)
 800657a:	687b      	ldr	r3, [r7, #4]
 800657c:	223d      	movs	r2, #61	@ 0x3d
 800657e:	5c9b      	ldrb	r3, [r3, r2]
 8006580:	b2db      	uxtb	r3, r3
 8006582:	2b00      	cmp	r3, #0
 8006584:	d107      	bne.n	8006596 <HAL_TIM_Base_Init+0x2e>
  {
    /* Allocate lock resource and initialize it */
    htim->Lock = HAL_UNLOCKED;
 8006586:	687b      	ldr	r3, [r7, #4]
 8006588:	223c      	movs	r2, #60	@ 0x3c
 800658a:	2100      	movs	r1, #0
 800658c:	5499      	strb	r1, [r3, r2]
    }
    /* Init the low level hardware : GPIO, CLOCK, NVIC */
    htim->Base_MspInitCallback(htim);
#else
    /* Init the low level hardware : GPIO, CLOCK, NVIC */
    HAL_TIM_Base_MspInit(htim);
 800658e:	687b      	ldr	r3, [r7, #4]
 8006590:	0018      	movs	r0, r3
 8006592:	f7fd fa5d 	bl	8003a50 <HAL_TIM_Base_MspInit>
#endif /* USE_HAL_TIM_REGISTER_CALLBACKS */
  }

  /* Set the TIM state */
  htim->State = HAL_TIM_STATE_BUSY;
 8006596:	687b      	ldr	r3, [r7, #4]
 8006598:	223d      	movs	r2, #61	@ 0x3d
 800659a:	2102      	movs	r1, #2
 800659c:	5499      	strb	r1, [r3, r2]

  /* Set the Time Base configuration */
  TIM_Base_SetConfig(htim->Instance, &htim->Init);
 800659e:	687b      	ldr	r3, [r7, #4]
 80065a0:	681a      	ldr	r2, [r3, #0]
 80065a2:	687b      	ldr	r3, [r7, #4]
 80065a4:	3304      	adds	r3, #4
 80065a6:	0019      	movs	r1, r3
 80065a8:	0010      	movs	r0, r2
 80065aa:	f000 fa17 	bl	80069dc <TIM_Base_SetConfig>

  /* Initialize the DMA burst operation state */
  htim->DMABurstState = HAL_DMA_BURST_STATE_READY;
 80065ae:	687b      	ldr	r3, [r7, #4]
 80065b0:	2246      	movs	r2, #70	@ 0x46
 80065b2:	2101      	movs	r1, #1
 80065b4:	5499      	strb	r1, [r3, r2]

  /* Initialize the TIM channels state */
  TIM_CHANNEL_STATE_SET_ALL(htim, HAL_TIM_CHANNEL_STATE_READY);
 80065b6:	687b      	ldr	r3, [r7, #4]
 80065b8:	223e      	movs	r2, #62	@ 0x3e
 80065ba:	2101      	movs	r1, #1
 80065bc:	5499      	strb	r1, [r3, r2]
 80065be:	687b      	ldr	r3, [r7, #4]
 80065c0:	223f      	movs	r2, #63	@ 0x3f
 80065c2:	2101      	movs	r1, #1
 80065c4:	5499      	strb	r1, [r3, r2]
 80065c6:	687b      	ldr	r3, [r7, #4]
 80065c8:	2240      	movs	r2, #64	@ 0x40
 80065ca:	2101      	movs	r1, #1
 80065cc:	5499      	strb	r1, [r3, r2]
 80065ce:	687b      	ldr	r3, [r7, #4]
 80065d0:	2241      	movs	r2, #65	@ 0x41
 80065d2:	2101      	movs	r1, #1
 80065d4:	5499      	strb	r1, [r3, r2]
  TIM_CHANNEL_N_STATE_SET_ALL(htim, HAL_TIM_CHANNEL_STATE_READY);
 80065d6:	687b      	ldr	r3, [r7, #4]
 80065d8:	2242      	movs	r2, #66	@ 0x42
 80065da:	2101      	movs	r1, #1
 80065dc:	5499      	strb	r1, [r3, r2]
 80065de:	687b      	ldr	r3, [r7, #4]
 80065e0:	2243      	movs	r2, #67	@ 0x43
 80065e2:	2101      	movs	r1, #1
 80065e4:	5499      	strb	r1, [r3, r2]
 80065e6:	687b      	ldr	r3, [r7, #4]
 80065e8:	2244      	movs	r2, #68	@ 0x44
 80065ea:	2101      	movs	r1, #1
 80065ec:	5499      	strb	r1, [r3, r2]
 80065ee:	687b      	ldr	r3, [r7, #4]
 80065f0:	2245      	movs	r2, #69	@ 0x45
 80065f2:	2101      	movs	r1, #1
 80065f4:	5499      	strb	r1, [r3, r2]

  /* Initialize the TIM state*/
  htim->State = HAL_TIM_STATE_READY;
 80065f6:	687b      	ldr	r3, [r7, #4]
 80065f8:	223d      	movs	r2, #61	@ 0x3d
 80065fa:	2101      	movs	r1, #1
 80065fc:	5499      	strb	r1, [r3, r2]

  return HAL_OK;
 80065fe:	2300      	movs	r3, #0
}
 8006600:	0018      	movs	r0, r3
 8006602:	46bd      	mov	sp, r7
 8006604:	b002      	add	sp, #8
 8006606:	bd80      	pop	{r7, pc}

08006608 <HAL_TIM_IRQHandler>:
  * @brief  This function handles TIM interrupts requests.
  * @param  htim TIM  handle
  * @retval None
  */
void HAL_TIM_IRQHandler(TIM_HandleTypeDef *htim)
{
 8006608:	b580      	push	{r7, lr}
 800660a:	b084      	sub	sp, #16
 800660c:	af00      	add	r7, sp, #0
 800660e:	6078      	str	r0, [r7, #4]
  uint32_t itsource = htim->Instance->DIER;
 8006610:	687b      	ldr	r3, [r7, #4]
 8006612:	681b      	ldr	r3, [r3, #0]
 8006614:	68db      	ldr	r3, [r3, #12]
 8006616:	60fb      	str	r3, [r7, #12]
  uint32_t itflag   = htim->Instance->SR;
 8006618:	687b      	ldr	r3, [r7, #4]
 800661a:	681b      	ldr	r3, [r3, #0]
 800661c:	691b      	ldr	r3, [r3, #16]
 800661e:	60bb      	str	r3, [r7, #8]

  /* Capture compare 1 event */
  if ((itflag & (TIM_FLAG_CC1)) == (TIM_FLAG_CC1))
 8006620:	68bb      	ldr	r3, [r7, #8]
 8006622:	2202      	movs	r2, #2
 8006624:	4013      	ands	r3, r2
 8006626:	d021      	beq.n	800666c <HAL_TIM_IRQHandler+0x64>
  {
    if ((itsource & (TIM_IT_CC1)) == (TIM_IT_CC1))
 8006628:	68fb      	ldr	r3, [r7, #12]
 800662a:	2202      	movs	r2, #2
 800662c:	4013      	ands	r3, r2
 800662e:	d01d      	beq.n	800666c <HAL_TIM_IRQHandler+0x64>
    {
      {
        __HAL_TIM_CLEAR_FLAG(htim, TIM_FLAG_CC1);
 8006630:	687b      	ldr	r3, [r7, #4]
 8006632:	681b      	ldr	r3, [r3, #0]
 8006634:	2203      	movs	r2, #3
 8006636:	4252      	negs	r2, r2
 8006638:	611a      	str	r2, [r3, #16]
        htim->Channel = HAL_TIM_ACTIVE_CHANNEL_1;
 800663a:	687b      	ldr	r3, [r7, #4]
 800663c:	2201      	movs	r2, #1
 800663e:	771a      	strb	r2, [r3, #28]

        /* Input capture event */
        if ((htim->Instance->CCMR1 & TIM_CCMR1_CC1S) != 0x00U)
 8006640:	687b      	ldr	r3, [r7, #4]
 8006642:	681b      	ldr	r3, [r3, #0]
 8006644:	699b      	ldr	r3, [r3, #24]
 8006646:	2203      	movs	r2, #3
 8006648:	4013      	ands	r3, r2
 800664a:	d004      	beq.n	8006656 <HAL_TIM_IRQHandler+0x4e>
        {
#if (USE_HAL_TIM_REGISTER_CALLBACKS == 1)
          htim->IC_CaptureCallback(htim);
#else
          HAL_TIM_IC_CaptureCallback(htim);
 800664c:	687b      	ldr	r3, [r7, #4]
 800664e:	0018      	movs	r0, r3
 8006650:	f000 f9ac 	bl	80069ac <HAL_TIM_IC_CaptureCallback>
 8006654:	e007      	b.n	8006666 <HAL_TIM_IRQHandler+0x5e>
        {
#if (USE_HAL_TIM_REGISTER_CALLBACKS == 1)
          htim->OC_DelayElapsedCallback(htim);
          htim->PWM_PulseFinishedCallback(htim);
#else
          HAL_TIM_OC_DelayElapsedCallback(htim);
 8006656:	687b      	ldr	r3, [r7, #4]
 8006658:	0018      	movs	r0, r3
 800665a:	f000 f99f 	bl	800699c <HAL_TIM_OC_DelayElapsedCallback>
          HAL_TIM_PWM_PulseFinishedCallback(htim);
 800665e:	687b      	ldr	r3, [r7, #4]
 8006660:	0018      	movs	r0, r3
 8006662:	f000 f9ab 	bl	80069bc <HAL_TIM_PWM_PulseFinishedCallback>
#endif /* USE_HAL_TIM_REGISTER_CALLBACKS */
        }
        htim->Channel = HAL_TIM_ACTIVE_CHANNEL_CLEARED;
 8006666:	687b      	ldr	r3, [r7, #4]
 8006668:	2200      	movs	r2, #0
 800666a:	771a      	strb	r2, [r3, #28]
      }
    }
  }
  /* Capture compare 2 event */
  if ((itflag & (TIM_FLAG_CC2)) == (TIM_FLAG_CC2))
 800666c:	68bb      	ldr	r3, [r7, #8]
 800666e:	2204      	movs	r2, #4
 8006670:	4013      	ands	r3, r2
 8006672:	d022      	beq.n	80066ba <HAL_TIM_IRQHandler+0xb2>
  {
    if ((itsource & (TIM_IT_CC2)) == (TIM_IT_CC2))
 8006674:	68fb      	ldr	r3, [r7, #12]
 8006676:	2204      	movs	r2, #4
 8006678:	4013      	ands	r3, r2
 800667a:	d01e      	beq.n	80066ba <HAL_TIM_IRQHandler+0xb2>
    {
      __HAL_TIM_CLEAR_FLAG(htim, TIM_FLAG_CC2);
 800667c:	687b      	ldr	r3, [r7, #4]
 800667e:	681b      	ldr	r3, [r3, #0]
 8006680:	2205      	movs	r2, #5
 8006682:	4252      	negs	r2, r2
 8006684:	611a      	str	r2, [r3, #16]
      htim->Channel = HAL_TIM_ACTIVE_CHANNEL_2;
 8006686:	687b      	ldr	r3, [r7, #4]
 8006688:	2202      	movs	r2, #2
 800668a:	771a      	strb	r2, [r3, #28]
      /* Input capture event */
      if ((htim->Instance->CCMR1 & TIM_CCMR1_CC2S) != 0x00U)
 800668c:	687b      	ldr	r3, [r7, #4]
 800668e:	681b      	ldr	r3, [r3, #0]
 8006690:	699a      	ldr	r2, [r3, #24]
 8006692:	23c0      	movs	r3, #192	@ 0xc0
 8006694:	009b      	lsls	r3, r3, #2
 8006696:	4013      	ands	r3, r2
 8006698:	d004      	beq.n	80066a4 <HAL_TIM_IRQHandler+0x9c>
      {
#if (USE_HAL_TIM_REGISTER_CALLBACKS == 1)
        htim->IC_CaptureCallback(htim);
#else
        HAL_TIM_IC_CaptureCallback(htim);
 800669a:	687b      	ldr	r3, [r7, #4]
 800669c:	0018      	movs	r0, r3
 800669e:	f000 f985 	bl	80069ac <HAL_TIM_IC_CaptureCallback>
 80066a2:	e007      	b.n	80066b4 <HAL_TIM_IRQHandler+0xac>
      {
#if (USE_HAL_TIM_REGISTER_CALLBACKS == 1)
        htim->OC_DelayElapsedCallback(htim);
        htim->PWM_PulseFinishedCallback(htim);
#else
        HAL_TIM_OC_DelayElapsedCallback(htim);
 80066a4:	687b      	ldr	r3, [r7, #4]
 80066a6:	0018      	movs	r0, r3
 80066a8:	f000 f978 	bl	800699c <HAL_TIM_OC_DelayElapsedCallback>
        HAL_TIM_PWM_PulseFinishedCallback(htim);
 80066ac:	687b      	ldr	r3, [r7, #4]
 80066ae:	0018      	movs	r0, r3
 80066b0:	f000 f984 	bl	80069bc <HAL_TIM_PWM_PulseFinishedCallback>
#endif /* USE_HAL_TIM_REGISTER_CALLBACKS */
      }
      htim->Channel = HAL_TIM_ACTIVE_CHANNEL_CLEARED;
 80066b4:	687b      	ldr	r3, [r7, #4]
 80066b6:	2200      	movs	r2, #0
 80066b8:	771a      	strb	r2, [r3, #28]
    }
  }
  /* Capture compare 3 event */
  if ((itflag & (TIM_FLAG_CC3)) == (TIM_FLAG_CC3))
 80066ba:	68bb      	ldr	r3, [r7, #8]
 80066bc:	2208      	movs	r2, #8
 80066be:	4013      	ands	r3, r2
 80066c0:	d021      	beq.n	8006706 <HAL_TIM_IRQHandler+0xfe>
  {
    if ((itsource & (TIM_IT_CC3)) == (TIM_IT_CC3))
 80066c2:	68fb      	ldr	r3, [r7, #12]
 80066c4:	2208      	movs	r2, #8
 80066c6:	4013      	ands	r3, r2
 80066c8:	d01d      	beq.n	8006706 <HAL_TIM_IRQHandler+0xfe>
    {
      __HAL_TIM_CLEAR_FLAG(htim, TIM_FLAG_CC3);
 80066ca:	687b      	ldr	r3, [r7, #4]
 80066cc:	681b      	ldr	r3, [r3, #0]
 80066ce:	2209      	movs	r2, #9
 80066d0:	4252      	negs	r2, r2
 80066d2:	611a      	str	r2, [r3, #16]
      htim->Channel = HAL_TIM_ACTIVE_CHANNEL_3;
 80066d4:	687b      	ldr	r3, [r7, #4]
 80066d6:	2204      	movs	r2, #4
 80066d8:	771a      	strb	r2, [r3, #28]
      /* Input capture event */
      if ((htim->Instance->CCMR2 & TIM_CCMR2_CC3S) != 0x00U)
 80066da:	687b      	ldr	r3, [r7, #4]
 80066dc:	681b      	ldr	r3, [r3, #0]
 80066de:	69db      	ldr	r3, [r3, #28]
 80066e0:	2203      	movs	r2, #3
 80066e2:	4013      	ands	r3, r2
 80066e4:	d004      	beq.n	80066f0 <HAL_TIM_IRQHandler+0xe8>
      {
#if (USE_HAL_TIM_REGISTER_CALLBACKS == 1)
        htim->IC_CaptureCallback(htim);
#else
        HAL_TIM_IC_CaptureCallback(htim);
 80066e6:	687b      	ldr	r3, [r7, #4]
 80066e8:	0018      	movs	r0, r3
 80066ea:	f000 f95f 	bl	80069ac <HAL_TIM_IC_CaptureCallback>
 80066ee:	e007      	b.n	8006700 <HAL_TIM_IRQHandler+0xf8>
      {
#if (USE_HAL_TIM_REGISTER_CALLBACKS == 1)
        htim->OC_DelayElapsedCallback(htim);
        htim->PWM_PulseFinishedCallback(htim);
#else
        HAL_TIM_OC_DelayElapsedCallback(htim);
 80066f0:	687b      	ldr	r3, [r7, #4]
 80066f2:	0018      	movs	r0, r3
 80066f4:	f000 f952 	bl	800699c <HAL_TIM_OC_DelayElapsedCallback>
        HAL_TIM_PWM_PulseFinishedCallback(htim);
 80066f8:	687b      	ldr	r3, [r7, #4]
 80066fa:	0018      	movs	r0, r3
 80066fc:	f000 f95e 	bl	80069bc <HAL_TIM_PWM_PulseFinishedCallback>
#endif /* USE_HAL_TIM_REGISTER_CALLBACKS */
      }
      htim->Channel = HAL_TIM_ACTIVE_CHANNEL_CLEARED;
 8006700:	687b      	ldr	r3, [r7, #4]
 8006702:	2200      	movs	r2, #0
 8006704:	771a      	strb	r2, [r3, #28]
    }
  }
  /* Capture compare 4 event */
  if ((itflag & (TIM_FLAG_CC4)) == (TIM_FLAG_CC4))
 8006706:	68bb      	ldr	r3, [r7, #8]
 8006708:	2210      	movs	r2, #16
 800670a:	4013      	ands	r3, r2
 800670c:	d022      	beq.n	8006754 <HAL_TIM_IRQHandler+0x14c>
  {
    if ((itsource & (TIM_IT_CC4)) == (TIM_IT_CC4))
 800670e:	68fb      	ldr	r3, [r7, #12]
 8006710:	2210      	movs	r2, #16
 8006712:	4013      	ands	r3, r2
 8006714:	d01e      	beq.n	8006754 <HAL_TIM_IRQHandler+0x14c>
    {
      __HAL_TIM_CLEAR_FLAG(htim, TIM_FLAG_CC4);
 8006716:	687b      	ldr	r3, [r7, #4]
 8006718:	681b      	ldr	r3, [r3, #0]
 800671a:	2211      	movs	r2, #17
 800671c:	4252      	negs	r2, r2
 800671e:	611a      	str	r2, [r3, #16]
      htim->Channel = HAL_TIM_ACTIVE_CHANNEL_4;
 8006720:	687b      	ldr	r3, [r7, #4]
 8006722:	2208      	movs	r2, #8
 8006724:	771a      	strb	r2, [r3, #28]
      /* Input capture event */
      if ((htim->Instance->CCMR2 & TIM_CCMR2_CC4S) != 0x00U)
 8006726:	687b      	ldr	r3, [r7, #4]
 8006728:	681b      	ldr	r3, [r3, #0]
 800672a:	69da      	ldr	r2, [r3, #28]
 800672c:	23c0      	movs	r3, #192	@ 0xc0
 800672e:	009b      	lsls	r3, r3, #2
 8006730:	4013      	ands	r3, r2
 8006732:	d004      	beq.n	800673e <HAL_TIM_IRQHandler+0x136>
      {
#if (USE_HAL_TIM_REGISTER_CALLBACKS == 1)
        htim->IC_CaptureCallback(htim);
#else
        HAL_TIM_IC_CaptureCallback(htim);
 8006734:	687b      	ldr	r3, [r7, #4]
 8006736:	0018      	movs	r0, r3
 8006738:	f000 f938 	bl	80069ac <HAL_TIM_IC_CaptureCallback>
 800673c:	e007      	b.n	800674e <HAL_TIM_IRQHandler+0x146>
      {
#if (USE_HAL_TIM_REGISTER_CALLBACKS == 1)
        htim->OC_DelayElapsedCallback(htim);
        htim->PWM_PulseFinishedCallback(htim);
#else
        HAL_TIM_OC_DelayElapsedCallback(htim);
 800673e:	687b      	ldr	r3, [r7, #4]
 8006740:	0018      	movs	r0, r3
 8006742:	f000 f92b 	bl	800699c <HAL_TIM_OC_DelayElapsedCallback>
        HAL_TIM_PWM_PulseFinishedCallback(htim);
 8006746:	687b      	ldr	r3, [r7, #4]
 8006748:	0018      	movs	r0, r3
 800674a:	f000 f937 	bl	80069bc <HAL_TIM_PWM_PulseFinishedCallback>
#endif /* USE_HAL_TIM_REGISTER_CALLBACKS */
      }
      htim->Channel = HAL_TIM_ACTIVE_CHANNEL_CLEARED;
 800674e:	687b      	ldr	r3, [r7, #4]
 8006750:	2200      	movs	r2, #0
 8006752:	771a      	strb	r2, [r3, #28]
    }
  }
  /* TIM Update event */
  if ((itflag & (TIM_FLAG_UPDATE)) == (TIM_FLAG_UPDATE))
 8006754:	68bb      	ldr	r3, [r7, #8]
 8006756:	2201      	movs	r2, #1
 8006758:	4013      	ands	r3, r2
 800675a:	d00c      	beq.n	8006776 <HAL_TIM_IRQHandler+0x16e>
  {
    if ((itsource & (TIM_IT_UPDATE)) == (TIM_IT_UPDATE))
 800675c:	68fb      	ldr	r3, [r7, #12]
 800675e:	2201      	movs	r2, #1
 8006760:	4013      	ands	r3, r2
 8006762:	d008      	beq.n	8006776 <HAL_TIM_IRQHandler+0x16e>
    {
      __HAL_TIM_CLEAR_FLAG(htim, TIM_FLAG_UPDATE);
 8006764:	687b      	ldr	r3, [r7, #4]
 8006766:	681b      	ldr	r3, [r3, #0]
 8006768:	2202      	movs	r2, #2
 800676a:	4252      	negs	r2, r2
 800676c:	611a      	str	r2, [r3, #16]
#if (USE_HAL_TIM_REGISTER_CALLBACKS == 1)
      htim->PeriodElapsedCallback(htim);
#else
      HAL_TIM_PeriodElapsedCallback(htim);
 800676e:	687b      	ldr	r3, [r7, #4]
 8006770:	0018      	movs	r0, r3
 8006772:	f000 f90b 	bl	800698c <HAL_TIM_PeriodElapsedCallback>
#endif /* USE_HAL_TIM_REGISTER_CALLBACKS */
    }
  }
  /* TIM Break input event */
  if ((itflag & (TIM_FLAG_BREAK)) == (TIM_FLAG_BREAK))
 8006776:	68bb      	ldr	r3, [r7, #8]
 8006778:	2280      	movs	r2, #128	@ 0x80
 800677a:	4013      	ands	r3, r2
 800677c:	d00c      	beq.n	8006798 <HAL_TIM_IRQHandler+0x190>
  {
    if ((itsource & (TIM_IT_BREAK)) == (TIM_IT_BREAK))
 800677e:	68fb      	ldr	r3, [r7, #12]
 8006780:	2280      	movs	r2, #128	@ 0x80
 8006782:	4013      	ands	r3, r2
 8006784:	d008      	beq.n	8006798 <HAL_TIM_IRQHandler+0x190>
    {
      __HAL_TIM_CLEAR_FLAG(htim, TIM_FLAG_BREAK);
 8006786:	687b      	ldr	r3, [r7, #4]
 8006788:	681b      	ldr	r3, [r3, #0]
 800678a:	2281      	movs	r2, #129	@ 0x81
 800678c:	4252      	negs	r2, r2
 800678e:	611a      	str	r2, [r3, #16]
#if (USE_HAL_TIM_REGISTER_CALLBACKS == 1)
      htim->BreakCallback(htim);
#else
      HAL_TIMEx_BreakCallback(htim);
 8006790:	687b      	ldr	r3, [r7, #4]
 8006792:	0018      	movs	r0, r3
 8006794:	f000 faa0 	bl	8006cd8 <HAL_TIMEx_BreakCallback>
#endif /* USE_HAL_TIM_REGISTER_CALLBACKS */
    }
  }
  /* TIM Trigger detection event */
  if ((itflag & (TIM_FLAG_TRIGGER)) == (TIM_FLAG_TRIGGER))
 8006798:	68bb      	ldr	r3, [r7, #8]
 800679a:	2240      	movs	r2, #64	@ 0x40
 800679c:	4013      	ands	r3, r2
 800679e:	d00c      	beq.n	80067ba <HAL_TIM_IRQHandler+0x1b2>
  {
    if ((itsource & (TIM_IT_TRIGGER)) == (TIM_IT_TRIGGER))
 80067a0:	68fb      	ldr	r3, [r7, #12]
 80067a2:	2240      	movs	r2, #64	@ 0x40
 80067a4:	4013      	ands	r3, r2
 80067a6:	d008      	beq.n	80067ba <HAL_TIM_IRQHandler+0x1b2>
    {
      __HAL_TIM_CLEAR_FLAG(htim, TIM_FLAG_TRIGGER);
 80067a8:	687b      	ldr	r3, [r7, #4]
 80067aa:	681b      	ldr	r3, [r3, #0]
 80067ac:	2241      	movs	r2, #65	@ 0x41
 80067ae:	4252      	negs	r2, r2
 80067b0:	611a      	str	r2, [r3, #16]
#if (USE_HAL_TIM_REGISTER_CALLBACKS == 1)
      htim->TriggerCallback(htim);
#else
      HAL_TIM_TriggerCallback(htim);
 80067b2:	687b      	ldr	r3, [r7, #4]
 80067b4:	0018      	movs	r0, r3
 80067b6:	f000 f909 	bl	80069cc <HAL_TIM_TriggerCallback>
#endif /* USE_HAL_TIM_REGISTER_CALLBACKS */
    }
  }
  /* TIM commutation event */
  if ((itflag & (TIM_FLAG_COM)) == (TIM_FLAG_COM))
 80067ba:	68bb      	ldr	r3, [r7, #8]
 80067bc:	2220      	movs	r2, #32
 80067be:	4013      	ands	r3, r2
 80067c0:	d00c      	beq.n	80067dc <HAL_TIM_IRQHandler+0x1d4>
  {
    if ((itsource & (TIM_IT_COM)) == (TIM_IT_COM))
 80067c2:	68fb      	ldr	r3, [r7, #12]
 80067c4:	2220      	movs	r2, #32
 80067c6:	4013      	ands	r3, r2
 80067c8:	d008      	beq.n	80067dc <HAL_TIM_IRQHandler+0x1d4>
    {
      __HAL_TIM_CLEAR_FLAG(htim, TIM_FLAG_COM);
 80067ca:	687b      	ldr	r3, [r7, #4]
 80067cc:	681b      	ldr	r3, [r3, #0]
 80067ce:	2221      	movs	r2, #33	@ 0x21
 80067d0:	4252      	negs	r2, r2
 80067d2:	611a      	str	r2, [r3, #16]
#if (USE_HAL_TIM_REGISTER_CALLBACKS == 1)
      htim->CommutationCallback(htim);
#else
      HAL_TIMEx_CommutCallback(htim);
 80067d4:	687b      	ldr	r3, [r7, #4]
 80067d6:	0018      	movs	r0, r3
 80067d8:	f000 fa76 	bl	8006cc8 <HAL_TIMEx_CommutCallback>
#endif /* USE_HAL_TIM_REGISTER_CALLBACKS */
    }
  }
}
 80067dc:	46c0      	nop			@ (mov r8, r8)
 80067de:	46bd      	mov	sp, r7
 80067e0:	b004      	add	sp, #16
 80067e2:	bd80      	pop	{r7, pc}

080067e4 <HAL_TIM_ConfigClockSource>:
  * @param  sClockSourceConfig pointer to a TIM_ClockConfigTypeDef structure that
  *         contains the clock source information for the TIM peripheral.
  * @retval HAL status
  */
HAL_StatusTypeDef HAL_TIM_ConfigClockSource(TIM_HandleTypeDef *htim, const TIM_ClockConfigTypeDef *sClockSourceConfig)
{
 80067e4:	b580      	push	{r7, lr}
 80067e6:	b084      	sub	sp, #16
 80067e8:	af00      	add	r7, sp, #0
 80067ea:	6078      	str	r0, [r7, #4]
 80067ec:	6039      	str	r1, [r7, #0]
  HAL_StatusTypeDef status = HAL_OK;
 80067ee:	230f      	movs	r3, #15
 80067f0:	18fb      	adds	r3, r7, r3
 80067f2:	2200      	movs	r2, #0
 80067f4:	701a      	strb	r2, [r3, #0]
  uint32_t tmpsmcr;

  /* Process Locked */
  __HAL_LOCK(htim);
 80067f6:	687b      	ldr	r3, [r7, #4]
 80067f8:	223c      	movs	r2, #60	@ 0x3c
 80067fa:	5c9b      	ldrb	r3, [r3, r2]
 80067fc:	2b01      	cmp	r3, #1
 80067fe:	d101      	bne.n	8006804 <HAL_TIM_ConfigClockSource+0x20>
 8006800:	2302      	movs	r3, #2
 8006802:	e0bc      	b.n	800697e <HAL_TIM_ConfigClockSource+0x19a>
 8006804:	687b      	ldr	r3, [r7, #4]
 8006806:	223c      	movs	r2, #60	@ 0x3c
 8006808:	2101      	movs	r1, #1
 800680a:	5499      	strb	r1, [r3, r2]

  htim->State = HAL_TIM_STATE_BUSY;
 800680c:	687b      	ldr	r3, [r7, #4]
 800680e:	223d      	movs	r2, #61	@ 0x3d
 8006810:	2102      	movs	r1, #2
 8006812:	5499      	strb	r1, [r3, r2]

  /* Check the parameters */
  assert_param(IS_TIM_CLOCKSOURCE(sClockSourceConfig->ClockSource));

  /* Reset the SMS, TS, ECE, ETPS and ETRF bits */
  tmpsmcr = htim->Instance->SMCR;
 8006814:	687b      	ldr	r3, [r7, #4]
 8006816:	681b      	ldr	r3, [r3, #0]
 8006818:	689b      	ldr	r3, [r3, #8]
 800681a:	60bb      	str	r3, [r7, #8]
  tmpsmcr &= ~(TIM_SMCR_SMS | TIM_SMCR_TS);
 800681c:	68bb      	ldr	r3, [r7, #8]
 800681e:	2277      	movs	r2, #119	@ 0x77
 8006820:	4393      	bics	r3, r2
 8006822:	60bb      	str	r3, [r7, #8]
  tmpsmcr &= ~(TIM_SMCR_ETF | TIM_SMCR_ETPS | TIM_SMCR_ECE | TIM_SMCR_ETP);
 8006824:	68bb      	ldr	r3, [r7, #8]
 8006826:	4a58      	ldr	r2, [pc, #352]	@ (8006988 <HAL_TIM_ConfigClockSource+0x1a4>)
 8006828:	4013      	ands	r3, r2
 800682a:	60bb      	str	r3, [r7, #8]
  htim->Instance->SMCR = tmpsmcr;
 800682c:	687b      	ldr	r3, [r7, #4]
 800682e:	681b      	ldr	r3, [r3, #0]
 8006830:	68ba      	ldr	r2, [r7, #8]
 8006832:	609a      	str	r2, [r3, #8]

  switch (sClockSourceConfig->ClockSource)
 8006834:	683b      	ldr	r3, [r7, #0]
 8006836:	681b      	ldr	r3, [r3, #0]
 8006838:	2280      	movs	r2, #128	@ 0x80
 800683a:	0192      	lsls	r2, r2, #6
 800683c:	4293      	cmp	r3, r2
 800683e:	d040      	beq.n	80068c2 <HAL_TIM_ConfigClockSource+0xde>
 8006840:	2280      	movs	r2, #128	@ 0x80
 8006842:	0192      	lsls	r2, r2, #6
 8006844:	4293      	cmp	r3, r2
 8006846:	d900      	bls.n	800684a <HAL_TIM_ConfigClockSource+0x66>
 8006848:	e088      	b.n	800695c <HAL_TIM_ConfigClockSource+0x178>
 800684a:	2280      	movs	r2, #128	@ 0x80
 800684c:	0152      	lsls	r2, r2, #5
 800684e:	4293      	cmp	r3, r2
 8006850:	d100      	bne.n	8006854 <HAL_TIM_ConfigClockSource+0x70>
 8006852:	e088      	b.n	8006966 <HAL_TIM_ConfigClockSource+0x182>
 8006854:	2280      	movs	r2, #128	@ 0x80
 8006856:	0152      	lsls	r2, r2, #5
 8006858:	4293      	cmp	r3, r2
 800685a:	d900      	bls.n	800685e <HAL_TIM_ConfigClockSource+0x7a>
 800685c:	e07e      	b.n	800695c <HAL_TIM_ConfigClockSource+0x178>
 800685e:	2b70      	cmp	r3, #112	@ 0x70
 8006860:	d018      	beq.n	8006894 <HAL_TIM_ConfigClockSource+0xb0>
 8006862:	d900      	bls.n	8006866 <HAL_TIM_ConfigClockSource+0x82>
 8006864:	e07a      	b.n	800695c <HAL_TIM_ConfigClockSource+0x178>
 8006866:	2b60      	cmp	r3, #96	@ 0x60
 8006868:	d04f      	beq.n	800690a <HAL_TIM_ConfigClockSource+0x126>
 800686a:	d900      	bls.n	800686e <HAL_TIM_ConfigClockSource+0x8a>
 800686c:	e076      	b.n	800695c <HAL_TIM_ConfigClockSource+0x178>
 800686e:	2b50      	cmp	r3, #80	@ 0x50
 8006870:	d03b      	beq.n	80068ea <HAL_TIM_ConfigClockSource+0x106>
 8006872:	d900      	bls.n	8006876 <HAL_TIM_ConfigClockSource+0x92>
 8006874:	e072      	b.n	800695c <HAL_TIM_ConfigClockSource+0x178>
 8006876:	2b40      	cmp	r3, #64	@ 0x40
 8006878:	d057      	beq.n	800692a <HAL_TIM_ConfigClockSource+0x146>
 800687a:	d900      	bls.n	800687e <HAL_TIM_ConfigClockSource+0x9a>
 800687c:	e06e      	b.n	800695c <HAL_TIM_ConfigClockSource+0x178>
 800687e:	2b30      	cmp	r3, #48	@ 0x30
 8006880:	d063      	beq.n	800694a <HAL_TIM_ConfigClockSource+0x166>
 8006882:	d86b      	bhi.n	800695c <HAL_TIM_ConfigClockSource+0x178>
 8006884:	2b20      	cmp	r3, #32
 8006886:	d060      	beq.n	800694a <HAL_TIM_ConfigClockSource+0x166>
 8006888:	d868      	bhi.n	800695c <HAL_TIM_ConfigClockSource+0x178>
 800688a:	2b00      	cmp	r3, #0
 800688c:	d05d      	beq.n	800694a <HAL_TIM_ConfigClockSource+0x166>
 800688e:	2b10      	cmp	r3, #16
 8006890:	d05b      	beq.n	800694a <HAL_TIM_ConfigClockSource+0x166>
 8006892:	e063      	b.n	800695c <HAL_TIM_ConfigClockSource+0x178>
      assert_param(IS_TIM_CLOCKPRESCALER(sClockSourceConfig->ClockPrescaler));
      assert_param(IS_TIM_CLOCKPOLARITY(sClockSourceConfig->ClockPolarity));
      assert_param(IS_TIM_CLOCKFILTER(sClockSourceConfig->ClockFilter));

      /* Configure the ETR Clock source */
      TIM_ETR_SetConfig(htim->Instance,
 8006894:	687b      	ldr	r3, [r7, #4]
 8006896:	6818      	ldr	r0, [r3, #0]
                        sClockSourceConfig->ClockPrescaler,
 8006898:	683b      	ldr	r3, [r7, #0]
 800689a:	6899      	ldr	r1, [r3, #8]
                        sClockSourceConfig->ClockPolarity,
 800689c:	683b      	ldr	r3, [r7, #0]
 800689e:	685a      	ldr	r2, [r3, #4]
                        sClockSourceConfig->ClockFilter);
 80068a0:	683b      	ldr	r3, [r7, #0]
 80068a2:	68db      	ldr	r3, [r3, #12]
      TIM_ETR_SetConfig(htim->Instance,
 80068a4:	f000 f998 	bl	8006bd8 <TIM_ETR_SetConfig>

      /* Select the External clock mode1 and the ETRF trigger */
      tmpsmcr = htim->Instance->SMCR;
 80068a8:	687b      	ldr	r3, [r7, #4]
 80068aa:	681b      	ldr	r3, [r3, #0]
 80068ac:	689b      	ldr	r3, [r3, #8]
 80068ae:	60bb      	str	r3, [r7, #8]
      tmpsmcr |= (TIM_SLAVEMODE_EXTERNAL1 | TIM_CLOCKSOURCE_ETRMODE1);
 80068b0:	68bb      	ldr	r3, [r7, #8]
 80068b2:	2277      	movs	r2, #119	@ 0x77
 80068b4:	4313      	orrs	r3, r2
 80068b6:	60bb      	str	r3, [r7, #8]
      /* Write to TIMx SMCR */
      htim->Instance->SMCR = tmpsmcr;
 80068b8:	687b      	ldr	r3, [r7, #4]
 80068ba:	681b      	ldr	r3, [r3, #0]
 80068bc:	68ba      	ldr	r2, [r7, #8]
 80068be:	609a      	str	r2, [r3, #8]
      break;
 80068c0:	e052      	b.n	8006968 <HAL_TIM_ConfigClockSource+0x184>
      assert_param(IS_TIM_CLOCKPRESCALER(sClockSourceConfig->ClockPrescaler));
      assert_param(IS_TIM_CLOCKPOLARITY(sClockSourceConfig->ClockPolarity));
      assert_param(IS_TIM_CLOCKFILTER(sClockSourceConfig->ClockFilter));

      /* Configure the ETR Clock source */
      TIM_ETR_SetConfig(htim->Instance,
 80068c2:	687b      	ldr	r3, [r7, #4]
 80068c4:	6818      	ldr	r0, [r3, #0]
                        sClockSourceConfig->ClockPrescaler,
 80068c6:	683b      	ldr	r3, [r7, #0]
 80068c8:	6899      	ldr	r1, [r3, #8]
                        sClockSourceConfig->ClockPolarity,
 80068ca:	683b      	ldr	r3, [r7, #0]
 80068cc:	685a      	ldr	r2, [r3, #4]
                        sClockSourceConfig->ClockFilter);
 80068ce:	683b      	ldr	r3, [r7, #0]
 80068d0:	68db      	ldr	r3, [r3, #12]
      TIM_ETR_SetConfig(htim->Instance,
 80068d2:	f000 f981 	bl	8006bd8 <TIM_ETR_SetConfig>
      /* Enable the External clock mode2 */
      htim->Instance->SMCR |= TIM_SMCR_ECE;
 80068d6:	687b      	ldr	r3, [r7, #4]
 80068d8:	681b      	ldr	r3, [r3, #0]
 80068da:	689a      	ldr	r2, [r3, #8]
 80068dc:	687b      	ldr	r3, [r7, #4]
 80068de:	681b      	ldr	r3, [r3, #0]
 80068e0:	2180      	movs	r1, #128	@ 0x80
 80068e2:	01c9      	lsls	r1, r1, #7
 80068e4:	430a      	orrs	r2, r1
 80068e6:	609a      	str	r2, [r3, #8]
      break;
 80068e8:	e03e      	b.n	8006968 <HAL_TIM_ConfigClockSource+0x184>

      /* Check TI1 input conditioning related parameters */
      assert_param(IS_TIM_CLOCKPOLARITY(sClockSourceConfig->ClockPolarity));
      assert_param(IS_TIM_CLOCKFILTER(sClockSourceConfig->ClockFilter));

      TIM_TI1_ConfigInputStage(htim->Instance,
 80068ea:	687b      	ldr	r3, [r7, #4]
 80068ec:	6818      	ldr	r0, [r3, #0]
                               sClockSourceConfig->ClockPolarity,
 80068ee:	683b      	ldr	r3, [r7, #0]
 80068f0:	6859      	ldr	r1, [r3, #4]
                               sClockSourceConfig->ClockFilter);
 80068f2:	683b      	ldr	r3, [r7, #0]
 80068f4:	68db      	ldr	r3, [r3, #12]
      TIM_TI1_ConfigInputStage(htim->Instance,
 80068f6:	001a      	movs	r2, r3
 80068f8:	f000 f8f4 	bl	8006ae4 <TIM_TI1_ConfigInputStage>
      TIM_ITRx_SetConfig(htim->Instance, TIM_CLOCKSOURCE_TI1);
 80068fc:	687b      	ldr	r3, [r7, #4]
 80068fe:	681b      	ldr	r3, [r3, #0]
 8006900:	2150      	movs	r1, #80	@ 0x50
 8006902:	0018      	movs	r0, r3
 8006904:	f000 f94e 	bl	8006ba4 <TIM_ITRx_SetConfig>
      break;
 8006908:	e02e      	b.n	8006968 <HAL_TIM_ConfigClockSource+0x184>

      /* Check TI2 input conditioning related parameters */
      assert_param(IS_TIM_CLOCKPOLARITY(sClockSourceConfig->ClockPolarity));
      assert_param(IS_TIM_CLOCKFILTER(sClockSourceConfig->ClockFilter));

      TIM_TI2_ConfigInputStage(htim->Instance,
 800690a:	687b      	ldr	r3, [r7, #4]
 800690c:	6818      	ldr	r0, [r3, #0]
                               sClockSourceConfig->ClockPolarity,
 800690e:	683b      	ldr	r3, [r7, #0]
 8006910:	6859      	ldr	r1, [r3, #4]
                               sClockSourceConfig->ClockFilter);
 8006912:	683b      	ldr	r3, [r7, #0]
 8006914:	68db      	ldr	r3, [r3, #12]
      TIM_TI2_ConfigInputStage(htim->Instance,
 8006916:	001a      	movs	r2, r3
 8006918:	f000 f912 	bl	8006b40 <TIM_TI2_ConfigInputStage>
      TIM_ITRx_SetConfig(htim->Instance, TIM_CLOCKSOURCE_TI2);
 800691c:	687b      	ldr	r3, [r7, #4]
 800691e:	681b      	ldr	r3, [r3, #0]
 8006920:	2160      	movs	r1, #96	@ 0x60
 8006922:	0018      	movs	r0, r3
 8006924:	f000 f93e 	bl	8006ba4 <TIM_ITRx_SetConfig>
      break;
 8006928:	e01e      	b.n	8006968 <HAL_TIM_ConfigClockSource+0x184>

      /* Check TI1 input conditioning related parameters */
      assert_param(IS_TIM_CLOCKPOLARITY(sClockSourceConfig->ClockPolarity));
      assert_param(IS_TIM_CLOCKFILTER(sClockSourceConfig->ClockFilter));

      TIM_TI1_ConfigInputStage(htim->Instance,
 800692a:	687b      	ldr	r3, [r7, #4]
 800692c:	6818      	ldr	r0, [r3, #0]
                               sClockSourceConfig->ClockPolarity,
 800692e:	683b      	ldr	r3, [r7, #0]
 8006930:	6859      	ldr	r1, [r3, #4]
                               sClockSourceConfig->ClockFilter);
 8006932:	683b      	ldr	r3, [r7, #0]
 8006934:	68db      	ldr	r3, [r3, #12]
      TIM_TI1_ConfigInputStage(htim->Instance,
 8006936:	001a      	movs	r2, r3
 8006938:	f000 f8d4 	bl	8006ae4 <TIM_TI1_ConfigInputStage>
      TIM_ITRx_SetConfig(htim->Instance, TIM_CLOCKSOURCE_TI1ED);
 800693c:	687b      	ldr	r3, [r7, #4]
 800693e:	681b      	ldr	r3, [r3, #0]
 8006940:	2140      	movs	r1, #64	@ 0x40
 8006942:	0018      	movs	r0, r3
 8006944:	f000 f92e 	bl	8006ba4 <TIM_ITRx_SetConfig>
      break;
 8006948:	e00e      	b.n	8006968 <HAL_TIM_ConfigClockSource+0x184>
    case TIM_CLOCKSOURCE_ITR3:
    {
      /* Check whether or not the timer instance supports internal trigger input */
      assert_param(IS_TIM_CLOCKSOURCE_ITRX_INSTANCE(htim->Instance));

      TIM_ITRx_SetConfig(htim->Instance, sClockSourceConfig->ClockSource);
 800694a:	687b      	ldr	r3, [r7, #4]
 800694c:	681a      	ldr	r2, [r3, #0]
 800694e:	683b      	ldr	r3, [r7, #0]
 8006950:	681b      	ldr	r3, [r3, #0]
 8006952:	0019      	movs	r1, r3
 8006954:	0010      	movs	r0, r2
 8006956:	f000 f925 	bl	8006ba4 <TIM_ITRx_SetConfig>
      break;
 800695a:	e005      	b.n	8006968 <HAL_TIM_ConfigClockSource+0x184>
    }

    default:
      status = HAL_ERROR;
 800695c:	230f      	movs	r3, #15
 800695e:	18fb      	adds	r3, r7, r3
 8006960:	2201      	movs	r2, #1
 8006962:	701a      	strb	r2, [r3, #0]
      break;
 8006964:	e000      	b.n	8006968 <HAL_TIM_ConfigClockSource+0x184>
      break;
 8006966:	46c0      	nop			@ (mov r8, r8)
  }
  htim->State = HAL_TIM_STATE_READY;
 8006968:	687b      	ldr	r3, [r7, #4]
 800696a:	223d      	movs	r2, #61	@ 0x3d
 800696c:	2101      	movs	r1, #1
 800696e:	5499      	strb	r1, [r3, r2]

  __HAL_UNLOCK(htim);
 8006970:	687b      	ldr	r3, [r7, #4]
 8006972:	223c      	movs	r2, #60	@ 0x3c
 8006974:	2100      	movs	r1, #0
 8006976:	5499      	strb	r1, [r3, r2]

  return status;
 8006978:	230f      	movs	r3, #15
 800697a:	18fb      	adds	r3, r7, r3
 800697c:	781b      	ldrb	r3, [r3, #0]
}
 800697e:	0018      	movs	r0, r3
 8006980:	46bd      	mov	sp, r7
 8006982:	b004      	add	sp, #16
 8006984:	bd80      	pop	{r7, pc}
 8006986:	46c0      	nop			@ (mov r8, r8)
 8006988:	ffff00ff 	.word	0xffff00ff

0800698c <HAL_TIM_PeriodElapsedCallback>:
  * @brief  Period elapsed callback in non-blocking mode
  * @param  htim TIM handle
  * @retval None
  */
__weak void HAL_TIM_PeriodElapsedCallback(TIM_HandleTypeDef *htim)
{
 800698c:	b580      	push	{r7, lr}
 800698e:	b082      	sub	sp, #8
 8006990:	af00      	add	r7, sp, #0
 8006992:	6078      	str	r0, [r7, #4]
  UNUSED(htim);

  /* NOTE : This function should not be modified, when the callback is needed,
            the HAL_TIM_PeriodElapsedCallback could be implemented in the user file
   */
}
 8006994:	46c0      	nop			@ (mov r8, r8)
 8006996:	46bd      	mov	sp, r7
 8006998:	b002      	add	sp, #8
 800699a:	bd80      	pop	{r7, pc}

0800699c <HAL_TIM_OC_DelayElapsedCallback>:
  * @brief  Output Compare callback in non-blocking mode
  * @param  htim TIM OC handle
  * @retval None
  */
__weak void HAL_TIM_OC_DelayElapsedCallback(TIM_HandleTypeDef *htim)
{
 800699c:	b580      	push	{r7, lr}
 800699e:	b082      	sub	sp, #8
 80069a0:	af00      	add	r7, sp, #0
 80069a2:	6078      	str	r0, [r7, #4]
  UNUSED(htim);

  /* NOTE : This function should not be modified, when the callback is needed,
            the HAL_TIM_OC_DelayElapsedCallback could be implemented in the user file
   */
}
 80069a4:	46c0      	nop			@ (mov r8, r8)
 80069a6:	46bd      	mov	sp, r7
 80069a8:	b002      	add	sp, #8
 80069aa:	bd80      	pop	{r7, pc}

080069ac <HAL_TIM_IC_CaptureCallback>:
  * @brief  Input Capture callback in non-blocking mode
  * @param  htim TIM IC handle
  * @retval None
  */
__weak void HAL_TIM_IC_CaptureCallback(TIM_HandleTypeDef *htim)
{
 80069ac:	b580      	push	{r7, lr}
 80069ae:	b082      	sub	sp, #8
 80069b0:	af00      	add	r7, sp, #0
 80069b2:	6078      	str	r0, [r7, #4]
  UNUSED(htim);

  /* NOTE : This function should not be modified, when the callback is needed,
            the HAL_TIM_IC_CaptureCallback could be implemented in the user file
   */
}
 80069b4:	46c0      	nop			@ (mov r8, r8)
 80069b6:	46bd      	mov	sp, r7
 80069b8:	b002      	add	sp, #8
 80069ba:	bd80      	pop	{r7, pc}

080069bc <HAL_TIM_PWM_PulseFinishedCallback>:
  * @brief  PWM Pulse finished callback in non-blocking mode
  * @param  htim TIM handle
  * @retval None
  */
__weak void HAL_TIM_PWM_PulseFinishedCallback(TIM_HandleTypeDef *htim)
{
 80069bc:	b580      	push	{r7, lr}
 80069be:	b082      	sub	sp, #8
 80069c0:	af00      	add	r7, sp, #0
 80069c2:	6078      	str	r0, [r7, #4]
  UNUSED(htim);

  /* NOTE : This function should not be modified, when the callback is needed,
            the HAL_TIM_PWM_PulseFinishedCallback could be implemented in the user file
   */
}
 80069c4:	46c0      	nop			@ (mov r8, r8)
 80069c6:	46bd      	mov	sp, r7
 80069c8:	b002      	add	sp, #8
 80069ca:	bd80      	pop	{r7, pc}

080069cc <HAL_TIM_TriggerCallback>:
  * @brief  Hall Trigger detection callback in non-blocking mode
  * @param  htim TIM handle
  * @retval None
  */
__weak void HAL_TIM_TriggerCallback(TIM_HandleTypeDef *htim)
{
 80069cc:	b580      	push	{r7, lr}
 80069ce:	b082      	sub	sp, #8
 80069d0:	af00      	add	r7, sp, #0
 80069d2:	6078      	str	r0, [r7, #4]
  UNUSED(htim);

  /* NOTE : This function should not be modified, when the callback is needed,
            the HAL_TIM_TriggerCallback could be implemented in the user file
   */
}
 80069d4:	46c0      	nop			@ (mov r8, r8)
 80069d6:	46bd      	mov	sp, r7
 80069d8:	b002      	add	sp, #8
 80069da:	bd80      	pop	{r7, pc}

080069dc <TIM_Base_SetConfig>:
  * @param  TIMx TIM peripheral
  * @param  Structure TIM Base configuration structure
  * @retval None
  */
void TIM_Base_SetConfig(TIM_TypeDef *TIMx, const TIM_Base_InitTypeDef *Structure)
{
 80069dc:	b580      	push	{r7, lr}
 80069de:	b084      	sub	sp, #16
 80069e0:	af00      	add	r7, sp, #0
 80069e2:	6078      	str	r0, [r7, #4]
 80069e4:	6039      	str	r1, [r7, #0]
  uint32_t tmpcr1;
  tmpcr1 = TIMx->CR1;
 80069e6:	687b      	ldr	r3, [r7, #4]
 80069e8:	681b      	ldr	r3, [r3, #0]
 80069ea:	60fb      	str	r3, [r7, #12]

  /* Set TIM Time Base Unit parameters ---------------------------------------*/
  if (IS_TIM_COUNTER_MODE_SELECT_INSTANCE(TIMx))
 80069ec:	687b      	ldr	r3, [r7, #4]
 80069ee:	4a36      	ldr	r2, [pc, #216]	@ (8006ac8 <TIM_Base_SetConfig+0xec>)
 80069f0:	4293      	cmp	r3, r2
 80069f2:	d003      	beq.n	80069fc <TIM_Base_SetConfig+0x20>
 80069f4:	687b      	ldr	r3, [r7, #4]
 80069f6:	4a35      	ldr	r2, [pc, #212]	@ (8006acc <TIM_Base_SetConfig+0xf0>)
 80069f8:	4293      	cmp	r3, r2
 80069fa:	d108      	bne.n	8006a0e <TIM_Base_SetConfig+0x32>
  {
    /* Select the Counter Mode */
    tmpcr1 &= ~(TIM_CR1_DIR | TIM_CR1_CMS);
 80069fc:	68fb      	ldr	r3, [r7, #12]
 80069fe:	2270      	movs	r2, #112	@ 0x70
 8006a00:	4393      	bics	r3, r2
 8006a02:	60fb      	str	r3, [r7, #12]
    tmpcr1 |= Structure->CounterMode;
 8006a04:	683b      	ldr	r3, [r7, #0]
 8006a06:	685b      	ldr	r3, [r3, #4]
 8006a08:	68fa      	ldr	r2, [r7, #12]
 8006a0a:	4313      	orrs	r3, r2
 8006a0c:	60fb      	str	r3, [r7, #12]
  }

  if (IS_TIM_CLOCK_DIVISION_INSTANCE(TIMx))
 8006a0e:	687b      	ldr	r3, [r7, #4]
 8006a10:	4a2d      	ldr	r2, [pc, #180]	@ (8006ac8 <TIM_Base_SetConfig+0xec>)
 8006a12:	4293      	cmp	r3, r2
 8006a14:	d013      	beq.n	8006a3e <TIM_Base_SetConfig+0x62>
 8006a16:	687b      	ldr	r3, [r7, #4]
 8006a18:	4a2c      	ldr	r2, [pc, #176]	@ (8006acc <TIM_Base_SetConfig+0xf0>)
 8006a1a:	4293      	cmp	r3, r2
 8006a1c:	d00f      	beq.n	8006a3e <TIM_Base_SetConfig+0x62>
 8006a1e:	687b      	ldr	r3, [r7, #4]
 8006a20:	4a2b      	ldr	r2, [pc, #172]	@ (8006ad0 <TIM_Base_SetConfig+0xf4>)
 8006a22:	4293      	cmp	r3, r2
 8006a24:	d00b      	beq.n	8006a3e <TIM_Base_SetConfig+0x62>
 8006a26:	687b      	ldr	r3, [r7, #4]
 8006a28:	4a2a      	ldr	r2, [pc, #168]	@ (8006ad4 <TIM_Base_SetConfig+0xf8>)
 8006a2a:	4293      	cmp	r3, r2
 8006a2c:	d007      	beq.n	8006a3e <TIM_Base_SetConfig+0x62>
 8006a2e:	687b      	ldr	r3, [r7, #4]
 8006a30:	4a29      	ldr	r2, [pc, #164]	@ (8006ad8 <TIM_Base_SetConfig+0xfc>)
 8006a32:	4293      	cmp	r3, r2
 8006a34:	d003      	beq.n	8006a3e <TIM_Base_SetConfig+0x62>
 8006a36:	687b      	ldr	r3, [r7, #4]
 8006a38:	4a28      	ldr	r2, [pc, #160]	@ (8006adc <TIM_Base_SetConfig+0x100>)
 8006a3a:	4293      	cmp	r3, r2
 8006a3c:	d108      	bne.n	8006a50 <TIM_Base_SetConfig+0x74>
  {
    /* Set the clock division */
    tmpcr1 &= ~TIM_CR1_CKD;
 8006a3e:	68fb      	ldr	r3, [r7, #12]
 8006a40:	4a27      	ldr	r2, [pc, #156]	@ (8006ae0 <TIM_Base_SetConfig+0x104>)
 8006a42:	4013      	ands	r3, r2
 8006a44:	60fb      	str	r3, [r7, #12]
    tmpcr1 |= (uint32_t)Structure->ClockDivision;
 8006a46:	683b      	ldr	r3, [r7, #0]
 8006a48:	68db      	ldr	r3, [r3, #12]
 8006a4a:	68fa      	ldr	r2, [r7, #12]
 8006a4c:	4313      	orrs	r3, r2
 8006a4e:	60fb      	str	r3, [r7, #12]
  }

  /* Set the auto-reload preload */
  MODIFY_REG(tmpcr1, TIM_CR1_ARPE, Structure->AutoReloadPreload);
 8006a50:	68fb      	ldr	r3, [r7, #12]
 8006a52:	2280      	movs	r2, #128	@ 0x80
 8006a54:	4393      	bics	r3, r2
 8006a56:	001a      	movs	r2, r3
 8006a58:	683b      	ldr	r3, [r7, #0]
 8006a5a:	695b      	ldr	r3, [r3, #20]
 8006a5c:	4313      	orrs	r3, r2
 8006a5e:	60fb      	str	r3, [r7, #12]

  TIMx->CR1 = tmpcr1;
 8006a60:	687b      	ldr	r3, [r7, #4]
 8006a62:	68fa      	ldr	r2, [r7, #12]
 8006a64:	601a      	str	r2, [r3, #0]

  /* Set the Autoreload value */
  TIMx->ARR = (uint32_t)Structure->Period ;
 8006a66:	683b      	ldr	r3, [r7, #0]
 8006a68:	689a      	ldr	r2, [r3, #8]
 8006a6a:	687b      	ldr	r3, [r7, #4]
 8006a6c:	62da      	str	r2, [r3, #44]	@ 0x2c

  /* Set the Prescaler value */
  TIMx->PSC = Structure->Prescaler;
 8006a6e:	683b      	ldr	r3, [r7, #0]
 8006a70:	681a      	ldr	r2, [r3, #0]
 8006a72:	687b      	ldr	r3, [r7, #4]
 8006a74:	629a      	str	r2, [r3, #40]	@ 0x28

  if (IS_TIM_REPETITION_COUNTER_INSTANCE(TIMx))
 8006a76:	687b      	ldr	r3, [r7, #4]
 8006a78:	4a13      	ldr	r2, [pc, #76]	@ (8006ac8 <TIM_Base_SetConfig+0xec>)
 8006a7a:	4293      	cmp	r3, r2
 8006a7c:	d00b      	beq.n	8006a96 <TIM_Base_SetConfig+0xba>
 8006a7e:	687b      	ldr	r3, [r7, #4]
 8006a80:	4a14      	ldr	r2, [pc, #80]	@ (8006ad4 <TIM_Base_SetConfig+0xf8>)
 8006a82:	4293      	cmp	r3, r2
 8006a84:	d007      	beq.n	8006a96 <TIM_Base_SetConfig+0xba>
 8006a86:	687b      	ldr	r3, [r7, #4]
 8006a88:	4a13      	ldr	r2, [pc, #76]	@ (8006ad8 <TIM_Base_SetConfig+0xfc>)
 8006a8a:	4293      	cmp	r3, r2
 8006a8c:	d003      	beq.n	8006a96 <TIM_Base_SetConfig+0xba>
 8006a8e:	687b      	ldr	r3, [r7, #4]
 8006a90:	4a12      	ldr	r2, [pc, #72]	@ (8006adc <TIM_Base_SetConfig+0x100>)
 8006a92:	4293      	cmp	r3, r2
 8006a94:	d103      	bne.n	8006a9e <TIM_Base_SetConfig+0xc2>
  {
    /* Set the Repetition Counter value */
    TIMx->RCR = Structure->RepetitionCounter;
 8006a96:	683b      	ldr	r3, [r7, #0]
 8006a98:	691a      	ldr	r2, [r3, #16]
 8006a9a:	687b      	ldr	r3, [r7, #4]
 8006a9c:	631a      	str	r2, [r3, #48]	@ 0x30
  }

  /* Generate an update event to reload the Prescaler
     and the repetition counter (only for advanced timer) value immediately */
  TIMx->EGR = TIM_EGR_UG;
 8006a9e:	687b      	ldr	r3, [r7, #4]
 8006aa0:	2201      	movs	r2, #1
 8006aa2:	615a      	str	r2, [r3, #20]

  /* Check if the update flag is set after the Update Generation, if so clear the UIF flag */
  if (HAL_IS_BIT_SET(TIMx->SR, TIM_FLAG_UPDATE))
 8006aa4:	687b      	ldr	r3, [r7, #4]
 8006aa6:	691b      	ldr	r3, [r3, #16]
 8006aa8:	2201      	movs	r2, #1
 8006aaa:	4013      	ands	r3, r2
 8006aac:	2b01      	cmp	r3, #1
 8006aae:	d106      	bne.n	8006abe <TIM_Base_SetConfig+0xe2>
  {
    /* Clear the update flag */
    CLEAR_BIT(TIMx->SR, TIM_FLAG_UPDATE);
 8006ab0:	687b      	ldr	r3, [r7, #4]
 8006ab2:	691b      	ldr	r3, [r3, #16]
 8006ab4:	2201      	movs	r2, #1
 8006ab6:	4393      	bics	r3, r2
 8006ab8:	001a      	movs	r2, r3
 8006aba:	687b      	ldr	r3, [r7, #4]
 8006abc:	611a      	str	r2, [r3, #16]
  }
}
 8006abe:	46c0      	nop			@ (mov r8, r8)
 8006ac0:	46bd      	mov	sp, r7
 8006ac2:	b004      	add	sp, #16
 8006ac4:	bd80      	pop	{r7, pc}
 8006ac6:	46c0      	nop			@ (mov r8, r8)
 8006ac8:	40012c00 	.word	0x40012c00
 8006acc:	40000400 	.word	0x40000400
 8006ad0:	40002000 	.word	0x40002000
 8006ad4:	40014000 	.word	0x40014000
 8006ad8:	40014400 	.word	0x40014400
 8006adc:	40014800 	.word	0x40014800
 8006ae0:	fffffcff 	.word	0xfffffcff

08006ae4 <TIM_TI1_ConfigInputStage>:
  * @param  TIM_ICFilter Specifies the Input Capture Filter.
  *          This parameter must be a value between 0x00 and 0x0F.
  * @retval None
  */
static void TIM_TI1_ConfigInputStage(TIM_TypeDef *TIMx, uint32_t TIM_ICPolarity, uint32_t TIM_ICFilter)
{
 8006ae4:	b580      	push	{r7, lr}
 8006ae6:	b086      	sub	sp, #24
 8006ae8:	af00      	add	r7, sp, #0
 8006aea:	60f8      	str	r0, [r7, #12]
 8006aec:	60b9      	str	r1, [r7, #8]
 8006aee:	607a      	str	r2, [r7, #4]
  uint32_t tmpccmr1;
  uint32_t tmpccer;

  /* Disable the Channel 1: Reset the CC1E Bit */
  tmpccer = TIMx->CCER;
 8006af0:	68fb      	ldr	r3, [r7, #12]
 8006af2:	6a1b      	ldr	r3, [r3, #32]
 8006af4:	617b      	str	r3, [r7, #20]
  TIMx->CCER &= ~TIM_CCER_CC1E;
 8006af6:	68fb      	ldr	r3, [r7, #12]
 8006af8:	6a1b      	ldr	r3, [r3, #32]
 8006afa:	2201      	movs	r2, #1
 8006afc:	4393      	bics	r3, r2
 8006afe:	001a      	movs	r2, r3
 8006b00:	68fb      	ldr	r3, [r7, #12]
 8006b02:	621a      	str	r2, [r3, #32]
  tmpccmr1 = TIMx->CCMR1;
 8006b04:	68fb      	ldr	r3, [r7, #12]
 8006b06:	699b      	ldr	r3, [r3, #24]
 8006b08:	613b      	str	r3, [r7, #16]

  /* Set the filter */
  tmpccmr1 &= ~TIM_CCMR1_IC1F;
 8006b0a:	693b      	ldr	r3, [r7, #16]
 8006b0c:	22f0      	movs	r2, #240	@ 0xf0
 8006b0e:	4393      	bics	r3, r2
 8006b10:	613b      	str	r3, [r7, #16]
  tmpccmr1 |= (TIM_ICFilter << 4U);
 8006b12:	687b      	ldr	r3, [r7, #4]
 8006b14:	011b      	lsls	r3, r3, #4
 8006b16:	693a      	ldr	r2, [r7, #16]
 8006b18:	4313      	orrs	r3, r2
 8006b1a:	613b      	str	r3, [r7, #16]

  /* Select the Polarity and set the CC1E Bit */
  tmpccer &= ~(TIM_CCER_CC1P | TIM_CCER_CC1NP);
 8006b1c:	697b      	ldr	r3, [r7, #20]
 8006b1e:	220a      	movs	r2, #10
 8006b20:	4393      	bics	r3, r2
 8006b22:	617b      	str	r3, [r7, #20]
  tmpccer |= TIM_ICPolarity;
 8006b24:	697a      	ldr	r2, [r7, #20]
 8006b26:	68bb      	ldr	r3, [r7, #8]
 8006b28:	4313      	orrs	r3, r2
 8006b2a:	617b      	str	r3, [r7, #20]

  /* Write to TIMx CCMR1 and CCER registers */
  TIMx->CCMR1 = tmpccmr1;
 8006b2c:	68fb      	ldr	r3, [r7, #12]
 8006b2e:	693a      	ldr	r2, [r7, #16]
 8006b30:	619a      	str	r2, [r3, #24]
  TIMx->CCER = tmpccer;
 8006b32:	68fb      	ldr	r3, [r7, #12]
 8006b34:	697a      	ldr	r2, [r7, #20]
 8006b36:	621a      	str	r2, [r3, #32]
}
 8006b38:	46c0      	nop			@ (mov r8, r8)
 8006b3a:	46bd      	mov	sp, r7
 8006b3c:	b006      	add	sp, #24
 8006b3e:	bd80      	pop	{r7, pc}

08006b40 <TIM_TI2_ConfigInputStage>:
  * @param  TIM_ICFilter Specifies the Input Capture Filter.
  *          This parameter must be a value between 0x00 and 0x0F.
  * @retval None
  */
static void TIM_TI2_ConfigInputStage(TIM_TypeDef *TIMx, uint32_t TIM_ICPolarity, uint32_t TIM_ICFilter)
{
 8006b40:	b580      	push	{r7, lr}
 8006b42:	b086      	sub	sp, #24
 8006b44:	af00      	add	r7, sp, #0
 8006b46:	60f8      	str	r0, [r7, #12]
 8006b48:	60b9      	str	r1, [r7, #8]
 8006b4a:	607a      	str	r2, [r7, #4]
  uint32_t tmpccmr1;
  uint32_t tmpccer;

  /* Disable the Channel 2: Reset the CC2E Bit */
  tmpccer = TIMx->CCER;
 8006b4c:	68fb      	ldr	r3, [r7, #12]
 8006b4e:	6a1b      	ldr	r3, [r3, #32]
 8006b50:	617b      	str	r3, [r7, #20]
  TIMx->CCER &= ~TIM_CCER_CC2E;
 8006b52:	68fb      	ldr	r3, [r7, #12]
 8006b54:	6a1b      	ldr	r3, [r3, #32]
 8006b56:	2210      	movs	r2, #16
 8006b58:	4393      	bics	r3, r2
 8006b5a:	001a      	movs	r2, r3
 8006b5c:	68fb      	ldr	r3, [r7, #12]
 8006b5e:	621a      	str	r2, [r3, #32]
  tmpccmr1 = TIMx->CCMR1;
 8006b60:	68fb      	ldr	r3, [r7, #12]
 8006b62:	699b      	ldr	r3, [r3, #24]
 8006b64:	613b      	str	r3, [r7, #16]

  /* Set the filter */
  tmpccmr1 &= ~TIM_CCMR1_IC2F;
 8006b66:	693b      	ldr	r3, [r7, #16]
 8006b68:	4a0d      	ldr	r2, [pc, #52]	@ (8006ba0 <TIM_TI2_ConfigInputStage+0x60>)
 8006b6a:	4013      	ands	r3, r2
 8006b6c:	613b      	str	r3, [r7, #16]
  tmpccmr1 |= (TIM_ICFilter << 12U);
 8006b6e:	687b      	ldr	r3, [r7, #4]
 8006b70:	031b      	lsls	r3, r3, #12
 8006b72:	693a      	ldr	r2, [r7, #16]
 8006b74:	4313      	orrs	r3, r2
 8006b76:	613b      	str	r3, [r7, #16]

  /* Select the Polarity and set the CC2E Bit */
  tmpccer &= ~(TIM_CCER_CC2P | TIM_CCER_CC2NP);
 8006b78:	697b      	ldr	r3, [r7, #20]
 8006b7a:	22a0      	movs	r2, #160	@ 0xa0
 8006b7c:	4393      	bics	r3, r2
 8006b7e:	617b      	str	r3, [r7, #20]
  tmpccer |= (TIM_ICPolarity << 4U);
 8006b80:	68bb      	ldr	r3, [r7, #8]
 8006b82:	011b      	lsls	r3, r3, #4
 8006b84:	697a      	ldr	r2, [r7, #20]
 8006b86:	4313      	orrs	r3, r2
 8006b88:	617b      	str	r3, [r7, #20]

  /* Write to TIMx CCMR1 and CCER registers */
  TIMx->CCMR1 = tmpccmr1 ;
 8006b8a:	68fb      	ldr	r3, [r7, #12]
 8006b8c:	693a      	ldr	r2, [r7, #16]
 8006b8e:	619a      	str	r2, [r3, #24]
  TIMx->CCER = tmpccer;
 8006b90:	68fb      	ldr	r3, [r7, #12]
 8006b92:	697a      	ldr	r2, [r7, #20]
 8006b94:	621a      	str	r2, [r3, #32]
}
 8006b96:	46c0      	nop			@ (mov r8, r8)
 8006b98:	46bd      	mov	sp, r7
 8006b9a:	b006      	add	sp, #24
 8006b9c:	bd80      	pop	{r7, pc}
 8006b9e:	46c0      	nop			@ (mov r8, r8)
 8006ba0:	ffff0fff 	.word	0xffff0fff

08006ba4 <TIM_ITRx_SetConfig>:
  *            @arg TIM_TS_TI2FP2: Filtered Timer Input 2
  *            @arg TIM_TS_ETRF: External Trigger input
  * @retval None
  */
static void TIM_ITRx_SetConfig(TIM_TypeDef *TIMx, uint32_t InputTriggerSource)
{
 8006ba4:	b580      	push	{r7, lr}
 8006ba6:	b084      	sub	sp, #16
 8006ba8:	af00      	add	r7, sp, #0
 8006baa:	6078      	str	r0, [r7, #4]
 8006bac:	6039      	str	r1, [r7, #0]
  uint32_t tmpsmcr;

  /* Get the TIMx SMCR register value */
  tmpsmcr = TIMx->SMCR;
 8006bae:	687b      	ldr	r3, [r7, #4]
 8006bb0:	689b      	ldr	r3, [r3, #8]
 8006bb2:	60fb      	str	r3, [r7, #12]
  /* Reset the TS Bits */
  tmpsmcr &= ~TIM_SMCR_TS;
 8006bb4:	68fb      	ldr	r3, [r7, #12]
 8006bb6:	2270      	movs	r2, #112	@ 0x70
 8006bb8:	4393      	bics	r3, r2
 8006bba:	60fb      	str	r3, [r7, #12]
  /* Set the Input Trigger source and the slave mode*/
  tmpsmcr |= (InputTriggerSource | TIM_SLAVEMODE_EXTERNAL1);
 8006bbc:	683a      	ldr	r2, [r7, #0]
 8006bbe:	68fb      	ldr	r3, [r7, #12]
 8006bc0:	4313      	orrs	r3, r2
 8006bc2:	2207      	movs	r2, #7
 8006bc4:	4313      	orrs	r3, r2
 8006bc6:	60fb      	str	r3, [r7, #12]
  /* Write to TIMx SMCR */
  TIMx->SMCR = tmpsmcr;
 8006bc8:	687b      	ldr	r3, [r7, #4]
 8006bca:	68fa      	ldr	r2, [r7, #12]
 8006bcc:	609a      	str	r2, [r3, #8]
}
 8006bce:	46c0      	nop			@ (mov r8, r8)
 8006bd0:	46bd      	mov	sp, r7
 8006bd2:	b004      	add	sp, #16
 8006bd4:	bd80      	pop	{r7, pc}
	...

08006bd8 <TIM_ETR_SetConfig>:
  *          This parameter must be a value between 0x00 and 0x0F
  * @retval None
  */
void TIM_ETR_SetConfig(TIM_TypeDef *TIMx, uint32_t TIM_ExtTRGPrescaler,
                       uint32_t TIM_ExtTRGPolarity, uint32_t ExtTRGFilter)
{
 8006bd8:	b580      	push	{r7, lr}
 8006bda:	b086      	sub	sp, #24
 8006bdc:	af00      	add	r7, sp, #0
 8006bde:	60f8      	str	r0, [r7, #12]
 8006be0:	60b9      	str	r1, [r7, #8]
 8006be2:	607a      	str	r2, [r7, #4]
 8006be4:	603b      	str	r3, [r7, #0]
  uint32_t tmpsmcr;

  tmpsmcr = TIMx->SMCR;
 8006be6:	68fb      	ldr	r3, [r7, #12]
 8006be8:	689b      	ldr	r3, [r3, #8]
 8006bea:	617b      	str	r3, [r7, #20]

  /* Reset the ETR Bits */
  tmpsmcr &= ~(TIM_SMCR_ETF | TIM_SMCR_ETPS | TIM_SMCR_ECE | TIM_SMCR_ETP);
 8006bec:	697b      	ldr	r3, [r7, #20]
 8006bee:	4a09      	ldr	r2, [pc, #36]	@ (8006c14 <TIM_ETR_SetConfig+0x3c>)
 8006bf0:	4013      	ands	r3, r2
 8006bf2:	617b      	str	r3, [r7, #20]

  /* Set the Prescaler, the Filter value and the Polarity */
  tmpsmcr |= (uint32_t)(TIM_ExtTRGPrescaler | (TIM_ExtTRGPolarity | (ExtTRGFilter << 8U)));
 8006bf4:	683b      	ldr	r3, [r7, #0]
 8006bf6:	021a      	lsls	r2, r3, #8
 8006bf8:	687b      	ldr	r3, [r7, #4]
 8006bfa:	431a      	orrs	r2, r3
 8006bfc:	68bb      	ldr	r3, [r7, #8]
 8006bfe:	4313      	orrs	r3, r2
 8006c00:	697a      	ldr	r2, [r7, #20]
 8006c02:	4313      	orrs	r3, r2
 8006c04:	617b      	str	r3, [r7, #20]

  /* Write to TIMx SMCR */
  TIMx->SMCR = tmpsmcr;
 8006c06:	68fb      	ldr	r3, [r7, #12]
 8006c08:	697a      	ldr	r2, [r7, #20]
 8006c0a:	609a      	str	r2, [r3, #8]
}
 8006c0c:	46c0      	nop			@ (mov r8, r8)
 8006c0e:	46bd      	mov	sp, r7
 8006c10:	b006      	add	sp, #24
 8006c12:	bd80      	pop	{r7, pc}
 8006c14:	ffff00ff 	.word	0xffff00ff

08006c18 <HAL_TIMEx_MasterConfigSynchronization>:
  *         mode.
  * @retval HAL status
  */
HAL_StatusTypeDef HAL_TIMEx_MasterConfigSynchronization(TIM_HandleTypeDef *htim,
                                                        const TIM_MasterConfigTypeDef *sMasterConfig)
{
 8006c18:	b580      	push	{r7, lr}
 8006c1a:	b084      	sub	sp, #16
 8006c1c:	af00      	add	r7, sp, #0
 8006c1e:	6078      	str	r0, [r7, #4]
 8006c20:	6039      	str	r1, [r7, #0]
  assert_param(IS_TIM_MASTER_INSTANCE(htim->Instance));
  assert_param(IS_TIM_TRGO_SOURCE(sMasterConfig->MasterOutputTrigger));
  assert_param(IS_TIM_MSM_STATE(sMasterConfig->MasterSlaveMode));

  /* Check input state */
  __HAL_LOCK(htim);
 8006c22:	687b      	ldr	r3, [r7, #4]
 8006c24:	223c      	movs	r2, #60	@ 0x3c
 8006c26:	5c9b      	ldrb	r3, [r3, r2]
 8006c28:	2b01      	cmp	r3, #1
 8006c2a:	d101      	bne.n	8006c30 <HAL_TIMEx_MasterConfigSynchronization+0x18>
 8006c2c:	2302      	movs	r3, #2
 8006c2e:	e041      	b.n	8006cb4 <HAL_TIMEx_MasterConfigSynchronization+0x9c>
 8006c30:	687b      	ldr	r3, [r7, #4]
 8006c32:	223c      	movs	r2, #60	@ 0x3c
 8006c34:	2101      	movs	r1, #1
 8006c36:	5499      	strb	r1, [r3, r2]

  /* Change the handler state */
  htim->State = HAL_TIM_STATE_BUSY;
 8006c38:	687b      	ldr	r3, [r7, #4]
 8006c3a:	223d      	movs	r2, #61	@ 0x3d
 8006c3c:	2102      	movs	r1, #2
 8006c3e:	5499      	strb	r1, [r3, r2]

  /* Get the TIMx CR2 register value */
  tmpcr2 = htim->Instance->CR2;
 8006c40:	687b      	ldr	r3, [r7, #4]
 8006c42:	681b      	ldr	r3, [r3, #0]
 8006c44:	685b      	ldr	r3, [r3, #4]
 8006c46:	60fb      	str	r3, [r7, #12]

  /* Get the TIMx SMCR register value */
  tmpsmcr = htim->Instance->SMCR;
 8006c48:	687b      	ldr	r3, [r7, #4]
 8006c4a:	681b      	ldr	r3, [r3, #0]
 8006c4c:	689b      	ldr	r3, [r3, #8]
 8006c4e:	60bb      	str	r3, [r7, #8]

  /* Reset the MMS Bits */
  tmpcr2 &= ~TIM_CR2_MMS;
 8006c50:	68fb      	ldr	r3, [r7, #12]
 8006c52:	2270      	movs	r2, #112	@ 0x70
 8006c54:	4393      	bics	r3, r2
 8006c56:	60fb      	str	r3, [r7, #12]
  /* Select the TRGO source */
  tmpcr2 |=  sMasterConfig->MasterOutputTrigger;
 8006c58:	683b      	ldr	r3, [r7, #0]
 8006c5a:	681b      	ldr	r3, [r3, #0]
 8006c5c:	68fa      	ldr	r2, [r7, #12]
 8006c5e:	4313      	orrs	r3, r2
 8006c60:	60fb      	str	r3, [r7, #12]

  /* Update TIMx CR2 */
  htim->Instance->CR2 = tmpcr2;
 8006c62:	687b      	ldr	r3, [r7, #4]
 8006c64:	681b      	ldr	r3, [r3, #0]
 8006c66:	68fa      	ldr	r2, [r7, #12]
 8006c68:	605a      	str	r2, [r3, #4]

  if (IS_TIM_SLAVE_INSTANCE(htim->Instance))
 8006c6a:	687b      	ldr	r3, [r7, #4]
 8006c6c:	681b      	ldr	r3, [r3, #0]
 8006c6e:	4a13      	ldr	r2, [pc, #76]	@ (8006cbc <HAL_TIMEx_MasterConfigSynchronization+0xa4>)
 8006c70:	4293      	cmp	r3, r2
 8006c72:	d009      	beq.n	8006c88 <HAL_TIMEx_MasterConfigSynchronization+0x70>
 8006c74:	687b      	ldr	r3, [r7, #4]
 8006c76:	681b      	ldr	r3, [r3, #0]
 8006c78:	4a11      	ldr	r2, [pc, #68]	@ (8006cc0 <HAL_TIMEx_MasterConfigSynchronization+0xa8>)
 8006c7a:	4293      	cmp	r3, r2
 8006c7c:	d004      	beq.n	8006c88 <HAL_TIMEx_MasterConfigSynchronization+0x70>
 8006c7e:	687b      	ldr	r3, [r7, #4]
 8006c80:	681b      	ldr	r3, [r3, #0]
 8006c82:	4a10      	ldr	r2, [pc, #64]	@ (8006cc4 <HAL_TIMEx_MasterConfigSynchronization+0xac>)
 8006c84:	4293      	cmp	r3, r2
 8006c86:	d10c      	bne.n	8006ca2 <HAL_TIMEx_MasterConfigSynchronization+0x8a>
  {
    /* Reset the MSM Bit */
    tmpsmcr &= ~TIM_SMCR_MSM;
 8006c88:	68bb      	ldr	r3, [r7, #8]
 8006c8a:	2280      	movs	r2, #128	@ 0x80
 8006c8c:	4393      	bics	r3, r2
 8006c8e:	60bb      	str	r3, [r7, #8]
    /* Set master mode */
    tmpsmcr |= sMasterConfig->MasterSlaveMode;
 8006c90:	683b      	ldr	r3, [r7, #0]
 8006c92:	685b      	ldr	r3, [r3, #4]
 8006c94:	68ba      	ldr	r2, [r7, #8]
 8006c96:	4313      	orrs	r3, r2
 8006c98:	60bb      	str	r3, [r7, #8]

    /* Update TIMx SMCR */
    htim->Instance->SMCR = tmpsmcr;
 8006c9a:	687b      	ldr	r3, [r7, #4]
 8006c9c:	681b      	ldr	r3, [r3, #0]
 8006c9e:	68ba      	ldr	r2, [r7, #8]
 8006ca0:	609a      	str	r2, [r3, #8]
  }

  /* Change the htim state */
  htim->State = HAL_TIM_STATE_READY;
 8006ca2:	687b      	ldr	r3, [r7, #4]
 8006ca4:	223d      	movs	r2, #61	@ 0x3d
 8006ca6:	2101      	movs	r1, #1
 8006ca8:	5499      	strb	r1, [r3, r2]

  __HAL_UNLOCK(htim);
 8006caa:	687b      	ldr	r3, [r7, #4]
 8006cac:	223c      	movs	r2, #60	@ 0x3c
 8006cae:	2100      	movs	r1, #0
 8006cb0:	5499      	strb	r1, [r3, r2]

  return HAL_OK;
 8006cb2:	2300      	movs	r3, #0
}
 8006cb4:	0018      	movs	r0, r3
 8006cb6:	46bd      	mov	sp, r7
 8006cb8:	b004      	add	sp, #16
 8006cba:	bd80      	pop	{r7, pc}
 8006cbc:	40012c00 	.word	0x40012c00
 8006cc0:	40000400 	.word	0x40000400
 8006cc4:	40014000 	.word	0x40014000

08006cc8 <HAL_TIMEx_CommutCallback>:
  * @brief  Commutation callback in non-blocking mode
  * @param  htim TIM handle
  * @retval None
  */
__weak void HAL_TIMEx_CommutCallback(TIM_HandleTypeDef *htim)
{
 8006cc8:	b580      	push	{r7, lr}
 8006cca:	b082      	sub	sp, #8
 8006ccc:	af00      	add	r7, sp, #0
 8006cce:	6078      	str	r0, [r7, #4]
  UNUSED(htim);

  /* NOTE : This function should not be modified, when the callback is needed,
            the HAL_TIMEx_CommutCallback could be implemented in the user file
   */
}
 8006cd0:	46c0      	nop			@ (mov r8, r8)
 8006cd2:	46bd      	mov	sp, r7
 8006cd4:	b002      	add	sp, #8
 8006cd6:	bd80      	pop	{r7, pc}

08006cd8 <HAL_TIMEx_BreakCallback>:
  * @brief  Break detection callback in non-blocking mode
  * @param  htim TIM handle
  * @retval None
  */
__weak void HAL_TIMEx_BreakCallback(TIM_HandleTypeDef *htim)
{
 8006cd8:	b580      	push	{r7, lr}
 8006cda:	b082      	sub	sp, #8
 8006cdc:	af00      	add	r7, sp, #0
 8006cde:	6078      	str	r0, [r7, #4]
  UNUSED(htim);

  /* NOTE : This function should not be modified, when the callback is needed,
            the HAL_TIMEx_BreakCallback could be implemented in the user file
   */
}
 8006ce0:	46c0      	nop			@ (mov r8, r8)
 8006ce2:	46bd      	mov	sp, r7
 8006ce4:	b002      	add	sp, #8
 8006ce6:	bd80      	pop	{r7, pc}

08006ce8 <memset>:
 8006ce8:	0003      	movs	r3, r0
 8006cea:	1882      	adds	r2, r0, r2
 8006cec:	4293      	cmp	r3, r2
 8006cee:	d100      	bne.n	8006cf2 <memset+0xa>
 8006cf0:	4770      	bx	lr
 8006cf2:	7019      	strb	r1, [r3, #0]
 8006cf4:	3301      	adds	r3, #1
 8006cf6:	e7f9      	b.n	8006cec <memset+0x4>

08006cf8 <__libc_init_array>:
 8006cf8:	b570      	push	{r4, r5, r6, lr}
 8006cfa:	2600      	movs	r6, #0
 8006cfc:	4c0c      	ldr	r4, [pc, #48]	@ (8006d30 <__libc_init_array+0x38>)
 8006cfe:	4d0d      	ldr	r5, [pc, #52]	@ (8006d34 <__libc_init_array+0x3c>)
 8006d00:	1b64      	subs	r4, r4, r5
 8006d02:	10a4      	asrs	r4, r4, #2
 8006d04:	42a6      	cmp	r6, r4
 8006d06:	d109      	bne.n	8006d1c <__libc_init_array+0x24>
 8006d08:	2600      	movs	r6, #0
 8006d0a:	f000 f823 	bl	8006d54 <_init>
 8006d0e:	4c0a      	ldr	r4, [pc, #40]	@ (8006d38 <__libc_init_array+0x40>)
 8006d10:	4d0a      	ldr	r5, [pc, #40]	@ (8006d3c <__libc_init_array+0x44>)
 8006d12:	1b64      	subs	r4, r4, r5
 8006d14:	10a4      	asrs	r4, r4, #2
 8006d16:	42a6      	cmp	r6, r4
 8006d18:	d105      	bne.n	8006d26 <__libc_init_array+0x2e>
 8006d1a:	bd70      	pop	{r4, r5, r6, pc}
 8006d1c:	00b3      	lsls	r3, r6, #2
 8006d1e:	58eb      	ldr	r3, [r5, r3]
 8006d20:	4798      	blx	r3
 8006d22:	3601      	adds	r6, #1
 8006d24:	e7ee      	b.n	8006d04 <__libc_init_array+0xc>
 8006d26:	00b3      	lsls	r3, r6, #2
 8006d28:	58eb      	ldr	r3, [r5, r3]
 8006d2a:	4798      	blx	r3
 8006d2c:	3601      	adds	r6, #1
 8006d2e:	e7f2      	b.n	8006d16 <__libc_init_array+0x1e>
 8006d30:	08007008 	.word	0x08007008
 8006d34:	08007008 	.word	0x08007008
 8006d38:	0800700c 	.word	0x0800700c
 8006d3c:	08007008 	.word	0x08007008

08006d40 <memcpy>:
 8006d40:	2300      	movs	r3, #0
 8006d42:	b510      	push	{r4, lr}
 8006d44:	429a      	cmp	r2, r3
 8006d46:	d100      	bne.n	8006d4a <memcpy+0xa>
 8006d48:	bd10      	pop	{r4, pc}
 8006d4a:	5ccc      	ldrb	r4, [r1, r3]
 8006d4c:	54c4      	strb	r4, [r0, r3]
 8006d4e:	3301      	adds	r3, #1
 8006d50:	e7f8      	b.n	8006d44 <memcpy+0x4>
	...

08006d54 <_init>:
 8006d54:	b5f8      	push	{r3, r4, r5, r6, r7, lr}
 8006d56:	46c0      	nop			@ (mov r8, r8)
 8006d58:	bcf8      	pop	{r3, r4, r5, r6, r7}
 8006d5a:	bc08      	pop	{r3}
 8006d5c:	469e      	mov	lr, r3
 8006d5e:	4770      	bx	lr

08006d60 <_fini>:
 8006d60:	b5f8      	push	{r3, r4, r5, r6, r7, lr}
 8006d62:	46c0      	nop			@ (mov r8, r8)
 8006d64:	bcf8      	pop	{r3, r4, r5, r6, r7}
 8006d66:	bc08      	pop	{r3}
 8006d68:	469e      	mov	lr, r3
 8006d6a:	4770      	bx	lr
