
uart_rf_gonderici.elf:     file format elf32-littlearm

Sections:
Idx Name          Size      VMA       LMA       File off  Algn
  0 .isr_vector   000000c0  08000000  08000000  00001000  2**0
                  CONTENTS, ALLOC, LOAD, READONLY, DATA
  1 .text         00005348  080000c0  080000c0  000010c0  2**2
                  CONTENTS, ALLOC, LOAD, READONLY, CODE
  2 .rodata       00000500  08005408  08005408  00006408  2**2
                  CONTENTS, ALLOC, LOAD, READONLY, DATA
  3 .ARM.extab    00000000  08005908  08005908  00007010  2**0
                  CONTENTS, READONLY
  4 .ARM          00000000  08005908  08005908  00007010  2**0
                  CONTENTS, READONLY
  5 .preinit_array 00000000  08005908  08005908  00007010  2**0
                  CONTENTS, ALLOC, LOAD, DATA
  6 .init_array   00000004  08005908  08005908  00006908  2**2
                  CONTENTS, ALLOC, LOAD, READONLY, DATA
  7 .fini_array   00000004  0800590c  0800590c  0000690c  2**2
                  CONTENTS, ALLOC, LOAD, READONLY, DATA
  8 .data         00000010  20000000  08005910  00007000  2**2
                  CONTENTS, ALLOC, LOAD, DATA
  9 .bss          00000330  20000010  08005920  00007010  2**2
                  ALLOC
 10 ._user_heap_stack 00000800  20000340  08005920  00007340  2**0
                  ALLOC
 11 .ARM.attributes 00000028  00000000  00000000  00007010  2**0
                  CONTENTS, READONLY
 12 .debug_info   0000ff1f  00000000  00000000  00007038  2**0
                  CONTENTS, READONLY, DEBUGGING, OCTETS
 13 .debug_abbrev 0000298b  00000000  00000000  00016f57  2**0
                  CONTENTS, READONLY, DEBUGGING, OCTETS
 14 .debug_aranges 00000ed0  00000000  00000000  000198e8  2**3
                  CONTENTS, READONLY, DEBUGGING, OCTETS
 15 .debug_rnglists 00000b9a  00000000  00000000  0001a7b8  2**0
                  CONTENTS, READONLY, DEBUGGING, OCTETS
 16 .debug_macro  000119eb  00000000  00000000  0001b352  2**0
                  CONTENTS, READONLY, DEBUGGING, OCTETS
 17 .debug_line   000145d3  00000000  00000000  0002cd3d  2**0
                  CONTENTS, READONLY, DEBUGGING, OCTETS
 18 .debug_str    00067a66  00000000  00000000  00041310  2**0
                  CONTENTS, READONLY, DEBUGGING, OCTETS
 19 .comment      00000043  00000000  00000000  000a8d76  2**0
                  CONTENTS, READONLY
 20 .debug_frame  00003448  00000000  00000000  000a8dbc  2**2
                  CONTENTS, READONLY, DEBUGGING, OCTETS
 21 .debug_line_str 0000006c  00000000  00000000  000ac204  2**0
                  CONTENTS, READONLY, DEBUGGING, OCTETS

Disassembly of section .text:

080000c0 <__do_global_dtors_aux>:
 80000c0:	b510      	push	{r4, lr}
 80000c2:	4c06      	ldr	r4, [pc, #24]	@ (80000dc <__do_global_dtors_aux+0x1c>)
 80000c4:	7823      	ldrb	r3, [r4, #0]
 80000c6:	2b00      	cmp	r3, #0
 80000c8:	d107      	bne.n	80000da <__do_global_dtors_aux+0x1a>
 80000ca:	4b05      	ldr	r3, [pc, #20]	@ (80000e0 <__do_global_dtors_aux+0x20>)
 80000cc:	2b00      	cmp	r3, #0
 80000ce:	d002      	beq.n	80000d6 <__do_global_dtors_aux+0x16>
 80000d0:	4804      	ldr	r0, [pc, #16]	@ (80000e4 <__do_global_dtors_aux+0x24>)
 80000d2:	e000      	b.n	80000d6 <__do_global_dtors_aux+0x16>
 80000d4:	bf00      	nop
 80000d6:	2301      	movs	r3, #1
 80000d8:	7023      	strb	r3, [r4, #0]
 80000da:	bd10      	pop	{r4, pc}
 80000dc:	20000010 	.word	0x20000010
 80000e0:	00000000 	.word	0x00000000
 80000e4:	080053f0 	.word	0x080053f0

080000e8 <frame_dummy>:
 80000e8:	4b04      	ldr	r3, [pc, #16]	@ (80000fc <frame_dummy+0x14>)
 80000ea:	b510      	push	{r4, lr}
 80000ec:	2b00      	cmp	r3, #0
 80000ee:	d003      	beq.n	80000f8 <frame_dummy+0x10>
 80000f0:	4903      	ldr	r1, [pc, #12]	@ (8000100 <frame_dummy+0x18>)
 80000f2:	4804      	ldr	r0, [pc, #16]	@ (8000104 <frame_dummy+0x1c>)
 80000f4:	e000      	b.n	80000f8 <frame_dummy+0x10>
 80000f6:	bf00      	nop
 80000f8:	bd10      	pop	{r4, pc}
 80000fa:	46c0      	nop			@ (mov r8, r8)
 80000fc:	00000000 	.word	0x00000000
 8000100:	20000014 	.word	0x20000014
 8000104:	080053f0 	.word	0x080053f0

08000108 <strlen>:
 8000108:	2300      	movs	r3, #0
 800010a:	5cc2      	ldrb	r2, [r0, r3]
 800010c:	3301      	adds	r3, #1
 800010e:	2a00      	cmp	r2, #0
 8000110:	d1fb      	bne.n	800010a <strlen+0x2>
 8000112:	1e58      	subs	r0, r3, #1
 8000114:	4770      	bx	lr
	...

08000118 <__udivsi3>:
 8000118:	2200      	movs	r2, #0
 800011a:	0843      	lsrs	r3, r0, #1
 800011c:	428b      	cmp	r3, r1
 800011e:	d374      	bcc.n	800020a <__udivsi3+0xf2>
 8000120:	0903      	lsrs	r3, r0, #4
 8000122:	428b      	cmp	r3, r1
 8000124:	d35f      	bcc.n	80001e6 <__udivsi3+0xce>
 8000126:	0a03      	lsrs	r3, r0, #8
 8000128:	428b      	cmp	r3, r1
 800012a:	d344      	bcc.n	80001b6 <__udivsi3+0x9e>
 800012c:	0b03      	lsrs	r3, r0, #12
 800012e:	428b      	cmp	r3, r1
 8000130:	d328      	bcc.n	8000184 <__udivsi3+0x6c>
 8000132:	0c03      	lsrs	r3, r0, #16
 8000134:	428b      	cmp	r3, r1
 8000136:	d30d      	bcc.n	8000154 <__udivsi3+0x3c>
 8000138:	22ff      	movs	r2, #255	@ 0xff
 800013a:	0209      	lsls	r1, r1, #8
 800013c:	ba12      	rev	r2, r2
 800013e:	0c03      	lsrs	r3, r0, #16
 8000140:	428b      	cmp	r3, r1
 8000142:	d302      	bcc.n	800014a <__udivsi3+0x32>
 8000144:	1212      	asrs	r2, r2, #8
 8000146:	0209      	lsls	r1, r1, #8
 8000148:	d065      	beq.n	8000216 <__udivsi3+0xfe>
 800014a:	0b03      	lsrs	r3, r0, #12
 800014c:	428b      	cmp	r3, r1
 800014e:	d319      	bcc.n	8000184 <__udivsi3+0x6c>
 8000150:	e000      	b.n	8000154 <__udivsi3+0x3c>
 8000152:	0a09      	lsrs	r1, r1, #8
 8000154:	0bc3      	lsrs	r3, r0, #15
 8000156:	428b      	cmp	r3, r1
 8000158:	d301      	bcc.n	800015e <__udivsi3+0x46>
 800015a:	03cb      	lsls	r3, r1, #15
 800015c:	1ac0      	subs	r0, r0, r3
 800015e:	4152      	adcs	r2, r2
 8000160:	0b83      	lsrs	r3, r0, #14
 8000162:	428b      	cmp	r3, r1
 8000164:	d301      	bcc.n	800016a <__udivsi3+0x52>
 8000166:	038b      	lsls	r3, r1, #14
 8000168:	1ac0      	subs	r0, r0, r3
 800016a:	4152      	adcs	r2, r2
 800016c:	0b43      	lsrs	r3, r0, #13
 800016e:	428b      	cmp	r3, r1
 8000170:	d301      	bcc.n	8000176 <__udivsi3+0x5e>
 8000172:	034b      	lsls	r3, r1, #13
 8000174:	1ac0      	subs	r0, r0, r3
 8000176:	4152      	adcs	r2, r2
 8000178:	0b03      	lsrs	r3, r0, #12
 800017a:	428b      	cmp	r3, r1
 800017c:	d301      	bcc.n	8000182 <__udivsi3+0x6a>
 800017e:	030b      	lsls	r3, r1, #12
 8000180:	1ac0      	subs	r0, r0, r3
 8000182:	4152      	adcs	r2, r2
 8000184:	0ac3      	lsrs	r3, r0, #11
 8000186:	428b      	cmp	r3, r1
 8000188:	d301      	bcc.n	800018e <__udivsi3+0x76>
 800018a:	02cb      	lsls	r3, r1, #11
 800018c:	1ac0      	subs	r0, r0, r3
 800018e:	4152      	adcs	r2, r2
 8000190:	0a83      	lsrs	r3, r0, #10
 8000192:	428b      	cmp	r3, r1
 8000194:	d301      	bcc.n	800019a <__udivsi3+0x82>
 8000196:	028b      	lsls	r3, r1, #10
 8000198:	1ac0      	subs	r0, r0, r3
 800019a:	4152      	adcs	r2, r2
 800019c:	0a43      	lsrs	r3, r0, #9
 800019e:	428b      	cmp	r3, r1
 80001a0:	d301      	bcc.n	80001a6 <__udivsi3+0x8e>
 80001a2:	024b      	lsls	r3, r1, #9
 80001a4:	1ac0      	subs	r0, r0, r3
 80001a6:	4152      	adcs	r2, r2
 80001a8:	0a03      	lsrs	r3, r0, #8
 80001aa:	428b      	cmp	r3, r1
 80001ac:	d301      	bcc.n	80001b2 <__udivsi3+0x9a>
 80001ae:	020b      	lsls	r3, r1, #8
 80001b0:	1ac0      	subs	r0, r0, r3
 80001b2:	4152      	adcs	r2, r2
 80001b4:	d2cd      	bcs.n	8000152 <__udivsi3+0x3a>
 80001b6:	09c3      	lsrs	r3, r0, #7
 80001b8:	428b      	cmp	r3, r1
 80001ba:	d301      	bcc.n	80001c0 <__udivsi3+0xa8>
 80001bc:	01cb      	lsls	r3, r1, #7
 80001be:	1ac0      	subs	r0, r0, r3
 80001c0:	4152      	adcs	r2, r2
 80001c2:	0983      	lsrs	r3, r0, #6
 80001c4:	428b      	cmp	r3, r1
 80001c6:	d301      	bcc.n	80001cc <__udivsi3+0xb4>
 80001c8:	018b      	lsls	r3, r1, #6
 80001ca:	1ac0      	subs	r0, r0, r3
 80001cc:	4152      	adcs	r2, r2
 80001ce:	0943      	lsrs	r3, r0, #5
 80001d0:	428b      	cmp	r3, r1
 80001d2:	d301      	bcc.n	80001d8 <__udivsi3+0xc0>
 80001d4:	014b      	lsls	r3, r1, #5
 80001d6:	1ac0      	subs	r0, r0, r3
 80001d8:	4152      	adcs	r2, r2
 80001da:	0903      	lsrs	r3, r0, #4
 80001dc:	428b      	cmp	r3, r1
 80001de:	d301      	bcc.n	80001e4 <__udivsi3+0xcc>
 80001e0:	010b      	lsls	r3, r1, #4
 80001e2:	1ac0      	subs	r0, r0, r3
 80001e4:	4152      	adcs	r2, r2
 80001e6:	08c3      	lsrs	r3, r0, #3
 80001e8:	428b      	cmp	r3, r1
 80001ea:	d301      	bcc.n	80001f0 <__udivsi3+0xd8>
 80001ec:	00cb      	lsls	r3, r1, #3
 80001ee:	1ac0      	subs	r0, r0, r3
 80001f0:	4152      	adcs	r2, r2
 80001f2:	0883      	lsrs	r3, r0, #2
 80001f4:	428b      	cmp	r3, r1
 80001f6:	d301      	bcc.n	80001fc <__udivsi3+0xe4>
 80001f8:	008b      	lsls	r3, r1, #2
 80001fa:	1ac0      	subs	r0, r0, r3
 80001fc:	4152      	adcs	r2, r2
 80001fe:	0843      	lsrs	r3, r0, #1
 8000200:	428b      	cmp	r3, r1
 8000202:	d301      	bcc.n	8000208 <__udivsi3+0xf0>
 8000204:	004b      	lsls	r3, r1, #1
 8000206:	1ac0      	subs	r0, r0, r3
 8000208:	4152      	adcs	r2, r2
 800020a:	1a41      	subs	r1, r0, r1
 800020c:	d200      	bcs.n	8000210 <__udivsi3+0xf8>
 800020e:	4601      	mov	r1, r0
 8000210:	4152      	adcs	r2, r2
 8000212:	4610      	mov	r0, r2
 8000214:	4770      	bx	lr
 8000216:	e7ff      	b.n	8000218 <__udivsi3+0x100>
 8000218:	b501      	push	{r0, lr}
 800021a:	2000      	movs	r0, #0
 800021c:	f000 f806 	bl	800022c <__aeabi_idiv0>
 8000220:	bd02      	pop	{r1, pc}
 8000222:	46c0      	nop			@ (mov r8, r8)

08000224 <__aeabi_uidivmod>:
 8000224:	2900      	cmp	r1, #0
 8000226:	d0f7      	beq.n	8000218 <__udivsi3+0x100>
 8000228:	e776      	b.n	8000118 <__udivsi3>
 800022a:	4770      	bx	lr

0800022c <__aeabi_idiv0>:
 800022c:	4770      	bx	lr
 800022e:	46c0      	nop			@ (mov r8, r8)

08000230 <MX_DMA_Init>:
 8000230:	b580      	push	{r7, lr}
 8000232:	b082      	sub	sp, #8
 8000234:	af00      	add	r7, sp, #0
 8000236:	4b0c      	ldr	r3, [pc, #48]	@ (8000268 <MX_DMA_Init+0x38>)
 8000238:	695a      	ldr	r2, [r3, #20]
 800023a:	4b0b      	ldr	r3, [pc, #44]	@ (8000268 <MX_DMA_Init+0x38>)
 800023c:	2101      	movs	r1, #1
 800023e:	430a      	orrs	r2, r1
 8000240:	615a      	str	r2, [r3, #20]
 8000242:	4b09      	ldr	r3, [pc, #36]	@ (8000268 <MX_DMA_Init+0x38>)
 8000244:	695b      	ldr	r3, [r3, #20]
 8000246:	2201      	movs	r2, #1
 8000248:	4013      	ands	r3, r2
 800024a:	607b      	str	r3, [r7, #4]
 800024c:	687b      	ldr	r3, [r7, #4]
 800024e:	2200      	movs	r2, #0
 8000250:	2103      	movs	r1, #3
 8000252:	200a      	movs	r0, #10
 8000254:	f001 feae 	bl	8001fb4 <HAL_NVIC_SetPriority>
 8000258:	200a      	movs	r0, #10
 800025a:	f001 fec0 	bl	8001fde <HAL_NVIC_EnableIRQ>
 800025e:	46c0      	nop			@ (mov r8, r8)
 8000260:	46bd      	mov	sp, r7
 8000262:	b002      	add	sp, #8
 8000264:	bd80      	pop	{r7, pc}
 8000266:	46c0      	nop			@ (mov r8, r8)
 8000268:	40021000 	.word	0x40021000

0800026c <MX_GPIO_Init>:
 800026c:	b590      	push	{r4, r7, lr}
 800026e:	b089      	sub	sp, #36	@ 0x24
 8000270:	af00      	add	r7, sp, #0
 8000272:	240c      	movs	r4, #12
 8000274:	193b      	adds	r3, r7, r4
 8000276:	0018      	movs	r0, r3
 8000278:	2314      	movs	r3, #20
 800027a:	001a      	movs	r2, r3
 800027c:	2100      	movs	r1, #0
 800027e:	f005 f881 	bl	8005384 <memset>
 8000282:	4b6c      	ldr	r3, [pc, #432]	@ (8000434 <MX_GPIO_Init+0x1c8>)
 8000284:	695a      	ldr	r2, [r3, #20]
 8000286:	4b6b      	ldr	r3, [pc, #428]	@ (8000434 <MX_GPIO_Init+0x1c8>)
 8000288:	2180      	movs	r1, #128	@ 0x80
 800028a:	0289      	lsls	r1, r1, #10
 800028c:	430a      	orrs	r2, r1
 800028e:	615a      	str	r2, [r3, #20]
 8000290:	4b68      	ldr	r3, [pc, #416]	@ (8000434 <MX_GPIO_Init+0x1c8>)
 8000292:	695a      	ldr	r2, [r3, #20]
 8000294:	2380      	movs	r3, #128	@ 0x80
 8000296:	029b      	lsls	r3, r3, #10
 8000298:	4013      	ands	r3, r2
 800029a:	60bb      	str	r3, [r7, #8]
 800029c:	68bb      	ldr	r3, [r7, #8]
 800029e:	4b65      	ldr	r3, [pc, #404]	@ (8000434 <MX_GPIO_Init+0x1c8>)
 80002a0:	695a      	ldr	r2, [r3, #20]
 80002a2:	4b64      	ldr	r3, [pc, #400]	@ (8000434 <MX_GPIO_Init+0x1c8>)
 80002a4:	2180      	movs	r1, #128	@ 0x80
 80002a6:	02c9      	lsls	r1, r1, #11
 80002a8:	430a      	orrs	r2, r1
 80002aa:	615a      	str	r2, [r3, #20]
 80002ac:	4b61      	ldr	r3, [pc, #388]	@ (8000434 <MX_GPIO_Init+0x1c8>)
 80002ae:	695a      	ldr	r2, [r3, #20]
 80002b0:	2380      	movs	r3, #128	@ 0x80
 80002b2:	02db      	lsls	r3, r3, #11
 80002b4:	4013      	ands	r3, r2
 80002b6:	607b      	str	r3, [r7, #4]
 80002b8:	687b      	ldr	r3, [r7, #4]
 80002ba:	4b5e      	ldr	r3, [pc, #376]	@ (8000434 <MX_GPIO_Init+0x1c8>)
 80002bc:	695a      	ldr	r2, [r3, #20]
 80002be:	4b5d      	ldr	r3, [pc, #372]	@ (8000434 <MX_GPIO_Init+0x1c8>)
 80002c0:	2180      	movs	r1, #128	@ 0x80
 80002c2:	03c9      	lsls	r1, r1, #15
 80002c4:	430a      	orrs	r2, r1
 80002c6:	615a      	str	r2, [r3, #20]
 80002c8:	4b5a      	ldr	r3, [pc, #360]	@ (8000434 <MX_GPIO_Init+0x1c8>)
 80002ca:	695a      	ldr	r2, [r3, #20]
 80002cc:	2380      	movs	r3, #128	@ 0x80
 80002ce:	03db      	lsls	r3, r3, #15
 80002d0:	4013      	ands	r3, r2
 80002d2:	603b      	str	r3, [r7, #0]
 80002d4:	683b      	ldr	r3, [r7, #0]
 80002d6:	2380      	movs	r3, #128	@ 0x80
 80002d8:	00db      	lsls	r3, r3, #3
 80002da:	4857      	ldr	r0, [pc, #348]	@ (8000438 <MX_GPIO_Init+0x1cc>)
 80002dc:	2201      	movs	r2, #1
 80002de:	0019      	movs	r1, r3
 80002e0:	f002 f9ab 	bl	800263a <HAL_GPIO_WritePin>
 80002e4:	2380      	movs	r3, #128	@ 0x80
 80002e6:	015b      	lsls	r3, r3, #5
 80002e8:	4853      	ldr	r0, [pc, #332]	@ (8000438 <MX_GPIO_Init+0x1cc>)
 80002ea:	2201      	movs	r2, #1
 80002ec:	0019      	movs	r1, r3
 80002ee:	f002 f9a4 	bl	800263a <HAL_GPIO_WritePin>
 80002f2:	2380      	movs	r3, #128	@ 0x80
 80002f4:	0159      	lsls	r1, r3, #5
 80002f6:	2390      	movs	r3, #144	@ 0x90
 80002f8:	05db      	lsls	r3, r3, #23
 80002fa:	2200      	movs	r2, #0
 80002fc:	0018      	movs	r0, r3
 80002fe:	f002 f99c 	bl	800263a <HAL_GPIO_WritePin>
 8000302:	4b4e      	ldr	r3, [pc, #312]	@ (800043c <MX_GPIO_Init+0x1d0>)
 8000304:	2200      	movs	r2, #0
 8000306:	2140      	movs	r1, #64	@ 0x40
 8000308:	0018      	movs	r0, r3
 800030a:	f002 f996 	bl	800263a <HAL_GPIO_WritePin>
 800030e:	193b      	adds	r3, r7, r4
 8000310:	2202      	movs	r2, #2
 8000312:	32ff      	adds	r2, #255	@ 0xff
 8000314:	601a      	str	r2, [r3, #0]
 8000316:	193b      	adds	r3, r7, r4
 8000318:	2200      	movs	r2, #0
 800031a:	605a      	str	r2, [r3, #4]
 800031c:	193b      	adds	r3, r7, r4
 800031e:	2200      	movs	r2, #0
 8000320:	609a      	str	r2, [r3, #8]
 8000322:	193a      	adds	r2, r7, r4
 8000324:	2390      	movs	r3, #144	@ 0x90
 8000326:	05db      	lsls	r3, r3, #23
 8000328:	0011      	movs	r1, r2
 800032a:	0018      	movs	r0, r3
 800032c:	f001 fff8 	bl	8002320 <HAL_GPIO_Init>
 8000330:	193b      	adds	r3, r7, r4
 8000332:	220c      	movs	r2, #12
 8000334:	601a      	str	r2, [r3, #0]
 8000336:	193b      	adds	r3, r7, r4
 8000338:	2202      	movs	r2, #2
 800033a:	605a      	str	r2, [r3, #4]
 800033c:	193b      	adds	r3, r7, r4
 800033e:	2200      	movs	r2, #0
 8000340:	609a      	str	r2, [r3, #8]
 8000342:	193b      	adds	r3, r7, r4
 8000344:	2203      	movs	r2, #3
 8000346:	60da      	str	r2, [r3, #12]
 8000348:	193b      	adds	r3, r7, r4
 800034a:	2201      	movs	r2, #1
 800034c:	611a      	str	r2, [r3, #16]
 800034e:	193a      	adds	r2, r7, r4
 8000350:	2390      	movs	r3, #144	@ 0x90
 8000352:	05db      	lsls	r3, r3, #23
 8000354:	0011      	movs	r1, r2
 8000356:	0018      	movs	r0, r3
 8000358:	f001 ffe2 	bl	8002320 <HAL_GPIO_Init>
 800035c:	0021      	movs	r1, r4
 800035e:	187b      	adds	r3, r7, r1
 8000360:	22a0      	movs	r2, #160	@ 0xa0
 8000362:	0152      	lsls	r2, r2, #5
 8000364:	601a      	str	r2, [r3, #0]
 8000366:	000c      	movs	r4, r1
 8000368:	193b      	adds	r3, r7, r4
 800036a:	2201      	movs	r2, #1
 800036c:	605a      	str	r2, [r3, #4]
 800036e:	193b      	adds	r3, r7, r4
 8000370:	2200      	movs	r2, #0
 8000372:	609a      	str	r2, [r3, #8]
 8000374:	193b      	adds	r3, r7, r4
 8000376:	2200      	movs	r2, #0
 8000378:	60da      	str	r2, [r3, #12]
 800037a:	193b      	adds	r3, r7, r4
 800037c:	4a2e      	ldr	r2, [pc, #184]	@ (8000438 <MX_GPIO_Init+0x1cc>)
 800037e:	0019      	movs	r1, r3
 8000380:	0010      	movs	r0, r2
 8000382:	f001 ffcd 	bl	8002320 <HAL_GPIO_Init>
 8000386:	0021      	movs	r1, r4
 8000388:	187b      	adds	r3, r7, r1
 800038a:	2280      	movs	r2, #128	@ 0x80
 800038c:	0112      	lsls	r2, r2, #4
 800038e:	601a      	str	r2, [r3, #0]
 8000390:	187b      	adds	r3, r7, r1
 8000392:	22c4      	movs	r2, #196	@ 0xc4
 8000394:	0392      	lsls	r2, r2, #14
 8000396:	605a      	str	r2, [r3, #4]
 8000398:	187b      	adds	r3, r7, r1
 800039a:	2201      	movs	r2, #1
 800039c:	609a      	str	r2, [r3, #8]
 800039e:	000c      	movs	r4, r1
 80003a0:	187b      	adds	r3, r7, r1
 80003a2:	4a25      	ldr	r2, [pc, #148]	@ (8000438 <MX_GPIO_Init+0x1cc>)
 80003a4:	0019      	movs	r1, r3
 80003a6:	0010      	movs	r0, r2
 80003a8:	f001 ffba 	bl	8002320 <HAL_GPIO_Init>
 80003ac:	0021      	movs	r1, r4
 80003ae:	187b      	adds	r3, r7, r1
 80003b0:	2280      	movs	r2, #128	@ 0x80
 80003b2:	0152      	lsls	r2, r2, #5
 80003b4:	601a      	str	r2, [r3, #0]
 80003b6:	000c      	movs	r4, r1
 80003b8:	193b      	adds	r3, r7, r4
 80003ba:	2201      	movs	r2, #1
 80003bc:	605a      	str	r2, [r3, #4]
 80003be:	193b      	adds	r3, r7, r4
 80003c0:	2200      	movs	r2, #0
 80003c2:	609a      	str	r2, [r3, #8]
 80003c4:	193b      	adds	r3, r7, r4
 80003c6:	2200      	movs	r2, #0
 80003c8:	60da      	str	r2, [r3, #12]
 80003ca:	193a      	adds	r2, r7, r4
 80003cc:	2390      	movs	r3, #144	@ 0x90
 80003ce:	05db      	lsls	r3, r3, #23
 80003d0:	0011      	movs	r1, r2
 80003d2:	0018      	movs	r0, r3
 80003d4:	f001 ffa4 	bl	8002320 <HAL_GPIO_Init>
 80003d8:	193b      	adds	r3, r7, r4
 80003da:	2240      	movs	r2, #64	@ 0x40
 80003dc:	601a      	str	r2, [r3, #0]
 80003de:	193b      	adds	r3, r7, r4
 80003e0:	2201      	movs	r2, #1
 80003e2:	605a      	str	r2, [r3, #4]
 80003e4:	193b      	adds	r3, r7, r4
 80003e6:	2200      	movs	r2, #0
 80003e8:	609a      	str	r2, [r3, #8]
 80003ea:	193b      	adds	r3, r7, r4
 80003ec:	2200      	movs	r2, #0
 80003ee:	60da      	str	r2, [r3, #12]
 80003f0:	193b      	adds	r3, r7, r4
 80003f2:	4a12      	ldr	r2, [pc, #72]	@ (800043c <MX_GPIO_Init+0x1d0>)
 80003f4:	0019      	movs	r1, r3
 80003f6:	0010      	movs	r0, r2
 80003f8:	f001 ff92 	bl	8002320 <HAL_GPIO_Init>
 80003fc:	0021      	movs	r1, r4
 80003fe:	187b      	adds	r3, r7, r1
 8000400:	2280      	movs	r2, #128	@ 0x80
 8000402:	601a      	str	r2, [r3, #0]
 8000404:	187b      	adds	r3, r7, r1
 8000406:	2200      	movs	r2, #0
 8000408:	605a      	str	r2, [r3, #4]
 800040a:	187b      	adds	r3, r7, r1
 800040c:	2201      	movs	r2, #1
 800040e:	609a      	str	r2, [r3, #8]
 8000410:	187b      	adds	r3, r7, r1
 8000412:	4a0a      	ldr	r2, [pc, #40]	@ (800043c <MX_GPIO_Init+0x1d0>)
 8000414:	0019      	movs	r1, r3
 8000416:	0010      	movs	r0, r2
 8000418:	f001 ff82 	bl	8002320 <HAL_GPIO_Init>
 800041c:	2200      	movs	r2, #0
 800041e:	2101      	movs	r1, #1
 8000420:	2007      	movs	r0, #7
 8000422:	f001 fdc7 	bl	8001fb4 <HAL_NVIC_SetPriority>
 8000426:	2007      	movs	r0, #7
 8000428:	f001 fdd9 	bl	8001fde <HAL_NVIC_EnableIRQ>
 800042c:	46c0      	nop			@ (mov r8, r8)
 800042e:	46bd      	mov	sp, r7
 8000430:	b009      	add	sp, #36	@ 0x24
 8000432:	bd90      	pop	{r4, r7, pc}
 8000434:	40021000 	.word	0x40021000
 8000438:	48000400 	.word	0x48000400
 800043c:	48001400 	.word	0x48001400

08000440 <MX_IWDG_Init>:
 8000440:	b580      	push	{r7, lr}
 8000442:	af00      	add	r7, sp, #0
 8000444:	4b0b      	ldr	r3, [pc, #44]	@ (8000474 <MX_IWDG_Init+0x34>)
 8000446:	4a0c      	ldr	r2, [pc, #48]	@ (8000478 <MX_IWDG_Init+0x38>)
 8000448:	601a      	str	r2, [r3, #0]
 800044a:	4b0a      	ldr	r3, [pc, #40]	@ (8000474 <MX_IWDG_Init+0x34>)
 800044c:	2206      	movs	r2, #6
 800044e:	605a      	str	r2, [r3, #4]
 8000450:	4b08      	ldr	r3, [pc, #32]	@ (8000474 <MX_IWDG_Init+0x34>)
 8000452:	4a0a      	ldr	r2, [pc, #40]	@ (800047c <MX_IWDG_Init+0x3c>)
 8000454:	60da      	str	r2, [r3, #12]
 8000456:	4b07      	ldr	r3, [pc, #28]	@ (8000474 <MX_IWDG_Init+0x34>)
 8000458:	4a08      	ldr	r2, [pc, #32]	@ (800047c <MX_IWDG_Init+0x3c>)
 800045a:	609a      	str	r2, [r3, #8]
 800045c:	4b05      	ldr	r3, [pc, #20]	@ (8000474 <MX_IWDG_Init+0x34>)
 800045e:	0018      	movs	r0, r3
 8000460:	f002 f94a 	bl	80026f8 <HAL_IWDG_Init>
 8000464:	1e03      	subs	r3, r0, #0
 8000466:	d001      	beq.n	800046c <MX_IWDG_Init+0x2c>
 8000468:	f000 ff65 	bl	8001336 <Error_Handler>
 800046c:	46c0      	nop			@ (mov r8, r8)
 800046e:	46bd      	mov	sp, r7
 8000470:	bd80      	pop	{r7, pc}
 8000472:	46c0      	nop			@ (mov r8, r8)
 8000474:	2000002c 	.word	0x2000002c
 8000478:	40003000 	.word	0x40003000
 800047c:	00000fff 	.word	0x00000fff

08000480 <Print>:
// =========================================================================
// UART Helper Fonksiyonları
// =========================================================================
static uint8_t fw_debug_en = 1;

static void Print(const char *s) {
 8000480:	b580      	push	{r7, lr}
 8000482:	b082      	sub	sp, #8
 8000484:	af00      	add	r7, sp, #0
 8000486:	6078      	str	r0, [r7, #4]
  if (!fw_debug_en)
 8000488:	4b0a      	ldr	r3, [pc, #40]	@ (80004b4 <Print+0x34>)
 800048a:	781b      	ldrb	r3, [r3, #0]
 800048c:	2b00      	cmp	r3, #0
 800048e:	d00c      	beq.n	80004aa <Print+0x2a>
    return;
  HAL_UART_Transmit(&huart1, (uint8_t *)s, (uint16_t)strlen(s), 500);
 8000490:	687b      	ldr	r3, [r7, #4]
 8000492:	0018      	movs	r0, r3
 8000494:	f7ff fe38 	bl	8000108 <strlen>
 8000498:	0003      	movs	r3, r0
 800049a:	b29a      	uxth	r2, r3
 800049c:	23fa      	movs	r3, #250	@ 0xfa
 800049e:	005b      	lsls	r3, r3, #1
 80004a0:	6879      	ldr	r1, [r7, #4]
 80004a2:	4805      	ldr	r0, [pc, #20]	@ (80004b8 <Print+0x38>)
 80004a4:	f003 ff56 	bl	8004354 <HAL_UART_Transmit>
 80004a8:	e000      	b.n	80004ac <Print+0x2c>
    return;
 80004aa:	46c0      	nop			@ (mov r8, r8)
}
 80004ac:	46bd      	mov	sp, r7
 80004ae:	b002      	add	sp, #8
 80004b0:	bd80      	pop	{r7, pc}
 80004b2:	46c0      	nop			@ (mov r8, r8)
 80004b4:	20000000 	.word	0x20000000
 80004b8:	2000022c 	.word	0x2000022c

080004bc <PrintHex>:

static void PrintHex(uint8_t v) {
 80004bc:	b5b0      	push	{r4, r5, r7, lr}
 80004be:	b088      	sub	sp, #32
 80004c0:	af00      	add	r7, sp, #0
 80004c2:	0002      	movs	r2, r0
 80004c4:	1dfb      	adds	r3, r7, #7
 80004c6:	701a      	strb	r2, [r3, #0]
  if (!fw_debug_en)
 80004c8:	4b17      	ldr	r3, [pc, #92]	@ (8000528 <PrintHex+0x6c>)
 80004ca:	781b      	ldrb	r3, [r3, #0]
 80004cc:	2b00      	cmp	r3, #0
 80004ce:	d026      	beq.n	800051e <PrintHex+0x62>
    return;
  const char h[] = "0123456789ABCDEF";
 80004d0:	250c      	movs	r5, #12
 80004d2:	197b      	adds	r3, r7, r5
 80004d4:	4a15      	ldr	r2, [pc, #84]	@ (800052c <PrintHex+0x70>)
 80004d6:	ca13      	ldmia	r2!, {r0, r1, r4}
 80004d8:	c313      	stmia	r3!, {r0, r1, r4}
 80004da:	6811      	ldr	r1, [r2, #0]
 80004dc:	6019      	str	r1, [r3, #0]
 80004de:	7912      	ldrb	r2, [r2, #4]
 80004e0:	711a      	strb	r2, [r3, #4]
  char o[3] = {h[(v >> 4) & 0xF], h[v & 0xF], ' '};
 80004e2:	1dfb      	adds	r3, r7, #7
 80004e4:	781b      	ldrb	r3, [r3, #0]
 80004e6:	091b      	lsrs	r3, r3, #4
 80004e8:	b2db      	uxtb	r3, r3
 80004ea:	001a      	movs	r2, r3
 80004ec:	230f      	movs	r3, #15
 80004ee:	4013      	ands	r3, r2
 80004f0:	197a      	adds	r2, r7, r5
 80004f2:	5cd2      	ldrb	r2, [r2, r3]
 80004f4:	2108      	movs	r1, #8
 80004f6:	187b      	adds	r3, r7, r1
 80004f8:	701a      	strb	r2, [r3, #0]
 80004fa:	1dfb      	adds	r3, r7, #7
 80004fc:	781b      	ldrb	r3, [r3, #0]
 80004fe:	220f      	movs	r2, #15
 8000500:	4013      	ands	r3, r2
 8000502:	197a      	adds	r2, r7, r5
 8000504:	5cd2      	ldrb	r2, [r2, r3]
 8000506:	187b      	adds	r3, r7, r1
 8000508:	705a      	strb	r2, [r3, #1]
 800050a:	187b      	adds	r3, r7, r1
 800050c:	2220      	movs	r2, #32
 800050e:	709a      	strb	r2, [r3, #2]
  HAL_UART_Transmit(&huart1, (uint8_t *)o, 3, 100);
 8000510:	1879      	adds	r1, r7, r1
 8000512:	4807      	ldr	r0, [pc, #28]	@ (8000530 <PrintHex+0x74>)
 8000514:	2364      	movs	r3, #100	@ 0x64
 8000516:	2203      	movs	r2, #3
 8000518:	f003 ff1c 	bl	8004354 <HAL_UART_Transmit>
 800051c:	e000      	b.n	8000520 <PrintHex+0x64>
    return;
 800051e:	46c0      	nop			@ (mov r8, r8)
}
 8000520:	46bd      	mov	sp, r7
 8000522:	b008      	add	sp, #32
 8000524:	bdb0      	pop	{r4, r5, r7, pc}
 8000526:	46c0      	nop			@ (mov r8, r8)
 8000528:	20000000 	.word	0x20000000
 800052c:	08005408 	.word	0x08005408
 8000530:	2000022c 	.word	0x2000022c

08000534 <PrintBuf>:

static void PrintBuf(const uint8_t *b, uint16_t n) {
 8000534:	b590      	push	{r4, r7, lr}
 8000536:	b083      	sub	sp, #12
 8000538:	af00      	add	r7, sp, #0
 800053a:	6078      	str	r0, [r7, #4]
 800053c:	000a      	movs	r2, r1
 800053e:	1cbb      	adds	r3, r7, #2
 8000540:	801a      	strh	r2, [r3, #0]
  if (!fw_debug_en)
 8000542:	4b09      	ldr	r3, [pc, #36]	@ (8000568 <PrintBuf+0x34>)
 8000544:	781b      	ldrb	r3, [r3, #0]
 8000546:	2b00      	cmp	r3, #0
 8000548:	d009      	beq.n	800055e <PrintBuf+0x2a>
    return;
  HAL_UART_Transmit(&huart1, (uint8_t *)b, n, 500);
 800054a:	23fa      	movs	r3, #250	@ 0xfa
 800054c:	005c      	lsls	r4, r3, #1
 800054e:	1cbb      	adds	r3, r7, #2
 8000550:	881a      	ldrh	r2, [r3, #0]
 8000552:	6879      	ldr	r1, [r7, #4]
 8000554:	4805      	ldr	r0, [pc, #20]	@ (800056c <PrintBuf+0x38>)
 8000556:	0023      	movs	r3, r4
 8000558:	f003 fefc 	bl	8004354 <HAL_UART_Transmit>
 800055c:	e000      	b.n	8000560 <PrintBuf+0x2c>
    return;
 800055e:	46c0      	nop			@ (mov r8, r8)
}
 8000560:	46bd      	mov	sp, r7
 8000562:	b003      	add	sp, #12
 8000564:	bd90      	pop	{r4, r7, pc}
 8000566:	46c0      	nop			@ (mov r8, r8)
 8000568:	20000000 	.word	0x20000000
 800056c:	2000022c 	.word	0x2000022c

08000570 <RF_SendPacket>:

// =========================================================================
// RF PAKET GÖNDERME/ALMA
// =========================================================================
static void RF_SendPacket(uint8_t type, uint16_t seq, const uint8_t *payload,
                          uint8_t payload_len) {
 8000570:	b590      	push	{r4, r7, lr}
 8000572:	b091      	sub	sp, #68	@ 0x44
 8000574:	af00      	add	r7, sp, #0
 8000576:	0004      	movs	r4, r0
 8000578:	0008      	movs	r0, r1
 800057a:	603a      	str	r2, [r7, #0]
 800057c:	0019      	movs	r1, r3
 800057e:	1dfb      	adds	r3, r7, #7
 8000580:	1c22      	adds	r2, r4, #0
 8000582:	701a      	strb	r2, [r3, #0]
 8000584:	1d3b      	adds	r3, r7, #4
 8000586:	1c02      	adds	r2, r0, #0
 8000588:	801a      	strh	r2, [r3, #0]
 800058a:	1dbb      	adds	r3, r7, #6
 800058c:	1c0a      	adds	r2, r1, #0
 800058e:	701a      	strb	r2, [r3, #0]
  uint8_t pkt[RF_MAX_PACKET];
  uint8_t total_len = RF_HEADER_LEN;
 8000590:	233f      	movs	r3, #63	@ 0x3f
 8000592:	18fb      	adds	r3, r7, r3
 8000594:	2203      	movs	r2, #3
 8000596:	701a      	strb	r2, [r3, #0]

  pkt[0] = type;
 8000598:	2108      	movs	r1, #8
 800059a:	187b      	adds	r3, r7, r1
 800059c:	1dfa      	adds	r2, r7, #7
 800059e:	7812      	ldrb	r2, [r2, #0]
 80005a0:	701a      	strb	r2, [r3, #0]
  pkt[1] = (uint8_t)(seq >> 8);
 80005a2:	1d3b      	adds	r3, r7, #4
 80005a4:	881b      	ldrh	r3, [r3, #0]
 80005a6:	0a1b      	lsrs	r3, r3, #8
 80005a8:	b29b      	uxth	r3, r3
 80005aa:	b2da      	uxtb	r2, r3
 80005ac:	187b      	adds	r3, r7, r1
 80005ae:	705a      	strb	r2, [r3, #1]
  pkt[2] = (uint8_t)(seq & 0xFF);
 80005b0:	1d3b      	adds	r3, r7, #4
 80005b2:	881b      	ldrh	r3, [r3, #0]
 80005b4:	b2da      	uxtb	r2, r3
 80005b6:	187b      	adds	r3, r7, r1
 80005b8:	709a      	strb	r2, [r3, #2]

  if (payload && payload_len > 0) {
 80005ba:	683b      	ldr	r3, [r7, #0]
 80005bc:	2b00      	cmp	r3, #0
 80005be:	d01b      	beq.n	80005f8 <RF_SendPacket+0x88>
 80005c0:	1dbb      	adds	r3, r7, #6
 80005c2:	781b      	ldrb	r3, [r3, #0]
 80005c4:	2b00      	cmp	r3, #0
 80005c6:	d017      	beq.n	80005f8 <RF_SendPacket+0x88>
    if (payload_len > RF_MAX_DATA)
 80005c8:	1dbb      	adds	r3, r7, #6
 80005ca:	781b      	ldrb	r3, [r3, #0]
 80005cc:	2b32      	cmp	r3, #50	@ 0x32
 80005ce:	d902      	bls.n	80005d6 <RF_SendPacket+0x66>
      payload_len = RF_MAX_DATA;
 80005d0:	1dbb      	adds	r3, r7, #6
 80005d2:	2232      	movs	r2, #50	@ 0x32
 80005d4:	701a      	strb	r2, [r3, #0]
    memcpy(&pkt[3], payload, payload_len);
 80005d6:	1dbb      	adds	r3, r7, #6
 80005d8:	781a      	ldrb	r2, [r3, #0]
 80005da:	6839      	ldr	r1, [r7, #0]
 80005dc:	2308      	movs	r3, #8
 80005de:	18fb      	adds	r3, r7, r3
 80005e0:	3303      	adds	r3, #3
 80005e2:	0018      	movs	r0, r3
 80005e4:	f004 fefa 	bl	80053dc <memcpy>
    total_len += payload_len;
 80005e8:	223f      	movs	r2, #63	@ 0x3f
 80005ea:	18bb      	adds	r3, r7, r2
 80005ec:	18b9      	adds	r1, r7, r2
 80005ee:	1dba      	adds	r2, r7, #6
 80005f0:	7809      	ldrb	r1, [r1, #0]
 80005f2:	7812      	ldrb	r2, [r2, #0]
 80005f4:	188a      	adds	r2, r1, r2
 80005f6:	701a      	strb	r2, [r3, #0]
  }

  SI4432_SendPacket(pkt, total_len);
 80005f8:	233f      	movs	r3, #63	@ 0x3f
 80005fa:	18fb      	adds	r3, r7, r3
 80005fc:	781a      	ldrb	r2, [r3, #0]
 80005fe:	2308      	movs	r3, #8
 8000600:	18fb      	adds	r3, r7, r3
 8000602:	0011      	movs	r1, r2
 8000604:	0018      	movs	r0, r3
 8000606:	f001 f80b 	bl	8001620 <SI4432_SendPacket>
}
 800060a:	46c0      	nop			@ (mov r8, r8)
 800060c:	46bd      	mov	sp, r7
 800060e:	b011      	add	sp, #68	@ 0x44
 8000610:	bd90      	pop	{r4, r7, pc}
	...

08000614 <RF_WaitForPacket>:
/**
 * RF paket bekle.
 * @return 1 = paket alındı, 0 = timeout
 */
static uint8_t RF_WaitForPacket(uint8_t *type, uint16_t *seq, uint8_t *payload,
                                uint8_t *payload_len, uint32_t timeout_ms) {
 8000614:	b5b0      	push	{r4, r5, r7, lr}
 8000616:	b086      	sub	sp, #24
 8000618:	af00      	add	r7, sp, #0
 800061a:	60f8      	str	r0, [r7, #12]
 800061c:	60b9      	str	r1, [r7, #8]
 800061e:	607a      	str	r2, [r7, #4]
 8000620:	603b      	str	r3, [r7, #0]
  uint32_t start = HAL_GetTick();
 8000622:	f001 fbed 	bl	8001e00 <HAL_GetTick>
 8000626:	0003      	movs	r3, r0
 8000628:	617b      	str	r3, [r7, #20]

  SI4432_StartRx();
 800062a:	f001 f865 	bl	80016f8 <SI4432_StartRx>

  while ((HAL_GetTick() - start) < timeout_ms) {
 800062e:	e038      	b.n	80006a2 <RF_WaitForPacket+0x8e>
    HAL_IWDG_Refresh(&hiwdg);
 8000630:	4b22      	ldr	r3, [pc, #136]	@ (80006bc <RF_WaitForPacket+0xa8>)
 8000632:	0018      	movs	r0, r3
 8000634:	f002 f8b2 	bl	800279c <HAL_IWDG_Refresh>

    uint8_t len = SI4432_CheckRx(rf_rx_buf);
 8000638:	2513      	movs	r5, #19
 800063a:	197c      	adds	r4, r7, r5
 800063c:	4b20      	ldr	r3, [pc, #128]	@ (80006c0 <RF_WaitForPacket+0xac>)
 800063e:	0018      	movs	r0, r3
 8000640:	f001 f878 	bl	8001734 <SI4432_CheckRx>
 8000644:	0003      	movs	r3, r0
 8000646:	7023      	strb	r3, [r4, #0]
    if (len >= RF_HEADER_LEN) {
 8000648:	0029      	movs	r1, r5
 800064a:	187b      	adds	r3, r7, r1
 800064c:	781b      	ldrb	r3, [r3, #0]
 800064e:	2b02      	cmp	r3, #2
 8000650:	d927      	bls.n	80006a2 <RF_WaitForPacket+0x8e>
      *type = rf_rx_buf[0];
 8000652:	4b1b      	ldr	r3, [pc, #108]	@ (80006c0 <RF_WaitForPacket+0xac>)
 8000654:	781a      	ldrb	r2, [r3, #0]
 8000656:	68fb      	ldr	r3, [r7, #12]
 8000658:	701a      	strb	r2, [r3, #0]
      *seq = ((uint16_t)rf_rx_buf[1] << 8) | rf_rx_buf[2];
 800065a:	4b19      	ldr	r3, [pc, #100]	@ (80006c0 <RF_WaitForPacket+0xac>)
 800065c:	785b      	ldrb	r3, [r3, #1]
 800065e:	b21b      	sxth	r3, r3
 8000660:	021b      	lsls	r3, r3, #8
 8000662:	b21a      	sxth	r2, r3
 8000664:	4b16      	ldr	r3, [pc, #88]	@ (80006c0 <RF_WaitForPacket+0xac>)
 8000666:	789b      	ldrb	r3, [r3, #2]
 8000668:	b21b      	sxth	r3, r3
 800066a:	4313      	orrs	r3, r2
 800066c:	b21b      	sxth	r3, r3
 800066e:	b29a      	uxth	r2, r3
 8000670:	68bb      	ldr	r3, [r7, #8]
 8000672:	801a      	strh	r2, [r3, #0]
      *payload_len = len - RF_HEADER_LEN;
 8000674:	187b      	adds	r3, r7, r1
 8000676:	781b      	ldrb	r3, [r3, #0]
 8000678:	3b03      	subs	r3, #3
 800067a:	b2da      	uxtb	r2, r3
 800067c:	683b      	ldr	r3, [r7, #0]
 800067e:	701a      	strb	r2, [r3, #0]
      if (*payload_len > 0 && payload) {
 8000680:	683b      	ldr	r3, [r7, #0]
 8000682:	781b      	ldrb	r3, [r3, #0]
 8000684:	2b00      	cmp	r3, #0
 8000686:	d00a      	beq.n	800069e <RF_WaitForPacket+0x8a>
 8000688:	687b      	ldr	r3, [r7, #4]
 800068a:	2b00      	cmp	r3, #0
 800068c:	d007      	beq.n	800069e <RF_WaitForPacket+0x8a>
        memcpy(payload, &rf_rx_buf[3], *payload_len);
 800068e:	683b      	ldr	r3, [r7, #0]
 8000690:	781b      	ldrb	r3, [r3, #0]
 8000692:	001a      	movs	r2, r3
 8000694:	490b      	ldr	r1, [pc, #44]	@ (80006c4 <RF_WaitForPacket+0xb0>)
 8000696:	687b      	ldr	r3, [r7, #4]
 8000698:	0018      	movs	r0, r3
 800069a:	f004 fe9f 	bl	80053dc <memcpy>
      }
      return 1;
 800069e:	2301      	movs	r3, #1
 80006a0:	e008      	b.n	80006b4 <RF_WaitForPacket+0xa0>
  while ((HAL_GetTick() - start) < timeout_ms) {
 80006a2:	f001 fbad 	bl	8001e00 <HAL_GetTick>
 80006a6:	0002      	movs	r2, r0
 80006a8:	697b      	ldr	r3, [r7, #20]
 80006aa:	1ad3      	subs	r3, r2, r3
 80006ac:	6aba      	ldr	r2, [r7, #40]	@ 0x28
 80006ae:	429a      	cmp	r2, r3
 80006b0:	d8be      	bhi.n	8000630 <RF_WaitForPacket+0x1c>
    }
  }

  return 0;
 80006b2:	2300      	movs	r3, #0
}
 80006b4:	0018      	movs	r0, r3
 80006b6:	46bd      	mov	sp, r7
 80006b8:	b006      	add	sp, #24
 80006ba:	bdb0      	pop	{r4, r5, r7, pc}
 80006bc:	2000002c 	.word	0x2000002c
 80006c0:	20000060 	.word	0x20000060
 80006c4:	20000063 	.word	0x20000063

080006c8 <RF_SendChunkReliable>:
 * Güvenilir tek RF chunk gönderimi — ACK dönene kadar retry
 * @return 1 = ACK alındı, 0 = başarısız
 */
static uint8_t RF_SendChunkReliable(uint8_t type, uint16_t seq,
                                    const uint8_t *payload,
                                    uint8_t payload_len) {
 80006c8:	b5f0      	push	{r4, r5, r6, r7, lr}
 80006ca:	b093      	sub	sp, #76	@ 0x4c
 80006cc:	af02      	add	r7, sp, #8
 80006ce:	0004      	movs	r4, r0
 80006d0:	0008      	movs	r0, r1
 80006d2:	603a      	str	r2, [r7, #0]
 80006d4:	0019      	movs	r1, r3
 80006d6:	1dfb      	adds	r3, r7, #7
 80006d8:	1c22      	adds	r2, r4, #0
 80006da:	701a      	strb	r2, [r3, #0]
 80006dc:	1d3b      	adds	r3, r7, #4
 80006de:	1c02      	adds	r2, r0, #0
 80006e0:	801a      	strh	r2, [r3, #0]
 80006e2:	1dbb      	adds	r3, r7, #6
 80006e4:	1c0a      	adds	r2, r1, #0
 80006e6:	701a      	strb	r2, [r3, #0]
  uint8_t rx_type, rx_pld[RF_MAX_DATA];
  uint16_t rx_seq;
  uint8_t rx_pld_len;

  for (uint8_t attempt = 0; attempt < RF_MAX_RETRIES; attempt++) {
 80006e8:	233f      	movs	r3, #63	@ 0x3f
 80006ea:	18fb      	adds	r3, r7, r3
 80006ec:	2200      	movs	r2, #0
 80006ee:	701a      	strb	r2, [r3, #0]
 80006f0:	e037      	b.n	8000762 <RF_SendChunkReliable+0x9a>
    RF_SendPacket(type, seq, payload, payload_len);
 80006f2:	1dbb      	adds	r3, r7, #6
 80006f4:	781c      	ldrb	r4, [r3, #0]
 80006f6:	683a      	ldr	r2, [r7, #0]
 80006f8:	1d3b      	adds	r3, r7, #4
 80006fa:	8819      	ldrh	r1, [r3, #0]
 80006fc:	1dfb      	adds	r3, r7, #7
 80006fe:	7818      	ldrb	r0, [r3, #0]
 8000700:	0023      	movs	r3, r4
 8000702:	f7ff ff35 	bl	8000570 <RF_SendPacket>

    if (RF_WaitForPacket(&rx_type, &rx_seq, rx_pld, &rx_pld_len,
 8000706:	2309      	movs	r3, #9
 8000708:	18fc      	adds	r4, r7, r3
 800070a:	230c      	movs	r3, #12
 800070c:	18fa      	adds	r2, r7, r3
 800070e:	250a      	movs	r5, #10
 8000710:	1979      	adds	r1, r7, r5
 8000712:	263e      	movs	r6, #62	@ 0x3e
 8000714:	19b8      	adds	r0, r7, r6
 8000716:	23fa      	movs	r3, #250	@ 0xfa
 8000718:	00db      	lsls	r3, r3, #3
 800071a:	9300      	str	r3, [sp, #0]
 800071c:	0023      	movs	r3, r4
 800071e:	f7ff ff79 	bl	8000614 <RF_WaitForPacket>
 8000722:	1e03      	subs	r3, r0, #0
 8000724:	d013      	beq.n	800074e <RF_SendChunkReliable+0x86>
                         RF_ACK_TIMEOUT_MS)) {
      if (rx_type == RF_CMD_ACK && rx_seq == seq) {
 8000726:	19bb      	adds	r3, r7, r6
 8000728:	781b      	ldrb	r3, [r3, #0]
 800072a:	2b10      	cmp	r3, #16
 800072c:	d107      	bne.n	800073e <RF_SendChunkReliable+0x76>
 800072e:	197b      	adds	r3, r7, r5
 8000730:	881b      	ldrh	r3, [r3, #0]
 8000732:	1d3a      	adds	r2, r7, #4
 8000734:	8812      	ldrh	r2, [r2, #0]
 8000736:	429a      	cmp	r2, r3
 8000738:	d101      	bne.n	800073e <RF_SendChunkReliable+0x76>
        return 1;
 800073a:	2301      	movs	r3, #1
 800073c:	e017      	b.n	800076e <RF_SendChunkReliable+0xa6>
      }
      // NACK veya yanlış paket → tekrar dene
      if (rx_type == RF_CMD_NACK) {
 800073e:	233e      	movs	r3, #62	@ 0x3e
 8000740:	18fb      	adds	r3, r7, r3
 8000742:	781b      	ldrb	r3, [r3, #0]
 8000744:	2b11      	cmp	r3, #17
 8000746:	d102      	bne.n	800074e <RF_SendChunkReliable+0x86>
        HAL_Delay(50); // Kısa bekleme
 8000748:	2032      	movs	r0, #50	@ 0x32
 800074a:	f001 fb63 	bl	8001e14 <HAL_Delay>
      }
    }
    HAL_IWDG_Refresh(&hiwdg);
 800074e:	4b0a      	ldr	r3, [pc, #40]	@ (8000778 <RF_SendChunkReliable+0xb0>)
 8000750:	0018      	movs	r0, r3
 8000752:	f002 f823 	bl	800279c <HAL_IWDG_Refresh>
  for (uint8_t attempt = 0; attempt < RF_MAX_RETRIES; attempt++) {
 8000756:	213f      	movs	r1, #63	@ 0x3f
 8000758:	187b      	adds	r3, r7, r1
 800075a:	781a      	ldrb	r2, [r3, #0]
 800075c:	187b      	adds	r3, r7, r1
 800075e:	3201      	adds	r2, #1
 8000760:	701a      	strb	r2, [r3, #0]
 8000762:	233f      	movs	r3, #63	@ 0x3f
 8000764:	18fb      	adds	r3, r7, r3
 8000766:	781b      	ldrb	r3, [r3, #0]
 8000768:	2b04      	cmp	r3, #4
 800076a:	d9c2      	bls.n	80006f2 <RF_SendChunkReliable+0x2a>
  }

  return 0;
 800076c:	2300      	movs	r3, #0
}
 800076e:	0018      	movs	r0, r3
 8000770:	46bd      	mov	sp, r7
 8000772:	b011      	add	sp, #68	@ 0x44
 8000774:	bdf0      	pop	{r4, r5, r6, r7, pc}
 8000776:	46c0      	nop			@ (mov r8, r8)
 8000778:	2000002c 	.word	0x2000002c

0800077c <FirmwareUpdate_Mode>:

// =========================================================================
// FİRMWARE UPDATE MODU — UART↔RF Köprüsü
// =========================================================================
static void FirmwareUpdate_Mode(void) {
 800077c:	b5f0      	push	{r4, r5, r6, r7, lr}
 800077e:	b0ab      	sub	sp, #172	@ 0xac
 8000780:	af02      	add	r7, sp, #8
  uint8_t ack = UART_ACK;
 8000782:	237b      	movs	r3, #123	@ 0x7b
 8000784:	18fb      	adds	r3, r7, r3
 8000786:	2206      	movs	r2, #6
 8000788:	701a      	strb	r2, [r3, #0]
  uint8_t nack = UART_NACK;
 800078a:	237a      	movs	r3, #122	@ 0x7a
 800078c:	18fb      	adds	r3, r7, r3
 800078e:	2215      	movs	r2, #21
 8000790:	701a      	strb	r2, [r3, #0]
  uint8_t rx_type, rx_pld[RF_MAX_DATA];
  uint16_t rx_seq;
  uint8_t rx_pld_len;

  // UART loglarını kapat (binary iletişimi bozmamak için)
  fw_debug_en = 0;
 8000792:	4bcb      	ldr	r3, [pc, #812]	@ (8000ac0 <FirmwareUpdate_Mode+0x344>)
 8000794:	2200      	movs	r2, #0
 8000796:	701a      	strb	r2, [r3, #0]

  // LED0 yak — firmware update modunda
  HAL_GPIO_WritePin(LED0_GPIO_Port, LED0_Pin, GPIO_PIN_SET);
 8000798:	4bca      	ldr	r3, [pc, #808]	@ (8000ac4 <FirmwareUpdate_Mode+0x348>)
 800079a:	2201      	movs	r2, #1
 800079c:	2140      	movs	r1, #64	@ 0x40
 800079e:	0018      	movs	r0, r3
 80007a0:	f001 ff4b 	bl	800263a <HAL_GPIO_WritePin>

  // ─────────────────────────────────────────────
  // 1. BOOT REQUEST GÖNDER — Alıcıyı bootloader'a geçir
  // ─────────────────────────────────────────────
  Print("[FW] Aliciya BOOT_REQUEST gonderiliyor...\r\n");
 80007a4:	4bc8      	ldr	r3, [pc, #800]	@ (8000ac8 <FirmwareUpdate_Mode+0x34c>)
 80007a6:	0018      	movs	r0, r3
 80007a8:	f7ff fe6a 	bl	8000480 <Print>

  uint8_t boot_ack_received = 0;
 80007ac:	239f      	movs	r3, #159	@ 0x9f
 80007ae:	18fb      	adds	r3, r7, r3
 80007b0:	2200      	movs	r2, #0
 80007b2:	701a      	strb	r2, [r3, #0]
  uint32_t boot_start = HAL_GetTick();
 80007b4:	f001 fb24 	bl	8001e00 <HAL_GetTick>
 80007b8:	0003      	movs	r3, r0
 80007ba:	2288      	movs	r2, #136	@ 0x88
 80007bc:	18ba      	adds	r2, r7, r2
 80007be:	6013      	str	r3, [r2, #0]

  while (!boot_ack_received && (HAL_GetTick() - boot_start) < 30000) {
 80007c0:	e02b      	b.n	800081a <FirmwareUpdate_Mode+0x9e>
    HAL_IWDG_Refresh(&hiwdg);
 80007c2:	4bc2      	ldr	r3, [pc, #776]	@ (8000acc <FirmwareUpdate_Mode+0x350>)
 80007c4:	0018      	movs	r0, r3
 80007c6:	f001 ffe9 	bl	800279c <HAL_IWDG_Refresh>

    // BOOT_REQUEST gönder
    RF_SendPacket(RF_CMD_BOOT_REQUEST, rf_seq_counter, NULL, 0);
 80007ca:	4bc1      	ldr	r3, [pc, #772]	@ (8000ad0 <FirmwareUpdate_Mode+0x354>)
 80007cc:	8819      	ldrh	r1, [r3, #0]
 80007ce:	2300      	movs	r3, #0
 80007d0:	2200      	movs	r2, #0
 80007d2:	2001      	movs	r0, #1
 80007d4:	f7ff fecc 	bl	8000570 <RF_SendPacket>

    // BOOT_ACK bekle
    if (RF_WaitForPacket(&rx_type, &rx_seq, rx_pld, &rx_pld_len, 2000)) {
 80007d8:	2341      	movs	r3, #65	@ 0x41
 80007da:	18fc      	adds	r4, r7, r3
 80007dc:	2344      	movs	r3, #68	@ 0x44
 80007de:	18fa      	adds	r2, r7, r3
 80007e0:	2342      	movs	r3, #66	@ 0x42
 80007e2:	18f9      	adds	r1, r7, r3
 80007e4:	2579      	movs	r5, #121	@ 0x79
 80007e6:	1978      	adds	r0, r7, r5
 80007e8:	23fa      	movs	r3, #250	@ 0xfa
 80007ea:	00db      	lsls	r3, r3, #3
 80007ec:	9300      	str	r3, [sp, #0]
 80007ee:	0023      	movs	r3, r4
 80007f0:	f7ff ff10 	bl	8000614 <RF_WaitForPacket>
 80007f4:	1e03      	subs	r3, r0, #0
 80007f6:	d00b      	beq.n	8000810 <FirmwareUpdate_Mode+0x94>
      if (rx_type == RF_CMD_BOOT_ACK) {
 80007f8:	197b      	adds	r3, r7, r5
 80007fa:	781b      	ldrb	r3, [r3, #0]
 80007fc:	2b02      	cmp	r3, #2
 80007fe:	d107      	bne.n	8000810 <FirmwareUpdate_Mode+0x94>
        boot_ack_received = 1;
 8000800:	239f      	movs	r3, #159	@ 0x9f
 8000802:	18fb      	adds	r3, r7, r3
 8000804:	2201      	movs	r2, #1
 8000806:	701a      	strb	r2, [r3, #0]
        Print("[FW] Alici bootloader'a gecti!\r\n");
 8000808:	4bb2      	ldr	r3, [pc, #712]	@ (8000ad4 <FirmwareUpdate_Mode+0x358>)
 800080a:	0018      	movs	r0, r3
 800080c:	f7ff fe38 	bl	8000480 <Print>
      }
    }

    // LED toggle
    HAL_GPIO_TogglePin(LED0_GPIO_Port, LED0_Pin);
 8000810:	4bac      	ldr	r3, [pc, #688]	@ (8000ac4 <FirmwareUpdate_Mode+0x348>)
 8000812:	2140      	movs	r1, #64	@ 0x40
 8000814:	0018      	movs	r0, r3
 8000816:	f001 ff2d 	bl	8002674 <HAL_GPIO_TogglePin>
  while (!boot_ack_received && (HAL_GetTick() - boot_start) < 30000) {
 800081a:	239f      	movs	r3, #159	@ 0x9f
 800081c:	18fb      	adds	r3, r7, r3
 800081e:	781b      	ldrb	r3, [r3, #0]
 8000820:	2b00      	cmp	r3, #0
 8000822:	d109      	bne.n	8000838 <FirmwareUpdate_Mode+0xbc>
 8000824:	f001 faec 	bl	8001e00 <HAL_GetTick>
 8000828:	0002      	movs	r2, r0
 800082a:	2388      	movs	r3, #136	@ 0x88
 800082c:	18fb      	adds	r3, r7, r3
 800082e:	681b      	ldr	r3, [r3, #0]
 8000830:	1ad3      	subs	r3, r2, r3
 8000832:	4aa9      	ldr	r2, [pc, #676]	@ (8000ad8 <FirmwareUpdate_Mode+0x35c>)
 8000834:	4293      	cmp	r3, r2
 8000836:	d9c4      	bls.n	80007c2 <FirmwareUpdate_Mode+0x46>
  }

  if (!boot_ack_received) {
 8000838:	239f      	movs	r3, #159	@ 0x9f
 800083a:	18fb      	adds	r3, r7, r3
 800083c:	781b      	ldrb	r3, [r3, #0]
 800083e:	2b00      	cmp	r3, #0
 8000840:	d111      	bne.n	8000866 <FirmwareUpdate_Mode+0xea>
    Print("[FW] HATA: Alici bootloader'a gecilemedi!\r\n");
 8000842:	4ba6      	ldr	r3, [pc, #664]	@ (8000adc <FirmwareUpdate_Mode+0x360>)
 8000844:	0018      	movs	r0, r3
 8000846:	f7ff fe1b 	bl	8000480 <Print>
    HAL_UART_Transmit(&huart1, &nack, 1, 100);
 800084a:	237a      	movs	r3, #122	@ 0x7a
 800084c:	18f9      	adds	r1, r7, r3
 800084e:	48a4      	ldr	r0, [pc, #656]	@ (8000ae0 <FirmwareUpdate_Mode+0x364>)
 8000850:	2364      	movs	r3, #100	@ 0x64
 8000852:	2201      	movs	r2, #1
 8000854:	f003 fd7e 	bl	8004354 <HAL_UART_Transmit>
    HAL_GPIO_WritePin(LED0_GPIO_Port, LED0_Pin, GPIO_PIN_RESET);
 8000858:	4b9a      	ldr	r3, [pc, #616]	@ (8000ac4 <FirmwareUpdate_Mode+0x348>)
 800085a:	2200      	movs	r2, #0
 800085c:	2140      	movs	r1, #64	@ 0x40
 800085e:	0018      	movs	r0, r3
 8000860:	f001 feeb 	bl	800263a <HAL_GPIO_WritePin>
    return;
 8000864:	e2d5      	b.n	8000e12 <FirmwareUpdate_Mode+0x696>
  }

  // PC'ye ACK — "alıcı hazır, metadata gönderebilirsin"
  HAL_UART_Transmit(&huart1, &ack, 1, 100);
 8000866:	237b      	movs	r3, #123	@ 0x7b
 8000868:	18f9      	adds	r1, r7, r3
 800086a:	489d      	ldr	r0, [pc, #628]	@ (8000ae0 <FirmwareUpdate_Mode+0x364>)
 800086c:	2364      	movs	r3, #100	@ 0x64
 800086e:	2201      	movs	r2, #1
 8000870:	f003 fd70 	bl	8004354 <HAL_UART_Transmit>

  // ─────────────────────────────────────────────
  // 2. METADATA AL (UART'tan) ve RF ile gönder
  // ─────────────────────────────────────────────
  uint8_t meta_buf[12];
  if (HAL_UART_Receive(&huart1, meta_buf, 12, 10000) != HAL_OK) {
 8000874:	4b9b      	ldr	r3, [pc, #620]	@ (8000ae4 <FirmwareUpdate_Mode+0x368>)
 8000876:	2234      	movs	r2, #52	@ 0x34
 8000878:	18b9      	adds	r1, r7, r2
 800087a:	4899      	ldr	r0, [pc, #612]	@ (8000ae0 <FirmwareUpdate_Mode+0x364>)
 800087c:	220c      	movs	r2, #12
 800087e:	f003 fe09 	bl	8004494 <HAL_UART_Receive>
 8000882:	1e03      	subs	r3, r0, #0
 8000884:	d00b      	beq.n	800089e <FirmwareUpdate_Mode+0x122>
    Print("[FW] HATA: Metadata alinamadi!\r\n");
 8000886:	4b98      	ldr	r3, [pc, #608]	@ (8000ae8 <FirmwareUpdate_Mode+0x36c>)
 8000888:	0018      	movs	r0, r3
 800088a:	f7ff fdf9 	bl	8000480 <Print>
    HAL_UART_Transmit(&huart1, &nack, 1, 100);
 800088e:	237a      	movs	r3, #122	@ 0x7a
 8000890:	18f9      	adds	r1, r7, r3
 8000892:	4893      	ldr	r0, [pc, #588]	@ (8000ae0 <FirmwareUpdate_Mode+0x364>)
 8000894:	2364      	movs	r3, #100	@ 0x64
 8000896:	2201      	movs	r2, #1
 8000898:	f003 fd5c 	bl	8004354 <HAL_UART_Transmit>
    return;
 800089c:	e2b9      	b.n	8000e12 <FirmwareUpdate_Mode+0x696>
  }

  Print("[FW] Metadata alindi, RF ile gonderiliyor...\r\n");
 800089e:	4b93      	ldr	r3, [pc, #588]	@ (8000aec <FirmwareUpdate_Mode+0x370>)
 80008a0:	0018      	movs	r0, r3
 80008a2:	f7ff fded 	bl	8000480 <Print>

  // Metadata'yı RF ile gönder — güvenilir
  uint8_t meta_sent = 0;
 80008a6:	239e      	movs	r3, #158	@ 0x9e
 80008a8:	18fb      	adds	r3, r7, r3
 80008aa:	2200      	movs	r2, #0
 80008ac:	701a      	strb	r2, [r3, #0]
  for (uint8_t retry = 0; retry < RF_MAX_RETRIES && !meta_sent; retry++) {
 80008ae:	239d      	movs	r3, #157	@ 0x9d
 80008b0:	18fb      	adds	r3, r7, r3
 80008b2:	2200      	movs	r2, #0
 80008b4:	701a      	strb	r2, [r3, #0]
 80008b6:	e027      	b.n	8000908 <FirmwareUpdate_Mode+0x18c>
    RF_SendPacket(RF_CMD_METADATA, rf_seq_counter, meta_buf, 12);
 80008b8:	4b85      	ldr	r3, [pc, #532]	@ (8000ad0 <FirmwareUpdate_Mode+0x354>)
 80008ba:	8819      	ldrh	r1, [r3, #0]
 80008bc:	2334      	movs	r3, #52	@ 0x34
 80008be:	18fa      	adds	r2, r7, r3
 80008c0:	230c      	movs	r3, #12
 80008c2:	2003      	movs	r0, #3
 80008c4:	f7ff fe54 	bl	8000570 <RF_SendPacket>

    if (RF_WaitForPacket(&rx_type, &rx_seq, rx_pld, &rx_pld_len, 3000)) {
 80008c8:	2341      	movs	r3, #65	@ 0x41
 80008ca:	18fb      	adds	r3, r7, r3
 80008cc:	2244      	movs	r2, #68	@ 0x44
 80008ce:	18ba      	adds	r2, r7, r2
 80008d0:	2142      	movs	r1, #66	@ 0x42
 80008d2:	1879      	adds	r1, r7, r1
 80008d4:	2579      	movs	r5, #121	@ 0x79
 80008d6:	1978      	adds	r0, r7, r5
 80008d8:	4c85      	ldr	r4, [pc, #532]	@ (8000af0 <FirmwareUpdate_Mode+0x374>)
 80008da:	9400      	str	r4, [sp, #0]
 80008dc:	f7ff fe9a 	bl	8000614 <RF_WaitForPacket>
 80008e0:	1e03      	subs	r3, r0, #0
 80008e2:	d007      	beq.n	80008f4 <FirmwareUpdate_Mode+0x178>
      if (rx_type == RF_CMD_ACK) {
 80008e4:	197b      	adds	r3, r7, r5
 80008e6:	781b      	ldrb	r3, [r3, #0]
 80008e8:	2b10      	cmp	r3, #16
 80008ea:	d103      	bne.n	80008f4 <FirmwareUpdate_Mode+0x178>
        meta_sent = 1;
 80008ec:	239e      	movs	r3, #158	@ 0x9e
 80008ee:	18fb      	adds	r3, r7, r3
 80008f0:	2201      	movs	r2, #1
 80008f2:	701a      	strb	r2, [r3, #0]
      }
    }
    HAL_IWDG_Refresh(&hiwdg);
 80008f4:	4b75      	ldr	r3, [pc, #468]	@ (8000acc <FirmwareUpdate_Mode+0x350>)
 80008f6:	0018      	movs	r0, r3
 80008f8:	f001 ff50 	bl	800279c <HAL_IWDG_Refresh>
  for (uint8_t retry = 0; retry < RF_MAX_RETRIES && !meta_sent; retry++) {
 80008fc:	219d      	movs	r1, #157	@ 0x9d
 80008fe:	187b      	adds	r3, r7, r1
 8000900:	781a      	ldrb	r2, [r3, #0]
 8000902:	187b      	adds	r3, r7, r1
 8000904:	3201      	adds	r2, #1
 8000906:	701a      	strb	r2, [r3, #0]
 8000908:	239d      	movs	r3, #157	@ 0x9d
 800090a:	18fb      	adds	r3, r7, r3
 800090c:	781b      	ldrb	r3, [r3, #0]
 800090e:	2b04      	cmp	r3, #4
 8000910:	d804      	bhi.n	800091c <FirmwareUpdate_Mode+0x1a0>
 8000912:	239e      	movs	r3, #158	@ 0x9e
 8000914:	18fb      	adds	r3, r7, r3
 8000916:	781b      	ldrb	r3, [r3, #0]
 8000918:	2b00      	cmp	r3, #0
 800091a:	d0cd      	beq.n	80008b8 <FirmwareUpdate_Mode+0x13c>
  }
  rf_seq_counter++;
 800091c:	4b6c      	ldr	r3, [pc, #432]	@ (8000ad0 <FirmwareUpdate_Mode+0x354>)
 800091e:	881b      	ldrh	r3, [r3, #0]
 8000920:	3301      	adds	r3, #1
 8000922:	b29a      	uxth	r2, r3
 8000924:	4b6a      	ldr	r3, [pc, #424]	@ (8000ad0 <FirmwareUpdate_Mode+0x354>)
 8000926:	801a      	strh	r2, [r3, #0]

  if (!meta_sent) {
 8000928:	239e      	movs	r3, #158	@ 0x9e
 800092a:	18fb      	adds	r3, r7, r3
 800092c:	781b      	ldrb	r3, [r3, #0]
 800092e:	2b00      	cmp	r3, #0
 8000930:	d10b      	bne.n	800094a <FirmwareUpdate_Mode+0x1ce>
    Print("[FW] HATA: Metadata gonderilemedi!\r\n");
 8000932:	4b70      	ldr	r3, [pc, #448]	@ (8000af4 <FirmwareUpdate_Mode+0x378>)
 8000934:	0018      	movs	r0, r3
 8000936:	f7ff fda3 	bl	8000480 <Print>
    HAL_UART_Transmit(&huart1, &nack, 1, 100);
 800093a:	237a      	movs	r3, #122	@ 0x7a
 800093c:	18f9      	adds	r1, r7, r3
 800093e:	4868      	ldr	r0, [pc, #416]	@ (8000ae0 <FirmwareUpdate_Mode+0x364>)
 8000940:	2364      	movs	r3, #100	@ 0x64
 8000942:	2201      	movs	r2, #1
 8000944:	f003 fd06 	bl	8004354 <HAL_UART_Transmit>
    return;
 8000948:	e263      	b.n	8000e12 <FirmwareUpdate_Mode+0x696>
  }

  // PC'ye ACK — "metadata kabul edildi"
  HAL_UART_Transmit(&huart1, &ack, 1, 100);
 800094a:	237b      	movs	r3, #123	@ 0x7b
 800094c:	18f9      	adds	r1, r7, r3
 800094e:	4864      	ldr	r0, [pc, #400]	@ (8000ae0 <FirmwareUpdate_Mode+0x364>)
 8000950:	2364      	movs	r3, #100	@ 0x64
 8000952:	2201      	movs	r2, #1
 8000954:	f003 fcfe 	bl	8004354 <HAL_UART_Transmit>

  // ─────────────────────────────────────────────
  // 3. FLASH SİLME BİLDİRİMİ BEKLE (RF'den)
  // ─────────────────────────────────────────────
  Print("[FW] Flash silme bekleniyor...\r\n");
 8000958:	4b67      	ldr	r3, [pc, #412]	@ (8000af8 <FirmwareUpdate_Mode+0x37c>)
 800095a:	0018      	movs	r0, r3
 800095c:	f7ff fd90 	bl	8000480 <Print>

  uint8_t erase_done = 0;
 8000960:	239c      	movs	r3, #156	@ 0x9c
 8000962:	18fb      	adds	r3, r7, r3
 8000964:	2200      	movs	r2, #0
 8000966:	701a      	strb	r2, [r3, #0]
  uint32_t erase_start = HAL_GetTick();
 8000968:	f001 fa4a 	bl	8001e00 <HAL_GetTick>
 800096c:	0003      	movs	r3, r0
 800096e:	2284      	movs	r2, #132	@ 0x84
 8000970:	18ba      	adds	r2, r7, r2
 8000972:	6013      	str	r3, [r2, #0]

  while (!erase_done && (HAL_GetTick() - erase_start) < 60000) {
 8000974:	e020      	b.n	80009b8 <FirmwareUpdate_Mode+0x23c>
    HAL_IWDG_Refresh(&hiwdg);
 8000976:	4b55      	ldr	r3, [pc, #340]	@ (8000acc <FirmwareUpdate_Mode+0x350>)
 8000978:	0018      	movs	r0, r3
 800097a:	f001 ff0f 	bl	800279c <HAL_IWDG_Refresh>

    if (RF_WaitForPacket(&rx_type, &rx_seq, rx_pld, &rx_pld_len, 5000)) {
 800097e:	2341      	movs	r3, #65	@ 0x41
 8000980:	18fb      	adds	r3, r7, r3
 8000982:	2244      	movs	r2, #68	@ 0x44
 8000984:	18ba      	adds	r2, r7, r2
 8000986:	2542      	movs	r5, #66	@ 0x42
 8000988:	1979      	adds	r1, r7, r5
 800098a:	2679      	movs	r6, #121	@ 0x79
 800098c:	19b8      	adds	r0, r7, r6
 800098e:	4c5b      	ldr	r4, [pc, #364]	@ (8000afc <FirmwareUpdate_Mode+0x380>)
 8000990:	9400      	str	r4, [sp, #0]
 8000992:	f7ff fe3f 	bl	8000614 <RF_WaitForPacket>
 8000996:	1e03      	subs	r3, r0, #0
 8000998:	d00e      	beq.n	80009b8 <FirmwareUpdate_Mode+0x23c>
      if (rx_type == RF_CMD_FLASH_ERASE_DONE) {
 800099a:	19bb      	adds	r3, r7, r6
 800099c:	781b      	ldrb	r3, [r3, #0]
 800099e:	2b05      	cmp	r3, #5
 80009a0:	d10a      	bne.n	80009b8 <FirmwareUpdate_Mode+0x23c>
        erase_done = 1;
 80009a2:	239c      	movs	r3, #156	@ 0x9c
 80009a4:	18fb      	adds	r3, r7, r3
 80009a6:	2201      	movs	r2, #1
 80009a8:	701a      	strb	r2, [r3, #0]
        // Alıcıya ACK gönder
        RF_SendPacket(RF_CMD_ACK, rx_seq, NULL, 0);
 80009aa:	197b      	adds	r3, r7, r5
 80009ac:	8819      	ldrh	r1, [r3, #0]
 80009ae:	2300      	movs	r3, #0
 80009b0:	2200      	movs	r2, #0
 80009b2:	2010      	movs	r0, #16
 80009b4:	f7ff fddc 	bl	8000570 <RF_SendPacket>
  while (!erase_done && (HAL_GetTick() - erase_start) < 60000) {
 80009b8:	239c      	movs	r3, #156	@ 0x9c
 80009ba:	18fb      	adds	r3, r7, r3
 80009bc:	781b      	ldrb	r3, [r3, #0]
 80009be:	2b00      	cmp	r3, #0
 80009c0:	d109      	bne.n	80009d6 <FirmwareUpdate_Mode+0x25a>
 80009c2:	f001 fa1d 	bl	8001e00 <HAL_GetTick>
 80009c6:	0002      	movs	r2, r0
 80009c8:	2384      	movs	r3, #132	@ 0x84
 80009ca:	18fb      	adds	r3, r7, r3
 80009cc:	681b      	ldr	r3, [r3, #0]
 80009ce:	1ad3      	subs	r3, r2, r3
 80009d0:	4a4b      	ldr	r2, [pc, #300]	@ (8000b00 <FirmwareUpdate_Mode+0x384>)
 80009d2:	4293      	cmp	r3, r2
 80009d4:	d9cf      	bls.n	8000976 <FirmwareUpdate_Mode+0x1fa>
      }
    }
  }

  if (!erase_done) {
 80009d6:	239c      	movs	r3, #156	@ 0x9c
 80009d8:	18fb      	adds	r3, r7, r3
 80009da:	781b      	ldrb	r3, [r3, #0]
 80009dc:	2b00      	cmp	r3, #0
 80009de:	d10b      	bne.n	80009f8 <FirmwareUpdate_Mode+0x27c>
    Print("[FW] HATA: Flash silme zaman asimi!\r\n");
 80009e0:	4b48      	ldr	r3, [pc, #288]	@ (8000b04 <FirmwareUpdate_Mode+0x388>)
 80009e2:	0018      	movs	r0, r3
 80009e4:	f7ff fd4c 	bl	8000480 <Print>
    HAL_UART_Transmit(&huart1, &nack, 1, 100);
 80009e8:	237a      	movs	r3, #122	@ 0x7a
 80009ea:	18f9      	adds	r1, r7, r3
 80009ec:	483c      	ldr	r0, [pc, #240]	@ (8000ae0 <FirmwareUpdate_Mode+0x364>)
 80009ee:	2364      	movs	r3, #100	@ 0x64
 80009f0:	2201      	movs	r2, #1
 80009f2:	f003 fcaf 	bl	8004354 <HAL_UART_Transmit>
    return;
 80009f6:	e20c      	b.n	8000e12 <FirmwareUpdate_Mode+0x696>
  }

  Print("[FW] Flash silindi!\r\n");
 80009f8:	4b43      	ldr	r3, [pc, #268]	@ (8000b08 <FirmwareUpdate_Mode+0x38c>)
 80009fa:	0018      	movs	r0, r3
 80009fc:	f7ff fd40 	bl	8000480 <Print>
  // PC'ye ACK — "flash silindi, paket gönderebilirsin"
  HAL_UART_Transmit(&huart1, &ack, 1, 100);
 8000a00:	237b      	movs	r3, #123	@ 0x7b
 8000a02:	18f9      	adds	r1, r7, r3
 8000a04:	4836      	ldr	r0, [pc, #216]	@ (8000ae0 <FirmwareUpdate_Mode+0x364>)
 8000a06:	2364      	movs	r3, #100	@ 0x64
 8000a08:	2201      	movs	r2, #1
 8000a0a:	f003 fca3 	bl	8004354 <HAL_UART_Transmit>

  // ─────────────────────────────────────────────
  // 4. FİRMWARE PAKET TRANSFERİ
  // ─────────────────────────────────────────────
  Print("[FW] Paket transferi basliyor...\r\n");
 8000a0e:	4b3f      	ldr	r3, [pc, #252]	@ (8000b0c <FirmwareUpdate_Mode+0x390>)
 8000a10:	0018      	movs	r0, r3
 8000a12:	f7ff fd35 	bl	8000480 <Print>

  uint32_t packets_sent = 0;
 8000a16:	2300      	movs	r3, #0
 8000a18:	2298      	movs	r2, #152	@ 0x98
 8000a1a:	18ba      	adds	r2, r7, r2
 8000a1c:	6013      	str	r3, [r2, #0]

  while (1) {
    HAL_IWDG_Refresh(&hiwdg);
 8000a1e:	4b2b      	ldr	r3, [pc, #172]	@ (8000acc <FirmwareUpdate_Mode+0x350>)
 8000a20:	0018      	movs	r0, r3
 8000a22:	f001 febb 	bl	800279c <HAL_IWDG_Refresh>

    // UART'tan 148 byte firmware paketi al
    // NOT: Timeout 8s — 4 RF chunk transfer süresi (her biri ~2s worst case)
    //       Son paketten sonra da 8s bekleyip RF dinlemeye geçer
    HAL_StatusTypeDef uart_status =
        HAL_UART_Receive(&huart1, fw_packet_buf, FW_FULL_PACKET_SIZE, 8000);
 8000a26:	2583      	movs	r5, #131	@ 0x83
 8000a28:	197c      	adds	r4, r7, r5
 8000a2a:	23fa      	movs	r3, #250	@ 0xfa
 8000a2c:	015b      	lsls	r3, r3, #5
 8000a2e:	4938      	ldr	r1, [pc, #224]	@ (8000b10 <FirmwareUpdate_Mode+0x394>)
 8000a30:	482b      	ldr	r0, [pc, #172]	@ (8000ae0 <FirmwareUpdate_Mode+0x364>)
 8000a32:	2294      	movs	r2, #148	@ 0x94
 8000a34:	f003 fd2e 	bl	8004494 <HAL_UART_Receive>
 8000a38:	0003      	movs	r3, r0
 8000a3a:	7023      	strb	r3, [r4, #0]

    if (uart_status == HAL_TIMEOUT) {
 8000a3c:	197b      	adds	r3, r7, r5
 8000a3e:	781b      	ldrb	r3, [r3, #0]
 8000a40:	2b03      	cmp	r3, #3
 8000a42:	d111      	bne.n	8000a68 <FirmwareUpdate_Mode+0x2ec>
      // PC artık paket göndermedi — transfer bitti
      Print("[FW] Paket bekleme timeout — transfer tamamlandi?\r\n");
 8000a44:	4b33      	ldr	r3, [pc, #204]	@ (8000b14 <FirmwareUpdate_Mode+0x398>)
 8000a46:	0018      	movs	r0, r3
 8000a48:	f7ff fd1a 	bl	8000480 <Print>
      break;
 8000a4c:	46c0      	nop			@ (mov r8, r8)
  }

  // ─────────────────────────────────────────────
  // 5. FİNAL SONUCU BEKLE (RF'den)
  // ─────────────────────────────────────────────
  Print("[FW] Final sonucu bekleniyor...\r\n");
 8000a4e:	4b32      	ldr	r3, [pc, #200]	@ (8000b18 <FirmwareUpdate_Mode+0x39c>)
 8000a50:	0018      	movs	r0, r3
 8000a52:	f7ff fd15 	bl	8000480 <Print>

  uint8_t final_received = 0;
 8000a56:	2394      	movs	r3, #148	@ 0x94
 8000a58:	18fb      	adds	r3, r7, r3
 8000a5a:	2200      	movs	r2, #0
 8000a5c:	701a      	strb	r2, [r3, #0]
  uint32_t final_start = HAL_GetTick();
 8000a5e:	f001 f9cf 	bl	8001e00 <HAL_GetTick>
 8000a62:	0003      	movs	r3, r0
 8000a64:	67fb      	str	r3, [r7, #124]	@ 0x7c

  while (!final_received && (HAL_GetTick() - final_start) < 45000) {
 8000a66:	e1a1      	b.n	8000dac <FirmwareUpdate_Mode+0x630>
    if (uart_status != HAL_OK) {
 8000a68:	2383      	movs	r3, #131	@ 0x83
 8000a6a:	18fb      	adds	r3, r7, r3
 8000a6c:	781b      	ldrb	r3, [r3, #0]
 8000a6e:	2b00      	cmp	r3, #0
 8000a70:	d00b      	beq.n	8000a8a <FirmwareUpdate_Mode+0x30e>
      Print("[FW] HATA: UART alma hatasi!\r\n");
 8000a72:	4b2a      	ldr	r3, [pc, #168]	@ (8000b1c <FirmwareUpdate_Mode+0x3a0>)
 8000a74:	0018      	movs	r0, r3
 8000a76:	f7ff fd03 	bl	8000480 <Print>
      HAL_UART_Transmit(&huart1, &nack, 1, 100);
 8000a7a:	237a      	movs	r3, #122	@ 0x7a
 8000a7c:	18f9      	adds	r1, r7, r3
 8000a7e:	4818      	ldr	r0, [pc, #96]	@ (8000ae0 <FirmwareUpdate_Mode+0x364>)
 8000a80:	2364      	movs	r3, #100	@ 0x64
 8000a82:	2201      	movs	r2, #1
 8000a84:	f003 fc66 	bl	8004354 <HAL_UART_Transmit>
      return;
 8000a88:	e1c3      	b.n	8000e12 <FirmwareUpdate_Mode+0x696>
    uint8_t all_chunks_ok = 1;
 8000a8a:	2397      	movs	r3, #151	@ 0x97
 8000a8c:	18fb      	adds	r3, r7, r3
 8000a8e:	2201      	movs	r2, #1
 8000a90:	701a      	strb	r2, [r3, #0]
    for (uint8_t chunk = 0; chunk < RF_CHUNKS_PER_PACKET; chunk++) {
 8000a92:	2396      	movs	r3, #150	@ 0x96
 8000a94:	18fb      	adds	r3, r7, r3
 8000a96:	2200      	movs	r2, #0
 8000a98:	701a      	strb	r2, [r3, #0]
 8000a9a:	e08b      	b.n	8000bb4 <FirmwareUpdate_Mode+0x438>
      uint8_t data_offset = chunk * RF_CHUNK_DATA_SIZE;
 8000a9c:	2382      	movs	r3, #130	@ 0x82
 8000a9e:	18fb      	adds	r3, r7, r3
 8000aa0:	2096      	movs	r0, #150	@ 0x96
 8000aa2:	183a      	adds	r2, r7, r0
 8000aa4:	7812      	ldrb	r2, [r2, #0]
 8000aa6:	2130      	movs	r1, #48	@ 0x30
 8000aa8:	434a      	muls	r2, r1
 8000aaa:	701a      	strb	r2, [r3, #0]
      if (chunk < RF_CHUNKS_PER_PACKET - 1) {
 8000aac:	183b      	adds	r3, r7, r0
 8000aae:	781b      	ldrb	r3, [r3, #0]
 8000ab0:	2b02      	cmp	r3, #2
 8000ab2:	d835      	bhi.n	8000b20 <FirmwareUpdate_Mode+0x3a4>
        data_len = RF_CHUNK_DATA_SIZE; // 48 byte
 8000ab4:	2395      	movs	r3, #149	@ 0x95
 8000ab6:	18fb      	adds	r3, r7, r3
 8000ab8:	2230      	movs	r2, #48	@ 0x30
 8000aba:	701a      	strb	r2, [r3, #0]
 8000abc:	e040      	b.n	8000b40 <FirmwareUpdate_Mode+0x3c4>
 8000abe:	46c0      	nop			@ (mov r8, r8)
 8000ac0:	20000000 	.word	0x20000000
 8000ac4:	48001400 	.word	0x48001400
 8000ac8:	0800541c 	.word	0x0800541c
 8000acc:	2000002c 	.word	0x2000002c
 8000ad0:	20000134 	.word	0x20000134
 8000ad4:	08005448 	.word	0x08005448
 8000ad8:	0000752f 	.word	0x0000752f
 8000adc:	0800546c 	.word	0x0800546c
 8000ae0:	2000022c 	.word	0x2000022c
 8000ae4:	00002710 	.word	0x00002710
 8000ae8:	08005498 	.word	0x08005498
 8000aec:	080054bc 	.word	0x080054bc
 8000af0:	00000bb8 	.word	0x00000bb8
 8000af4:	080054ec 	.word	0x080054ec
 8000af8:	08005514 	.word	0x08005514
 8000afc:	00001388 	.word	0x00001388
 8000b00:	0000ea5f 	.word	0x0000ea5f
 8000b04:	08005538 	.word	0x08005538
 8000b08:	08005560 	.word	0x08005560
 8000b0c:	08005578 	.word	0x08005578
 8000b10:	200000a0 	.word	0x200000a0
 8000b14:	0800559c 	.word	0x0800559c
 8000b18:	0800562c 	.word	0x0800562c
 8000b1c:	080055d4 	.word	0x080055d4
        data_len = FW_FULL_PACKET_SIZE - data_offset; // 148 - 96 = 52
 8000b20:	2095      	movs	r0, #149	@ 0x95
 8000b22:	183b      	adds	r3, r7, r0
 8000b24:	2282      	movs	r2, #130	@ 0x82
 8000b26:	18ba      	adds	r2, r7, r2
 8000b28:	7812      	ldrb	r2, [r2, #0]
 8000b2a:	216c      	movs	r1, #108	@ 0x6c
 8000b2c:	4249      	negs	r1, r1
 8000b2e:	1a8a      	subs	r2, r1, r2
 8000b30:	701a      	strb	r2, [r3, #0]
        if (data_len > RF_CHUNK_DATA_SIZE)
 8000b32:	183b      	adds	r3, r7, r0
 8000b34:	781b      	ldrb	r3, [r3, #0]
 8000b36:	2b30      	cmp	r3, #48	@ 0x30
 8000b38:	d902      	bls.n	8000b40 <FirmwareUpdate_Mode+0x3c4>
          data_len = RF_CHUNK_DATA_SIZE; // Güvenlik sınırı
 8000b3a:	183b      	adds	r3, r7, r0
 8000b3c:	2230      	movs	r2, #48	@ 0x30
 8000b3e:	701a      	strb	r2, [r3, #0]
      chunk_payload[0] = chunk;                // CHUNK_IDX
 8000b40:	003b      	movs	r3, r7
 8000b42:	2296      	movs	r2, #150	@ 0x96
 8000b44:	18ba      	adds	r2, r7, r2
 8000b46:	7812      	ldrb	r2, [r2, #0]
 8000b48:	701a      	strb	r2, [r3, #0]
      chunk_payload[1] = RF_CHUNKS_PER_PACKET; // CHUNK_CNT
 8000b4a:	003b      	movs	r3, r7
 8000b4c:	2204      	movs	r2, #4
 8000b4e:	705a      	strb	r2, [r3, #1]
      memcpy(&chunk_payload[2], &fw_packet_buf[data_offset], data_len);
 8000b50:	2382      	movs	r3, #130	@ 0x82
 8000b52:	18fb      	adds	r3, r7, r3
 8000b54:	781a      	ldrb	r2, [r3, #0]
 8000b56:	4bb0      	ldr	r3, [pc, #704]	@ (8000e18 <FirmwareUpdate_Mode+0x69c>)
 8000b58:	18d1      	adds	r1, r2, r3
 8000b5a:	2495      	movs	r4, #149	@ 0x95
 8000b5c:	193b      	adds	r3, r7, r4
 8000b5e:	781a      	ldrb	r2, [r3, #0]
 8000b60:	003b      	movs	r3, r7
 8000b62:	3302      	adds	r3, #2
 8000b64:	0018      	movs	r0, r3
 8000b66:	f004 fc39 	bl	80053dc <memcpy>
      uint16_t chunk_seq = rf_seq_counter++;
 8000b6a:	4bac      	ldr	r3, [pc, #688]	@ (8000e1c <FirmwareUpdate_Mode+0x6a0>)
 8000b6c:	881b      	ldrh	r3, [r3, #0]
 8000b6e:	1c5a      	adds	r2, r3, #1
 8000b70:	b291      	uxth	r1, r2
 8000b72:	4aaa      	ldr	r2, [pc, #680]	@ (8000e1c <FirmwareUpdate_Mode+0x6a0>)
 8000b74:	8011      	strh	r1, [r2, #0]
 8000b76:	2180      	movs	r1, #128	@ 0x80
 8000b78:	187a      	adds	r2, r7, r1
 8000b7a:	8013      	strh	r3, [r2, #0]
      if (!RF_SendChunkReliable(RF_CMD_DATA_CHUNK, chunk_seq, chunk_payload,
 8000b7c:	193b      	adds	r3, r7, r4
 8000b7e:	781b      	ldrb	r3, [r3, #0]
 8000b80:	3302      	adds	r3, #2
 8000b82:	b2d8      	uxtb	r0, r3
 8000b84:	003a      	movs	r2, r7
 8000b86:	187b      	adds	r3, r7, r1
 8000b88:	8819      	ldrh	r1, [r3, #0]
 8000b8a:	0003      	movs	r3, r0
 8000b8c:	2004      	movs	r0, #4
 8000b8e:	f7ff fd9b 	bl	80006c8 <RF_SendChunkReliable>
 8000b92:	1e03      	subs	r3, r0, #0
 8000b94:	d108      	bne.n	8000ba8 <FirmwareUpdate_Mode+0x42c>
        Print("[FW] HATA: Chunk gonderilemedi!\r\n");
 8000b96:	4ba2      	ldr	r3, [pc, #648]	@ (8000e20 <FirmwareUpdate_Mode+0x6a4>)
 8000b98:	0018      	movs	r0, r3
 8000b9a:	f7ff fc71 	bl	8000480 <Print>
        all_chunks_ok = 0;
 8000b9e:	2397      	movs	r3, #151	@ 0x97
 8000ba0:	18fb      	adds	r3, r7, r3
 8000ba2:	2200      	movs	r2, #0
 8000ba4:	701a      	strb	r2, [r3, #0]
 8000ba6:	e00b      	b.n	8000bc0 <FirmwareUpdate_Mode+0x444>
    for (uint8_t chunk = 0; chunk < RF_CHUNKS_PER_PACKET; chunk++) {
 8000ba8:	2196      	movs	r1, #150	@ 0x96
 8000baa:	187b      	adds	r3, r7, r1
 8000bac:	781a      	ldrb	r2, [r3, #0]
 8000bae:	187b      	adds	r3, r7, r1
 8000bb0:	3201      	adds	r2, #1
 8000bb2:	701a      	strb	r2, [r3, #0]
 8000bb4:	2396      	movs	r3, #150	@ 0x96
 8000bb6:	18fb      	adds	r3, r7, r3
 8000bb8:	781b      	ldrb	r3, [r3, #0]
 8000bba:	2b03      	cmp	r3, #3
 8000bbc:	d800      	bhi.n	8000bc0 <FirmwareUpdate_Mode+0x444>
 8000bbe:	e76d      	b.n	8000a9c <FirmwareUpdate_Mode+0x320>
    if (!all_chunks_ok) {
 8000bc0:	2397      	movs	r3, #151	@ 0x97
 8000bc2:	18fb      	adds	r3, r7, r3
 8000bc4:	781b      	ldrb	r3, [r3, #0]
 8000bc6:	2b00      	cmp	r3, #0
 8000bc8:	d107      	bne.n	8000bda <FirmwareUpdate_Mode+0x45e>
      HAL_UART_Transmit(&huart1, &nack, 1, 100);
 8000bca:	237a      	movs	r3, #122	@ 0x7a
 8000bcc:	18f9      	adds	r1, r7, r3
 8000bce:	4895      	ldr	r0, [pc, #596]	@ (8000e24 <FirmwareUpdate_Mode+0x6a8>)
 8000bd0:	2364      	movs	r3, #100	@ 0x64
 8000bd2:	2201      	movs	r2, #1
 8000bd4:	f003 fbbe 	bl	8004354 <HAL_UART_Transmit>
      return;
 8000bd8:	e11b      	b.n	8000e12 <FirmwareUpdate_Mode+0x696>
    packets_sent++;
 8000bda:	2498      	movs	r4, #152	@ 0x98
 8000bdc:	193b      	adds	r3, r7, r4
 8000bde:	681b      	ldr	r3, [r3, #0]
 8000be0:	3301      	adds	r3, #1
 8000be2:	193a      	adds	r2, r7, r4
 8000be4:	6013      	str	r3, [r2, #0]
    HAL_UART_Transmit(&huart1, &ack, 1, 100);
 8000be6:	237b      	movs	r3, #123	@ 0x7b
 8000be8:	18f9      	adds	r1, r7, r3
 8000bea:	488e      	ldr	r0, [pc, #568]	@ (8000e24 <FirmwareUpdate_Mode+0x6a8>)
 8000bec:	2364      	movs	r3, #100	@ 0x64
 8000bee:	2201      	movs	r2, #1
 8000bf0:	f003 fbb0 	bl	8004354 <HAL_UART_Transmit>
    HAL_GPIO_TogglePin(LED1_GPIO_Port, LED1_Pin);
 8000bf4:	2380      	movs	r3, #128	@ 0x80
 8000bf6:	015a      	lsls	r2, r3, #5
 8000bf8:	2390      	movs	r3, #144	@ 0x90
 8000bfa:	05db      	lsls	r3, r3, #23
 8000bfc:	0011      	movs	r1, r2
 8000bfe:	0018      	movs	r0, r3
 8000c00:	f001 fd38 	bl	8002674 <HAL_GPIO_TogglePin>
    if (packets_sent % 10 == 0) {
 8000c04:	193b      	adds	r3, r7, r4
 8000c06:	681b      	ldr	r3, [r3, #0]
 8000c08:	210a      	movs	r1, #10
 8000c0a:	0018      	movs	r0, r3
 8000c0c:	f7ff fb0a 	bl	8000224 <__aeabi_uidivmod>
 8000c10:	1e0b      	subs	r3, r1, #0
 8000c12:	d000      	beq.n	8000c16 <FirmwareUpdate_Mode+0x49a>
 8000c14:	e703      	b.n	8000a1e <FirmwareUpdate_Mode+0x2a2>
      Print("[FW] Paket: ");
 8000c16:	4b84      	ldr	r3, [pc, #528]	@ (8000e28 <FirmwareUpdate_Mode+0x6ac>)
 8000c18:	0018      	movs	r0, r3
 8000c1a:	f7ff fc31 	bl	8000480 <Print>
      PrintHex((uint8_t)(packets_sent >> 8));
 8000c1e:	193b      	adds	r3, r7, r4
 8000c20:	681b      	ldr	r3, [r3, #0]
 8000c22:	0a1b      	lsrs	r3, r3, #8
 8000c24:	b2db      	uxtb	r3, r3
 8000c26:	0018      	movs	r0, r3
 8000c28:	f7ff fc48 	bl	80004bc <PrintHex>
      PrintHex((uint8_t)(packets_sent & 0xFF));
 8000c2c:	193b      	adds	r3, r7, r4
 8000c2e:	681b      	ldr	r3, [r3, #0]
 8000c30:	b2db      	uxtb	r3, r3
 8000c32:	0018      	movs	r0, r3
 8000c34:	f7ff fc42 	bl	80004bc <PrintHex>
      Print("\r\n");
 8000c38:	4b7c      	ldr	r3, [pc, #496]	@ (8000e2c <FirmwareUpdate_Mode+0x6b0>)
 8000c3a:	0018      	movs	r0, r3
 8000c3c:	f7ff fc20 	bl	8000480 <Print>
  while (1) {
 8000c40:	e6ed      	b.n	8000a1e <FirmwareUpdate_Mode+0x2a2>
    HAL_IWDG_Refresh(&hiwdg);
 8000c42:	4b7b      	ldr	r3, [pc, #492]	@ (8000e30 <FirmwareUpdate_Mode+0x6b4>)
 8000c44:	0018      	movs	r0, r3
 8000c46:	f001 fda9 	bl	800279c <HAL_IWDG_Refresh>

    if (RF_WaitForPacket(&rx_type, &rx_seq, rx_pld, &rx_pld_len, 5000)) {
 8000c4a:	2341      	movs	r3, #65	@ 0x41
 8000c4c:	18fb      	adds	r3, r7, r3
 8000c4e:	2244      	movs	r2, #68	@ 0x44
 8000c50:	18ba      	adds	r2, r7, r2
 8000c52:	2542      	movs	r5, #66	@ 0x42
 8000c54:	1979      	adds	r1, r7, r5
 8000c56:	2679      	movs	r6, #121	@ 0x79
 8000c58:	19b8      	adds	r0, r7, r6
 8000c5a:	4c76      	ldr	r4, [pc, #472]	@ (8000e34 <FirmwareUpdate_Mode+0x6b8>)
 8000c5c:	9400      	str	r4, [sp, #0]
 8000c5e:	f7ff fcd9 	bl	8000614 <RF_WaitForPacket>
 8000c62:	1e03      	subs	r3, r0, #0
 8000c64:	d100      	bne.n	8000c68 <FirmwareUpdate_Mode+0x4ec>
 8000c66:	e0a1      	b.n	8000dac <FirmwareUpdate_Mode+0x630>
      if (rx_type == RF_CMD_UPDATE_COMPLETE) {
 8000c68:	19bb      	adds	r3, r7, r6
 8000c6a:	781b      	ldrb	r3, [r3, #0]
 8000c6c:	2b06      	cmp	r3, #6
 8000c6e:	d14c      	bne.n	8000d0a <FirmwareUpdate_Mode+0x58e>
        final_received = 1;
 8000c70:	2394      	movs	r3, #148	@ 0x94
 8000c72:	18fb      	adds	r3, r7, r3
 8000c74:	2201      	movs	r2, #1
 8000c76:	701a      	strb	r2, [r3, #0]
        Print("[FW] *** GUNCELLEME BASARILI! ***\r\n");
 8000c78:	4b6f      	ldr	r3, [pc, #444]	@ (8000e38 <FirmwareUpdate_Mode+0x6bc>)
 8000c7a:	0018      	movs	r0, r3
 8000c7c:	f7ff fc00 	bl	8000480 <Print>
        // Alıcıya ACK — retry döngüsünü durdur
        RF_SendPacket(RF_CMD_ACK, rx_seq, NULL, 0);
 8000c80:	197b      	adds	r3, r7, r5
 8000c82:	8819      	ldrh	r1, [r3, #0]
 8000c84:	2300      	movs	r3, #0
 8000c86:	2200      	movs	r2, #0
 8000c88:	2010      	movs	r0, #16
 8000c8a:	f7ff fc71 	bl	8000570 <RF_SendPacket>
        // PC'ye final ACK
        HAL_UART_Transmit(&huart1, &ack, 1, 100);
 8000c8e:	237b      	movs	r3, #123	@ 0x7b
 8000c90:	18f9      	adds	r1, r7, r3
 8000c92:	4864      	ldr	r0, [pc, #400]	@ (8000e24 <FirmwareUpdate_Mode+0x6a8>)
 8000c94:	2364      	movs	r3, #100	@ 0x64
 8000c96:	2201      	movs	r2, #1
 8000c98:	f003 fb5c 	bl	8004354 <HAL_UART_Transmit>

        // LED başarı göstergesi
        for (int i = 0; i < 5; i++) {
 8000c9c:	2300      	movs	r3, #0
 8000c9e:	2290      	movs	r2, #144	@ 0x90
 8000ca0:	18ba      	adds	r2, r7, r2
 8000ca2:	6013      	str	r3, [r2, #0]
 8000ca4:	e02b      	b.n	8000cfe <FirmwareUpdate_Mode+0x582>
          HAL_GPIO_WritePin(LED0_GPIO_Port, LED0_Pin, GPIO_PIN_SET);
 8000ca6:	4b65      	ldr	r3, [pc, #404]	@ (8000e3c <FirmwareUpdate_Mode+0x6c0>)
 8000ca8:	2201      	movs	r2, #1
 8000caa:	2140      	movs	r1, #64	@ 0x40
 8000cac:	0018      	movs	r0, r3
 8000cae:	f001 fcc4 	bl	800263a <HAL_GPIO_WritePin>
          HAL_GPIO_WritePin(LED1_GPIO_Port, LED1_Pin, GPIO_PIN_SET);
 8000cb2:	2380      	movs	r3, #128	@ 0x80
 8000cb4:	0159      	lsls	r1, r3, #5
 8000cb6:	2390      	movs	r3, #144	@ 0x90
 8000cb8:	05db      	lsls	r3, r3, #23
 8000cba:	2201      	movs	r2, #1
 8000cbc:	0018      	movs	r0, r3
 8000cbe:	f001 fcbc 	bl	800263a <HAL_GPIO_WritePin>
          HAL_Delay(200);
 8000cc2:	20c8      	movs	r0, #200	@ 0xc8
 8000cc4:	f001 f8a6 	bl	8001e14 <HAL_Delay>
          HAL_GPIO_WritePin(LED0_GPIO_Port, LED0_Pin, GPIO_PIN_RESET);
 8000cc8:	4b5c      	ldr	r3, [pc, #368]	@ (8000e3c <FirmwareUpdate_Mode+0x6c0>)
 8000cca:	2200      	movs	r2, #0
 8000ccc:	2140      	movs	r1, #64	@ 0x40
 8000cce:	0018      	movs	r0, r3
 8000cd0:	f001 fcb3 	bl	800263a <HAL_GPIO_WritePin>
          HAL_GPIO_WritePin(LED1_GPIO_Port, LED1_Pin, GPIO_PIN_RESET);
 8000cd4:	2380      	movs	r3, #128	@ 0x80
 8000cd6:	0159      	lsls	r1, r3, #5
 8000cd8:	2390      	movs	r3, #144	@ 0x90
 8000cda:	05db      	lsls	r3, r3, #23
 8000cdc:	2200      	movs	r2, #0
 8000cde:	0018      	movs	r0, r3
 8000ce0:	f001 fcab 	bl	800263a <HAL_GPIO_WritePin>
          HAL_Delay(200);
 8000ce4:	20c8      	movs	r0, #200	@ 0xc8
 8000ce6:	f001 f895 	bl	8001e14 <HAL_Delay>
          HAL_IWDG_Refresh(&hiwdg);
 8000cea:	4b51      	ldr	r3, [pc, #324]	@ (8000e30 <FirmwareUpdate_Mode+0x6b4>)
 8000cec:	0018      	movs	r0, r3
 8000cee:	f001 fd55 	bl	800279c <HAL_IWDG_Refresh>
        for (int i = 0; i < 5; i++) {
 8000cf2:	2290      	movs	r2, #144	@ 0x90
 8000cf4:	18bb      	adds	r3, r7, r2
 8000cf6:	681b      	ldr	r3, [r3, #0]
 8000cf8:	3301      	adds	r3, #1
 8000cfa:	18ba      	adds	r2, r7, r2
 8000cfc:	6013      	str	r3, [r2, #0]
 8000cfe:	2390      	movs	r3, #144	@ 0x90
 8000d00:	18fb      	adds	r3, r7, r3
 8000d02:	681b      	ldr	r3, [r3, #0]
 8000d04:	2b04      	cmp	r3, #4
 8000d06:	ddce      	ble.n	8000ca6 <FirmwareUpdate_Mode+0x52a>
 8000d08:	e050      	b.n	8000dac <FirmwareUpdate_Mode+0x630>
        }
      } else if (rx_type == RF_CMD_UPDATE_FAILED) {
 8000d0a:	2379      	movs	r3, #121	@ 0x79
 8000d0c:	18fb      	adds	r3, r7, r3
 8000d0e:	781b      	ldrb	r3, [r3, #0]
 8000d10:	2b07      	cmp	r3, #7
 8000d12:	d14b      	bne.n	8000dac <FirmwareUpdate_Mode+0x630>
        final_received = 1;
 8000d14:	2394      	movs	r3, #148	@ 0x94
 8000d16:	18fb      	adds	r3, r7, r3
 8000d18:	2201      	movs	r2, #1
 8000d1a:	701a      	strb	r2, [r3, #0]
        Print("[FW] HATA: Guncelleme basarisiz! Hata kodu: ");
 8000d1c:	4b48      	ldr	r3, [pc, #288]	@ (8000e40 <FirmwareUpdate_Mode+0x6c4>)
 8000d1e:	0018      	movs	r0, r3
 8000d20:	f7ff fbae 	bl	8000480 <Print>
        if (rx_pld_len > 0)
 8000d24:	2341      	movs	r3, #65	@ 0x41
 8000d26:	18fb      	adds	r3, r7, r3
 8000d28:	781b      	ldrb	r3, [r3, #0]
 8000d2a:	2b00      	cmp	r3, #0
 8000d2c:	d005      	beq.n	8000d3a <FirmwareUpdate_Mode+0x5be>
          PrintHex(rx_pld[0]);
 8000d2e:	2344      	movs	r3, #68	@ 0x44
 8000d30:	18fb      	adds	r3, r7, r3
 8000d32:	781b      	ldrb	r3, [r3, #0]
 8000d34:	0018      	movs	r0, r3
 8000d36:	f7ff fbc1 	bl	80004bc <PrintHex>
        Print("\r\n");
 8000d3a:	4b3c      	ldr	r3, [pc, #240]	@ (8000e2c <FirmwareUpdate_Mode+0x6b0>)
 8000d3c:	0018      	movs	r0, r3
 8000d3e:	f7ff fb9f 	bl	8000480 <Print>
        // Alıcıya ACK — retry döngüsünü durdur
        RF_SendPacket(RF_CMD_ACK, rx_seq, NULL, 0);
 8000d42:	2342      	movs	r3, #66	@ 0x42
 8000d44:	18fb      	adds	r3, r7, r3
 8000d46:	8819      	ldrh	r1, [r3, #0]
 8000d48:	2300      	movs	r3, #0
 8000d4a:	2200      	movs	r2, #0
 8000d4c:	2010      	movs	r0, #16
 8000d4e:	f7ff fc0f 	bl	8000570 <RF_SendPacket>
        // PC'ye NACK
        HAL_UART_Transmit(&huart1, &nack, 1, 100);
 8000d52:	237a      	movs	r3, #122	@ 0x7a
 8000d54:	18f9      	adds	r1, r7, r3
 8000d56:	4833      	ldr	r0, [pc, #204]	@ (8000e24 <FirmwareUpdate_Mode+0x6a8>)
 8000d58:	2364      	movs	r3, #100	@ 0x64
 8000d5a:	2201      	movs	r2, #1
 8000d5c:	f003 fafa 	bl	8004354 <HAL_UART_Transmit>

        // LED hata göstergesi
        for (int i = 0; i < 10; i++) {
 8000d60:	2300      	movs	r3, #0
 8000d62:	228c      	movs	r2, #140	@ 0x8c
 8000d64:	18ba      	adds	r2, r7, r2
 8000d66:	6013      	str	r3, [r2, #0]
 8000d68:	e01b      	b.n	8000da2 <FirmwareUpdate_Mode+0x626>
          HAL_GPIO_WritePin(LED0_GPIO_Port, LED0_Pin, GPIO_PIN_SET);
 8000d6a:	4b34      	ldr	r3, [pc, #208]	@ (8000e3c <FirmwareUpdate_Mode+0x6c0>)
 8000d6c:	2201      	movs	r2, #1
 8000d6e:	2140      	movs	r1, #64	@ 0x40
 8000d70:	0018      	movs	r0, r3
 8000d72:	f001 fc62 	bl	800263a <HAL_GPIO_WritePin>
          HAL_Delay(100);
 8000d76:	2064      	movs	r0, #100	@ 0x64
 8000d78:	f001 f84c 	bl	8001e14 <HAL_Delay>
          HAL_GPIO_WritePin(LED0_GPIO_Port, LED0_Pin, GPIO_PIN_RESET);
 8000d7c:	4b2f      	ldr	r3, [pc, #188]	@ (8000e3c <FirmwareUpdate_Mode+0x6c0>)
 8000d7e:	2200      	movs	r2, #0
 8000d80:	2140      	movs	r1, #64	@ 0x40
 8000d82:	0018      	movs	r0, r3
 8000d84:	f001 fc59 	bl	800263a <HAL_GPIO_WritePin>
          HAL_Delay(100);
 8000d88:	2064      	movs	r0, #100	@ 0x64
 8000d8a:	f001 f843 	bl	8001e14 <HAL_Delay>
          HAL_IWDG_Refresh(&hiwdg);
 8000d8e:	4b28      	ldr	r3, [pc, #160]	@ (8000e30 <FirmwareUpdate_Mode+0x6b4>)
 8000d90:	0018      	movs	r0, r3
 8000d92:	f001 fd03 	bl	800279c <HAL_IWDG_Refresh>
        for (int i = 0; i < 10; i++) {
 8000d96:	228c      	movs	r2, #140	@ 0x8c
 8000d98:	18bb      	adds	r3, r7, r2
 8000d9a:	681b      	ldr	r3, [r3, #0]
 8000d9c:	3301      	adds	r3, #1
 8000d9e:	18ba      	adds	r2, r7, r2
 8000da0:	6013      	str	r3, [r2, #0]
 8000da2:	238c      	movs	r3, #140	@ 0x8c
 8000da4:	18fb      	adds	r3, r7, r3
 8000da6:	681b      	ldr	r3, [r3, #0]
 8000da8:	2b09      	cmp	r3, #9
 8000daa:	ddde      	ble.n	8000d6a <FirmwareUpdate_Mode+0x5ee>
  while (!final_received && (HAL_GetTick() - final_start) < 45000) {
 8000dac:	2394      	movs	r3, #148	@ 0x94
 8000dae:	18fb      	adds	r3, r7, r3
 8000db0:	781b      	ldrb	r3, [r3, #0]
 8000db2:	2b00      	cmp	r3, #0
 8000db4:	d108      	bne.n	8000dc8 <FirmwareUpdate_Mode+0x64c>
 8000db6:	f001 f823 	bl	8001e00 <HAL_GetTick>
 8000dba:	0002      	movs	r2, r0
 8000dbc:	6ffb      	ldr	r3, [r7, #124]	@ 0x7c
 8000dbe:	1ad3      	subs	r3, r2, r3
 8000dc0:	4a20      	ldr	r2, [pc, #128]	@ (8000e44 <FirmwareUpdate_Mode+0x6c8>)
 8000dc2:	4293      	cmp	r3, r2
 8000dc4:	d800      	bhi.n	8000dc8 <FirmwareUpdate_Mode+0x64c>
 8000dc6:	e73c      	b.n	8000c42 <FirmwareUpdate_Mode+0x4c6>
        }
      }
    }
  }

  if (!final_received) {
 8000dc8:	2394      	movs	r3, #148	@ 0x94
 8000dca:	18fb      	adds	r3, r7, r3
 8000dcc:	781b      	ldrb	r3, [r3, #0]
 8000dce:	2b00      	cmp	r3, #0
 8000dd0:	d10a      	bne.n	8000de8 <FirmwareUpdate_Mode+0x66c>
    Print("[FW] Uyari: Final sonucu alinamadi (timeout)\r\n");
 8000dd2:	4b1d      	ldr	r3, [pc, #116]	@ (8000e48 <FirmwareUpdate_Mode+0x6cc>)
 8000dd4:	0018      	movs	r0, r3
 8000dd6:	f7ff fb53 	bl	8000480 <Print>
    // Timeout durumunda da NACK gönder ki PC takılmasın
    HAL_UART_Transmit(&huart1, &nack, 1, 100);
 8000dda:	237a      	movs	r3, #122	@ 0x7a
 8000ddc:	18f9      	adds	r1, r7, r3
 8000dde:	4811      	ldr	r0, [pc, #68]	@ (8000e24 <FirmwareUpdate_Mode+0x6a8>)
 8000de0:	2364      	movs	r3, #100	@ 0x64
 8000de2:	2201      	movs	r2, #1
 8000de4:	f003 fab6 	bl	8004354 <HAL_UART_Transmit>
  }

  HAL_GPIO_WritePin(LED0_GPIO_Port, LED0_Pin, GPIO_PIN_RESET);
 8000de8:	4b14      	ldr	r3, [pc, #80]	@ (8000e3c <FirmwareUpdate_Mode+0x6c0>)
 8000dea:	2200      	movs	r2, #0
 8000dec:	2140      	movs	r1, #64	@ 0x40
 8000dee:	0018      	movs	r0, r3
 8000df0:	f001 fc23 	bl	800263a <HAL_GPIO_WritePin>
  HAL_GPIO_WritePin(LED1_GPIO_Port, LED1_Pin, GPIO_PIN_RESET);
 8000df4:	2380      	movs	r3, #128	@ 0x80
 8000df6:	0159      	lsls	r1, r3, #5
 8000df8:	2390      	movs	r3, #144	@ 0x90
 8000dfa:	05db      	lsls	r3, r3, #23
 8000dfc:	2200      	movs	r2, #0
 8000dfe:	0018      	movs	r0, r3
 8000e00:	f001 fc1b 	bl	800263a <HAL_GPIO_WritePin>

  // Debug'ı tekrar aç
  fw_debug_en = 1;
 8000e04:	4b11      	ldr	r3, [pc, #68]	@ (8000e4c <FirmwareUpdate_Mode+0x6d0>)
 8000e06:	2201      	movs	r2, #1
 8000e08:	701a      	strb	r2, [r3, #0]

  Print("[FW] Firmware update modu sona erdi\r\n");
 8000e0a:	4b11      	ldr	r3, [pc, #68]	@ (8000e50 <FirmwareUpdate_Mode+0x6d4>)
 8000e0c:	0018      	movs	r0, r3
 8000e0e:	f7ff fb37 	bl	8000480 <Print>
}
 8000e12:	46bd      	mov	sp, r7
 8000e14:	b029      	add	sp, #164	@ 0xa4
 8000e16:	bdf0      	pop	{r4, r5, r6, r7, pc}
 8000e18:	200000a0 	.word	0x200000a0
 8000e1c:	20000134 	.word	0x20000134
 8000e20:	080055f4 	.word	0x080055f4
 8000e24:	2000022c 	.word	0x2000022c
 8000e28:	08005618 	.word	0x08005618
 8000e2c:	08005628 	.word	0x08005628
 8000e30:	2000002c 	.word	0x2000002c
 8000e34:	00001388 	.word	0x00001388
 8000e38:	08005650 	.word	0x08005650
 8000e3c:	48001400 	.word	0x48001400
 8000e40:	08005674 	.word	0x08005674
 8000e44:	0000afc7 	.word	0x0000afc7
 8000e48:	080056a4 	.word	0x080056a4
 8000e4c:	20000000 	.word	0x20000000
 8000e50:	080056d4 	.word	0x080056d4

08000e54 <main>:

/* USER CODE END 0 */

int main(void) {
 8000e54:	b5b0      	push	{r4, r5, r7, lr}
 8000e56:	b0a0      	sub	sp, #128	@ 0x80
 8000e58:	af00      	add	r7, sp, #0
  HAL_Init();
 8000e5a:	f000 ff77 	bl	8001d4c <HAL_Init>
  SystemClock_Config();
 8000e5e:	f000 fa1d 	bl	800129c <SystemClock_Config>

  MX_GPIO_Init();
 8000e62:	f7ff fa03 	bl	800026c <MX_GPIO_Init>
  MX_DMA_Init();
 8000e66:	f7ff f9e3 	bl	8000230 <MX_DMA_Init>
  MX_USART1_UART_Init();
 8000e6a:	f000 fe67 	bl	8001b3c <MX_USART1_UART_Init>
  MX_SPI2_Init();
 8000e6e:	f000 fcd3 	bl	8001818 <MX_SPI2_Init>
  MX_IWDG_Init();
 8000e72:	f7ff fae5 	bl	8000440 <MX_IWDG_Init>
  MX_TIM17_Init();
 8000e76:	f000 fdfb 	bl	8001a70 <MX_TIM17_Init>
  MX_TIM16_Init();
 8000e7a:	f000 fdd1 	bl	8001a20 <MX_TIM16_Init>
  /* USER CODE BEGIN 2 */

  SI4432_Init();
 8000e7e:	f000 faf1 	bl	8001464 <SI4432_Init>
  HAL_Delay(10);
 8000e82:	200a      	movs	r0, #10
 8000e84:	f000 ffc6 	bl	8001e14 <HAL_Delay>

  uint8_t dev = SI4432_ReadReg(0x00);
 8000e88:	256f      	movs	r5, #111	@ 0x6f
 8000e8a:	197c      	adds	r4, r7, r5
 8000e8c:	2000      	movs	r0, #0
 8000e8e:	f000 fa8d 	bl	80013ac <SI4432_ReadReg>
 8000e92:	0003      	movs	r3, r0
 8000e94:	7023      	strb	r3, [r4, #0]
  if (dev != 0x08) {
 8000e96:	197b      	adds	r3, r7, r5
 8000e98:	781b      	ldrb	r3, [r3, #0]
 8000e9a:	2b08      	cmp	r3, #8
 8000e9c:	d011      	beq.n	8000ec2 <main+0x6e>
    Print("\r\n[HATA] Si4432 bulunamadi!\r\n");
 8000e9e:	4be7      	ldr	r3, [pc, #924]	@ (800123c <main+0x3e8>)
 8000ea0:	0018      	movs	r0, r3
 8000ea2:	f7ff faed 	bl	8000480 <Print>
    while (1) {
      HAL_GPIO_TogglePin(LED0_GPIO_Port, LED0_Pin);
 8000ea6:	4be6      	ldr	r3, [pc, #920]	@ (8001240 <main+0x3ec>)
 8000ea8:	2140      	movs	r1, #64	@ 0x40
 8000eaa:	0018      	movs	r0, r3
 8000eac:	f001 fbe2 	bl	8002674 <HAL_GPIO_TogglePin>
      HAL_Delay(100);
 8000eb0:	2064      	movs	r0, #100	@ 0x64
 8000eb2:	f000 ffaf 	bl	8001e14 <HAL_Delay>
      HAL_IWDG_Refresh(&hiwdg);
 8000eb6:	4be3      	ldr	r3, [pc, #908]	@ (8001244 <main+0x3f0>)
 8000eb8:	0018      	movs	r0, r3
 8000eba:	f001 fc6f 	bl	800279c <HAL_IWDG_Refresh>
      HAL_GPIO_TogglePin(LED0_GPIO_Port, LED0_Pin);
 8000ebe:	46c0      	nop			@ (mov r8, r8)
 8000ec0:	e7f1      	b.n	8000ea6 <main+0x52>
    }
  }

  HAL_GPIO_WritePin(LED0_GPIO_Port, LED0_Pin, GPIO_PIN_SET);
 8000ec2:	4bdf      	ldr	r3, [pc, #892]	@ (8001240 <main+0x3ec>)
 8000ec4:	2201      	movs	r2, #1
 8000ec6:	2140      	movs	r1, #64	@ 0x40
 8000ec8:	0018      	movs	r0, r3
 8000eca:	f001 fbb6 	bl	800263a <HAL_GPIO_WritePin>
  HAL_GPIO_WritePin(LED1_GPIO_Port, LED1_Pin, GPIO_PIN_SET);
 8000ece:	2380      	movs	r3, #128	@ 0x80
 8000ed0:	0159      	lsls	r1, r3, #5
 8000ed2:	2390      	movs	r3, #144	@ 0x90
 8000ed4:	05db      	lsls	r3, r3, #23
 8000ed6:	2201      	movs	r2, #1
 8000ed8:	0018      	movs	r0, r3
 8000eda:	f001 fbae 	bl	800263a <HAL_GPIO_WritePin>
  HAL_Delay(1000);
 8000ede:	23fa      	movs	r3, #250	@ 0xfa
 8000ee0:	009b      	lsls	r3, r3, #2
 8000ee2:	0018      	movs	r0, r3
 8000ee4:	f000 ff96 	bl	8001e14 <HAL_Delay>
  HAL_GPIO_WritePin(LED0_GPIO_Port, LED0_Pin, GPIO_PIN_RESET);
 8000ee8:	4bd5      	ldr	r3, [pc, #852]	@ (8001240 <main+0x3ec>)
 8000eea:	2200      	movs	r2, #0
 8000eec:	2140      	movs	r1, #64	@ 0x40
 8000eee:	0018      	movs	r0, r3
 8000ef0:	f001 fba3 	bl	800263a <HAL_GPIO_WritePin>
  HAL_GPIO_WritePin(LED1_GPIO_Port, LED1_Pin, GPIO_PIN_RESET);
 8000ef4:	2380      	movs	r3, #128	@ 0x80
 8000ef6:	0159      	lsls	r1, r3, #5
 8000ef8:	2390      	movs	r3, #144	@ 0x90
 8000efa:	05db      	lsls	r3, r3, #23
 8000efc:	2200      	movs	r2, #0
 8000efe:	0018      	movs	r0, r3
 8000f00:	f001 fb9b 	bl	800263a <HAL_GPIO_WritePin>

  Print("\r\n========================================\r\n");
 8000f04:	4bd0      	ldr	r3, [pc, #832]	@ (8001248 <main+0x3f4>)
 8000f06:	0018      	movs	r0, r3
 8000f08:	f7ff faba 	bl	8000480 <Print>
  Print(" Si4432 RF Gonderici + FW Update Bridge\r\n");
 8000f0c:	4bcf      	ldr	r3, [pc, #828]	@ (800124c <main+0x3f8>)
 8000f0e:	0018      	movs	r0, r3
 8000f10:	f7ff fab6 	bl	8000480 <Print>
  Print("========================================\r\n");
 8000f14:	4bce      	ldr	r3, [pc, #824]	@ (8001250 <main+0x3fc>)
 8000f16:	0018      	movs	r0, r3
 8000f18:	f7ff fab2 	bl	8000480 <Print>
  Print("DEV_TYPE: ");
 8000f1c:	4bcd      	ldr	r3, [pc, #820]	@ (8001254 <main+0x400>)
 8000f1e:	0018      	movs	r0, r3
 8000f20:	f7ff faae 	bl	8000480 <Print>
  PrintHex(dev);
 8000f24:	236f      	movs	r3, #111	@ 0x6f
 8000f26:	18fb      	adds	r3, r7, r3
 8000f28:	781b      	ldrb	r3, [r3, #0]
 8000f2a:	0018      	movs	r0, r3
 8000f2c:	f7ff fac6 	bl	80004bc <PrintHex>
  Print("\r\nMesaj yaz + Enter (normal mod)\r\n");
 8000f30:	4bc9      	ldr	r3, [pc, #804]	@ (8001258 <main+0x404>)
 8000f32:	0018      	movs	r0, r3
 8000f34:	f7ff faa4 	bl	8000480 <Print>
  Print("'W' gondererek FW update modu baslatilir\r\n\r\n");
 8000f38:	4bc8      	ldr	r3, [pc, #800]	@ (800125c <main+0x408>)
 8000f3a:	0018      	movs	r0, r3
 8000f3c:	f7ff faa0 	bl	8000480 <Print>

  /* USER CODE END 2 */

  while (1) {
    /* USER CODE BEGIN 3 */
    HAL_IWDG_Refresh(&hiwdg);
 8000f40:	4bc0      	ldr	r3, [pc, #768]	@ (8001244 <main+0x3f0>)
 8000f42:	0018      	movs	r0, r3
 8000f44:	f001 fc2a 	bl	800279c <HAL_IWDG_Refresh>

    uint8_t ch;
    if (HAL_UART_Receive(&huart1, &ch, 1, 50) == HAL_OK) {
 8000f48:	2466      	movs	r4, #102	@ 0x66
 8000f4a:	1939      	adds	r1, r7, r4
 8000f4c:	48c4      	ldr	r0, [pc, #784]	@ (8001260 <main+0x40c>)
 8000f4e:	2332      	movs	r3, #50	@ 0x32
 8000f50:	2201      	movs	r2, #1
 8000f52:	f003 fa9f 	bl	8004494 <HAL_UART_Receive>
 8000f56:	1e03      	subs	r3, r0, #0
 8000f58:	d1f2      	bne.n	8000f40 <main+0xec>

      // ─── Firmware Update Modu Tetikleme ───
      if (ch == 'W' || ch == 'w') {
 8000f5a:	193b      	adds	r3, r7, r4
 8000f5c:	781b      	ldrb	r3, [r3, #0]
 8000f5e:	2b57      	cmp	r3, #87	@ 0x57
 8000f60:	d003      	beq.n	8000f6a <main+0x116>
 8000f62:	193b      	adds	r3, r7, r4
 8000f64:	781b      	ldrb	r3, [r3, #0]
 8000f66:	2b77      	cmp	r3, #119	@ 0x77
 8000f68:	d10b      	bne.n	8000f82 <main+0x12e>
        FirmwareUpdate_Mode();
 8000f6a:	f7ff fc07 	bl	800077c <FirmwareUpdate_Mode>
        uart_idx = 0;
 8000f6e:	4bbd      	ldr	r3, [pc, #756]	@ (8001264 <main+0x410>)
 8000f70:	2200      	movs	r2, #0
 8000f72:	701a      	strb	r2, [r3, #0]
        memset(uart_buf, 0, MAX_MSG);
 8000f74:	4bbc      	ldr	r3, [pc, #752]	@ (8001268 <main+0x414>)
 8000f76:	2220      	movs	r2, #32
 8000f78:	2100      	movs	r1, #0
 8000f7a:	0018      	movs	r0, r3
 8000f7c:	f004 fa02 	bl	8005384 <memset>
 8000f80:	e7de      	b.n	8000f40 <main+0xec>
        continue;
      }

      // ─── Normal Mod: UART → RF Echo Test ───
      if (ch == '\r' || ch == '\n') {
 8000f82:	2266      	movs	r2, #102	@ 0x66
 8000f84:	18bb      	adds	r3, r7, r2
 8000f86:	781b      	ldrb	r3, [r3, #0]
 8000f88:	2b0d      	cmp	r3, #13
 8000f8a:	d004      	beq.n	8000f96 <main+0x142>
 8000f8c:	18bb      	adds	r3, r7, r2
 8000f8e:	781b      	ldrb	r3, [r3, #0]
 8000f90:	2b0a      	cmp	r3, #10
 8000f92:	d000      	beq.n	8000f96 <main+0x142>
 8000f94:	e138      	b.n	8001208 <main+0x3b4>
        if (uart_idx > 0) {
 8000f96:	4bb3      	ldr	r3, [pc, #716]	@ (8001264 <main+0x410>)
 8000f98:	781b      	ldrb	r3, [r3, #0]
 8000f9a:	2b00      	cmp	r3, #0
 8000f9c:	d100      	bne.n	8000fa0 <main+0x14c>
 8000f9e:	e14b      	b.n	8001238 <main+0x3e4>
          HAL_GPIO_WritePin(LED0_GPIO_Port, LED0_Pin, GPIO_PIN_SET);
 8000fa0:	4ba7      	ldr	r3, [pc, #668]	@ (8001240 <main+0x3ec>)
 8000fa2:	2201      	movs	r2, #1
 8000fa4:	2140      	movs	r1, #64	@ 0x40
 8000fa6:	0018      	movs	r0, r3
 8000fa8:	f001 fb47 	bl	800263a <HAL_GPIO_WritePin>

          Print("\r\n[TX] Veri: ");
 8000fac:	4baf      	ldr	r3, [pc, #700]	@ (800126c <main+0x418>)
 8000fae:	0018      	movs	r0, r3
 8000fb0:	f7ff fa66 	bl	8000480 <Print>
          PrintBuf(uart_buf, uart_idx);
 8000fb4:	4bab      	ldr	r3, [pc, #684]	@ (8001264 <main+0x410>)
 8000fb6:	781b      	ldrb	r3, [r3, #0]
 8000fb8:	001a      	movs	r2, r3
 8000fba:	4bab      	ldr	r3, [pc, #684]	@ (8001268 <main+0x414>)
 8000fbc:	0011      	movs	r1, r2
 8000fbe:	0018      	movs	r0, r3
 8000fc0:	f7ff fab8 	bl	8000534 <PrintBuf>
          Print("\r\n[TX] Hex : ");
 8000fc4:	4baa      	ldr	r3, [pc, #680]	@ (8001270 <main+0x41c>)
 8000fc6:	0018      	movs	r0, r3
 8000fc8:	f7ff fa5a 	bl	8000480 <Print>
          for (uint8_t i = 0; i < uart_idx; i++)
 8000fcc:	237f      	movs	r3, #127	@ 0x7f
 8000fce:	18fb      	adds	r3, r7, r3
 8000fd0:	2200      	movs	r2, #0
 8000fd2:	701a      	strb	r2, [r3, #0]
 8000fd4:	e00c      	b.n	8000ff0 <main+0x19c>
            PrintHex(uart_buf[i]);
 8000fd6:	247f      	movs	r4, #127	@ 0x7f
 8000fd8:	193b      	adds	r3, r7, r4
 8000fda:	781b      	ldrb	r3, [r3, #0]
 8000fdc:	4aa2      	ldr	r2, [pc, #648]	@ (8001268 <main+0x414>)
 8000fde:	5cd3      	ldrb	r3, [r2, r3]
 8000fe0:	0018      	movs	r0, r3
 8000fe2:	f7ff fa6b 	bl	80004bc <PrintHex>
          for (uint8_t i = 0; i < uart_idx; i++)
 8000fe6:	193b      	adds	r3, r7, r4
 8000fe8:	781a      	ldrb	r2, [r3, #0]
 8000fea:	193b      	adds	r3, r7, r4
 8000fec:	3201      	adds	r2, #1
 8000fee:	701a      	strb	r2, [r3, #0]
 8000ff0:	4b9c      	ldr	r3, [pc, #624]	@ (8001264 <main+0x410>)
 8000ff2:	781b      	ldrb	r3, [r3, #0]
 8000ff4:	227f      	movs	r2, #127	@ 0x7f
 8000ff6:	18ba      	adds	r2, r7, r2
 8000ff8:	7812      	ldrb	r2, [r2, #0]
 8000ffa:	429a      	cmp	r2, r3
 8000ffc:	d3eb      	bcc.n	8000fd6 <main+0x182>
          Print("\r\n[TX] Gonderiliyor...\r\n");
 8000ffe:	4b9d      	ldr	r3, [pc, #628]	@ (8001274 <main+0x420>)
 8001000:	0018      	movs	r0, r3
 8001002:	f7ff fa3d 	bl	8000480 <Print>

          SI4432_SendPacket(uart_buf, uart_idx);
 8001006:	4b97      	ldr	r3, [pc, #604]	@ (8001264 <main+0x410>)
 8001008:	781a      	ldrb	r2, [r3, #0]
 800100a:	4b97      	ldr	r3, [pc, #604]	@ (8001268 <main+0x414>)
 800100c:	0011      	movs	r1, r2
 800100e:	0018      	movs	r0, r3
 8001010:	f000 fb06 	bl	8001620 <SI4432_SendPacket>

          Print("[TX] Gonderildi! Echo bekleniyor...\r\n");
 8001014:	4b98      	ldr	r3, [pc, #608]	@ (8001278 <main+0x424>)
 8001016:	0018      	movs	r0, r3
 8001018:	f7ff fa32 	bl	8000480 <Print>
          HAL_GPIO_WritePin(LED0_GPIO_Port, LED0_Pin, GPIO_PIN_RESET);
 800101c:	4b88      	ldr	r3, [pc, #544]	@ (8001240 <main+0x3ec>)
 800101e:	2200      	movs	r2, #0
 8001020:	2140      	movs	r1, #64	@ 0x40
 8001022:	0018      	movs	r0, r3
 8001024:	f001 fb09 	bl	800263a <HAL_GPIO_WritePin>

          uint8_t sent_len = uart_idx;
 8001028:	236e      	movs	r3, #110	@ 0x6e
 800102a:	18fb      	adds	r3, r7, r3
 800102c:	4a8d      	ldr	r2, [pc, #564]	@ (8001264 <main+0x410>)
 800102e:	7812      	ldrb	r2, [r2, #0]
 8001030:	701a      	strb	r2, [r3, #0]
          uint8_t sent[MAX_MSG];
          memcpy(sent, uart_buf, uart_idx);
 8001032:	4b8c      	ldr	r3, [pc, #560]	@ (8001264 <main+0x410>)
 8001034:	781b      	ldrb	r3, [r3, #0]
 8001036:	001a      	movs	r2, r3
 8001038:	498b      	ldr	r1, [pc, #556]	@ (8001268 <main+0x414>)
 800103a:	1d3b      	adds	r3, r7, #4
 800103c:	0018      	movs	r0, r3
 800103e:	f004 f9cd 	bl	80053dc <memcpy>
          uart_idx = 0;
 8001042:	4b88      	ldr	r3, [pc, #544]	@ (8001264 <main+0x410>)
 8001044:	2200      	movs	r2, #0
 8001046:	701a      	strb	r2, [r3, #0]
          memset(uart_buf, 0, MAX_MSG);
 8001048:	4b87      	ldr	r3, [pc, #540]	@ (8001268 <main+0x414>)
 800104a:	2220      	movs	r2, #32
 800104c:	2100      	movs	r1, #0
 800104e:	0018      	movs	r0, r3
 8001050:	f004 f998 	bl	8005384 <memset>

          // Echo bekle
          SI4432_StartRx();
 8001054:	f000 fb50 	bl	80016f8 <SI4432_StartRx>
          HAL_GPIO_WritePin(LED1_GPIO_Port, LED1_Pin, GPIO_PIN_SET);
 8001058:	2380      	movs	r3, #128	@ 0x80
 800105a:	0159      	lsls	r1, r3, #5
 800105c:	2390      	movs	r3, #144	@ 0x90
 800105e:	05db      	lsls	r3, r3, #23
 8001060:	2201      	movs	r2, #1
 8001062:	0018      	movs	r0, r3
 8001064:	f001 fae9 	bl	800263a <HAL_GPIO_WritePin>

          uint8_t got_echo = 0;
 8001068:	237e      	movs	r3, #126	@ 0x7e
 800106a:	18fb      	adds	r3, r7, r3
 800106c:	2200      	movs	r2, #0
 800106e:	701a      	strb	r2, [r3, #0]
          uint32_t t0 = HAL_GetTick();
 8001070:	f000 fec6 	bl	8001e00 <HAL_GetTick>
 8001074:	0003      	movs	r3, r0
 8001076:	66bb      	str	r3, [r7, #104]	@ 0x68

          while ((HAL_GetTick() - t0) < 10000) {
 8001078:	e090      	b.n	800119c <main+0x348>
            HAL_IWDG_Refresh(&hiwdg);
 800107a:	4b72      	ldr	r3, [pc, #456]	@ (8001244 <main+0x3f0>)
 800107c:	0018      	movs	r0, r3
 800107e:	f001 fb8d 	bl	800279c <HAL_IWDG_Refresh>

            uint8_t rx[64];
            uint8_t rx_len = SI4432_CheckRx(rx);
 8001082:	2567      	movs	r5, #103	@ 0x67
 8001084:	197c      	adds	r4, r7, r5
 8001086:	2324      	movs	r3, #36	@ 0x24
 8001088:	18fb      	adds	r3, r7, r3
 800108a:	0018      	movs	r0, r3
 800108c:	f000 fb52 	bl	8001734 <SI4432_CheckRx>
 8001090:	0003      	movs	r3, r0
 8001092:	7023      	strb	r3, [r4, #0]

            if (rx_len > 0) {
 8001094:	197b      	adds	r3, r7, r5
 8001096:	781b      	ldrb	r3, [r3, #0]
 8001098:	2b00      	cmp	r3, #0
 800109a:	d100      	bne.n	800109e <main+0x24a>
 800109c:	e07e      	b.n	800119c <main+0x348>
              got_echo = 1;
 800109e:	237e      	movs	r3, #126	@ 0x7e
 80010a0:	18fb      	adds	r3, r7, r3
 80010a2:	2201      	movs	r2, #1
 80010a4:	701a      	strb	r2, [r3, #0]

              for (int b = 0; b < 3; b++) {
 80010a6:	2300      	movs	r3, #0
 80010a8:	67bb      	str	r3, [r7, #120]	@ 0x78
 80010aa:	e024      	b.n	80010f6 <main+0x2a2>
                HAL_GPIO_WritePin(LED0_GPIO_Port, LED0_Pin, GPIO_PIN_SET);
 80010ac:	4b64      	ldr	r3, [pc, #400]	@ (8001240 <main+0x3ec>)
 80010ae:	2201      	movs	r2, #1
 80010b0:	2140      	movs	r1, #64	@ 0x40
 80010b2:	0018      	movs	r0, r3
 80010b4:	f001 fac1 	bl	800263a <HAL_GPIO_WritePin>
                HAL_GPIO_WritePin(LED1_GPIO_Port, LED1_Pin, GPIO_PIN_SET);
 80010b8:	2380      	movs	r3, #128	@ 0x80
 80010ba:	0159      	lsls	r1, r3, #5
 80010bc:	2390      	movs	r3, #144	@ 0x90
 80010be:	05db      	lsls	r3, r3, #23
 80010c0:	2201      	movs	r2, #1
 80010c2:	0018      	movs	r0, r3
 80010c4:	f001 fab9 	bl	800263a <HAL_GPIO_WritePin>
                HAL_Delay(100);
 80010c8:	2064      	movs	r0, #100	@ 0x64
 80010ca:	f000 fea3 	bl	8001e14 <HAL_Delay>
                HAL_GPIO_WritePin(LED0_GPIO_Port, LED0_Pin, GPIO_PIN_RESET);
 80010ce:	4b5c      	ldr	r3, [pc, #368]	@ (8001240 <main+0x3ec>)
 80010d0:	2200      	movs	r2, #0
 80010d2:	2140      	movs	r1, #64	@ 0x40
 80010d4:	0018      	movs	r0, r3
 80010d6:	f001 fab0 	bl	800263a <HAL_GPIO_WritePin>
                HAL_GPIO_WritePin(LED1_GPIO_Port, LED1_Pin, GPIO_PIN_RESET);
 80010da:	2380      	movs	r3, #128	@ 0x80
 80010dc:	0159      	lsls	r1, r3, #5
 80010de:	2390      	movs	r3, #144	@ 0x90
 80010e0:	05db      	lsls	r3, r3, #23
 80010e2:	2200      	movs	r2, #0
 80010e4:	0018      	movs	r0, r3
 80010e6:	f001 faa8 	bl	800263a <HAL_GPIO_WritePin>
                HAL_Delay(100);
 80010ea:	2064      	movs	r0, #100	@ 0x64
 80010ec:	f000 fe92 	bl	8001e14 <HAL_Delay>
              for (int b = 0; b < 3; b++) {
 80010f0:	6fbb      	ldr	r3, [r7, #120]	@ 0x78
 80010f2:	3301      	adds	r3, #1
 80010f4:	67bb      	str	r3, [r7, #120]	@ 0x78
 80010f6:	6fbb      	ldr	r3, [r7, #120]	@ 0x78
 80010f8:	2b02      	cmp	r3, #2
 80010fa:	ddd7      	ble.n	80010ac <main+0x258>
              }

              Print("\r\n[RX] Veri: ");
 80010fc:	4b5f      	ldr	r3, [pc, #380]	@ (800127c <main+0x428>)
 80010fe:	0018      	movs	r0, r3
 8001100:	f7ff f9be 	bl	8000480 <Print>
              PrintBuf(rx, rx_len);
 8001104:	2367      	movs	r3, #103	@ 0x67
 8001106:	18fb      	adds	r3, r7, r3
 8001108:	781b      	ldrb	r3, [r3, #0]
 800110a:	b29a      	uxth	r2, r3
 800110c:	2324      	movs	r3, #36	@ 0x24
 800110e:	18fb      	adds	r3, r7, r3
 8001110:	0011      	movs	r1, r2
 8001112:	0018      	movs	r0, r3
 8001114:	f7ff fa0e 	bl	8000534 <PrintBuf>
              Print("\r\n[RX] Hex : ");
 8001118:	4b59      	ldr	r3, [pc, #356]	@ (8001280 <main+0x42c>)
 800111a:	0018      	movs	r0, r3
 800111c:	f7ff f9b0 	bl	8000480 <Print>
              for (uint8_t i = 0; i < rx_len; i++)
 8001120:	2377      	movs	r3, #119	@ 0x77
 8001122:	18fb      	adds	r3, r7, r3
 8001124:	2200      	movs	r2, #0
 8001126:	701a      	strb	r2, [r3, #0]
 8001128:	e00d      	b.n	8001146 <main+0x2f2>
                PrintHex(rx[i]);
 800112a:	2477      	movs	r4, #119	@ 0x77
 800112c:	193b      	adds	r3, r7, r4
 800112e:	781b      	ldrb	r3, [r3, #0]
 8001130:	2224      	movs	r2, #36	@ 0x24
 8001132:	18ba      	adds	r2, r7, r2
 8001134:	5cd3      	ldrb	r3, [r2, r3]
 8001136:	0018      	movs	r0, r3
 8001138:	f7ff f9c0 	bl	80004bc <PrintHex>
              for (uint8_t i = 0; i < rx_len; i++)
 800113c:	193b      	adds	r3, r7, r4
 800113e:	781a      	ldrb	r2, [r3, #0]
 8001140:	193b      	adds	r3, r7, r4
 8001142:	3201      	adds	r2, #1
 8001144:	701a      	strb	r2, [r3, #0]
 8001146:	2377      	movs	r3, #119	@ 0x77
 8001148:	18fa      	adds	r2, r7, r3
 800114a:	2467      	movs	r4, #103	@ 0x67
 800114c:	193b      	adds	r3, r7, r4
 800114e:	7812      	ldrb	r2, [r2, #0]
 8001150:	781b      	ldrb	r3, [r3, #0]
 8001152:	429a      	cmp	r2, r3
 8001154:	d3e9      	bcc.n	800112a <main+0x2d6>
              Print("\r\n");
 8001156:	4b4b      	ldr	r3, [pc, #300]	@ (8001284 <main+0x430>)
 8001158:	0018      	movs	r0, r3
 800115a:	f7ff f991 	bl	8000480 <Print>

              if (rx_len == sent_len && memcmp(sent, rx, sent_len) == 0)
 800115e:	193a      	adds	r2, r7, r4
 8001160:	216e      	movs	r1, #110	@ 0x6e
 8001162:	187b      	adds	r3, r7, r1
 8001164:	7812      	ldrb	r2, [r2, #0]
 8001166:	781b      	ldrb	r3, [r3, #0]
 8001168:	429a      	cmp	r2, r3
 800116a:	d10e      	bne.n	800118a <main+0x336>
 800116c:	187b      	adds	r3, r7, r1
 800116e:	781a      	ldrb	r2, [r3, #0]
 8001170:	2324      	movs	r3, #36	@ 0x24
 8001172:	18f9      	adds	r1, r7, r3
 8001174:	1d3b      	adds	r3, r7, #4
 8001176:	0018      	movs	r0, r3
 8001178:	f004 f8f6 	bl	8005368 <memcmp>
 800117c:	1e03      	subs	r3, r0, #0
 800117e:	d104      	bne.n	800118a <main+0x336>
                Print("[SONUC] BASARILI!\r\n");
 8001180:	4b41      	ldr	r3, [pc, #260]	@ (8001288 <main+0x434>)
 8001182:	0018      	movs	r0, r3
 8001184:	f7ff f97c 	bl	8000480 <Print>
 8001188:	e003      	b.n	8001192 <main+0x33e>
              else
                Print("[SONUC] FARKLI!\r\n");
 800118a:	4b40      	ldr	r3, [pc, #256]	@ (800128c <main+0x438>)
 800118c:	0018      	movs	r0, r3
 800118e:	f7ff f977 	bl	8000480 <Print>
              Print("---\r\n\r\n");
 8001192:	4b3f      	ldr	r3, [pc, #252]	@ (8001290 <main+0x43c>)
 8001194:	0018      	movs	r0, r3
 8001196:	f7ff f973 	bl	8000480 <Print>
 800119a:	e008      	b.n	80011ae <main+0x35a>
          while ((HAL_GetTick() - t0) < 10000) {
 800119c:	f000 fe30 	bl	8001e00 <HAL_GetTick>
 80011a0:	0002      	movs	r2, r0
 80011a2:	6ebb      	ldr	r3, [r7, #104]	@ 0x68
 80011a4:	1ad3      	subs	r3, r2, r3
 80011a6:	4a3b      	ldr	r2, [pc, #236]	@ (8001294 <main+0x440>)
 80011a8:	4293      	cmp	r3, r2
 80011aa:	d800      	bhi.n	80011ae <main+0x35a>
 80011ac:	e765      	b.n	800107a <main+0x226>
              break;
            }
          }

          HAL_GPIO_WritePin(LED1_GPIO_Port, LED1_Pin, GPIO_PIN_RESET);
 80011ae:	2380      	movs	r3, #128	@ 0x80
 80011b0:	0159      	lsls	r1, r3, #5
 80011b2:	2390      	movs	r3, #144	@ 0x90
 80011b4:	05db      	lsls	r3, r3, #23
 80011b6:	2200      	movs	r2, #0
 80011b8:	0018      	movs	r0, r3
 80011ba:	f001 fa3e 	bl	800263a <HAL_GPIO_WritePin>
          if (!got_echo) {
 80011be:	237e      	movs	r3, #126	@ 0x7e
 80011c0:	18fb      	adds	r3, r7, r3
 80011c2:	781b      	ldrb	r3, [r3, #0]
 80011c4:	2b00      	cmp	r3, #0
 80011c6:	d137      	bne.n	8001238 <main+0x3e4>
            for (int b = 0; b < 5; b++) {
 80011c8:	2300      	movs	r3, #0
 80011ca:	673b      	str	r3, [r7, #112]	@ 0x70
 80011cc:	e014      	b.n	80011f8 <main+0x3a4>
              HAL_GPIO_WritePin(LED0_GPIO_Port, LED0_Pin, GPIO_PIN_SET);
 80011ce:	4b1c      	ldr	r3, [pc, #112]	@ (8001240 <main+0x3ec>)
 80011d0:	2201      	movs	r2, #1
 80011d2:	2140      	movs	r1, #64	@ 0x40
 80011d4:	0018      	movs	r0, r3
 80011d6:	f001 fa30 	bl	800263a <HAL_GPIO_WritePin>
              HAL_Delay(50);
 80011da:	2032      	movs	r0, #50	@ 0x32
 80011dc:	f000 fe1a 	bl	8001e14 <HAL_Delay>
              HAL_GPIO_WritePin(LED0_GPIO_Port, LED0_Pin, GPIO_PIN_RESET);
 80011e0:	4b17      	ldr	r3, [pc, #92]	@ (8001240 <main+0x3ec>)
 80011e2:	2200      	movs	r2, #0
 80011e4:	2140      	movs	r1, #64	@ 0x40
 80011e6:	0018      	movs	r0, r3
 80011e8:	f001 fa27 	bl	800263a <HAL_GPIO_WritePin>
              HAL_Delay(50);
 80011ec:	2032      	movs	r0, #50	@ 0x32
 80011ee:	f000 fe11 	bl	8001e14 <HAL_Delay>
            for (int b = 0; b < 5; b++) {
 80011f2:	6f3b      	ldr	r3, [r7, #112]	@ 0x70
 80011f4:	3301      	adds	r3, #1
 80011f6:	673b      	str	r3, [r7, #112]	@ 0x70
 80011f8:	6f3b      	ldr	r3, [r7, #112]	@ 0x70
 80011fa:	2b04      	cmp	r3, #4
 80011fc:	dde7      	ble.n	80011ce <main+0x37a>
            }
            Print("[RX] TIMEOUT!\r\n---\r\n\r\n");
 80011fe:	4b26      	ldr	r3, [pc, #152]	@ (8001298 <main+0x444>)
 8001200:	0018      	movs	r0, r3
 8001202:	f7ff f93d 	bl	8000480 <Print>
        if (uart_idx > 0) {
 8001206:	e017      	b.n	8001238 <main+0x3e4>
          }
        }
      } else {
        if (uart_idx < MAX_MSG) {
 8001208:	4b16      	ldr	r3, [pc, #88]	@ (8001264 <main+0x410>)
 800120a:	781b      	ldrb	r3, [r3, #0]
 800120c:	2b1f      	cmp	r3, #31
 800120e:	d900      	bls.n	8001212 <main+0x3be>
 8001210:	e696      	b.n	8000f40 <main+0xec>
          uart_buf[uart_idx++] = ch;
 8001212:	4b14      	ldr	r3, [pc, #80]	@ (8001264 <main+0x410>)
 8001214:	781b      	ldrb	r3, [r3, #0]
 8001216:	1c5a      	adds	r2, r3, #1
 8001218:	b2d1      	uxtb	r1, r2
 800121a:	4a12      	ldr	r2, [pc, #72]	@ (8001264 <main+0x410>)
 800121c:	7011      	strb	r1, [r2, #0]
 800121e:	001a      	movs	r2, r3
 8001220:	2066      	movs	r0, #102	@ 0x66
 8001222:	183b      	adds	r3, r7, r0
 8001224:	7819      	ldrb	r1, [r3, #0]
 8001226:	4b10      	ldr	r3, [pc, #64]	@ (8001268 <main+0x414>)
 8001228:	5499      	strb	r1, [r3, r2]
          HAL_UART_Transmit(&huart1, &ch, 1, 10);
 800122a:	1839      	adds	r1, r7, r0
 800122c:	480c      	ldr	r0, [pc, #48]	@ (8001260 <main+0x40c>)
 800122e:	230a      	movs	r3, #10
 8001230:	2201      	movs	r2, #1
 8001232:	f003 f88f 	bl	8004354 <HAL_UART_Transmit>
 8001236:	e683      	b.n	8000f40 <main+0xec>
        if (uart_idx > 0) {
 8001238:	46c0      	nop			@ (mov r8, r8)
  while (1) {
 800123a:	e681      	b.n	8000f40 <main+0xec>
 800123c:	080056fc 	.word	0x080056fc
 8001240:	48001400 	.word	0x48001400
 8001244:	2000002c 	.word	0x2000002c
 8001248:	0800571c 	.word	0x0800571c
 800124c:	0800574c 	.word	0x0800574c
 8001250:	08005778 	.word	0x08005778
 8001254:	080057a4 	.word	0x080057a4
 8001258:	080057b0 	.word	0x080057b0
 800125c:	080057d4 	.word	0x080057d4
 8001260:	2000022c 	.word	0x2000022c
 8001264:	2000005c 	.word	0x2000005c
 8001268:	2000003c 	.word	0x2000003c
 800126c:	08005804 	.word	0x08005804
 8001270:	08005814 	.word	0x08005814
 8001274:	08005824 	.word	0x08005824
 8001278:	08005840 	.word	0x08005840
 800127c:	08005868 	.word	0x08005868
 8001280:	08005878 	.word	0x08005878
 8001284:	08005628 	.word	0x08005628
 8001288:	08005888 	.word	0x08005888
 800128c:	0800589c 	.word	0x0800589c
 8001290:	080058b0 	.word	0x080058b0
 8001294:	0000270f 	.word	0x0000270f
 8001298:	080058b8 	.word	0x080058b8

0800129c <SystemClock_Config>:
    }
    /* USER CODE END 3 */
  }
}

void SystemClock_Config(void) {
 800129c:	b590      	push	{r4, r7, lr}
 800129e:	b091      	sub	sp, #68	@ 0x44
 80012a0:	af00      	add	r7, sp, #0
  RCC_OscInitTypeDef RCC_OscInitStruct = {0};
 80012a2:	2410      	movs	r4, #16
 80012a4:	193b      	adds	r3, r7, r4
 80012a6:	0018      	movs	r0, r3
 80012a8:	2330      	movs	r3, #48	@ 0x30
 80012aa:	001a      	movs	r2, r3
 80012ac:	2100      	movs	r1, #0
 80012ae:	f004 f869 	bl	8005384 <memset>
  RCC_ClkInitTypeDef RCC_ClkInitStruct = {0};
 80012b2:	003b      	movs	r3, r7
 80012b4:	0018      	movs	r0, r3
 80012b6:	2310      	movs	r3, #16
 80012b8:	001a      	movs	r2, r3
 80012ba:	2100      	movs	r1, #0
 80012bc:	f004 f862 	bl	8005384 <memset>

  RCC_OscInitStruct.OscillatorType =
 80012c0:	0021      	movs	r1, r4
 80012c2:	187b      	adds	r3, r7, r1
 80012c4:	220a      	movs	r2, #10
 80012c6:	601a      	str	r2, [r3, #0]
      RCC_OSCILLATORTYPE_HSI | RCC_OSCILLATORTYPE_LSI;
  RCC_OscInitStruct.HSIState = RCC_HSI_ON;
 80012c8:	187b      	adds	r3, r7, r1
 80012ca:	2201      	movs	r2, #1
 80012cc:	60da      	str	r2, [r3, #12]
  RCC_OscInitStruct.HSICalibrationValue = RCC_HSICALIBRATION_DEFAULT;
 80012ce:	187b      	adds	r3, r7, r1
 80012d0:	2210      	movs	r2, #16
 80012d2:	611a      	str	r2, [r3, #16]
  RCC_OscInitStruct.LSIState = RCC_LSI_ON;
 80012d4:	187b      	adds	r3, r7, r1
 80012d6:	2201      	movs	r2, #1
 80012d8:	61da      	str	r2, [r3, #28]
  RCC_OscInitStruct.PLL.PLLState = RCC_PLL_ON;
 80012da:	187b      	adds	r3, r7, r1
 80012dc:	2202      	movs	r2, #2
 80012de:	621a      	str	r2, [r3, #32]
  RCC_OscInitStruct.PLL.PLLSource = RCC_PLLSOURCE_HSI;
 80012e0:	187b      	adds	r3, r7, r1
 80012e2:	2200      	movs	r2, #0
 80012e4:	625a      	str	r2, [r3, #36]	@ 0x24
  RCC_OscInitStruct.PLL.PLLMUL = RCC_PLL_MUL12;
 80012e6:	187b      	adds	r3, r7, r1
 80012e8:	22a0      	movs	r2, #160	@ 0xa0
 80012ea:	0392      	lsls	r2, r2, #14
 80012ec:	629a      	str	r2, [r3, #40]	@ 0x28
  RCC_OscInitStruct.PLL.PREDIV = RCC_PREDIV_DIV1;
 80012ee:	187b      	adds	r3, r7, r1
 80012f0:	2200      	movs	r2, #0
 80012f2:	62da      	str	r2, [r3, #44]	@ 0x2c
  if (HAL_RCC_OscConfig(&RCC_OscInitStruct) != HAL_OK)
 80012f4:	187b      	adds	r3, r7, r1
 80012f6:	0018      	movs	r0, r3
 80012f8:	f001 fa60 	bl	80027bc <HAL_RCC_OscConfig>
 80012fc:	1e03      	subs	r3, r0, #0
 80012fe:	d001      	beq.n	8001304 <SystemClock_Config+0x68>
    Error_Handler();
 8001300:	f000 f819 	bl	8001336 <Error_Handler>

  RCC_ClkInitStruct.ClockType =
 8001304:	003b      	movs	r3, r7
 8001306:	2207      	movs	r2, #7
 8001308:	601a      	str	r2, [r3, #0]
      RCC_CLOCKTYPE_HCLK | RCC_CLOCKTYPE_SYSCLK | RCC_CLOCKTYPE_PCLK1;
  RCC_ClkInitStruct.SYSCLKSource = RCC_SYSCLKSOURCE_PLLCLK;
 800130a:	003b      	movs	r3, r7
 800130c:	2202      	movs	r2, #2
 800130e:	605a      	str	r2, [r3, #4]
  RCC_ClkInitStruct.AHBCLKDivider = RCC_SYSCLK_DIV1;
 8001310:	003b      	movs	r3, r7
 8001312:	2200      	movs	r2, #0
 8001314:	609a      	str	r2, [r3, #8]
  RCC_ClkInitStruct.APB1CLKDivider = RCC_HCLK_DIV1;
 8001316:	003b      	movs	r3, r7
 8001318:	2200      	movs	r2, #0
 800131a:	60da      	str	r2, [r3, #12]
  if (HAL_RCC_ClockConfig(&RCC_ClkInitStruct, FLASH_LATENCY_1) != HAL_OK)
 800131c:	003b      	movs	r3, r7
 800131e:	2101      	movs	r1, #1
 8001320:	0018      	movs	r0, r3
 8001322:	f001 fd65 	bl	8002df0 <HAL_RCC_ClockConfig>
 8001326:	1e03      	subs	r3, r0, #0
 8001328:	d001      	beq.n	800132e <SystemClock_Config+0x92>
    Error_Handler();
 800132a:	f000 f804 	bl	8001336 <Error_Handler>
}
 800132e:	46c0      	nop			@ (mov r8, r8)
 8001330:	46bd      	mov	sp, r7
 8001332:	b011      	add	sp, #68	@ 0x44
 8001334:	bd90      	pop	{r4, r7, pc}

08001336 <Error_Handler>:

void Error_Handler(void) {
 8001336:	b580      	push	{r7, lr}
 8001338:	af00      	add	r7, sp, #0
  \details Disables IRQ interrupts by setting the I-bit in the CPSR.
           Can only be executed in Privileged modes.
 */
__STATIC_FORCEINLINE void __disable_irq(void)
{
  __ASM volatile ("cpsid i" : : : "memory");
 800133a:	b672      	cpsid	i
}
 800133c:	46c0      	nop			@ (mov r8, r8)
  __disable_irq();
  while (1) {
 800133e:	46c0      	nop			@ (mov r8, r8)
 8001340:	e7fd      	b.n	800133e <Error_Handler+0x8>
	...

08001344 <SI4432_WriteReg>:
 8001344:	b580      	push	{r7, lr}
 8001346:	b084      	sub	sp, #16
 8001348:	af00      	add	r7, sp, #0
 800134a:	0002      	movs	r2, r0
 800134c:	1dfb      	adds	r3, r7, #7
 800134e:	701a      	strb	r2, [r3, #0]
 8001350:	1dbb      	adds	r3, r7, #6
 8001352:	1c0a      	adds	r2, r1, #0
 8001354:	701a      	strb	r2, [r3, #0]
 8001356:	2380      	movs	r3, #128	@ 0x80
 8001358:	015b      	lsls	r3, r3, #5
 800135a:	4812      	ldr	r0, [pc, #72]	@ (80013a4 <SI4432_WriteReg+0x60>)
 800135c:	2200      	movs	r2, #0
 800135e:	0019      	movs	r1, r3
 8001360:	f001 f96b 	bl	800263a <HAL_GPIO_WritePin>
 8001364:	1dfb      	adds	r3, r7, #7
 8001366:	781b      	ldrb	r3, [r3, #0]
 8001368:	2280      	movs	r2, #128	@ 0x80
 800136a:	4252      	negs	r2, r2
 800136c:	4313      	orrs	r3, r2
 800136e:	b2da      	uxtb	r2, r3
 8001370:	210f      	movs	r1, #15
 8001372:	187b      	adds	r3, r7, r1
 8001374:	701a      	strb	r2, [r3, #0]
 8001376:	1879      	adds	r1, r7, r1
 8001378:	480b      	ldr	r0, [pc, #44]	@ (80013a8 <SI4432_WriteReg+0x64>)
 800137a:	230a      	movs	r3, #10
 800137c:	2201      	movs	r2, #1
 800137e:	f001 ff33 	bl	80031e8 <HAL_SPI_Transmit>
 8001382:	1db9      	adds	r1, r7, #6
 8001384:	4808      	ldr	r0, [pc, #32]	@ (80013a8 <SI4432_WriteReg+0x64>)
 8001386:	230a      	movs	r3, #10
 8001388:	2201      	movs	r2, #1
 800138a:	f001 ff2d 	bl	80031e8 <HAL_SPI_Transmit>
 800138e:	2380      	movs	r3, #128	@ 0x80
 8001390:	015b      	lsls	r3, r3, #5
 8001392:	4804      	ldr	r0, [pc, #16]	@ (80013a4 <SI4432_WriteReg+0x60>)
 8001394:	2201      	movs	r2, #1
 8001396:	0019      	movs	r1, r3
 8001398:	f001 f94f 	bl	800263a <HAL_GPIO_WritePin>
 800139c:	46c0      	nop			@ (mov r8, r8)
 800139e:	46bd      	mov	sp, r7
 80013a0:	b004      	add	sp, #16
 80013a2:	bd80      	pop	{r7, pc}
 80013a4:	48000400 	.word	0x48000400
 80013a8:	20000138 	.word	0x20000138

080013ac <SI4432_ReadReg>:
 80013ac:	b590      	push	{r4, r7, lr}
 80013ae:	b085      	sub	sp, #20
 80013b0:	af00      	add	r7, sp, #0
 80013b2:	0002      	movs	r2, r0
 80013b4:	1dfb      	adds	r3, r7, #7
 80013b6:	701a      	strb	r2, [r3, #0]
 80013b8:	240f      	movs	r4, #15
 80013ba:	193b      	adds	r3, r7, r4
 80013bc:	2200      	movs	r2, #0
 80013be:	701a      	strb	r2, [r3, #0]
 80013c0:	2380      	movs	r3, #128	@ 0x80
 80013c2:	015b      	lsls	r3, r3, #5
 80013c4:	4812      	ldr	r0, [pc, #72]	@ (8001410 <SI4432_ReadReg+0x64>)
 80013c6:	2200      	movs	r2, #0
 80013c8:	0019      	movs	r1, r3
 80013ca:	f001 f936 	bl	800263a <HAL_GPIO_WritePin>
 80013ce:	1dfb      	adds	r3, r7, #7
 80013d0:	781b      	ldrb	r3, [r3, #0]
 80013d2:	227f      	movs	r2, #127	@ 0x7f
 80013d4:	4013      	ands	r3, r2
 80013d6:	b2da      	uxtb	r2, r3
 80013d8:	210e      	movs	r1, #14
 80013da:	187b      	adds	r3, r7, r1
 80013dc:	701a      	strb	r2, [r3, #0]
 80013de:	1879      	adds	r1, r7, r1
 80013e0:	480c      	ldr	r0, [pc, #48]	@ (8001414 <SI4432_ReadReg+0x68>)
 80013e2:	230a      	movs	r3, #10
 80013e4:	2201      	movs	r2, #1
 80013e6:	f001 feff 	bl	80031e8 <HAL_SPI_Transmit>
 80013ea:	1939      	adds	r1, r7, r4
 80013ec:	4809      	ldr	r0, [pc, #36]	@ (8001414 <SI4432_ReadReg+0x68>)
 80013ee:	230a      	movs	r3, #10
 80013f0:	2201      	movs	r2, #1
 80013f2:	f002 f859 	bl	80034a8 <HAL_SPI_Receive>
 80013f6:	2380      	movs	r3, #128	@ 0x80
 80013f8:	015b      	lsls	r3, r3, #5
 80013fa:	4805      	ldr	r0, [pc, #20]	@ (8001410 <SI4432_ReadReg+0x64>)
 80013fc:	2201      	movs	r2, #1
 80013fe:	0019      	movs	r1, r3
 8001400:	f001 f91b 	bl	800263a <HAL_GPIO_WritePin>
 8001404:	193b      	adds	r3, r7, r4
 8001406:	781b      	ldrb	r3, [r3, #0]
 8001408:	0018      	movs	r0, r3
 800140a:	46bd      	mov	sp, r7
 800140c:	b005      	add	sp, #20
 800140e:	bd90      	pop	{r4, r7, pc}
 8001410:	48000400 	.word	0x48000400
 8001414:	20000138 	.word	0x20000138

08001418 <SI4432_ClearIRQ>:
 8001418:	b580      	push	{r7, lr}
 800141a:	af00      	add	r7, sp, #0
 800141c:	2003      	movs	r0, #3
 800141e:	f7ff ffc5 	bl	80013ac <SI4432_ReadReg>
 8001422:	2004      	movs	r0, #4
 8001424:	f7ff ffc2 	bl	80013ac <SI4432_ReadReg>
 8001428:	46c0      	nop			@ (mov r8, r8)
 800142a:	46bd      	mov	sp, r7
 800142c:	bd80      	pop	{r7, pc}

0800142e <SI4432_ResetRxFIFO>:
 800142e:	b580      	push	{r7, lr}
 8001430:	af00      	add	r7, sp, #0
 8001432:	2102      	movs	r1, #2
 8001434:	2008      	movs	r0, #8
 8001436:	f7ff ff85 	bl	8001344 <SI4432_WriteReg>
 800143a:	2100      	movs	r1, #0
 800143c:	2008      	movs	r0, #8
 800143e:	f7ff ff81 	bl	8001344 <SI4432_WriteReg>
 8001442:	46c0      	nop			@ (mov r8, r8)
 8001444:	46bd      	mov	sp, r7
 8001446:	bd80      	pop	{r7, pc}

08001448 <SI4432_ResetTxFIFO>:
 8001448:	b580      	push	{r7, lr}
 800144a:	af00      	add	r7, sp, #0
 800144c:	2101      	movs	r1, #1
 800144e:	2008      	movs	r0, #8
 8001450:	f7ff ff78 	bl	8001344 <SI4432_WriteReg>
 8001454:	2100      	movs	r1, #0
 8001456:	2008      	movs	r0, #8
 8001458:	f7ff ff74 	bl	8001344 <SI4432_WriteReg>
 800145c:	46c0      	nop			@ (mov r8, r8)
 800145e:	46bd      	mov	sp, r7
 8001460:	bd80      	pop	{r7, pc}
	...

08001464 <SI4432_Init>:
 8001464:	b580      	push	{r7, lr}
 8001466:	b082      	sub	sp, #8
 8001468:	af00      	add	r7, sp, #0
 800146a:	2380      	movs	r3, #128	@ 0x80
 800146c:	015b      	lsls	r3, r3, #5
 800146e:	486b      	ldr	r0, [pc, #428]	@ (800161c <SI4432_Init+0x1b8>)
 8001470:	2201      	movs	r2, #1
 8001472:	0019      	movs	r1, r3
 8001474:	f001 f8e1 	bl	800263a <HAL_GPIO_WritePin>
 8001478:	2380      	movs	r3, #128	@ 0x80
 800147a:	00db      	lsls	r3, r3, #3
 800147c:	4867      	ldr	r0, [pc, #412]	@ (800161c <SI4432_Init+0x1b8>)
 800147e:	2201      	movs	r2, #1
 8001480:	0019      	movs	r1, r3
 8001482:	f001 f8da 	bl	800263a <HAL_GPIO_WritePin>
 8001486:	200a      	movs	r0, #10
 8001488:	f000 fcc4 	bl	8001e14 <HAL_Delay>
 800148c:	2380      	movs	r3, #128	@ 0x80
 800148e:	00db      	lsls	r3, r3, #3
 8001490:	4862      	ldr	r0, [pc, #392]	@ (800161c <SI4432_Init+0x1b8>)
 8001492:	2200      	movs	r2, #0
 8001494:	0019      	movs	r1, r3
 8001496:	f001 f8d0 	bl	800263a <HAL_GPIO_WritePin>
 800149a:	201e      	movs	r0, #30
 800149c:	f000 fcba 	bl	8001e14 <HAL_Delay>
 80014a0:	f7ff ffba 	bl	8001418 <SI4432_ClearIRQ>
 80014a4:	2180      	movs	r1, #128	@ 0x80
 80014a6:	2007      	movs	r0, #7
 80014a8:	f7ff ff4c 	bl	8001344 <SI4432_WriteReg>
 80014ac:	f000 fca8 	bl	8001e00 <HAL_GetTick>
 80014b0:	0003      	movs	r3, r0
 80014b2:	607b      	str	r3, [r7, #4]
 80014b4:	46c0      	nop			@ (mov r8, r8)
 80014b6:	2380      	movs	r3, #128	@ 0x80
 80014b8:	011b      	lsls	r3, r3, #4
 80014ba:	4a58      	ldr	r2, [pc, #352]	@ (800161c <SI4432_Init+0x1b8>)
 80014bc:	0019      	movs	r1, r3
 80014be:	0010      	movs	r0, r2
 80014c0:	f001 f89e 	bl	8002600 <HAL_GPIO_ReadPin>
 80014c4:	1e03      	subs	r3, r0, #0
 80014c6:	d008      	beq.n	80014da <SI4432_Init+0x76>
 80014c8:	f000 fc9a 	bl	8001e00 <HAL_GetTick>
 80014cc:	0002      	movs	r2, r0
 80014ce:	687b      	ldr	r3, [r7, #4]
 80014d0:	1ad2      	subs	r2, r2, r3
 80014d2:	23fa      	movs	r3, #250	@ 0xfa
 80014d4:	005b      	lsls	r3, r3, #1
 80014d6:	429a      	cmp	r2, r3
 80014d8:	d3ed      	bcc.n	80014b6 <SI4432_Init+0x52>
 80014da:	f7ff ff9d 	bl	8001418 <SI4432_ClearIRQ>
 80014de:	f000 fc8f 	bl	8001e00 <HAL_GetTick>
 80014e2:	0003      	movs	r3, r0
 80014e4:	607b      	str	r3, [r7, #4]
 80014e6:	46c0      	nop			@ (mov r8, r8)
 80014e8:	2380      	movs	r3, #128	@ 0x80
 80014ea:	011b      	lsls	r3, r3, #4
 80014ec:	4a4b      	ldr	r2, [pc, #300]	@ (800161c <SI4432_Init+0x1b8>)
 80014ee:	0019      	movs	r1, r3
 80014f0:	0010      	movs	r0, r2
 80014f2:	f001 f885 	bl	8002600 <HAL_GPIO_ReadPin>
 80014f6:	1e03      	subs	r3, r0, #0
 80014f8:	d008      	beq.n	800150c <SI4432_Init+0xa8>
 80014fa:	f000 fc81 	bl	8001e00 <HAL_GetTick>
 80014fe:	0002      	movs	r2, r0
 8001500:	687b      	ldr	r3, [r7, #4]
 8001502:	1ad2      	subs	r2, r2, r3
 8001504:	23fa      	movs	r3, #250	@ 0xfa
 8001506:	005b      	lsls	r3, r3, #1
 8001508:	429a      	cmp	r2, r3
 800150a:	d3ed      	bcc.n	80014e8 <SI4432_Init+0x84>
 800150c:	f7ff ff84 	bl	8001418 <SI4432_ClearIRQ>
 8001510:	2153      	movs	r1, #83	@ 0x53
 8001512:	2075      	movs	r0, #117	@ 0x75
 8001514:	f7ff ff16 	bl	8001344 <SI4432_WriteReg>
 8001518:	2164      	movs	r1, #100	@ 0x64
 800151a:	2076      	movs	r0, #118	@ 0x76
 800151c:	f7ff ff12 	bl	8001344 <SI4432_WriteReg>
 8001520:	2100      	movs	r1, #0
 8001522:	2077      	movs	r0, #119	@ 0x77
 8001524:	f7ff ff0e 	bl	8001344 <SI4432_WriteReg>
 8001528:	214e      	movs	r1, #78	@ 0x4e
 800152a:	206e      	movs	r0, #110	@ 0x6e
 800152c:	f7ff ff0a 	bl	8001344 <SI4432_WriteReg>
 8001530:	21a5      	movs	r1, #165	@ 0xa5
 8001532:	206f      	movs	r0, #111	@ 0x6f
 8001534:	f7ff ff06 	bl	8001344 <SI4432_WriteReg>
 8001538:	212c      	movs	r1, #44	@ 0x2c
 800153a:	2070      	movs	r0, #112	@ 0x70
 800153c:	f7ff ff02 	bl	8001344 <SI4432_WriteReg>
 8001540:	2148      	movs	r1, #72	@ 0x48
 8001542:	2072      	movs	r0, #114	@ 0x72
 8001544:	f7ff fefe 	bl	8001344 <SI4432_WriteReg>
 8001548:	210a      	movs	r1, #10
 800154a:	2034      	movs	r0, #52	@ 0x34
 800154c:	f7ff fefa 	bl	8001344 <SI4432_WriteReg>
 8001550:	2102      	movs	r1, #2
 8001552:	2033      	movs	r0, #51	@ 0x33
 8001554:	f7ff fef6 	bl	8001344 <SI4432_WriteReg>
 8001558:	212d      	movs	r1, #45	@ 0x2d
 800155a:	2036      	movs	r0, #54	@ 0x36
 800155c:	f7ff fef2 	bl	8001344 <SI4432_WriteReg>
 8001560:	21d4      	movs	r1, #212	@ 0xd4
 8001562:	2037      	movs	r0, #55	@ 0x37
 8001564:	f7ff feee 	bl	8001344 <SI4432_WriteReg>
 8001568:	2100      	movs	r1, #0
 800156a:	2032      	movs	r0, #50	@ 0x32
 800156c:	f7ff feea 	bl	8001344 <SI4432_WriteReg>
 8001570:	2128      	movs	r1, #40	@ 0x28
 8001572:	2035      	movs	r0, #53	@ 0x35
 8001574:	f7ff fee6 	bl	8001344 <SI4432_WriteReg>
 8001578:	210d      	movs	r1, #13
 800157a:	2030      	movs	r0, #48	@ 0x30
 800157c:	f7ff fee2 	bl	8001344 <SI4432_WriteReg>
 8001580:	2163      	movs	r1, #99	@ 0x63
 8001582:	2071      	movs	r0, #113	@ 0x71
 8001584:	f7ff fede 	bl	8001344 <SI4432_WriteReg>
 8001588:	2105      	movs	r1, #5
 800158a:	201c      	movs	r0, #28
 800158c:	f7ff feda 	bl	8001344 <SI4432_WriteReg>
 8001590:	21a1      	movs	r1, #161	@ 0xa1
 8001592:	2020      	movs	r0, #32
 8001594:	f7ff fed6 	bl	8001344 <SI4432_WriteReg>
 8001598:	2120      	movs	r1, #32
 800159a:	2021      	movs	r0, #33	@ 0x21
 800159c:	f7ff fed2 	bl	8001344 <SI4432_WriteReg>
 80015a0:	214e      	movs	r1, #78	@ 0x4e
 80015a2:	2022      	movs	r0, #34	@ 0x22
 80015a4:	f7ff fece 	bl	8001344 <SI4432_WriteReg>
 80015a8:	21a5      	movs	r1, #165	@ 0xa5
 80015aa:	2023      	movs	r0, #35	@ 0x23
 80015ac:	f7ff feca 	bl	8001344 <SI4432_WriteReg>
 80015b0:	2100      	movs	r1, #0
 80015b2:	2024      	movs	r0, #36	@ 0x24
 80015b4:	f7ff fec6 	bl	8001344 <SI4432_WriteReg>
 80015b8:	2113      	movs	r1, #19
 80015ba:	2025      	movs	r0, #37	@ 0x25
 80015bc:	f7ff fec2 	bl	8001344 <SI4432_WriteReg>
 80015c0:	2140      	movs	r1, #64	@ 0x40
 80015c2:	201d      	movs	r0, #29
 80015c4:	f7ff febe 	bl	8001344 <SI4432_WriteReg>
 80015c8:	2103      	movs	r1, #3
 80015ca:	201f      	movs	r0, #31
 80015cc:	f7ff feba 	bl	8001344 <SI4432_WriteReg>
 80015d0:	217f      	movs	r1, #127	@ 0x7f
 80015d2:	205a      	movs	r0, #90	@ 0x5a
 80015d4:	f7ff feb6 	bl	8001344 <SI4432_WriteReg>
 80015d8:	2180      	movs	r1, #128	@ 0x80
 80015da:	2058      	movs	r0, #88	@ 0x58
 80015dc:	f7ff feb2 	bl	8001344 <SI4432_WriteReg>
 80015e0:	2140      	movs	r1, #64	@ 0x40
 80015e2:	2059      	movs	r0, #89	@ 0x59
 80015e4:	f7ff feae 	bl	8001344 <SI4432_WriteReg>
 80015e8:	210b      	movs	r1, #11
 80015ea:	206a      	movs	r0, #106	@ 0x6a
 80015ec:	f7ff feaa 	bl	8001344 <SI4432_WriteReg>
 80015f0:	2104      	movs	r1, #4
 80015f2:	2068      	movs	r0, #104	@ 0x68
 80015f4:	f7ff fea6 	bl	8001344 <SI4432_WriteReg>
 80015f8:	21d7      	movs	r1, #215	@ 0xd7
 80015fa:	2009      	movs	r0, #9
 80015fc:	f7ff fea2 	bl	8001344 <SI4432_WriteReg>
 8001600:	2107      	movs	r1, #7
 8001602:	206d      	movs	r0, #109	@ 0x6d
 8001604:	f7ff fe9e 	bl	8001344 <SI4432_WriteReg>
 8001608:	f7ff ff1e 	bl	8001448 <SI4432_ResetTxFIFO>
 800160c:	f7ff ff0f 	bl	800142e <SI4432_ResetRxFIFO>
 8001610:	f7ff ff02 	bl	8001418 <SI4432_ClearIRQ>
 8001614:	46c0      	nop			@ (mov r8, r8)
 8001616:	46bd      	mov	sp, r7
 8001618:	b002      	add	sp, #8
 800161a:	bd80      	pop	{r7, pc}
 800161c:	48000400 	.word	0x48000400

08001620 <SI4432_SendPacket>:
 8001620:	b590      	push	{r4, r7, lr}
 8001622:	b085      	sub	sp, #20
 8001624:	af00      	add	r7, sp, #0
 8001626:	6078      	str	r0, [r7, #4]
 8001628:	000a      	movs	r2, r1
 800162a:	1cfb      	adds	r3, r7, #3
 800162c:	701a      	strb	r2, [r3, #0]
 800162e:	1cfb      	adds	r3, r7, #3
 8001630:	781b      	ldrb	r3, [r3, #0]
 8001632:	2b00      	cmp	r3, #0
 8001634:	d05a      	beq.n	80016ec <SI4432_SendPacket+0xcc>
 8001636:	1cfb      	adds	r3, r7, #3
 8001638:	781b      	ldrb	r3, [r3, #0]
 800163a:	2b40      	cmp	r3, #64	@ 0x40
 800163c:	d856      	bhi.n	80016ec <SI4432_SendPacket+0xcc>
 800163e:	2101      	movs	r1, #1
 8001640:	2007      	movs	r0, #7
 8001642:	f7ff fe7f 	bl	8001344 <SI4432_WriteReg>
 8001646:	210d      	movs	r1, #13
 8001648:	2030      	movs	r0, #48	@ 0x30
 800164a:	f7ff fe7b 	bl	8001344 <SI4432_WriteReg>
 800164e:	f7ff fefb 	bl	8001448 <SI4432_ResetTxFIFO>
 8001652:	1cfb      	adds	r3, r7, #3
 8001654:	781b      	ldrb	r3, [r3, #0]
 8001656:	0019      	movs	r1, r3
 8001658:	203e      	movs	r0, #62	@ 0x3e
 800165a:	f7ff fe73 	bl	8001344 <SI4432_WriteReg>
 800165e:	230f      	movs	r3, #15
 8001660:	18fb      	adds	r3, r7, r3
 8001662:	2200      	movs	r2, #0
 8001664:	701a      	strb	r2, [r3, #0]
 8001666:	e00e      	b.n	8001686 <SI4432_SendPacket+0x66>
 8001668:	240f      	movs	r4, #15
 800166a:	193b      	adds	r3, r7, r4
 800166c:	781b      	ldrb	r3, [r3, #0]
 800166e:	687a      	ldr	r2, [r7, #4]
 8001670:	18d3      	adds	r3, r2, r3
 8001672:	781b      	ldrb	r3, [r3, #0]
 8001674:	0019      	movs	r1, r3
 8001676:	207f      	movs	r0, #127	@ 0x7f
 8001678:	f7ff fe64 	bl	8001344 <SI4432_WriteReg>
 800167c:	193b      	adds	r3, r7, r4
 800167e:	781a      	ldrb	r2, [r3, #0]
 8001680:	193b      	adds	r3, r7, r4
 8001682:	3201      	adds	r2, #1
 8001684:	701a      	strb	r2, [r3, #0]
 8001686:	230f      	movs	r3, #15
 8001688:	18fa      	adds	r2, r7, r3
 800168a:	1cfb      	adds	r3, r7, #3
 800168c:	7812      	ldrb	r2, [r2, #0]
 800168e:	781b      	ldrb	r3, [r3, #0]
 8001690:	429a      	cmp	r2, r3
 8001692:	d3e9      	bcc.n	8001668 <SI4432_SendPacket+0x48>
 8001694:	2104      	movs	r1, #4
 8001696:	2005      	movs	r0, #5
 8001698:	f7ff fe54 	bl	8001344 <SI4432_WriteReg>
 800169c:	2100      	movs	r1, #0
 800169e:	2006      	movs	r0, #6
 80016a0:	f7ff fe50 	bl	8001344 <SI4432_WriteReg>
 80016a4:	f7ff feb8 	bl	8001418 <SI4432_ClearIRQ>
 80016a8:	2109      	movs	r1, #9
 80016aa:	2007      	movs	r0, #7
 80016ac:	f7ff fe4a 	bl	8001344 <SI4432_WriteReg>
 80016b0:	f000 fba6 	bl	8001e00 <HAL_GetTick>
 80016b4:	0003      	movs	r3, r0
 80016b6:	60bb      	str	r3, [r7, #8]
 80016b8:	46c0      	nop			@ (mov r8, r8)
 80016ba:	2380      	movs	r3, #128	@ 0x80
 80016bc:	011b      	lsls	r3, r3, #4
 80016be:	4a0d      	ldr	r2, [pc, #52]	@ (80016f4 <SI4432_SendPacket+0xd4>)
 80016c0:	0019      	movs	r1, r3
 80016c2:	0010      	movs	r0, r2
 80016c4:	f000 ff9c 	bl	8002600 <HAL_GPIO_ReadPin>
 80016c8:	1e03      	subs	r3, r0, #0
 80016ca:	d008      	beq.n	80016de <SI4432_SendPacket+0xbe>
 80016cc:	f000 fb98 	bl	8001e00 <HAL_GetTick>
 80016d0:	0002      	movs	r2, r0
 80016d2:	68bb      	ldr	r3, [r7, #8]
 80016d4:	1ad2      	subs	r2, r2, r3
 80016d6:	23fa      	movs	r3, #250	@ 0xfa
 80016d8:	009b      	lsls	r3, r3, #2
 80016da:	429a      	cmp	r2, r3
 80016dc:	d3ed      	bcc.n	80016ba <SI4432_SendPacket+0x9a>
 80016de:	f7ff fe9b 	bl	8001418 <SI4432_ClearIRQ>
 80016e2:	2101      	movs	r1, #1
 80016e4:	2007      	movs	r0, #7
 80016e6:	f7ff fe2d 	bl	8001344 <SI4432_WriteReg>
 80016ea:	e000      	b.n	80016ee <SI4432_SendPacket+0xce>
 80016ec:	46c0      	nop			@ (mov r8, r8)
 80016ee:	46bd      	mov	sp, r7
 80016f0:	b005      	add	sp, #20
 80016f2:	bd90      	pop	{r4, r7, pc}
 80016f4:	48000400 	.word	0x48000400

080016f8 <SI4432_StartRx>:
 80016f8:	b580      	push	{r7, lr}
 80016fa:	af00      	add	r7, sp, #0
 80016fc:	2101      	movs	r1, #1
 80016fe:	2007      	movs	r0, #7
 8001700:	f7ff fe20 	bl	8001344 <SI4432_WriteReg>
 8001704:	2185      	movs	r1, #133	@ 0x85
 8001706:	2030      	movs	r0, #48	@ 0x30
 8001708:	f7ff fe1c 	bl	8001344 <SI4432_WriteReg>
 800170c:	f7ff fe8f 	bl	800142e <SI4432_ResetRxFIFO>
 8001710:	2103      	movs	r1, #3
 8001712:	2005      	movs	r0, #5
 8001714:	f7ff fe16 	bl	8001344 <SI4432_WriteReg>
 8001718:	2100      	movs	r1, #0
 800171a:	2006      	movs	r0, #6
 800171c:	f7ff fe12 	bl	8001344 <SI4432_WriteReg>
 8001720:	f7ff fe7a 	bl	8001418 <SI4432_ClearIRQ>
 8001724:	2105      	movs	r1, #5
 8001726:	2007      	movs	r0, #7
 8001728:	f7ff fe0c 	bl	8001344 <SI4432_WriteReg>
 800172c:	46c0      	nop			@ (mov r8, r8)
 800172e:	46bd      	mov	sp, r7
 8001730:	bd80      	pop	{r7, pc}
	...

08001734 <SI4432_CheckRx>:
 8001734:	b5b0      	push	{r4, r5, r7, lr}
 8001736:	b084      	sub	sp, #16
 8001738:	af00      	add	r7, sp, #0
 800173a:	6078      	str	r0, [r7, #4]
 800173c:	2380      	movs	r3, #128	@ 0x80
 800173e:	011b      	lsls	r3, r3, #4
 8001740:	4a34      	ldr	r2, [pc, #208]	@ (8001814 <SI4432_CheckRx+0xe0>)
 8001742:	0019      	movs	r1, r3
 8001744:	0010      	movs	r0, r2
 8001746:	f000 ff5b 	bl	8002600 <HAL_GPIO_ReadPin>
 800174a:	1e03      	subs	r3, r0, #0
 800174c:	d001      	beq.n	8001752 <SI4432_CheckRx+0x1e>
 800174e:	2300      	movs	r3, #0
 8001750:	e05b      	b.n	800180a <SI4432_CheckRx+0xd6>
 8001752:	2101      	movs	r1, #1
 8001754:	2007      	movs	r0, #7
 8001756:	f7ff fdf5 	bl	8001344 <SI4432_WriteReg>
 800175a:	250d      	movs	r5, #13
 800175c:	197c      	adds	r4, r7, r5
 800175e:	2003      	movs	r0, #3
 8001760:	f7ff fe24 	bl	80013ac <SI4432_ReadReg>
 8001764:	0003      	movs	r3, r0
 8001766:	7023      	strb	r3, [r4, #0]
 8001768:	2004      	movs	r0, #4
 800176a:	f7ff fe1f 	bl	80013ac <SI4432_ReadReg>
 800176e:	197b      	adds	r3, r7, r5
 8001770:	781b      	ldrb	r3, [r3, #0]
 8001772:	2201      	movs	r2, #1
 8001774:	4013      	ands	r3, r2
 8001776:	d005      	beq.n	8001784 <SI4432_CheckRx+0x50>
 8001778:	f7ff fe59 	bl	800142e <SI4432_ResetRxFIFO>
 800177c:	f7ff ffbc 	bl	80016f8 <SI4432_StartRx>
 8001780:	2300      	movs	r3, #0
 8001782:	e042      	b.n	800180a <SI4432_CheckRx+0xd6>
 8001784:	230d      	movs	r3, #13
 8001786:	18fb      	adds	r3, r7, r3
 8001788:	781b      	ldrb	r3, [r3, #0]
 800178a:	2202      	movs	r2, #2
 800178c:	4013      	ands	r3, r2
 800178e:	d037      	beq.n	8001800 <SI4432_CheckRx+0xcc>
 8001790:	250f      	movs	r5, #15
 8001792:	197c      	adds	r4, r7, r5
 8001794:	204b      	movs	r0, #75	@ 0x4b
 8001796:	f7ff fe09 	bl	80013ac <SI4432_ReadReg>
 800179a:	0003      	movs	r3, r0
 800179c:	7023      	strb	r3, [r4, #0]
 800179e:	197b      	adds	r3, r7, r5
 80017a0:	781b      	ldrb	r3, [r3, #0]
 80017a2:	2b00      	cmp	r3, #0
 80017a4:	d020      	beq.n	80017e8 <SI4432_CheckRx+0xb4>
 80017a6:	197b      	adds	r3, r7, r5
 80017a8:	781b      	ldrb	r3, [r3, #0]
 80017aa:	2b40      	cmp	r3, #64	@ 0x40
 80017ac:	d81c      	bhi.n	80017e8 <SI4432_CheckRx+0xb4>
 80017ae:	230e      	movs	r3, #14
 80017b0:	18fb      	adds	r3, r7, r3
 80017b2:	2200      	movs	r2, #0
 80017b4:	701a      	strb	r2, [r3, #0]
 80017b6:	e00e      	b.n	80017d6 <SI4432_CheckRx+0xa2>
 80017b8:	250e      	movs	r5, #14
 80017ba:	197b      	adds	r3, r7, r5
 80017bc:	781b      	ldrb	r3, [r3, #0]
 80017be:	687a      	ldr	r2, [r7, #4]
 80017c0:	18d4      	adds	r4, r2, r3
 80017c2:	207f      	movs	r0, #127	@ 0x7f
 80017c4:	f7ff fdf2 	bl	80013ac <SI4432_ReadReg>
 80017c8:	0003      	movs	r3, r0
 80017ca:	7023      	strb	r3, [r4, #0]
 80017cc:	197b      	adds	r3, r7, r5
 80017ce:	781a      	ldrb	r2, [r3, #0]
 80017d0:	197b      	adds	r3, r7, r5
 80017d2:	3201      	adds	r2, #1
 80017d4:	701a      	strb	r2, [r3, #0]
 80017d6:	230e      	movs	r3, #14
 80017d8:	18fa      	adds	r2, r7, r3
 80017da:	230f      	movs	r3, #15
 80017dc:	18fb      	adds	r3, r7, r3
 80017de:	7812      	ldrb	r2, [r2, #0]
 80017e0:	781b      	ldrb	r3, [r3, #0]
 80017e2:	429a      	cmp	r2, r3
 80017e4:	d3e8      	bcc.n	80017b8 <SI4432_CheckRx+0x84>
 80017e6:	e003      	b.n	80017f0 <SI4432_CheckRx+0xbc>
 80017e8:	230f      	movs	r3, #15
 80017ea:	18fb      	adds	r3, r7, r3
 80017ec:	2200      	movs	r2, #0
 80017ee:	701a      	strb	r2, [r3, #0]
 80017f0:	f7ff fe1d 	bl	800142e <SI4432_ResetRxFIFO>
 80017f4:	f7ff ff80 	bl	80016f8 <SI4432_StartRx>
 80017f8:	230f      	movs	r3, #15
 80017fa:	18fb      	adds	r3, r7, r3
 80017fc:	781b      	ldrb	r3, [r3, #0]
 80017fe:	e004      	b.n	800180a <SI4432_CheckRx+0xd6>
 8001800:	f7ff fe15 	bl	800142e <SI4432_ResetRxFIFO>
 8001804:	f7ff ff78 	bl	80016f8 <SI4432_StartRx>
 8001808:	2300      	movs	r3, #0
 800180a:	0018      	movs	r0, r3
 800180c:	46bd      	mov	sp, r7
 800180e:	b004      	add	sp, #16
 8001810:	bdb0      	pop	{r4, r5, r7, pc}
 8001812:	46c0      	nop			@ (mov r8, r8)
 8001814:	48000400 	.word	0x48000400

08001818 <MX_SPI2_Init>:
 8001818:	b580      	push	{r7, lr}
 800181a:	af00      	add	r7, sp, #0
 800181c:	4b1b      	ldr	r3, [pc, #108]	@ (800188c <MX_SPI2_Init+0x74>)
 800181e:	4a1c      	ldr	r2, [pc, #112]	@ (8001890 <MX_SPI2_Init+0x78>)
 8001820:	601a      	str	r2, [r3, #0]
 8001822:	4b1a      	ldr	r3, [pc, #104]	@ (800188c <MX_SPI2_Init+0x74>)
 8001824:	2282      	movs	r2, #130	@ 0x82
 8001826:	0052      	lsls	r2, r2, #1
 8001828:	605a      	str	r2, [r3, #4]
 800182a:	4b18      	ldr	r3, [pc, #96]	@ (800188c <MX_SPI2_Init+0x74>)
 800182c:	2200      	movs	r2, #0
 800182e:	609a      	str	r2, [r3, #8]
 8001830:	4b16      	ldr	r3, [pc, #88]	@ (800188c <MX_SPI2_Init+0x74>)
 8001832:	22e0      	movs	r2, #224	@ 0xe0
 8001834:	00d2      	lsls	r2, r2, #3
 8001836:	60da      	str	r2, [r3, #12]
 8001838:	4b14      	ldr	r3, [pc, #80]	@ (800188c <MX_SPI2_Init+0x74>)
 800183a:	2200      	movs	r2, #0
 800183c:	611a      	str	r2, [r3, #16]
 800183e:	4b13      	ldr	r3, [pc, #76]	@ (800188c <MX_SPI2_Init+0x74>)
 8001840:	2200      	movs	r2, #0
 8001842:	615a      	str	r2, [r3, #20]
 8001844:	4b11      	ldr	r3, [pc, #68]	@ (800188c <MX_SPI2_Init+0x74>)
 8001846:	2280      	movs	r2, #128	@ 0x80
 8001848:	0092      	lsls	r2, r2, #2
 800184a:	619a      	str	r2, [r3, #24]
 800184c:	4b0f      	ldr	r3, [pc, #60]	@ (800188c <MX_SPI2_Init+0x74>)
 800184e:	2210      	movs	r2, #16
 8001850:	61da      	str	r2, [r3, #28]
 8001852:	4b0e      	ldr	r3, [pc, #56]	@ (800188c <MX_SPI2_Init+0x74>)
 8001854:	2200      	movs	r2, #0
 8001856:	621a      	str	r2, [r3, #32]
 8001858:	4b0c      	ldr	r3, [pc, #48]	@ (800188c <MX_SPI2_Init+0x74>)
 800185a:	2200      	movs	r2, #0
 800185c:	625a      	str	r2, [r3, #36]	@ 0x24
 800185e:	4b0b      	ldr	r3, [pc, #44]	@ (800188c <MX_SPI2_Init+0x74>)
 8001860:	2200      	movs	r2, #0
 8001862:	629a      	str	r2, [r3, #40]	@ 0x28
 8001864:	4b09      	ldr	r3, [pc, #36]	@ (800188c <MX_SPI2_Init+0x74>)
 8001866:	2207      	movs	r2, #7
 8001868:	62da      	str	r2, [r3, #44]	@ 0x2c
 800186a:	4b08      	ldr	r3, [pc, #32]	@ (800188c <MX_SPI2_Init+0x74>)
 800186c:	2200      	movs	r2, #0
 800186e:	631a      	str	r2, [r3, #48]	@ 0x30
 8001870:	4b06      	ldr	r3, [pc, #24]	@ (800188c <MX_SPI2_Init+0x74>)
 8001872:	2200      	movs	r2, #0
 8001874:	635a      	str	r2, [r3, #52]	@ 0x34
 8001876:	4b05      	ldr	r3, [pc, #20]	@ (800188c <MX_SPI2_Init+0x74>)
 8001878:	0018      	movs	r0, r3
 800187a:	f001 fbfd 	bl	8003078 <HAL_SPI_Init>
 800187e:	1e03      	subs	r3, r0, #0
 8001880:	d001      	beq.n	8001886 <MX_SPI2_Init+0x6e>
 8001882:	f7ff fd58 	bl	8001336 <Error_Handler>
 8001886:	46c0      	nop			@ (mov r8, r8)
 8001888:	46bd      	mov	sp, r7
 800188a:	bd80      	pop	{r7, pc}
 800188c:	20000138 	.word	0x20000138
 8001890:	40003800 	.word	0x40003800

08001894 <HAL_SPI_MspInit>:
 8001894:	b590      	push	{r4, r7, lr}
 8001896:	b08b      	sub	sp, #44	@ 0x2c
 8001898:	af00      	add	r7, sp, #0
 800189a:	6078      	str	r0, [r7, #4]
 800189c:	2414      	movs	r4, #20
 800189e:	193b      	adds	r3, r7, r4
 80018a0:	0018      	movs	r0, r3
 80018a2:	2314      	movs	r3, #20
 80018a4:	001a      	movs	r2, r3
 80018a6:	2100      	movs	r1, #0
 80018a8:	f003 fd6c 	bl	8005384 <memset>
 80018ac:	687b      	ldr	r3, [r7, #4]
 80018ae:	681b      	ldr	r3, [r3, #0]
 80018b0:	4a1c      	ldr	r2, [pc, #112]	@ (8001924 <HAL_SPI_MspInit+0x90>)
 80018b2:	4293      	cmp	r3, r2
 80018b4:	d132      	bne.n	800191c <HAL_SPI_MspInit+0x88>
 80018b6:	4b1c      	ldr	r3, [pc, #112]	@ (8001928 <HAL_SPI_MspInit+0x94>)
 80018b8:	69da      	ldr	r2, [r3, #28]
 80018ba:	4b1b      	ldr	r3, [pc, #108]	@ (8001928 <HAL_SPI_MspInit+0x94>)
 80018bc:	2180      	movs	r1, #128	@ 0x80
 80018be:	01c9      	lsls	r1, r1, #7
 80018c0:	430a      	orrs	r2, r1
 80018c2:	61da      	str	r2, [r3, #28]
 80018c4:	4b18      	ldr	r3, [pc, #96]	@ (8001928 <HAL_SPI_MspInit+0x94>)
 80018c6:	69da      	ldr	r2, [r3, #28]
 80018c8:	2380      	movs	r3, #128	@ 0x80
 80018ca:	01db      	lsls	r3, r3, #7
 80018cc:	4013      	ands	r3, r2
 80018ce:	613b      	str	r3, [r7, #16]
 80018d0:	693b      	ldr	r3, [r7, #16]
 80018d2:	4b15      	ldr	r3, [pc, #84]	@ (8001928 <HAL_SPI_MspInit+0x94>)
 80018d4:	695a      	ldr	r2, [r3, #20]
 80018d6:	4b14      	ldr	r3, [pc, #80]	@ (8001928 <HAL_SPI_MspInit+0x94>)
 80018d8:	2180      	movs	r1, #128	@ 0x80
 80018da:	02c9      	lsls	r1, r1, #11
 80018dc:	430a      	orrs	r2, r1
 80018de:	615a      	str	r2, [r3, #20]
 80018e0:	4b11      	ldr	r3, [pc, #68]	@ (8001928 <HAL_SPI_MspInit+0x94>)
 80018e2:	695a      	ldr	r2, [r3, #20]
 80018e4:	2380      	movs	r3, #128	@ 0x80
 80018e6:	02db      	lsls	r3, r3, #11
 80018e8:	4013      	ands	r3, r2
 80018ea:	60fb      	str	r3, [r7, #12]
 80018ec:	68fb      	ldr	r3, [r7, #12]
 80018ee:	193b      	adds	r3, r7, r4
 80018f0:	22e0      	movs	r2, #224	@ 0xe0
 80018f2:	0212      	lsls	r2, r2, #8
 80018f4:	601a      	str	r2, [r3, #0]
 80018f6:	0021      	movs	r1, r4
 80018f8:	187b      	adds	r3, r7, r1
 80018fa:	2202      	movs	r2, #2
 80018fc:	605a      	str	r2, [r3, #4]
 80018fe:	187b      	adds	r3, r7, r1
 8001900:	2200      	movs	r2, #0
 8001902:	609a      	str	r2, [r3, #8]
 8001904:	187b      	adds	r3, r7, r1
 8001906:	2203      	movs	r2, #3
 8001908:	60da      	str	r2, [r3, #12]
 800190a:	187b      	adds	r3, r7, r1
 800190c:	2200      	movs	r2, #0
 800190e:	611a      	str	r2, [r3, #16]
 8001910:	187b      	adds	r3, r7, r1
 8001912:	4a06      	ldr	r2, [pc, #24]	@ (800192c <HAL_SPI_MspInit+0x98>)
 8001914:	0019      	movs	r1, r3
 8001916:	0010      	movs	r0, r2
 8001918:	f000 fd02 	bl	8002320 <HAL_GPIO_Init>
 800191c:	46c0      	nop			@ (mov r8, r8)
 800191e:	46bd      	mov	sp, r7
 8001920:	b00b      	add	sp, #44	@ 0x2c
 8001922:	bd90      	pop	{r4, r7, pc}
 8001924:	40003800 	.word	0x40003800
 8001928:	40021000 	.word	0x40021000
 800192c:	48000400 	.word	0x48000400

08001930 <HAL_MspInit>:
 8001930:	b580      	push	{r7, lr}
 8001932:	b082      	sub	sp, #8
 8001934:	af00      	add	r7, sp, #0
 8001936:	4b0f      	ldr	r3, [pc, #60]	@ (8001974 <HAL_MspInit+0x44>)
 8001938:	699a      	ldr	r2, [r3, #24]
 800193a:	4b0e      	ldr	r3, [pc, #56]	@ (8001974 <HAL_MspInit+0x44>)
 800193c:	2101      	movs	r1, #1
 800193e:	430a      	orrs	r2, r1
 8001940:	619a      	str	r2, [r3, #24]
 8001942:	4b0c      	ldr	r3, [pc, #48]	@ (8001974 <HAL_MspInit+0x44>)
 8001944:	699b      	ldr	r3, [r3, #24]
 8001946:	2201      	movs	r2, #1
 8001948:	4013      	ands	r3, r2
 800194a:	607b      	str	r3, [r7, #4]
 800194c:	687b      	ldr	r3, [r7, #4]
 800194e:	4b09      	ldr	r3, [pc, #36]	@ (8001974 <HAL_MspInit+0x44>)
 8001950:	69da      	ldr	r2, [r3, #28]
 8001952:	4b08      	ldr	r3, [pc, #32]	@ (8001974 <HAL_MspInit+0x44>)
 8001954:	2180      	movs	r1, #128	@ 0x80
 8001956:	0549      	lsls	r1, r1, #21
 8001958:	430a      	orrs	r2, r1
 800195a:	61da      	str	r2, [r3, #28]
 800195c:	4b05      	ldr	r3, [pc, #20]	@ (8001974 <HAL_MspInit+0x44>)
 800195e:	69da      	ldr	r2, [r3, #28]
 8001960:	2380      	movs	r3, #128	@ 0x80
 8001962:	055b      	lsls	r3, r3, #21
 8001964:	4013      	ands	r3, r2
 8001966:	603b      	str	r3, [r7, #0]
 8001968:	683b      	ldr	r3, [r7, #0]
 800196a:	46c0      	nop			@ (mov r8, r8)
 800196c:	46bd      	mov	sp, r7
 800196e:	b002      	add	sp, #8
 8001970:	bd80      	pop	{r7, pc}
 8001972:	46c0      	nop			@ (mov r8, r8)
 8001974:	40021000 	.word	0x40021000

08001978 <NMI_Handler>:
 8001978:	b580      	push	{r7, lr}
 800197a:	af00      	add	r7, sp, #0
 800197c:	46c0      	nop			@ (mov r8, r8)
 800197e:	e7fd      	b.n	800197c <NMI_Handler+0x4>

08001980 <HardFault_Handler>:
 8001980:	b580      	push	{r7, lr}
 8001982:	af00      	add	r7, sp, #0
 8001984:	46c0      	nop			@ (mov r8, r8)
 8001986:	e7fd      	b.n	8001984 <HardFault_Handler+0x4>

08001988 <SVC_Handler>:
 8001988:	b580      	push	{r7, lr}
 800198a:	af00      	add	r7, sp, #0
 800198c:	46c0      	nop			@ (mov r8, r8)
 800198e:	46bd      	mov	sp, r7
 8001990:	bd80      	pop	{r7, pc}

08001992 <PendSV_Handler>:
 8001992:	b580      	push	{r7, lr}
 8001994:	af00      	add	r7, sp, #0
 8001996:	46c0      	nop			@ (mov r8, r8)
 8001998:	46bd      	mov	sp, r7
 800199a:	bd80      	pop	{r7, pc}

0800199c <SysTick_Handler>:
 800199c:	b580      	push	{r7, lr}
 800199e:	af00      	add	r7, sp, #0
 80019a0:	f000 fa1c 	bl	8001ddc <HAL_IncTick>
 80019a4:	46c0      	nop			@ (mov r8, r8)
 80019a6:	46bd      	mov	sp, r7
 80019a8:	bd80      	pop	{r7, pc}

080019aa <EXTI4_15_IRQHandler>:
 80019aa:	b580      	push	{r7, lr}
 80019ac:	af00      	add	r7, sp, #0
 80019ae:	2380      	movs	r3, #128	@ 0x80
 80019b0:	011b      	lsls	r3, r3, #4
 80019b2:	0018      	movs	r0, r3
 80019b4:	f000 fe7a 	bl	80026ac <HAL_GPIO_EXTI_IRQHandler>
 80019b8:	46c0      	nop			@ (mov r8, r8)
 80019ba:	46bd      	mov	sp, r7
 80019bc:	bd80      	pop	{r7, pc}
	...

080019c0 <DMA1_Channel2_3_IRQHandler>:
 80019c0:	b580      	push	{r7, lr}
 80019c2:	af00      	add	r7, sp, #0
 80019c4:	4b05      	ldr	r3, [pc, #20]	@ (80019dc <DMA1_Channel2_3_IRQHandler+0x1c>)
 80019c6:	0018      	movs	r0, r3
 80019c8:	f000 fbeb 	bl	80021a2 <HAL_DMA_IRQHandler>
 80019cc:	4b04      	ldr	r3, [pc, #16]	@ (80019e0 <DMA1_Channel2_3_IRQHandler+0x20>)
 80019ce:	0018      	movs	r0, r3
 80019d0:	f000 fbe7 	bl	80021a2 <HAL_DMA_IRQHandler>
 80019d4:	46c0      	nop			@ (mov r8, r8)
 80019d6:	46bd      	mov	sp, r7
 80019d8:	bd80      	pop	{r7, pc}
 80019da:	46c0      	nop			@ (mov r8, r8)
 80019dc:	200002f8 	.word	0x200002f8
 80019e0:	200002b4 	.word	0x200002b4

080019e4 <TIM17_IRQHandler>:
 80019e4:	b580      	push	{r7, lr}
 80019e6:	af00      	add	r7, sp, #0
 80019e8:	4b03      	ldr	r3, [pc, #12]	@ (80019f8 <TIM17_IRQHandler+0x14>)
 80019ea:	0018      	movs	r0, r3
 80019ec:	f002 fab4 	bl	8003f58 <HAL_TIM_IRQHandler>
 80019f0:	46c0      	nop			@ (mov r8, r8)
 80019f2:	46bd      	mov	sp, r7
 80019f4:	bd80      	pop	{r7, pc}
 80019f6:	46c0      	nop			@ (mov r8, r8)
 80019f8:	200001e4 	.word	0x200001e4

080019fc <USART1_IRQHandler>:
 80019fc:	b580      	push	{r7, lr}
 80019fe:	af00      	add	r7, sp, #0
 8001a00:	4b03      	ldr	r3, [pc, #12]	@ (8001a10 <USART1_IRQHandler+0x14>)
 8001a02:	0018      	movs	r0, r3
 8001a04:	f002 fe1a 	bl	800463c <HAL_UART_IRQHandler>
 8001a08:	46c0      	nop			@ (mov r8, r8)
 8001a0a:	46bd      	mov	sp, r7
 8001a0c:	bd80      	pop	{r7, pc}
 8001a0e:	46c0      	nop			@ (mov r8, r8)
 8001a10:	2000022c 	.word	0x2000022c

08001a14 <SystemInit>:
 8001a14:	b580      	push	{r7, lr}
 8001a16:	af00      	add	r7, sp, #0
 8001a18:	46c0      	nop			@ (mov r8, r8)
 8001a1a:	46bd      	mov	sp, r7
 8001a1c:	bd80      	pop	{r7, pc}
	...

08001a20 <MX_TIM16_Init>:
 8001a20:	b580      	push	{r7, lr}
 8001a22:	af00      	add	r7, sp, #0
 8001a24:	4b0f      	ldr	r3, [pc, #60]	@ (8001a64 <MX_TIM16_Init+0x44>)
 8001a26:	4a10      	ldr	r2, [pc, #64]	@ (8001a68 <MX_TIM16_Init+0x48>)
 8001a28:	601a      	str	r2, [r3, #0]
 8001a2a:	4b0e      	ldr	r3, [pc, #56]	@ (8001a64 <MX_TIM16_Init+0x44>)
 8001a2c:	222f      	movs	r2, #47	@ 0x2f
 8001a2e:	605a      	str	r2, [r3, #4]
 8001a30:	4b0c      	ldr	r3, [pc, #48]	@ (8001a64 <MX_TIM16_Init+0x44>)
 8001a32:	2200      	movs	r2, #0
 8001a34:	609a      	str	r2, [r3, #8]
 8001a36:	4b0b      	ldr	r3, [pc, #44]	@ (8001a64 <MX_TIM16_Init+0x44>)
 8001a38:	4a0c      	ldr	r2, [pc, #48]	@ (8001a6c <MX_TIM16_Init+0x4c>)
 8001a3a:	60da      	str	r2, [r3, #12]
 8001a3c:	4b09      	ldr	r3, [pc, #36]	@ (8001a64 <MX_TIM16_Init+0x44>)
 8001a3e:	2200      	movs	r2, #0
 8001a40:	611a      	str	r2, [r3, #16]
 8001a42:	4b08      	ldr	r3, [pc, #32]	@ (8001a64 <MX_TIM16_Init+0x44>)
 8001a44:	2200      	movs	r2, #0
 8001a46:	615a      	str	r2, [r3, #20]
 8001a48:	4b06      	ldr	r3, [pc, #24]	@ (8001a64 <MX_TIM16_Init+0x44>)
 8001a4a:	2200      	movs	r2, #0
 8001a4c:	619a      	str	r2, [r3, #24]
 8001a4e:	4b05      	ldr	r3, [pc, #20]	@ (8001a64 <MX_TIM16_Init+0x44>)
 8001a50:	0018      	movs	r0, r3
 8001a52:	f002 fa31 	bl	8003eb8 <HAL_TIM_Base_Init>
 8001a56:	1e03      	subs	r3, r0, #0
 8001a58:	d001      	beq.n	8001a5e <MX_TIM16_Init+0x3e>
 8001a5a:	f7ff fc6c 	bl	8001336 <Error_Handler>
 8001a5e:	46c0      	nop			@ (mov r8, r8)
 8001a60:	46bd      	mov	sp, r7
 8001a62:	bd80      	pop	{r7, pc}
 8001a64:	2000019c 	.word	0x2000019c
 8001a68:	40014400 	.word	0x40014400
 8001a6c:	0000ffff 	.word	0x0000ffff

08001a70 <MX_TIM17_Init>:
 8001a70:	b580      	push	{r7, lr}
 8001a72:	af00      	add	r7, sp, #0
 8001a74:	4b0f      	ldr	r3, [pc, #60]	@ (8001ab4 <MX_TIM17_Init+0x44>)
 8001a76:	4a10      	ldr	r2, [pc, #64]	@ (8001ab8 <MX_TIM17_Init+0x48>)
 8001a78:	601a      	str	r2, [r3, #0]
 8001a7a:	4b0e      	ldr	r3, [pc, #56]	@ (8001ab4 <MX_TIM17_Init+0x44>)
 8001a7c:	222f      	movs	r2, #47	@ 0x2f
 8001a7e:	605a      	str	r2, [r3, #4]
 8001a80:	4b0c      	ldr	r3, [pc, #48]	@ (8001ab4 <MX_TIM17_Init+0x44>)
 8001a82:	2200      	movs	r2, #0
 8001a84:	609a      	str	r2, [r3, #8]
 8001a86:	4b0b      	ldr	r3, [pc, #44]	@ (8001ab4 <MX_TIM17_Init+0x44>)
 8001a88:	4a0c      	ldr	r2, [pc, #48]	@ (8001abc <MX_TIM17_Init+0x4c>)
 8001a8a:	60da      	str	r2, [r3, #12]
 8001a8c:	4b09      	ldr	r3, [pc, #36]	@ (8001ab4 <MX_TIM17_Init+0x44>)
 8001a8e:	2200      	movs	r2, #0
 8001a90:	611a      	str	r2, [r3, #16]
 8001a92:	4b08      	ldr	r3, [pc, #32]	@ (8001ab4 <MX_TIM17_Init+0x44>)
 8001a94:	2200      	movs	r2, #0
 8001a96:	615a      	str	r2, [r3, #20]
 8001a98:	4b06      	ldr	r3, [pc, #24]	@ (8001ab4 <MX_TIM17_Init+0x44>)
 8001a9a:	2200      	movs	r2, #0
 8001a9c:	619a      	str	r2, [r3, #24]
 8001a9e:	4b05      	ldr	r3, [pc, #20]	@ (8001ab4 <MX_TIM17_Init+0x44>)
 8001aa0:	0018      	movs	r0, r3
 8001aa2:	f002 fa09 	bl	8003eb8 <HAL_TIM_Base_Init>
 8001aa6:	1e03      	subs	r3, r0, #0
 8001aa8:	d001      	beq.n	8001aae <MX_TIM17_Init+0x3e>
 8001aaa:	f7ff fc44 	bl	8001336 <Error_Handler>
 8001aae:	46c0      	nop			@ (mov r8, r8)
 8001ab0:	46bd      	mov	sp, r7
 8001ab2:	bd80      	pop	{r7, pc}
 8001ab4:	200001e4 	.word	0x200001e4
 8001ab8:	40014800 	.word	0x40014800
 8001abc:	000003e7 	.word	0x000003e7

08001ac0 <HAL_TIM_Base_MspInit>:
 8001ac0:	b580      	push	{r7, lr}
 8001ac2:	b084      	sub	sp, #16
 8001ac4:	af00      	add	r7, sp, #0
 8001ac6:	6078      	str	r0, [r7, #4]
 8001ac8:	687b      	ldr	r3, [r7, #4]
 8001aca:	681b      	ldr	r3, [r3, #0]
 8001acc:	4a18      	ldr	r2, [pc, #96]	@ (8001b30 <HAL_TIM_Base_MspInit+0x70>)
 8001ace:	4293      	cmp	r3, r2
 8001ad0:	d10e      	bne.n	8001af0 <HAL_TIM_Base_MspInit+0x30>
 8001ad2:	4b18      	ldr	r3, [pc, #96]	@ (8001b34 <HAL_TIM_Base_MspInit+0x74>)
 8001ad4:	699a      	ldr	r2, [r3, #24]
 8001ad6:	4b17      	ldr	r3, [pc, #92]	@ (8001b34 <HAL_TIM_Base_MspInit+0x74>)
 8001ad8:	2180      	movs	r1, #128	@ 0x80
 8001ada:	0289      	lsls	r1, r1, #10
 8001adc:	430a      	orrs	r2, r1
 8001ade:	619a      	str	r2, [r3, #24]
 8001ae0:	4b14      	ldr	r3, [pc, #80]	@ (8001b34 <HAL_TIM_Base_MspInit+0x74>)
 8001ae2:	699a      	ldr	r2, [r3, #24]
 8001ae4:	2380      	movs	r3, #128	@ 0x80
 8001ae6:	029b      	lsls	r3, r3, #10
 8001ae8:	4013      	ands	r3, r2
 8001aea:	60fb      	str	r3, [r7, #12]
 8001aec:	68fb      	ldr	r3, [r7, #12]
 8001aee:	e01a      	b.n	8001b26 <HAL_TIM_Base_MspInit+0x66>
 8001af0:	687b      	ldr	r3, [r7, #4]
 8001af2:	681b      	ldr	r3, [r3, #0]
 8001af4:	4a10      	ldr	r2, [pc, #64]	@ (8001b38 <HAL_TIM_Base_MspInit+0x78>)
 8001af6:	4293      	cmp	r3, r2
 8001af8:	d115      	bne.n	8001b26 <HAL_TIM_Base_MspInit+0x66>
 8001afa:	4b0e      	ldr	r3, [pc, #56]	@ (8001b34 <HAL_TIM_Base_MspInit+0x74>)
 8001afc:	699a      	ldr	r2, [r3, #24]
 8001afe:	4b0d      	ldr	r3, [pc, #52]	@ (8001b34 <HAL_TIM_Base_MspInit+0x74>)
 8001b00:	2180      	movs	r1, #128	@ 0x80
 8001b02:	02c9      	lsls	r1, r1, #11
 8001b04:	430a      	orrs	r2, r1
 8001b06:	619a      	str	r2, [r3, #24]
 8001b08:	4b0a      	ldr	r3, [pc, #40]	@ (8001b34 <HAL_TIM_Base_MspInit+0x74>)
 8001b0a:	699a      	ldr	r2, [r3, #24]
 8001b0c:	2380      	movs	r3, #128	@ 0x80
 8001b0e:	02db      	lsls	r3, r3, #11
 8001b10:	4013      	ands	r3, r2
 8001b12:	60bb      	str	r3, [r7, #8]
 8001b14:	68bb      	ldr	r3, [r7, #8]
 8001b16:	2200      	movs	r2, #0
 8001b18:	2102      	movs	r1, #2
 8001b1a:	2016      	movs	r0, #22
 8001b1c:	f000 fa4a 	bl	8001fb4 <HAL_NVIC_SetPriority>
 8001b20:	2016      	movs	r0, #22
 8001b22:	f000 fa5c 	bl	8001fde <HAL_NVIC_EnableIRQ>
 8001b26:	46c0      	nop			@ (mov r8, r8)
 8001b28:	46bd      	mov	sp, r7
 8001b2a:	b004      	add	sp, #16
 8001b2c:	bd80      	pop	{r7, pc}
 8001b2e:	46c0      	nop			@ (mov r8, r8)
 8001b30:	40014400 	.word	0x40014400
 8001b34:	40021000 	.word	0x40021000
 8001b38:	40014800 	.word	0x40014800

08001b3c <MX_USART1_UART_Init>:
 8001b3c:	b580      	push	{r7, lr}
 8001b3e:	af00      	add	r7, sp, #0
 8001b40:	4b16      	ldr	r3, [pc, #88]	@ (8001b9c <MX_USART1_UART_Init+0x60>)
 8001b42:	4a17      	ldr	r2, [pc, #92]	@ (8001ba0 <MX_USART1_UART_Init+0x64>)
 8001b44:	601a      	str	r2, [r3, #0]
 8001b46:	4b15      	ldr	r3, [pc, #84]	@ (8001b9c <MX_USART1_UART_Init+0x60>)
 8001b48:	22e1      	movs	r2, #225	@ 0xe1
 8001b4a:	0252      	lsls	r2, r2, #9
 8001b4c:	605a      	str	r2, [r3, #4]
 8001b4e:	4b13      	ldr	r3, [pc, #76]	@ (8001b9c <MX_USART1_UART_Init+0x60>)
 8001b50:	2200      	movs	r2, #0
 8001b52:	609a      	str	r2, [r3, #8]
 8001b54:	4b11      	ldr	r3, [pc, #68]	@ (8001b9c <MX_USART1_UART_Init+0x60>)
 8001b56:	2200      	movs	r2, #0
 8001b58:	60da      	str	r2, [r3, #12]
 8001b5a:	4b10      	ldr	r3, [pc, #64]	@ (8001b9c <MX_USART1_UART_Init+0x60>)
 8001b5c:	2200      	movs	r2, #0
 8001b5e:	611a      	str	r2, [r3, #16]
 8001b60:	4b0e      	ldr	r3, [pc, #56]	@ (8001b9c <MX_USART1_UART_Init+0x60>)
 8001b62:	220c      	movs	r2, #12
 8001b64:	615a      	str	r2, [r3, #20]
 8001b66:	4b0d      	ldr	r3, [pc, #52]	@ (8001b9c <MX_USART1_UART_Init+0x60>)
 8001b68:	2200      	movs	r2, #0
 8001b6a:	619a      	str	r2, [r3, #24]
 8001b6c:	4b0b      	ldr	r3, [pc, #44]	@ (8001b9c <MX_USART1_UART_Init+0x60>)
 8001b6e:	2200      	movs	r2, #0
 8001b70:	61da      	str	r2, [r3, #28]
 8001b72:	4b0a      	ldr	r3, [pc, #40]	@ (8001b9c <MX_USART1_UART_Init+0x60>)
 8001b74:	2200      	movs	r2, #0
 8001b76:	621a      	str	r2, [r3, #32]
 8001b78:	4b08      	ldr	r3, [pc, #32]	@ (8001b9c <MX_USART1_UART_Init+0x60>)
 8001b7a:	2220      	movs	r2, #32
 8001b7c:	625a      	str	r2, [r3, #36]	@ 0x24
 8001b7e:	4b07      	ldr	r3, [pc, #28]	@ (8001b9c <MX_USART1_UART_Init+0x60>)
 8001b80:	2280      	movs	r2, #128	@ 0x80
 8001b82:	0192      	lsls	r2, r2, #6
 8001b84:	63da      	str	r2, [r3, #60]	@ 0x3c
 8001b86:	4b05      	ldr	r3, [pc, #20]	@ (8001b9c <MX_USART1_UART_Init+0x60>)
 8001b88:	0018      	movs	r0, r3
 8001b8a:	f002 fb8f 	bl	80042ac <HAL_UART_Init>
 8001b8e:	1e03      	subs	r3, r0, #0
 8001b90:	d001      	beq.n	8001b96 <MX_USART1_UART_Init+0x5a>
 8001b92:	f7ff fbd0 	bl	8001336 <Error_Handler>
 8001b96:	46c0      	nop			@ (mov r8, r8)
 8001b98:	46bd      	mov	sp, r7
 8001b9a:	bd80      	pop	{r7, pc}
 8001b9c:	2000022c 	.word	0x2000022c
 8001ba0:	40013800 	.word	0x40013800

08001ba4 <HAL_UART_MspInit>:
 8001ba4:	b590      	push	{r4, r7, lr}
 8001ba6:	b08b      	sub	sp, #44	@ 0x2c
 8001ba8:	af00      	add	r7, sp, #0
 8001baa:	6078      	str	r0, [r7, #4]
 8001bac:	2414      	movs	r4, #20
 8001bae:	193b      	adds	r3, r7, r4
 8001bb0:	0018      	movs	r0, r3
 8001bb2:	2314      	movs	r3, #20
 8001bb4:	001a      	movs	r2, r3
 8001bb6:	2100      	movs	r1, #0
 8001bb8:	f003 fbe4 	bl	8005384 <memset>
 8001bbc:	687b      	ldr	r3, [r7, #4]
 8001bbe:	681b      	ldr	r3, [r3, #0]
 8001bc0:	4a46      	ldr	r2, [pc, #280]	@ (8001cdc <HAL_UART_MspInit+0x138>)
 8001bc2:	4293      	cmp	r3, r2
 8001bc4:	d000      	beq.n	8001bc8 <HAL_UART_MspInit+0x24>
 8001bc6:	e085      	b.n	8001cd4 <HAL_UART_MspInit+0x130>
 8001bc8:	4b45      	ldr	r3, [pc, #276]	@ (8001ce0 <HAL_UART_MspInit+0x13c>)
 8001bca:	699a      	ldr	r2, [r3, #24]
 8001bcc:	4b44      	ldr	r3, [pc, #272]	@ (8001ce0 <HAL_UART_MspInit+0x13c>)
 8001bce:	2180      	movs	r1, #128	@ 0x80
 8001bd0:	01c9      	lsls	r1, r1, #7
 8001bd2:	430a      	orrs	r2, r1
 8001bd4:	619a      	str	r2, [r3, #24]
 8001bd6:	4b42      	ldr	r3, [pc, #264]	@ (8001ce0 <HAL_UART_MspInit+0x13c>)
 8001bd8:	699a      	ldr	r2, [r3, #24]
 8001bda:	2380      	movs	r3, #128	@ 0x80
 8001bdc:	01db      	lsls	r3, r3, #7
 8001bde:	4013      	ands	r3, r2
 8001be0:	613b      	str	r3, [r7, #16]
 8001be2:	693b      	ldr	r3, [r7, #16]
 8001be4:	4b3e      	ldr	r3, [pc, #248]	@ (8001ce0 <HAL_UART_MspInit+0x13c>)
 8001be6:	695a      	ldr	r2, [r3, #20]
 8001be8:	4b3d      	ldr	r3, [pc, #244]	@ (8001ce0 <HAL_UART_MspInit+0x13c>)
 8001bea:	2180      	movs	r1, #128	@ 0x80
 8001bec:	02c9      	lsls	r1, r1, #11
 8001bee:	430a      	orrs	r2, r1
 8001bf0:	615a      	str	r2, [r3, #20]
 8001bf2:	4b3b      	ldr	r3, [pc, #236]	@ (8001ce0 <HAL_UART_MspInit+0x13c>)
 8001bf4:	695a      	ldr	r2, [r3, #20]
 8001bf6:	2380      	movs	r3, #128	@ 0x80
 8001bf8:	02db      	lsls	r3, r3, #11
 8001bfa:	4013      	ands	r3, r2
 8001bfc:	60fb      	str	r3, [r7, #12]
 8001bfe:	68fb      	ldr	r3, [r7, #12]
 8001c00:	0021      	movs	r1, r4
 8001c02:	187b      	adds	r3, r7, r1
 8001c04:	22c0      	movs	r2, #192	@ 0xc0
 8001c06:	601a      	str	r2, [r3, #0]
 8001c08:	187b      	adds	r3, r7, r1
 8001c0a:	2202      	movs	r2, #2
 8001c0c:	605a      	str	r2, [r3, #4]
 8001c0e:	187b      	adds	r3, r7, r1
 8001c10:	2201      	movs	r2, #1
 8001c12:	609a      	str	r2, [r3, #8]
 8001c14:	187b      	adds	r3, r7, r1
 8001c16:	2203      	movs	r2, #3
 8001c18:	60da      	str	r2, [r3, #12]
 8001c1a:	187b      	adds	r3, r7, r1
 8001c1c:	2200      	movs	r2, #0
 8001c1e:	611a      	str	r2, [r3, #16]
 8001c20:	187b      	adds	r3, r7, r1
 8001c22:	4a30      	ldr	r2, [pc, #192]	@ (8001ce4 <HAL_UART_MspInit+0x140>)
 8001c24:	0019      	movs	r1, r3
 8001c26:	0010      	movs	r0, r2
 8001c28:	f000 fb7a 	bl	8002320 <HAL_GPIO_Init>
 8001c2c:	4b2e      	ldr	r3, [pc, #184]	@ (8001ce8 <HAL_UART_MspInit+0x144>)
 8001c2e:	4a2f      	ldr	r2, [pc, #188]	@ (8001cec <HAL_UART_MspInit+0x148>)
 8001c30:	601a      	str	r2, [r3, #0]
 8001c32:	4b2d      	ldr	r3, [pc, #180]	@ (8001ce8 <HAL_UART_MspInit+0x144>)
 8001c34:	2200      	movs	r2, #0
 8001c36:	605a      	str	r2, [r3, #4]
 8001c38:	4b2b      	ldr	r3, [pc, #172]	@ (8001ce8 <HAL_UART_MspInit+0x144>)
 8001c3a:	2200      	movs	r2, #0
 8001c3c:	609a      	str	r2, [r3, #8]
 8001c3e:	4b2a      	ldr	r3, [pc, #168]	@ (8001ce8 <HAL_UART_MspInit+0x144>)
 8001c40:	2280      	movs	r2, #128	@ 0x80
 8001c42:	60da      	str	r2, [r3, #12]
 8001c44:	4b28      	ldr	r3, [pc, #160]	@ (8001ce8 <HAL_UART_MspInit+0x144>)
 8001c46:	2200      	movs	r2, #0
 8001c48:	611a      	str	r2, [r3, #16]
 8001c4a:	4b27      	ldr	r3, [pc, #156]	@ (8001ce8 <HAL_UART_MspInit+0x144>)
 8001c4c:	2200      	movs	r2, #0
 8001c4e:	615a      	str	r2, [r3, #20]
 8001c50:	4b25      	ldr	r3, [pc, #148]	@ (8001ce8 <HAL_UART_MspInit+0x144>)
 8001c52:	2220      	movs	r2, #32
 8001c54:	619a      	str	r2, [r3, #24]
 8001c56:	4b24      	ldr	r3, [pc, #144]	@ (8001ce8 <HAL_UART_MspInit+0x144>)
 8001c58:	2200      	movs	r2, #0
 8001c5a:	61da      	str	r2, [r3, #28]
 8001c5c:	4b22      	ldr	r3, [pc, #136]	@ (8001ce8 <HAL_UART_MspInit+0x144>)
 8001c5e:	0018      	movs	r0, r3
 8001c60:	f000 f9da 	bl	8002018 <HAL_DMA_Init>
 8001c64:	1e03      	subs	r3, r0, #0
 8001c66:	d001      	beq.n	8001c6c <HAL_UART_MspInit+0xc8>
 8001c68:	f7ff fb65 	bl	8001336 <Error_Handler>
 8001c6c:	687b      	ldr	r3, [r7, #4]
 8001c6e:	4a1e      	ldr	r2, [pc, #120]	@ (8001ce8 <HAL_UART_MspInit+0x144>)
 8001c70:	675a      	str	r2, [r3, #116]	@ 0x74
 8001c72:	4b1d      	ldr	r3, [pc, #116]	@ (8001ce8 <HAL_UART_MspInit+0x144>)
 8001c74:	687a      	ldr	r2, [r7, #4]
 8001c76:	625a      	str	r2, [r3, #36]	@ 0x24
 8001c78:	4b1d      	ldr	r3, [pc, #116]	@ (8001cf0 <HAL_UART_MspInit+0x14c>)
 8001c7a:	4a1e      	ldr	r2, [pc, #120]	@ (8001cf4 <HAL_UART_MspInit+0x150>)
 8001c7c:	601a      	str	r2, [r3, #0]
 8001c7e:	4b1c      	ldr	r3, [pc, #112]	@ (8001cf0 <HAL_UART_MspInit+0x14c>)
 8001c80:	2210      	movs	r2, #16
 8001c82:	605a      	str	r2, [r3, #4]
 8001c84:	4b1a      	ldr	r3, [pc, #104]	@ (8001cf0 <HAL_UART_MspInit+0x14c>)
 8001c86:	2200      	movs	r2, #0
 8001c88:	609a      	str	r2, [r3, #8]
 8001c8a:	4b19      	ldr	r3, [pc, #100]	@ (8001cf0 <HAL_UART_MspInit+0x14c>)
 8001c8c:	2280      	movs	r2, #128	@ 0x80
 8001c8e:	60da      	str	r2, [r3, #12]
 8001c90:	4b17      	ldr	r3, [pc, #92]	@ (8001cf0 <HAL_UART_MspInit+0x14c>)
 8001c92:	2200      	movs	r2, #0
 8001c94:	611a      	str	r2, [r3, #16]
 8001c96:	4b16      	ldr	r3, [pc, #88]	@ (8001cf0 <HAL_UART_MspInit+0x14c>)
 8001c98:	2200      	movs	r2, #0
 8001c9a:	615a      	str	r2, [r3, #20]
 8001c9c:	4b14      	ldr	r3, [pc, #80]	@ (8001cf0 <HAL_UART_MspInit+0x14c>)
 8001c9e:	2200      	movs	r2, #0
 8001ca0:	619a      	str	r2, [r3, #24]
 8001ca2:	4b13      	ldr	r3, [pc, #76]	@ (8001cf0 <HAL_UART_MspInit+0x14c>)
 8001ca4:	2200      	movs	r2, #0
 8001ca6:	61da      	str	r2, [r3, #28]
 8001ca8:	4b11      	ldr	r3, [pc, #68]	@ (8001cf0 <HAL_UART_MspInit+0x14c>)
 8001caa:	0018      	movs	r0, r3
 8001cac:	f000 f9b4 	bl	8002018 <HAL_DMA_Init>
 8001cb0:	1e03      	subs	r3, r0, #0
 8001cb2:	d001      	beq.n	8001cb8 <HAL_UART_MspInit+0x114>
 8001cb4:	f7ff fb3f 	bl	8001336 <Error_Handler>
 8001cb8:	687b      	ldr	r3, [r7, #4]
 8001cba:	4a0d      	ldr	r2, [pc, #52]	@ (8001cf0 <HAL_UART_MspInit+0x14c>)
 8001cbc:	671a      	str	r2, [r3, #112]	@ 0x70
 8001cbe:	4b0c      	ldr	r3, [pc, #48]	@ (8001cf0 <HAL_UART_MspInit+0x14c>)
 8001cc0:	687a      	ldr	r2, [r7, #4]
 8001cc2:	625a      	str	r2, [r3, #36]	@ 0x24
 8001cc4:	2200      	movs	r2, #0
 8001cc6:	2103      	movs	r1, #3
 8001cc8:	201b      	movs	r0, #27
 8001cca:	f000 f973 	bl	8001fb4 <HAL_NVIC_SetPriority>
 8001cce:	201b      	movs	r0, #27
 8001cd0:	f000 f985 	bl	8001fde <HAL_NVIC_EnableIRQ>
 8001cd4:	46c0      	nop			@ (mov r8, r8)
 8001cd6:	46bd      	mov	sp, r7
 8001cd8:	b00b      	add	sp, #44	@ 0x2c
 8001cda:	bd90      	pop	{r4, r7, pc}
 8001cdc:	40013800 	.word	0x40013800
 8001ce0:	40021000 	.word	0x40021000
 8001ce4:	48000400 	.word	0x48000400
 8001ce8:	200002b4 	.word	0x200002b4
 8001cec:	40020030 	.word	0x40020030
 8001cf0:	200002f8 	.word	0x200002f8
 8001cf4:	4002001c 	.word	0x4002001c

08001cf8 <Reset_Handler>:
 8001cf8:	480d      	ldr	r0, [pc, #52]	@ (8001d30 <LoopForever+0x2>)
 8001cfa:	4685      	mov	sp, r0
 8001cfc:	f7ff fe8a 	bl	8001a14 <SystemInit>
 8001d00:	480c      	ldr	r0, [pc, #48]	@ (8001d34 <LoopForever+0x6>)
 8001d02:	490d      	ldr	r1, [pc, #52]	@ (8001d38 <LoopForever+0xa>)
 8001d04:	4a0d      	ldr	r2, [pc, #52]	@ (8001d3c <LoopForever+0xe>)
 8001d06:	2300      	movs	r3, #0
 8001d08:	e002      	b.n	8001d10 <LoopCopyDataInit>

08001d0a <CopyDataInit>:
 8001d0a:	58d4      	ldr	r4, [r2, r3]
 8001d0c:	50c4      	str	r4, [r0, r3]
 8001d0e:	3304      	adds	r3, #4

08001d10 <LoopCopyDataInit>:
 8001d10:	18c4      	adds	r4, r0, r3
 8001d12:	428c      	cmp	r4, r1
 8001d14:	d3f9      	bcc.n	8001d0a <CopyDataInit>
 8001d16:	4a0a      	ldr	r2, [pc, #40]	@ (8001d40 <LoopForever+0x12>)
 8001d18:	4c0a      	ldr	r4, [pc, #40]	@ (8001d44 <LoopForever+0x16>)
 8001d1a:	2300      	movs	r3, #0
 8001d1c:	e001      	b.n	8001d22 <LoopFillZerobss>

08001d1e <FillZerobss>:
 8001d1e:	6013      	str	r3, [r2, #0]
 8001d20:	3204      	adds	r2, #4

08001d22 <LoopFillZerobss>:
 8001d22:	42a2      	cmp	r2, r4
 8001d24:	d3fb      	bcc.n	8001d1e <FillZerobss>
 8001d26:	f003 fb35 	bl	8005394 <__libc_init_array>
 8001d2a:	f7ff f893 	bl	8000e54 <main>

08001d2e <LoopForever>:
 8001d2e:	e7fe      	b.n	8001d2e <LoopForever>
 8001d30:	20002000 	.word	0x20002000
 8001d34:	20000000 	.word	0x20000000
 8001d38:	20000010 	.word	0x20000010
 8001d3c:	08005910 	.word	0x08005910
 8001d40:	20000010 	.word	0x20000010
 8001d44:	20000340 	.word	0x20000340

08001d48 <ADC1_IRQHandler>:
 8001d48:	e7fe      	b.n	8001d48 <ADC1_IRQHandler>
	...

08001d4c <HAL_Init>:
 8001d4c:	b580      	push	{r7, lr}
 8001d4e:	af00      	add	r7, sp, #0
 8001d50:	4b07      	ldr	r3, [pc, #28]	@ (8001d70 <HAL_Init+0x24>)
 8001d52:	681a      	ldr	r2, [r3, #0]
 8001d54:	4b06      	ldr	r3, [pc, #24]	@ (8001d70 <HAL_Init+0x24>)
 8001d56:	2110      	movs	r1, #16
 8001d58:	430a      	orrs	r2, r1
 8001d5a:	601a      	str	r2, [r3, #0]
 8001d5c:	2000      	movs	r0, #0
 8001d5e:	f000 f809 	bl	8001d74 <HAL_InitTick>
 8001d62:	f7ff fde5 	bl	8001930 <HAL_MspInit>
 8001d66:	2300      	movs	r3, #0
 8001d68:	0018      	movs	r0, r3
 8001d6a:	46bd      	mov	sp, r7
 8001d6c:	bd80      	pop	{r7, pc}
 8001d6e:	46c0      	nop			@ (mov r8, r8)
 8001d70:	40022000 	.word	0x40022000

08001d74 <HAL_InitTick>:
 8001d74:	b590      	push	{r4, r7, lr}
 8001d76:	b083      	sub	sp, #12
 8001d78:	af00      	add	r7, sp, #0
 8001d7a:	6078      	str	r0, [r7, #4]
 8001d7c:	4b14      	ldr	r3, [pc, #80]	@ (8001dd0 <HAL_InitTick+0x5c>)
 8001d7e:	681c      	ldr	r4, [r3, #0]
 8001d80:	4b14      	ldr	r3, [pc, #80]	@ (8001dd4 <HAL_InitTick+0x60>)
 8001d82:	781b      	ldrb	r3, [r3, #0]
 8001d84:	0019      	movs	r1, r3
 8001d86:	23fa      	movs	r3, #250	@ 0xfa
 8001d88:	0098      	lsls	r0, r3, #2
 8001d8a:	f7fe f9c5 	bl	8000118 <__udivsi3>
 8001d8e:	0003      	movs	r3, r0
 8001d90:	0019      	movs	r1, r3
 8001d92:	0020      	movs	r0, r4
 8001d94:	f7fe f9c0 	bl	8000118 <__udivsi3>
 8001d98:	0003      	movs	r3, r0
 8001d9a:	0018      	movs	r0, r3
 8001d9c:	f000 f92f 	bl	8001ffe <HAL_SYSTICK_Config>
 8001da0:	1e03      	subs	r3, r0, #0
 8001da2:	d001      	beq.n	8001da8 <HAL_InitTick+0x34>
 8001da4:	2301      	movs	r3, #1
 8001da6:	e00f      	b.n	8001dc8 <HAL_InitTick+0x54>
 8001da8:	687b      	ldr	r3, [r7, #4]
 8001daa:	2b03      	cmp	r3, #3
 8001dac:	d80b      	bhi.n	8001dc6 <HAL_InitTick+0x52>
 8001dae:	6879      	ldr	r1, [r7, #4]
 8001db0:	2301      	movs	r3, #1
 8001db2:	425b      	negs	r3, r3
 8001db4:	2200      	movs	r2, #0
 8001db6:	0018      	movs	r0, r3
 8001db8:	f000 f8fc 	bl	8001fb4 <HAL_NVIC_SetPriority>
 8001dbc:	4b06      	ldr	r3, [pc, #24]	@ (8001dd8 <HAL_InitTick+0x64>)
 8001dbe:	687a      	ldr	r2, [r7, #4]
 8001dc0:	601a      	str	r2, [r3, #0]
 8001dc2:	2300      	movs	r3, #0
 8001dc4:	e000      	b.n	8001dc8 <HAL_InitTick+0x54>
 8001dc6:	2301      	movs	r3, #1
 8001dc8:	0018      	movs	r0, r3
 8001dca:	46bd      	mov	sp, r7
 8001dcc:	b003      	add	sp, #12
 8001dce:	bd90      	pop	{r4, r7, pc}
 8001dd0:	20000004 	.word	0x20000004
 8001dd4:	2000000c 	.word	0x2000000c
 8001dd8:	20000008 	.word	0x20000008

08001ddc <HAL_IncTick>:
 8001ddc:	b580      	push	{r7, lr}
 8001dde:	af00      	add	r7, sp, #0
 8001de0:	4b05      	ldr	r3, [pc, #20]	@ (8001df8 <HAL_IncTick+0x1c>)
 8001de2:	781b      	ldrb	r3, [r3, #0]
 8001de4:	001a      	movs	r2, r3
 8001de6:	4b05      	ldr	r3, [pc, #20]	@ (8001dfc <HAL_IncTick+0x20>)
 8001de8:	681b      	ldr	r3, [r3, #0]
 8001dea:	18d2      	adds	r2, r2, r3
 8001dec:	4b03      	ldr	r3, [pc, #12]	@ (8001dfc <HAL_IncTick+0x20>)
 8001dee:	601a      	str	r2, [r3, #0]
 8001df0:	46c0      	nop			@ (mov r8, r8)
 8001df2:	46bd      	mov	sp, r7
 8001df4:	bd80      	pop	{r7, pc}
 8001df6:	46c0      	nop			@ (mov r8, r8)
 8001df8:	2000000c 	.word	0x2000000c
 8001dfc:	2000033c 	.word	0x2000033c

08001e00 <HAL_GetTick>:
 8001e00:	b580      	push	{r7, lr}
 8001e02:	af00      	add	r7, sp, #0
 8001e04:	4b02      	ldr	r3, [pc, #8]	@ (8001e10 <HAL_GetTick+0x10>)
 8001e06:	681b      	ldr	r3, [r3, #0]
 8001e08:	0018      	movs	r0, r3
 8001e0a:	46bd      	mov	sp, r7
 8001e0c:	bd80      	pop	{r7, pc}
 8001e0e:	46c0      	nop			@ (mov r8, r8)
 8001e10:	2000033c 	.word	0x2000033c

08001e14 <HAL_Delay>:
 8001e14:	b580      	push	{r7, lr}
 8001e16:	b084      	sub	sp, #16
 8001e18:	af00      	add	r7, sp, #0
 8001e1a:	6078      	str	r0, [r7, #4]
 8001e1c:	f7ff fff0 	bl	8001e00 <HAL_GetTick>
 8001e20:	0003      	movs	r3, r0
 8001e22:	60bb      	str	r3, [r7, #8]
 8001e24:	687b      	ldr	r3, [r7, #4]
 8001e26:	60fb      	str	r3, [r7, #12]
 8001e28:	68fb      	ldr	r3, [r7, #12]
 8001e2a:	3301      	adds	r3, #1
 8001e2c:	d005      	beq.n	8001e3a <HAL_Delay+0x26>
 8001e2e:	4b0a      	ldr	r3, [pc, #40]	@ (8001e58 <HAL_Delay+0x44>)
 8001e30:	781b      	ldrb	r3, [r3, #0]
 8001e32:	001a      	movs	r2, r3
 8001e34:	68fb      	ldr	r3, [r7, #12]
 8001e36:	189b      	adds	r3, r3, r2
 8001e38:	60fb      	str	r3, [r7, #12]
 8001e3a:	46c0      	nop			@ (mov r8, r8)
 8001e3c:	f7ff ffe0 	bl	8001e00 <HAL_GetTick>
 8001e40:	0002      	movs	r2, r0
 8001e42:	68bb      	ldr	r3, [r7, #8]
 8001e44:	1ad3      	subs	r3, r2, r3
 8001e46:	68fa      	ldr	r2, [r7, #12]
 8001e48:	429a      	cmp	r2, r3
 8001e4a:	d8f7      	bhi.n	8001e3c <HAL_Delay+0x28>
 8001e4c:	46c0      	nop			@ (mov r8, r8)
 8001e4e:	46c0      	nop			@ (mov r8, r8)
 8001e50:	46bd      	mov	sp, r7
 8001e52:	b004      	add	sp, #16
 8001e54:	bd80      	pop	{r7, pc}
 8001e56:	46c0      	nop			@ (mov r8, r8)
 8001e58:	2000000c 	.word	0x2000000c

08001e5c <__NVIC_EnableIRQ>:
 8001e5c:	b580      	push	{r7, lr}
 8001e5e:	b082      	sub	sp, #8
 8001e60:	af00      	add	r7, sp, #0
 8001e62:	0002      	movs	r2, r0
 8001e64:	1dfb      	adds	r3, r7, #7
 8001e66:	701a      	strb	r2, [r3, #0]
 8001e68:	1dfb      	adds	r3, r7, #7
 8001e6a:	781b      	ldrb	r3, [r3, #0]
 8001e6c:	2b7f      	cmp	r3, #127	@ 0x7f
 8001e6e:	d809      	bhi.n	8001e84 <__NVIC_EnableIRQ+0x28>
 8001e70:	1dfb      	adds	r3, r7, #7
 8001e72:	781b      	ldrb	r3, [r3, #0]
 8001e74:	001a      	movs	r2, r3
 8001e76:	231f      	movs	r3, #31
 8001e78:	401a      	ands	r2, r3
 8001e7a:	4b04      	ldr	r3, [pc, #16]	@ (8001e8c <__NVIC_EnableIRQ+0x30>)
 8001e7c:	2101      	movs	r1, #1
 8001e7e:	4091      	lsls	r1, r2
 8001e80:	000a      	movs	r2, r1
 8001e82:	601a      	str	r2, [r3, #0]
 8001e84:	46c0      	nop			@ (mov r8, r8)
 8001e86:	46bd      	mov	sp, r7
 8001e88:	b002      	add	sp, #8
 8001e8a:	bd80      	pop	{r7, pc}
 8001e8c:	e000e100 	.word	0xe000e100

08001e90 <__NVIC_SetPriority>:
 8001e90:	b590      	push	{r4, r7, lr}
 8001e92:	b083      	sub	sp, #12
 8001e94:	af00      	add	r7, sp, #0
 8001e96:	0002      	movs	r2, r0
 8001e98:	6039      	str	r1, [r7, #0]
 8001e9a:	1dfb      	adds	r3, r7, #7
 8001e9c:	701a      	strb	r2, [r3, #0]
 8001e9e:	1dfb      	adds	r3, r7, #7
 8001ea0:	781b      	ldrb	r3, [r3, #0]
 8001ea2:	2b7f      	cmp	r3, #127	@ 0x7f
 8001ea4:	d828      	bhi.n	8001ef8 <__NVIC_SetPriority+0x68>
 8001ea6:	4a2f      	ldr	r2, [pc, #188]	@ (8001f64 <__NVIC_SetPriority+0xd4>)
 8001ea8:	1dfb      	adds	r3, r7, #7
 8001eaa:	781b      	ldrb	r3, [r3, #0]
 8001eac:	b25b      	sxtb	r3, r3
 8001eae:	089b      	lsrs	r3, r3, #2
 8001eb0:	33c0      	adds	r3, #192	@ 0xc0
 8001eb2:	009b      	lsls	r3, r3, #2
 8001eb4:	589b      	ldr	r3, [r3, r2]
 8001eb6:	1dfa      	adds	r2, r7, #7
 8001eb8:	7812      	ldrb	r2, [r2, #0]
 8001eba:	0011      	movs	r1, r2
 8001ebc:	2203      	movs	r2, #3
 8001ebe:	400a      	ands	r2, r1
 8001ec0:	00d2      	lsls	r2, r2, #3
 8001ec2:	21ff      	movs	r1, #255	@ 0xff
 8001ec4:	4091      	lsls	r1, r2
 8001ec6:	000a      	movs	r2, r1
 8001ec8:	43d2      	mvns	r2, r2
 8001eca:	401a      	ands	r2, r3
 8001ecc:	0011      	movs	r1, r2
 8001ece:	683b      	ldr	r3, [r7, #0]
 8001ed0:	019b      	lsls	r3, r3, #6
 8001ed2:	22ff      	movs	r2, #255	@ 0xff
 8001ed4:	401a      	ands	r2, r3
 8001ed6:	1dfb      	adds	r3, r7, #7
 8001ed8:	781b      	ldrb	r3, [r3, #0]
 8001eda:	0018      	movs	r0, r3
 8001edc:	2303      	movs	r3, #3
 8001ede:	4003      	ands	r3, r0
 8001ee0:	00db      	lsls	r3, r3, #3
 8001ee2:	409a      	lsls	r2, r3
 8001ee4:	481f      	ldr	r0, [pc, #124]	@ (8001f64 <__NVIC_SetPriority+0xd4>)
 8001ee6:	1dfb      	adds	r3, r7, #7
 8001ee8:	781b      	ldrb	r3, [r3, #0]
 8001eea:	b25b      	sxtb	r3, r3
 8001eec:	089b      	lsrs	r3, r3, #2
 8001eee:	430a      	orrs	r2, r1
 8001ef0:	33c0      	adds	r3, #192	@ 0xc0
 8001ef2:	009b      	lsls	r3, r3, #2
 8001ef4:	501a      	str	r2, [r3, r0]
 8001ef6:	e031      	b.n	8001f5c <__NVIC_SetPriority+0xcc>
 8001ef8:	4a1b      	ldr	r2, [pc, #108]	@ (8001f68 <__NVIC_SetPriority+0xd8>)
 8001efa:	1dfb      	adds	r3, r7, #7
 8001efc:	781b      	ldrb	r3, [r3, #0]
 8001efe:	0019      	movs	r1, r3
 8001f00:	230f      	movs	r3, #15
 8001f02:	400b      	ands	r3, r1
 8001f04:	3b08      	subs	r3, #8
 8001f06:	089b      	lsrs	r3, r3, #2
 8001f08:	3306      	adds	r3, #6
 8001f0a:	009b      	lsls	r3, r3, #2
 8001f0c:	18d3      	adds	r3, r2, r3
 8001f0e:	3304      	adds	r3, #4
 8001f10:	681b      	ldr	r3, [r3, #0]
 8001f12:	1dfa      	adds	r2, r7, #7
 8001f14:	7812      	ldrb	r2, [r2, #0]
 8001f16:	0011      	movs	r1, r2
 8001f18:	2203      	movs	r2, #3
 8001f1a:	400a      	ands	r2, r1
 8001f1c:	00d2      	lsls	r2, r2, #3
 8001f1e:	21ff      	movs	r1, #255	@ 0xff
 8001f20:	4091      	lsls	r1, r2
 8001f22:	000a      	movs	r2, r1
 8001f24:	43d2      	mvns	r2, r2
 8001f26:	401a      	ands	r2, r3
 8001f28:	0011      	movs	r1, r2
 8001f2a:	683b      	ldr	r3, [r7, #0]
 8001f2c:	019b      	lsls	r3, r3, #6
 8001f2e:	22ff      	movs	r2, #255	@ 0xff
 8001f30:	401a      	ands	r2, r3
 8001f32:	1dfb      	adds	r3, r7, #7
 8001f34:	781b      	ldrb	r3, [r3, #0]
 8001f36:	0018      	movs	r0, r3
 8001f38:	2303      	movs	r3, #3
 8001f3a:	4003      	ands	r3, r0
 8001f3c:	00db      	lsls	r3, r3, #3
 8001f3e:	409a      	lsls	r2, r3
 8001f40:	4809      	ldr	r0, [pc, #36]	@ (8001f68 <__NVIC_SetPriority+0xd8>)
 8001f42:	1dfb      	adds	r3, r7, #7
 8001f44:	781b      	ldrb	r3, [r3, #0]
 8001f46:	001c      	movs	r4, r3
 8001f48:	230f      	movs	r3, #15
 8001f4a:	4023      	ands	r3, r4
 8001f4c:	3b08      	subs	r3, #8
 8001f4e:	089b      	lsrs	r3, r3, #2
 8001f50:	430a      	orrs	r2, r1
 8001f52:	3306      	adds	r3, #6
 8001f54:	009b      	lsls	r3, r3, #2
 8001f56:	18c3      	adds	r3, r0, r3
 8001f58:	3304      	adds	r3, #4
 8001f5a:	601a      	str	r2, [r3, #0]
 8001f5c:	46c0      	nop			@ (mov r8, r8)
 8001f5e:	46bd      	mov	sp, r7
 8001f60:	b003      	add	sp, #12
 8001f62:	bd90      	pop	{r4, r7, pc}
 8001f64:	e000e100 	.word	0xe000e100
 8001f68:	e000ed00 	.word	0xe000ed00

08001f6c <SysTick_Config>:
 8001f6c:	b580      	push	{r7, lr}
 8001f6e:	b082      	sub	sp, #8
 8001f70:	af00      	add	r7, sp, #0
 8001f72:	6078      	str	r0, [r7, #4]
 8001f74:	687b      	ldr	r3, [r7, #4]
 8001f76:	1e5a      	subs	r2, r3, #1
 8001f78:	2380      	movs	r3, #128	@ 0x80
 8001f7a:	045b      	lsls	r3, r3, #17
 8001f7c:	429a      	cmp	r2, r3
 8001f7e:	d301      	bcc.n	8001f84 <SysTick_Config+0x18>
 8001f80:	2301      	movs	r3, #1
 8001f82:	e010      	b.n	8001fa6 <SysTick_Config+0x3a>
 8001f84:	4b0a      	ldr	r3, [pc, #40]	@ (8001fb0 <SysTick_Config+0x44>)
 8001f86:	687a      	ldr	r2, [r7, #4]
 8001f88:	3a01      	subs	r2, #1
 8001f8a:	605a      	str	r2, [r3, #4]
 8001f8c:	2301      	movs	r3, #1
 8001f8e:	425b      	negs	r3, r3
 8001f90:	2103      	movs	r1, #3
 8001f92:	0018      	movs	r0, r3
 8001f94:	f7ff ff7c 	bl	8001e90 <__NVIC_SetPriority>
 8001f98:	4b05      	ldr	r3, [pc, #20]	@ (8001fb0 <SysTick_Config+0x44>)
 8001f9a:	2200      	movs	r2, #0
 8001f9c:	609a      	str	r2, [r3, #8]
 8001f9e:	4b04      	ldr	r3, [pc, #16]	@ (8001fb0 <SysTick_Config+0x44>)
 8001fa0:	2207      	movs	r2, #7
 8001fa2:	601a      	str	r2, [r3, #0]
 8001fa4:	2300      	movs	r3, #0
 8001fa6:	0018      	movs	r0, r3
 8001fa8:	46bd      	mov	sp, r7
 8001faa:	b002      	add	sp, #8
 8001fac:	bd80      	pop	{r7, pc}
 8001fae:	46c0      	nop			@ (mov r8, r8)
 8001fb0:	e000e010 	.word	0xe000e010

08001fb4 <HAL_NVIC_SetPriority>:
 8001fb4:	b580      	push	{r7, lr}
 8001fb6:	b084      	sub	sp, #16
 8001fb8:	af00      	add	r7, sp, #0
 8001fba:	60b9      	str	r1, [r7, #8]
 8001fbc:	607a      	str	r2, [r7, #4]
 8001fbe:	210f      	movs	r1, #15
 8001fc0:	187b      	adds	r3, r7, r1
 8001fc2:	1c02      	adds	r2, r0, #0
 8001fc4:	701a      	strb	r2, [r3, #0]
 8001fc6:	68ba      	ldr	r2, [r7, #8]
 8001fc8:	187b      	adds	r3, r7, r1
 8001fca:	781b      	ldrb	r3, [r3, #0]
 8001fcc:	b25b      	sxtb	r3, r3
 8001fce:	0011      	movs	r1, r2
 8001fd0:	0018      	movs	r0, r3
 8001fd2:	f7ff ff5d 	bl	8001e90 <__NVIC_SetPriority>
 8001fd6:	46c0      	nop			@ (mov r8, r8)
 8001fd8:	46bd      	mov	sp, r7
 8001fda:	b004      	add	sp, #16
 8001fdc:	bd80      	pop	{r7, pc}

08001fde <HAL_NVIC_EnableIRQ>:
 8001fde:	b580      	push	{r7, lr}
 8001fe0:	b082      	sub	sp, #8
 8001fe2:	af00      	add	r7, sp, #0
 8001fe4:	0002      	movs	r2, r0
 8001fe6:	1dfb      	adds	r3, r7, #7
 8001fe8:	701a      	strb	r2, [r3, #0]
 8001fea:	1dfb      	adds	r3, r7, #7
 8001fec:	781b      	ldrb	r3, [r3, #0]
 8001fee:	b25b      	sxtb	r3, r3
 8001ff0:	0018      	movs	r0, r3
 8001ff2:	f7ff ff33 	bl	8001e5c <__NVIC_EnableIRQ>
 8001ff6:	46c0      	nop			@ (mov r8, r8)
 8001ff8:	46bd      	mov	sp, r7
 8001ffa:	b002      	add	sp, #8
 8001ffc:	bd80      	pop	{r7, pc}

08001ffe <HAL_SYSTICK_Config>:
 8001ffe:	b580      	push	{r7, lr}
 8002000:	b082      	sub	sp, #8
 8002002:	af00      	add	r7, sp, #0
 8002004:	6078      	str	r0, [r7, #4]
 8002006:	687b      	ldr	r3, [r7, #4]
 8002008:	0018      	movs	r0, r3
 800200a:	f7ff ffaf 	bl	8001f6c <SysTick_Config>
 800200e:	0003      	movs	r3, r0
 8002010:	0018      	movs	r0, r3
 8002012:	46bd      	mov	sp, r7
 8002014:	b002      	add	sp, #8
 8002016:	bd80      	pop	{r7, pc}

08002018 <HAL_DMA_Init>:
 8002018:	b580      	push	{r7, lr}
 800201a:	b084      	sub	sp, #16
 800201c:	af00      	add	r7, sp, #0
 800201e:	6078      	str	r0, [r7, #4]
 8002020:	2300      	movs	r3, #0
 8002022:	60fb      	str	r3, [r7, #12]
 8002024:	687b      	ldr	r3, [r7, #4]
 8002026:	2b00      	cmp	r3, #0
 8002028:	d101      	bne.n	800202e <HAL_DMA_Init+0x16>
 800202a:	2301      	movs	r3, #1
 800202c:	e036      	b.n	800209c <HAL_DMA_Init+0x84>
 800202e:	687b      	ldr	r3, [r7, #4]
 8002030:	2221      	movs	r2, #33	@ 0x21
 8002032:	2102      	movs	r1, #2
 8002034:	5499      	strb	r1, [r3, r2]
 8002036:	687b      	ldr	r3, [r7, #4]
 8002038:	681b      	ldr	r3, [r3, #0]
 800203a:	681b      	ldr	r3, [r3, #0]
 800203c:	60fb      	str	r3, [r7, #12]
 800203e:	68fb      	ldr	r3, [r7, #12]
 8002040:	4a18      	ldr	r2, [pc, #96]	@ (80020a4 <HAL_DMA_Init+0x8c>)
 8002042:	4013      	ands	r3, r2
 8002044:	60fb      	str	r3, [r7, #12]
 8002046:	687b      	ldr	r3, [r7, #4]
 8002048:	685a      	ldr	r2, [r3, #4]
 800204a:	687b      	ldr	r3, [r7, #4]
 800204c:	689b      	ldr	r3, [r3, #8]
 800204e:	431a      	orrs	r2, r3
 8002050:	687b      	ldr	r3, [r7, #4]
 8002052:	68db      	ldr	r3, [r3, #12]
 8002054:	431a      	orrs	r2, r3
 8002056:	687b      	ldr	r3, [r7, #4]
 8002058:	691b      	ldr	r3, [r3, #16]
 800205a:	431a      	orrs	r2, r3
 800205c:	687b      	ldr	r3, [r7, #4]
 800205e:	695b      	ldr	r3, [r3, #20]
 8002060:	431a      	orrs	r2, r3
 8002062:	687b      	ldr	r3, [r7, #4]
 8002064:	699b      	ldr	r3, [r3, #24]
 8002066:	431a      	orrs	r2, r3
 8002068:	687b      	ldr	r3, [r7, #4]
 800206a:	69db      	ldr	r3, [r3, #28]
 800206c:	4313      	orrs	r3, r2
 800206e:	68fa      	ldr	r2, [r7, #12]
 8002070:	4313      	orrs	r3, r2
 8002072:	60fb      	str	r3, [r7, #12]
 8002074:	687b      	ldr	r3, [r7, #4]
 8002076:	681b      	ldr	r3, [r3, #0]
 8002078:	68fa      	ldr	r2, [r7, #12]
 800207a:	601a      	str	r2, [r3, #0]
 800207c:	687b      	ldr	r3, [r7, #4]
 800207e:	0018      	movs	r0, r3
 8002080:	f000 f932 	bl	80022e8 <DMA_CalcBaseAndBitshift>
 8002084:	687b      	ldr	r3, [r7, #4]
 8002086:	2200      	movs	r2, #0
 8002088:	639a      	str	r2, [r3, #56]	@ 0x38
 800208a:	687b      	ldr	r3, [r7, #4]
 800208c:	2221      	movs	r2, #33	@ 0x21
 800208e:	2101      	movs	r1, #1
 8002090:	5499      	strb	r1, [r3, r2]
 8002092:	687b      	ldr	r3, [r7, #4]
 8002094:	2220      	movs	r2, #32
 8002096:	2100      	movs	r1, #0
 8002098:	5499      	strb	r1, [r3, r2]
 800209a:	2300      	movs	r3, #0
 800209c:	0018      	movs	r0, r3
 800209e:	46bd      	mov	sp, r7
 80020a0:	b004      	add	sp, #16
 80020a2:	bd80      	pop	{r7, pc}
 80020a4:	ffffc00f 	.word	0xffffc00f

080020a8 <HAL_DMA_Abort>:
 80020a8:	b580      	push	{r7, lr}
 80020aa:	b082      	sub	sp, #8
 80020ac:	af00      	add	r7, sp, #0
 80020ae:	6078      	str	r0, [r7, #4]
 80020b0:	687b      	ldr	r3, [r7, #4]
 80020b2:	2221      	movs	r2, #33	@ 0x21
 80020b4:	5c9b      	ldrb	r3, [r3, r2]
 80020b6:	b2db      	uxtb	r3, r3
 80020b8:	2b02      	cmp	r3, #2
 80020ba:	d008      	beq.n	80020ce <HAL_DMA_Abort+0x26>
 80020bc:	687b      	ldr	r3, [r7, #4]
 80020be:	2204      	movs	r2, #4
 80020c0:	639a      	str	r2, [r3, #56]	@ 0x38
 80020c2:	687b      	ldr	r3, [r7, #4]
 80020c4:	2220      	movs	r2, #32
 80020c6:	2100      	movs	r1, #0
 80020c8:	5499      	strb	r1, [r3, r2]
 80020ca:	2301      	movs	r3, #1
 80020cc:	e020      	b.n	8002110 <HAL_DMA_Abort+0x68>
 80020ce:	687b      	ldr	r3, [r7, #4]
 80020d0:	681b      	ldr	r3, [r3, #0]
 80020d2:	681a      	ldr	r2, [r3, #0]
 80020d4:	687b      	ldr	r3, [r7, #4]
 80020d6:	681b      	ldr	r3, [r3, #0]
 80020d8:	210e      	movs	r1, #14
 80020da:	438a      	bics	r2, r1
 80020dc:	601a      	str	r2, [r3, #0]
 80020de:	687b      	ldr	r3, [r7, #4]
 80020e0:	681b      	ldr	r3, [r3, #0]
 80020e2:	681a      	ldr	r2, [r3, #0]
 80020e4:	687b      	ldr	r3, [r7, #4]
 80020e6:	681b      	ldr	r3, [r3, #0]
 80020e8:	2101      	movs	r1, #1
 80020ea:	438a      	bics	r2, r1
 80020ec:	601a      	str	r2, [r3, #0]
 80020ee:	687b      	ldr	r3, [r7, #4]
 80020f0:	6c1a      	ldr	r2, [r3, #64]	@ 0x40
 80020f2:	687b      	ldr	r3, [r7, #4]
 80020f4:	6bdb      	ldr	r3, [r3, #60]	@ 0x3c
 80020f6:	2101      	movs	r1, #1
 80020f8:	4091      	lsls	r1, r2
 80020fa:	000a      	movs	r2, r1
 80020fc:	605a      	str	r2, [r3, #4]
 80020fe:	687b      	ldr	r3, [r7, #4]
 8002100:	2221      	movs	r2, #33	@ 0x21
 8002102:	2101      	movs	r1, #1
 8002104:	5499      	strb	r1, [r3, r2]
 8002106:	687b      	ldr	r3, [r7, #4]
 8002108:	2220      	movs	r2, #32
 800210a:	2100      	movs	r1, #0
 800210c:	5499      	strb	r1, [r3, r2]
 800210e:	2300      	movs	r3, #0
 8002110:	0018      	movs	r0, r3
 8002112:	46bd      	mov	sp, r7
 8002114:	b002      	add	sp, #8
 8002116:	bd80      	pop	{r7, pc}

08002118 <HAL_DMA_Abort_IT>:
 8002118:	b580      	push	{r7, lr}
 800211a:	b084      	sub	sp, #16
 800211c:	af00      	add	r7, sp, #0
 800211e:	6078      	str	r0, [r7, #4]
 8002120:	210f      	movs	r1, #15
 8002122:	187b      	adds	r3, r7, r1
 8002124:	2200      	movs	r2, #0
 8002126:	701a      	strb	r2, [r3, #0]
 8002128:	687b      	ldr	r3, [r7, #4]
 800212a:	2221      	movs	r2, #33	@ 0x21
 800212c:	5c9b      	ldrb	r3, [r3, r2]
 800212e:	b2db      	uxtb	r3, r3
 8002130:	2b02      	cmp	r3, #2
 8002132:	d006      	beq.n	8002142 <HAL_DMA_Abort_IT+0x2a>
 8002134:	687b      	ldr	r3, [r7, #4]
 8002136:	2204      	movs	r2, #4
 8002138:	639a      	str	r2, [r3, #56]	@ 0x38
 800213a:	187b      	adds	r3, r7, r1
 800213c:	2201      	movs	r2, #1
 800213e:	701a      	strb	r2, [r3, #0]
 8002140:	e028      	b.n	8002194 <HAL_DMA_Abort_IT+0x7c>
 8002142:	687b      	ldr	r3, [r7, #4]
 8002144:	681b      	ldr	r3, [r3, #0]
 8002146:	681a      	ldr	r2, [r3, #0]
 8002148:	687b      	ldr	r3, [r7, #4]
 800214a:	681b      	ldr	r3, [r3, #0]
 800214c:	210e      	movs	r1, #14
 800214e:	438a      	bics	r2, r1
 8002150:	601a      	str	r2, [r3, #0]
 8002152:	687b      	ldr	r3, [r7, #4]
 8002154:	681b      	ldr	r3, [r3, #0]
 8002156:	681a      	ldr	r2, [r3, #0]
 8002158:	687b      	ldr	r3, [r7, #4]
 800215a:	681b      	ldr	r3, [r3, #0]
 800215c:	2101      	movs	r1, #1
 800215e:	438a      	bics	r2, r1
 8002160:	601a      	str	r2, [r3, #0]
 8002162:	687b      	ldr	r3, [r7, #4]
 8002164:	6c1a      	ldr	r2, [r3, #64]	@ 0x40
 8002166:	687b      	ldr	r3, [r7, #4]
 8002168:	6bdb      	ldr	r3, [r3, #60]	@ 0x3c
 800216a:	2101      	movs	r1, #1
 800216c:	4091      	lsls	r1, r2
 800216e:	000a      	movs	r2, r1
 8002170:	605a      	str	r2, [r3, #4]
 8002172:	687b      	ldr	r3, [r7, #4]
 8002174:	2221      	movs	r2, #33	@ 0x21
 8002176:	2101      	movs	r1, #1
 8002178:	5499      	strb	r1, [r3, r2]
 800217a:	687b      	ldr	r3, [r7, #4]
 800217c:	2220      	movs	r2, #32
 800217e:	2100      	movs	r1, #0
 8002180:	5499      	strb	r1, [r3, r2]
 8002182:	687b      	ldr	r3, [r7, #4]
 8002184:	6b5b      	ldr	r3, [r3, #52]	@ 0x34
 8002186:	2b00      	cmp	r3, #0
 8002188:	d004      	beq.n	8002194 <HAL_DMA_Abort_IT+0x7c>
 800218a:	687b      	ldr	r3, [r7, #4]
 800218c:	6b5b      	ldr	r3, [r3, #52]	@ 0x34
 800218e:	687a      	ldr	r2, [r7, #4]
 8002190:	0010      	movs	r0, r2
 8002192:	4798      	blx	r3
 8002194:	230f      	movs	r3, #15
 8002196:	18fb      	adds	r3, r7, r3
 8002198:	781b      	ldrb	r3, [r3, #0]
 800219a:	0018      	movs	r0, r3
 800219c:	46bd      	mov	sp, r7
 800219e:	b004      	add	sp, #16
 80021a0:	bd80      	pop	{r7, pc}

080021a2 <HAL_DMA_IRQHandler>:
 80021a2:	b580      	push	{r7, lr}
 80021a4:	b084      	sub	sp, #16
 80021a6:	af00      	add	r7, sp, #0
 80021a8:	6078      	str	r0, [r7, #4]
 80021aa:	687b      	ldr	r3, [r7, #4]
 80021ac:	6bdb      	ldr	r3, [r3, #60]	@ 0x3c
 80021ae:	681b      	ldr	r3, [r3, #0]
 80021b0:	60fb      	str	r3, [r7, #12]
 80021b2:	687b      	ldr	r3, [r7, #4]
 80021b4:	681b      	ldr	r3, [r3, #0]
 80021b6:	681b      	ldr	r3, [r3, #0]
 80021b8:	60bb      	str	r3, [r7, #8]
 80021ba:	687b      	ldr	r3, [r7, #4]
 80021bc:	6c1b      	ldr	r3, [r3, #64]	@ 0x40
 80021be:	2204      	movs	r2, #4
 80021c0:	409a      	lsls	r2, r3
 80021c2:	0013      	movs	r3, r2
 80021c4:	68fa      	ldr	r2, [r7, #12]
 80021c6:	4013      	ands	r3, r2
 80021c8:	d024      	beq.n	8002214 <HAL_DMA_IRQHandler+0x72>
 80021ca:	68bb      	ldr	r3, [r7, #8]
 80021cc:	2204      	movs	r2, #4
 80021ce:	4013      	ands	r3, r2
 80021d0:	d020      	beq.n	8002214 <HAL_DMA_IRQHandler+0x72>
 80021d2:	687b      	ldr	r3, [r7, #4]
 80021d4:	681b      	ldr	r3, [r3, #0]
 80021d6:	681b      	ldr	r3, [r3, #0]
 80021d8:	2220      	movs	r2, #32
 80021da:	4013      	ands	r3, r2
 80021dc:	d107      	bne.n	80021ee <HAL_DMA_IRQHandler+0x4c>
 80021de:	687b      	ldr	r3, [r7, #4]
 80021e0:	681b      	ldr	r3, [r3, #0]
 80021e2:	681a      	ldr	r2, [r3, #0]
 80021e4:	687b      	ldr	r3, [r7, #4]
 80021e6:	681b      	ldr	r3, [r3, #0]
 80021e8:	2104      	movs	r1, #4
 80021ea:	438a      	bics	r2, r1
 80021ec:	601a      	str	r2, [r3, #0]
 80021ee:	687b      	ldr	r3, [r7, #4]
 80021f0:	6c1a      	ldr	r2, [r3, #64]	@ 0x40
 80021f2:	687b      	ldr	r3, [r7, #4]
 80021f4:	6bdb      	ldr	r3, [r3, #60]	@ 0x3c
 80021f6:	2104      	movs	r1, #4
 80021f8:	4091      	lsls	r1, r2
 80021fa:	000a      	movs	r2, r1
 80021fc:	605a      	str	r2, [r3, #4]
 80021fe:	687b      	ldr	r3, [r7, #4]
 8002200:	6adb      	ldr	r3, [r3, #44]	@ 0x2c
 8002202:	2b00      	cmp	r3, #0
 8002204:	d100      	bne.n	8002208 <HAL_DMA_IRQHandler+0x66>
 8002206:	e06a      	b.n	80022de <HAL_DMA_IRQHandler+0x13c>
 8002208:	687b      	ldr	r3, [r7, #4]
 800220a:	6adb      	ldr	r3, [r3, #44]	@ 0x2c
 800220c:	687a      	ldr	r2, [r7, #4]
 800220e:	0010      	movs	r0, r2
 8002210:	4798      	blx	r3
 8002212:	e064      	b.n	80022de <HAL_DMA_IRQHandler+0x13c>
 8002214:	687b      	ldr	r3, [r7, #4]
 8002216:	6c1b      	ldr	r3, [r3, #64]	@ 0x40
 8002218:	2202      	movs	r2, #2
 800221a:	409a      	lsls	r2, r3
 800221c:	0013      	movs	r3, r2
 800221e:	68fa      	ldr	r2, [r7, #12]
 8002220:	4013      	ands	r3, r2
 8002222:	d02b      	beq.n	800227c <HAL_DMA_IRQHandler+0xda>
 8002224:	68bb      	ldr	r3, [r7, #8]
 8002226:	2202      	movs	r2, #2
 8002228:	4013      	ands	r3, r2
 800222a:	d027      	beq.n	800227c <HAL_DMA_IRQHandler+0xda>
 800222c:	687b      	ldr	r3, [r7, #4]
 800222e:	681b      	ldr	r3, [r3, #0]
 8002230:	681b      	ldr	r3, [r3, #0]
 8002232:	2220      	movs	r2, #32
 8002234:	4013      	ands	r3, r2
 8002236:	d10b      	bne.n	8002250 <HAL_DMA_IRQHandler+0xae>
 8002238:	687b      	ldr	r3, [r7, #4]
 800223a:	681b      	ldr	r3, [r3, #0]
 800223c:	681a      	ldr	r2, [r3, #0]
 800223e:	687b      	ldr	r3, [r7, #4]
 8002240:	681b      	ldr	r3, [r3, #0]
 8002242:	210a      	movs	r1, #10
 8002244:	438a      	bics	r2, r1
 8002246:	601a      	str	r2, [r3, #0]
 8002248:	687b      	ldr	r3, [r7, #4]
 800224a:	2221      	movs	r2, #33	@ 0x21
 800224c:	2101      	movs	r1, #1
 800224e:	5499      	strb	r1, [r3, r2]
 8002250:	687b      	ldr	r3, [r7, #4]
 8002252:	6c1a      	ldr	r2, [r3, #64]	@ 0x40
 8002254:	687b      	ldr	r3, [r7, #4]
 8002256:	6bdb      	ldr	r3, [r3, #60]	@ 0x3c
 8002258:	2102      	movs	r1, #2
 800225a:	4091      	lsls	r1, r2
 800225c:	000a      	movs	r2, r1
 800225e:	605a      	str	r2, [r3, #4]
 8002260:	687b      	ldr	r3, [r7, #4]
 8002262:	2220      	movs	r2, #32
 8002264:	2100      	movs	r1, #0
 8002266:	5499      	strb	r1, [r3, r2]
 8002268:	687b      	ldr	r3, [r7, #4]
 800226a:	6a9b      	ldr	r3, [r3, #40]	@ 0x28
 800226c:	2b00      	cmp	r3, #0
 800226e:	d036      	beq.n	80022de <HAL_DMA_IRQHandler+0x13c>
 8002270:	687b      	ldr	r3, [r7, #4]
 8002272:	6a9b      	ldr	r3, [r3, #40]	@ 0x28
 8002274:	687a      	ldr	r2, [r7, #4]
 8002276:	0010      	movs	r0, r2
 8002278:	4798      	blx	r3
 800227a:	e030      	b.n	80022de <HAL_DMA_IRQHandler+0x13c>
 800227c:	687b      	ldr	r3, [r7, #4]
 800227e:	6c1b      	ldr	r3, [r3, #64]	@ 0x40
 8002280:	2208      	movs	r2, #8
 8002282:	409a      	lsls	r2, r3
 8002284:	0013      	movs	r3, r2
 8002286:	68fa      	ldr	r2, [r7, #12]
 8002288:	4013      	ands	r3, r2
 800228a:	d028      	beq.n	80022de <HAL_DMA_IRQHandler+0x13c>
 800228c:	68bb      	ldr	r3, [r7, #8]
 800228e:	2208      	movs	r2, #8
 8002290:	4013      	ands	r3, r2
 8002292:	d024      	beq.n	80022de <HAL_DMA_IRQHandler+0x13c>
 8002294:	687b      	ldr	r3, [r7, #4]
 8002296:	681b      	ldr	r3, [r3, #0]
 8002298:	681a      	ldr	r2, [r3, #0]
 800229a:	687b      	ldr	r3, [r7, #4]
 800229c:	681b      	ldr	r3, [r3, #0]
 800229e:	210e      	movs	r1, #14
 80022a0:	438a      	bics	r2, r1
 80022a2:	601a      	str	r2, [r3, #0]
 80022a4:	687b      	ldr	r3, [r7, #4]
 80022a6:	6c1a      	ldr	r2, [r3, #64]	@ 0x40
 80022a8:	687b      	ldr	r3, [r7, #4]
 80022aa:	6bdb      	ldr	r3, [r3, #60]	@ 0x3c
 80022ac:	2101      	movs	r1, #1
 80022ae:	4091      	lsls	r1, r2
 80022b0:	000a      	movs	r2, r1
 80022b2:	605a      	str	r2, [r3, #4]
 80022b4:	687b      	ldr	r3, [r7, #4]
 80022b6:	2201      	movs	r2, #1
 80022b8:	639a      	str	r2, [r3, #56]	@ 0x38
 80022ba:	687b      	ldr	r3, [r7, #4]
 80022bc:	2221      	movs	r2, #33	@ 0x21
 80022be:	2101      	movs	r1, #1
 80022c0:	5499      	strb	r1, [r3, r2]
 80022c2:	687b      	ldr	r3, [r7, #4]
 80022c4:	2220      	movs	r2, #32
 80022c6:	2100      	movs	r1, #0
 80022c8:	5499      	strb	r1, [r3, r2]
 80022ca:	687b      	ldr	r3, [r7, #4]
 80022cc:	6b1b      	ldr	r3, [r3, #48]	@ 0x30
 80022ce:	2b00      	cmp	r3, #0
 80022d0:	d005      	beq.n	80022de <HAL_DMA_IRQHandler+0x13c>
 80022d2:	687b      	ldr	r3, [r7, #4]
 80022d4:	6b1b      	ldr	r3, [r3, #48]	@ 0x30
 80022d6:	687a      	ldr	r2, [r7, #4]
 80022d8:	0010      	movs	r0, r2
 80022da:	4798      	blx	r3
 80022dc:	e7ff      	b.n	80022de <HAL_DMA_IRQHandler+0x13c>
 80022de:	46c0      	nop			@ (mov r8, r8)
 80022e0:	46bd      	mov	sp, r7
 80022e2:	b004      	add	sp, #16
 80022e4:	bd80      	pop	{r7, pc}
	...

080022e8 <DMA_CalcBaseAndBitshift>:
 80022e8:	b580      	push	{r7, lr}
 80022ea:	b082      	sub	sp, #8
 80022ec:	af00      	add	r7, sp, #0
 80022ee:	6078      	str	r0, [r7, #4]
 80022f0:	687b      	ldr	r3, [r7, #4]
 80022f2:	681b      	ldr	r3, [r3, #0]
 80022f4:	4a08      	ldr	r2, [pc, #32]	@ (8002318 <DMA_CalcBaseAndBitshift+0x30>)
 80022f6:	4694      	mov	ip, r2
 80022f8:	4463      	add	r3, ip
 80022fa:	2114      	movs	r1, #20
 80022fc:	0018      	movs	r0, r3
 80022fe:	f7fd ff0b 	bl	8000118 <__udivsi3>
 8002302:	0003      	movs	r3, r0
 8002304:	009a      	lsls	r2, r3, #2
 8002306:	687b      	ldr	r3, [r7, #4]
 8002308:	641a      	str	r2, [r3, #64]	@ 0x40
 800230a:	687b      	ldr	r3, [r7, #4]
 800230c:	4a03      	ldr	r2, [pc, #12]	@ (800231c <DMA_CalcBaseAndBitshift+0x34>)
 800230e:	63da      	str	r2, [r3, #60]	@ 0x3c
 8002310:	46c0      	nop			@ (mov r8, r8)
 8002312:	46bd      	mov	sp, r7
 8002314:	b002      	add	sp, #8
 8002316:	bd80      	pop	{r7, pc}
 8002318:	bffdfff8 	.word	0xbffdfff8
 800231c:	40020000 	.word	0x40020000

08002320 <HAL_GPIO_Init>:
 8002320:	b580      	push	{r7, lr}
 8002322:	b086      	sub	sp, #24
 8002324:	af00      	add	r7, sp, #0
 8002326:	6078      	str	r0, [r7, #4]
 8002328:	6039      	str	r1, [r7, #0]
 800232a:	2300      	movs	r3, #0
 800232c:	617b      	str	r3, [r7, #20]
 800232e:	e14f      	b.n	80025d0 <HAL_GPIO_Init+0x2b0>
 8002330:	683b      	ldr	r3, [r7, #0]
 8002332:	681b      	ldr	r3, [r3, #0]
 8002334:	2101      	movs	r1, #1
 8002336:	697a      	ldr	r2, [r7, #20]
 8002338:	4091      	lsls	r1, r2
 800233a:	000a      	movs	r2, r1
 800233c:	4013      	ands	r3, r2
 800233e:	60fb      	str	r3, [r7, #12]
 8002340:	68fb      	ldr	r3, [r7, #12]
 8002342:	2b00      	cmp	r3, #0
 8002344:	d100      	bne.n	8002348 <HAL_GPIO_Init+0x28>
 8002346:	e140      	b.n	80025ca <HAL_GPIO_Init+0x2aa>
 8002348:	683b      	ldr	r3, [r7, #0]
 800234a:	685b      	ldr	r3, [r3, #4]
 800234c:	2203      	movs	r2, #3
 800234e:	4013      	ands	r3, r2
 8002350:	2b01      	cmp	r3, #1
 8002352:	d005      	beq.n	8002360 <HAL_GPIO_Init+0x40>
 8002354:	683b      	ldr	r3, [r7, #0]
 8002356:	685b      	ldr	r3, [r3, #4]
 8002358:	2203      	movs	r2, #3
 800235a:	4013      	ands	r3, r2
 800235c:	2b02      	cmp	r3, #2
 800235e:	d130      	bne.n	80023c2 <HAL_GPIO_Init+0xa2>
 8002360:	687b      	ldr	r3, [r7, #4]
 8002362:	689b      	ldr	r3, [r3, #8]
 8002364:	613b      	str	r3, [r7, #16]
 8002366:	697b      	ldr	r3, [r7, #20]
 8002368:	005b      	lsls	r3, r3, #1
 800236a:	2203      	movs	r2, #3
 800236c:	409a      	lsls	r2, r3
 800236e:	0013      	movs	r3, r2
 8002370:	43da      	mvns	r2, r3
 8002372:	693b      	ldr	r3, [r7, #16]
 8002374:	4013      	ands	r3, r2
 8002376:	613b      	str	r3, [r7, #16]
 8002378:	683b      	ldr	r3, [r7, #0]
 800237a:	68da      	ldr	r2, [r3, #12]
 800237c:	697b      	ldr	r3, [r7, #20]
 800237e:	005b      	lsls	r3, r3, #1
 8002380:	409a      	lsls	r2, r3
 8002382:	0013      	movs	r3, r2
 8002384:	693a      	ldr	r2, [r7, #16]
 8002386:	4313      	orrs	r3, r2
 8002388:	613b      	str	r3, [r7, #16]
 800238a:	687b      	ldr	r3, [r7, #4]
 800238c:	693a      	ldr	r2, [r7, #16]
 800238e:	609a      	str	r2, [r3, #8]
 8002390:	687b      	ldr	r3, [r7, #4]
 8002392:	685b      	ldr	r3, [r3, #4]
 8002394:	613b      	str	r3, [r7, #16]
 8002396:	2201      	movs	r2, #1
 8002398:	697b      	ldr	r3, [r7, #20]
 800239a:	409a      	lsls	r2, r3
 800239c:	0013      	movs	r3, r2
 800239e:	43da      	mvns	r2, r3
 80023a0:	693b      	ldr	r3, [r7, #16]
 80023a2:	4013      	ands	r3, r2
 80023a4:	613b      	str	r3, [r7, #16]
 80023a6:	683b      	ldr	r3, [r7, #0]
 80023a8:	685b      	ldr	r3, [r3, #4]
 80023aa:	091b      	lsrs	r3, r3, #4
 80023ac:	2201      	movs	r2, #1
 80023ae:	401a      	ands	r2, r3
 80023b0:	697b      	ldr	r3, [r7, #20]
 80023b2:	409a      	lsls	r2, r3
 80023b4:	0013      	movs	r3, r2
 80023b6:	693a      	ldr	r2, [r7, #16]
 80023b8:	4313      	orrs	r3, r2
 80023ba:	613b      	str	r3, [r7, #16]
 80023bc:	687b      	ldr	r3, [r7, #4]
 80023be:	693a      	ldr	r2, [r7, #16]
 80023c0:	605a      	str	r2, [r3, #4]
 80023c2:	683b      	ldr	r3, [r7, #0]
 80023c4:	685b      	ldr	r3, [r3, #4]
 80023c6:	2203      	movs	r2, #3
 80023c8:	4013      	ands	r3, r2
 80023ca:	2b03      	cmp	r3, #3
 80023cc:	d017      	beq.n	80023fe <HAL_GPIO_Init+0xde>
 80023ce:	687b      	ldr	r3, [r7, #4]
 80023d0:	68db      	ldr	r3, [r3, #12]
 80023d2:	613b      	str	r3, [r7, #16]
 80023d4:	697b      	ldr	r3, [r7, #20]
 80023d6:	005b      	lsls	r3, r3, #1
 80023d8:	2203      	movs	r2, #3
 80023da:	409a      	lsls	r2, r3
 80023dc:	0013      	movs	r3, r2
 80023de:	43da      	mvns	r2, r3
 80023e0:	693b      	ldr	r3, [r7, #16]
 80023e2:	4013      	ands	r3, r2
 80023e4:	613b      	str	r3, [r7, #16]
 80023e6:	683b      	ldr	r3, [r7, #0]
 80023e8:	689a      	ldr	r2, [r3, #8]
 80023ea:	697b      	ldr	r3, [r7, #20]
 80023ec:	005b      	lsls	r3, r3, #1
 80023ee:	409a      	lsls	r2, r3
 80023f0:	0013      	movs	r3, r2
 80023f2:	693a      	ldr	r2, [r7, #16]
 80023f4:	4313      	orrs	r3, r2
 80023f6:	613b      	str	r3, [r7, #16]
 80023f8:	687b      	ldr	r3, [r7, #4]
 80023fa:	693a      	ldr	r2, [r7, #16]
 80023fc:	60da      	str	r2, [r3, #12]
 80023fe:	683b      	ldr	r3, [r7, #0]
 8002400:	685b      	ldr	r3, [r3, #4]
 8002402:	2203      	movs	r2, #3
 8002404:	4013      	ands	r3, r2
 8002406:	2b02      	cmp	r3, #2
 8002408:	d123      	bne.n	8002452 <HAL_GPIO_Init+0x132>
 800240a:	697b      	ldr	r3, [r7, #20]
 800240c:	08da      	lsrs	r2, r3, #3
 800240e:	687b      	ldr	r3, [r7, #4]
 8002410:	3208      	adds	r2, #8
 8002412:	0092      	lsls	r2, r2, #2
 8002414:	58d3      	ldr	r3, [r2, r3]
 8002416:	613b      	str	r3, [r7, #16]
 8002418:	697b      	ldr	r3, [r7, #20]
 800241a:	2207      	movs	r2, #7
 800241c:	4013      	ands	r3, r2
 800241e:	009b      	lsls	r3, r3, #2
 8002420:	220f      	movs	r2, #15
 8002422:	409a      	lsls	r2, r3
 8002424:	0013      	movs	r3, r2
 8002426:	43da      	mvns	r2, r3
 8002428:	693b      	ldr	r3, [r7, #16]
 800242a:	4013      	ands	r3, r2
 800242c:	613b      	str	r3, [r7, #16]
 800242e:	683b      	ldr	r3, [r7, #0]
 8002430:	691a      	ldr	r2, [r3, #16]
 8002432:	697b      	ldr	r3, [r7, #20]
 8002434:	2107      	movs	r1, #7
 8002436:	400b      	ands	r3, r1
 8002438:	009b      	lsls	r3, r3, #2
 800243a:	409a      	lsls	r2, r3
 800243c:	0013      	movs	r3, r2
 800243e:	693a      	ldr	r2, [r7, #16]
 8002440:	4313      	orrs	r3, r2
 8002442:	613b      	str	r3, [r7, #16]
 8002444:	697b      	ldr	r3, [r7, #20]
 8002446:	08da      	lsrs	r2, r3, #3
 8002448:	687b      	ldr	r3, [r7, #4]
 800244a:	3208      	adds	r2, #8
 800244c:	0092      	lsls	r2, r2, #2
 800244e:	6939      	ldr	r1, [r7, #16]
 8002450:	50d1      	str	r1, [r2, r3]
 8002452:	687b      	ldr	r3, [r7, #4]
 8002454:	681b      	ldr	r3, [r3, #0]
 8002456:	613b      	str	r3, [r7, #16]
 8002458:	697b      	ldr	r3, [r7, #20]
 800245a:	005b      	lsls	r3, r3, #1
 800245c:	2203      	movs	r2, #3
 800245e:	409a      	lsls	r2, r3
 8002460:	0013      	movs	r3, r2
 8002462:	43da      	mvns	r2, r3
 8002464:	693b      	ldr	r3, [r7, #16]
 8002466:	4013      	ands	r3, r2
 8002468:	613b      	str	r3, [r7, #16]
 800246a:	683b      	ldr	r3, [r7, #0]
 800246c:	685b      	ldr	r3, [r3, #4]
 800246e:	2203      	movs	r2, #3
 8002470:	401a      	ands	r2, r3
 8002472:	697b      	ldr	r3, [r7, #20]
 8002474:	005b      	lsls	r3, r3, #1
 8002476:	409a      	lsls	r2, r3
 8002478:	0013      	movs	r3, r2
 800247a:	693a      	ldr	r2, [r7, #16]
 800247c:	4313      	orrs	r3, r2
 800247e:	613b      	str	r3, [r7, #16]
 8002480:	687b      	ldr	r3, [r7, #4]
 8002482:	693a      	ldr	r2, [r7, #16]
 8002484:	601a      	str	r2, [r3, #0]
 8002486:	683b      	ldr	r3, [r7, #0]
 8002488:	685a      	ldr	r2, [r3, #4]
 800248a:	23c0      	movs	r3, #192	@ 0xc0
 800248c:	029b      	lsls	r3, r3, #10
 800248e:	4013      	ands	r3, r2
 8002490:	d100      	bne.n	8002494 <HAL_GPIO_Init+0x174>
 8002492:	e09a      	b.n	80025ca <HAL_GPIO_Init+0x2aa>
 8002494:	4b54      	ldr	r3, [pc, #336]	@ (80025e8 <HAL_GPIO_Init+0x2c8>)
 8002496:	699a      	ldr	r2, [r3, #24]
 8002498:	4b53      	ldr	r3, [pc, #332]	@ (80025e8 <HAL_GPIO_Init+0x2c8>)
 800249a:	2101      	movs	r1, #1
 800249c:	430a      	orrs	r2, r1
 800249e:	619a      	str	r2, [r3, #24]
 80024a0:	4b51      	ldr	r3, [pc, #324]	@ (80025e8 <HAL_GPIO_Init+0x2c8>)
 80024a2:	699b      	ldr	r3, [r3, #24]
 80024a4:	2201      	movs	r2, #1
 80024a6:	4013      	ands	r3, r2
 80024a8:	60bb      	str	r3, [r7, #8]
 80024aa:	68bb      	ldr	r3, [r7, #8]
 80024ac:	4a4f      	ldr	r2, [pc, #316]	@ (80025ec <HAL_GPIO_Init+0x2cc>)
 80024ae:	697b      	ldr	r3, [r7, #20]
 80024b0:	089b      	lsrs	r3, r3, #2
 80024b2:	3302      	adds	r3, #2
 80024b4:	009b      	lsls	r3, r3, #2
 80024b6:	589b      	ldr	r3, [r3, r2]
 80024b8:	613b      	str	r3, [r7, #16]
 80024ba:	697b      	ldr	r3, [r7, #20]
 80024bc:	2203      	movs	r2, #3
 80024be:	4013      	ands	r3, r2
 80024c0:	009b      	lsls	r3, r3, #2
 80024c2:	220f      	movs	r2, #15
 80024c4:	409a      	lsls	r2, r3
 80024c6:	0013      	movs	r3, r2
 80024c8:	43da      	mvns	r2, r3
 80024ca:	693b      	ldr	r3, [r7, #16]
 80024cc:	4013      	ands	r3, r2
 80024ce:	613b      	str	r3, [r7, #16]
 80024d0:	687a      	ldr	r2, [r7, #4]
 80024d2:	2390      	movs	r3, #144	@ 0x90
 80024d4:	05db      	lsls	r3, r3, #23
 80024d6:	429a      	cmp	r2, r3
 80024d8:	d013      	beq.n	8002502 <HAL_GPIO_Init+0x1e2>
 80024da:	687b      	ldr	r3, [r7, #4]
 80024dc:	4a44      	ldr	r2, [pc, #272]	@ (80025f0 <HAL_GPIO_Init+0x2d0>)
 80024de:	4293      	cmp	r3, r2
 80024e0:	d00d      	beq.n	80024fe <HAL_GPIO_Init+0x1de>
 80024e2:	687b      	ldr	r3, [r7, #4]
 80024e4:	4a43      	ldr	r2, [pc, #268]	@ (80025f4 <HAL_GPIO_Init+0x2d4>)
 80024e6:	4293      	cmp	r3, r2
 80024e8:	d007      	beq.n	80024fa <HAL_GPIO_Init+0x1da>
 80024ea:	687b      	ldr	r3, [r7, #4]
 80024ec:	4a42      	ldr	r2, [pc, #264]	@ (80025f8 <HAL_GPIO_Init+0x2d8>)
 80024ee:	4293      	cmp	r3, r2
 80024f0:	d101      	bne.n	80024f6 <HAL_GPIO_Init+0x1d6>
 80024f2:	2303      	movs	r3, #3
 80024f4:	e006      	b.n	8002504 <HAL_GPIO_Init+0x1e4>
 80024f6:	2305      	movs	r3, #5
 80024f8:	e004      	b.n	8002504 <HAL_GPIO_Init+0x1e4>
 80024fa:	2302      	movs	r3, #2
 80024fc:	e002      	b.n	8002504 <HAL_GPIO_Init+0x1e4>
 80024fe:	2301      	movs	r3, #1
 8002500:	e000      	b.n	8002504 <HAL_GPIO_Init+0x1e4>
 8002502:	2300      	movs	r3, #0
 8002504:	697a      	ldr	r2, [r7, #20]
 8002506:	2103      	movs	r1, #3
 8002508:	400a      	ands	r2, r1
 800250a:	0092      	lsls	r2, r2, #2
 800250c:	4093      	lsls	r3, r2
 800250e:	693a      	ldr	r2, [r7, #16]
 8002510:	4313      	orrs	r3, r2
 8002512:	613b      	str	r3, [r7, #16]
 8002514:	4935      	ldr	r1, [pc, #212]	@ (80025ec <HAL_GPIO_Init+0x2cc>)
 8002516:	697b      	ldr	r3, [r7, #20]
 8002518:	089b      	lsrs	r3, r3, #2
 800251a:	3302      	adds	r3, #2
 800251c:	009b      	lsls	r3, r3, #2
 800251e:	693a      	ldr	r2, [r7, #16]
 8002520:	505a      	str	r2, [r3, r1]
 8002522:	4b36      	ldr	r3, [pc, #216]	@ (80025fc <HAL_GPIO_Init+0x2dc>)
 8002524:	689b      	ldr	r3, [r3, #8]
 8002526:	613b      	str	r3, [r7, #16]
 8002528:	68fb      	ldr	r3, [r7, #12]
 800252a:	43da      	mvns	r2, r3
 800252c:	693b      	ldr	r3, [r7, #16]
 800252e:	4013      	ands	r3, r2
 8002530:	613b      	str	r3, [r7, #16]
 8002532:	683b      	ldr	r3, [r7, #0]
 8002534:	685a      	ldr	r2, [r3, #4]
 8002536:	2380      	movs	r3, #128	@ 0x80
 8002538:	035b      	lsls	r3, r3, #13
 800253a:	4013      	ands	r3, r2
 800253c:	d003      	beq.n	8002546 <HAL_GPIO_Init+0x226>
 800253e:	693a      	ldr	r2, [r7, #16]
 8002540:	68fb      	ldr	r3, [r7, #12]
 8002542:	4313      	orrs	r3, r2
 8002544:	613b      	str	r3, [r7, #16]
 8002546:	4b2d      	ldr	r3, [pc, #180]	@ (80025fc <HAL_GPIO_Init+0x2dc>)
 8002548:	693a      	ldr	r2, [r7, #16]
 800254a:	609a      	str	r2, [r3, #8]
 800254c:	4b2b      	ldr	r3, [pc, #172]	@ (80025fc <HAL_GPIO_Init+0x2dc>)
 800254e:	68db      	ldr	r3, [r3, #12]
 8002550:	613b      	str	r3, [r7, #16]
 8002552:	68fb      	ldr	r3, [r7, #12]
 8002554:	43da      	mvns	r2, r3
 8002556:	693b      	ldr	r3, [r7, #16]
 8002558:	4013      	ands	r3, r2
 800255a:	613b      	str	r3, [r7, #16]
 800255c:	683b      	ldr	r3, [r7, #0]
 800255e:	685a      	ldr	r2, [r3, #4]
 8002560:	2380      	movs	r3, #128	@ 0x80
 8002562:	039b      	lsls	r3, r3, #14
 8002564:	4013      	ands	r3, r2
 8002566:	d003      	beq.n	8002570 <HAL_GPIO_Init+0x250>
 8002568:	693a      	ldr	r2, [r7, #16]
 800256a:	68fb      	ldr	r3, [r7, #12]
 800256c:	4313      	orrs	r3, r2
 800256e:	613b      	str	r3, [r7, #16]
 8002570:	4b22      	ldr	r3, [pc, #136]	@ (80025fc <HAL_GPIO_Init+0x2dc>)
 8002572:	693a      	ldr	r2, [r7, #16]
 8002574:	60da      	str	r2, [r3, #12]
 8002576:	4b21      	ldr	r3, [pc, #132]	@ (80025fc <HAL_GPIO_Init+0x2dc>)
 8002578:	685b      	ldr	r3, [r3, #4]
 800257a:	613b      	str	r3, [r7, #16]
 800257c:	68fb      	ldr	r3, [r7, #12]
 800257e:	43da      	mvns	r2, r3
 8002580:	693b      	ldr	r3, [r7, #16]
 8002582:	4013      	ands	r3, r2
 8002584:	613b      	str	r3, [r7, #16]
 8002586:	683b      	ldr	r3, [r7, #0]
 8002588:	685a      	ldr	r2, [r3, #4]
 800258a:	2380      	movs	r3, #128	@ 0x80
 800258c:	029b      	lsls	r3, r3, #10
 800258e:	4013      	ands	r3, r2
 8002590:	d003      	beq.n	800259a <HAL_GPIO_Init+0x27a>
 8002592:	693a      	ldr	r2, [r7, #16]
 8002594:	68fb      	ldr	r3, [r7, #12]
 8002596:	4313      	orrs	r3, r2
 8002598:	613b      	str	r3, [r7, #16]
 800259a:	4b18      	ldr	r3, [pc, #96]	@ (80025fc <HAL_GPIO_Init+0x2dc>)
 800259c:	693a      	ldr	r2, [r7, #16]
 800259e:	605a      	str	r2, [r3, #4]
 80025a0:	4b16      	ldr	r3, [pc, #88]	@ (80025fc <HAL_GPIO_Init+0x2dc>)
 80025a2:	681b      	ldr	r3, [r3, #0]
 80025a4:	613b      	str	r3, [r7, #16]
 80025a6:	68fb      	ldr	r3, [r7, #12]
 80025a8:	43da      	mvns	r2, r3
 80025aa:	693b      	ldr	r3, [r7, #16]
 80025ac:	4013      	ands	r3, r2
 80025ae:	613b      	str	r3, [r7, #16]
 80025b0:	683b      	ldr	r3, [r7, #0]
 80025b2:	685a      	ldr	r2, [r3, #4]
 80025b4:	2380      	movs	r3, #128	@ 0x80
 80025b6:	025b      	lsls	r3, r3, #9
 80025b8:	4013      	ands	r3, r2
 80025ba:	d003      	beq.n	80025c4 <HAL_GPIO_Init+0x2a4>
 80025bc:	693a      	ldr	r2, [r7, #16]
 80025be:	68fb      	ldr	r3, [r7, #12]
 80025c0:	4313      	orrs	r3, r2
 80025c2:	613b      	str	r3, [r7, #16]
 80025c4:	4b0d      	ldr	r3, [pc, #52]	@ (80025fc <HAL_GPIO_Init+0x2dc>)
 80025c6:	693a      	ldr	r2, [r7, #16]
 80025c8:	601a      	str	r2, [r3, #0]
 80025ca:	697b      	ldr	r3, [r7, #20]
 80025cc:	3301      	adds	r3, #1
 80025ce:	617b      	str	r3, [r7, #20]
 80025d0:	683b      	ldr	r3, [r7, #0]
 80025d2:	681a      	ldr	r2, [r3, #0]
 80025d4:	697b      	ldr	r3, [r7, #20]
 80025d6:	40da      	lsrs	r2, r3
 80025d8:	1e13      	subs	r3, r2, #0
 80025da:	d000      	beq.n	80025de <HAL_GPIO_Init+0x2be>
 80025dc:	e6a8      	b.n	8002330 <HAL_GPIO_Init+0x10>
 80025de:	46c0      	nop			@ (mov r8, r8)
 80025e0:	46c0      	nop			@ (mov r8, r8)
 80025e2:	46bd      	mov	sp, r7
 80025e4:	b006      	add	sp, #24
 80025e6:	bd80      	pop	{r7, pc}
 80025e8:	40021000 	.word	0x40021000
 80025ec:	40010000 	.word	0x40010000
 80025f0:	48000400 	.word	0x48000400
 80025f4:	48000800 	.word	0x48000800
 80025f8:	48000c00 	.word	0x48000c00
 80025fc:	40010400 	.word	0x40010400

08002600 <HAL_GPIO_ReadPin>:
 8002600:	b580      	push	{r7, lr}
 8002602:	b084      	sub	sp, #16
 8002604:	af00      	add	r7, sp, #0
 8002606:	6078      	str	r0, [r7, #4]
 8002608:	000a      	movs	r2, r1
 800260a:	1cbb      	adds	r3, r7, #2
 800260c:	801a      	strh	r2, [r3, #0]
 800260e:	687b      	ldr	r3, [r7, #4]
 8002610:	691b      	ldr	r3, [r3, #16]
 8002612:	1cba      	adds	r2, r7, #2
 8002614:	8812      	ldrh	r2, [r2, #0]
 8002616:	4013      	ands	r3, r2
 8002618:	d004      	beq.n	8002624 <HAL_GPIO_ReadPin+0x24>
 800261a:	230f      	movs	r3, #15
 800261c:	18fb      	adds	r3, r7, r3
 800261e:	2201      	movs	r2, #1
 8002620:	701a      	strb	r2, [r3, #0]
 8002622:	e003      	b.n	800262c <HAL_GPIO_ReadPin+0x2c>
 8002624:	230f      	movs	r3, #15
 8002626:	18fb      	adds	r3, r7, r3
 8002628:	2200      	movs	r2, #0
 800262a:	701a      	strb	r2, [r3, #0]
 800262c:	230f      	movs	r3, #15
 800262e:	18fb      	adds	r3, r7, r3
 8002630:	781b      	ldrb	r3, [r3, #0]
 8002632:	0018      	movs	r0, r3
 8002634:	46bd      	mov	sp, r7
 8002636:	b004      	add	sp, #16
 8002638:	bd80      	pop	{r7, pc}

0800263a <HAL_GPIO_WritePin>:
 800263a:	b580      	push	{r7, lr}
 800263c:	b082      	sub	sp, #8
 800263e:	af00      	add	r7, sp, #0
 8002640:	6078      	str	r0, [r7, #4]
 8002642:	0008      	movs	r0, r1
 8002644:	0011      	movs	r1, r2
 8002646:	1cbb      	adds	r3, r7, #2
 8002648:	1c02      	adds	r2, r0, #0
 800264a:	801a      	strh	r2, [r3, #0]
 800264c:	1c7b      	adds	r3, r7, #1
 800264e:	1c0a      	adds	r2, r1, #0
 8002650:	701a      	strb	r2, [r3, #0]
 8002652:	1c7b      	adds	r3, r7, #1
 8002654:	781b      	ldrb	r3, [r3, #0]
 8002656:	2b00      	cmp	r3, #0
 8002658:	d004      	beq.n	8002664 <HAL_GPIO_WritePin+0x2a>
 800265a:	1cbb      	adds	r3, r7, #2
 800265c:	881a      	ldrh	r2, [r3, #0]
 800265e:	687b      	ldr	r3, [r7, #4]
 8002660:	619a      	str	r2, [r3, #24]
 8002662:	e003      	b.n	800266c <HAL_GPIO_WritePin+0x32>
 8002664:	1cbb      	adds	r3, r7, #2
 8002666:	881a      	ldrh	r2, [r3, #0]
 8002668:	687b      	ldr	r3, [r7, #4]
 800266a:	629a      	str	r2, [r3, #40]	@ 0x28
 800266c:	46c0      	nop			@ (mov r8, r8)
 800266e:	46bd      	mov	sp, r7
 8002670:	b002      	add	sp, #8
 8002672:	bd80      	pop	{r7, pc}

08002674 <HAL_GPIO_TogglePin>:
 8002674:	b580      	push	{r7, lr}
 8002676:	b084      	sub	sp, #16
 8002678:	af00      	add	r7, sp, #0
 800267a:	6078      	str	r0, [r7, #4]
 800267c:	000a      	movs	r2, r1
 800267e:	1cbb      	adds	r3, r7, #2
 8002680:	801a      	strh	r2, [r3, #0]
 8002682:	687b      	ldr	r3, [r7, #4]
 8002684:	695b      	ldr	r3, [r3, #20]
 8002686:	60fb      	str	r3, [r7, #12]
 8002688:	1cbb      	adds	r3, r7, #2
 800268a:	881b      	ldrh	r3, [r3, #0]
 800268c:	68fa      	ldr	r2, [r7, #12]
 800268e:	4013      	ands	r3, r2
 8002690:	041a      	lsls	r2, r3, #16
 8002692:	68fb      	ldr	r3, [r7, #12]
 8002694:	43db      	mvns	r3, r3
 8002696:	1cb9      	adds	r1, r7, #2
 8002698:	8809      	ldrh	r1, [r1, #0]
 800269a:	400b      	ands	r3, r1
 800269c:	431a      	orrs	r2, r3
 800269e:	687b      	ldr	r3, [r7, #4]
 80026a0:	619a      	str	r2, [r3, #24]
 80026a2:	46c0      	nop			@ (mov r8, r8)
 80026a4:	46bd      	mov	sp, r7
 80026a6:	b004      	add	sp, #16
 80026a8:	bd80      	pop	{r7, pc}
	...

080026ac <HAL_GPIO_EXTI_IRQHandler>:
 80026ac:	b580      	push	{r7, lr}
 80026ae:	b082      	sub	sp, #8
 80026b0:	af00      	add	r7, sp, #0
 80026b2:	0002      	movs	r2, r0
 80026b4:	1dbb      	adds	r3, r7, #6
 80026b6:	801a      	strh	r2, [r3, #0]
 80026b8:	4b09      	ldr	r3, [pc, #36]	@ (80026e0 <HAL_GPIO_EXTI_IRQHandler+0x34>)
 80026ba:	695b      	ldr	r3, [r3, #20]
 80026bc:	1dba      	adds	r2, r7, #6
 80026be:	8812      	ldrh	r2, [r2, #0]
 80026c0:	4013      	ands	r3, r2
 80026c2:	d008      	beq.n	80026d6 <HAL_GPIO_EXTI_IRQHandler+0x2a>
 80026c4:	4b06      	ldr	r3, [pc, #24]	@ (80026e0 <HAL_GPIO_EXTI_IRQHandler+0x34>)
 80026c6:	1dba      	adds	r2, r7, #6
 80026c8:	8812      	ldrh	r2, [r2, #0]
 80026ca:	615a      	str	r2, [r3, #20]
 80026cc:	1dbb      	adds	r3, r7, #6
 80026ce:	881b      	ldrh	r3, [r3, #0]
 80026d0:	0018      	movs	r0, r3
 80026d2:	f000 f807 	bl	80026e4 <HAL_GPIO_EXTI_Callback>
 80026d6:	46c0      	nop			@ (mov r8, r8)
 80026d8:	46bd      	mov	sp, r7
 80026da:	b002      	add	sp, #8
 80026dc:	bd80      	pop	{r7, pc}
 80026de:	46c0      	nop			@ (mov r8, r8)
 80026e0:	40010400 	.word	0x40010400

080026e4 <HAL_GPIO_EXTI_Callback>:
 80026e4:	b580      	push	{r7, lr}
 80026e6:	b082      	sub	sp, #8
 80026e8:	af00      	add	r7, sp, #0
 80026ea:	0002      	movs	r2, r0
 80026ec:	1dbb      	adds	r3, r7, #6
 80026ee:	801a      	strh	r2, [r3, #0]
 80026f0:	46c0      	nop			@ (mov r8, r8)
 80026f2:	46bd      	mov	sp, r7
 80026f4:	b002      	add	sp, #8
 80026f6:	bd80      	pop	{r7, pc}

080026f8 <HAL_IWDG_Init>:
 80026f8:	b580      	push	{r7, lr}
 80026fa:	b084      	sub	sp, #16
 80026fc:	af00      	add	r7, sp, #0
 80026fe:	6078      	str	r0, [r7, #4]
 8002700:	687b      	ldr	r3, [r7, #4]
 8002702:	2b00      	cmp	r3, #0
 8002704:	d101      	bne.n	800270a <HAL_IWDG_Init+0x12>
 8002706:	2301      	movs	r3, #1
 8002708:	e03d      	b.n	8002786 <HAL_IWDG_Init+0x8e>
 800270a:	687b      	ldr	r3, [r7, #4]
 800270c:	681b      	ldr	r3, [r3, #0]
 800270e:	4a20      	ldr	r2, [pc, #128]	@ (8002790 <HAL_IWDG_Init+0x98>)
 8002710:	601a      	str	r2, [r3, #0]
 8002712:	687b      	ldr	r3, [r7, #4]
 8002714:	681b      	ldr	r3, [r3, #0]
 8002716:	4a1f      	ldr	r2, [pc, #124]	@ (8002794 <HAL_IWDG_Init+0x9c>)
 8002718:	601a      	str	r2, [r3, #0]
 800271a:	687b      	ldr	r3, [r7, #4]
 800271c:	681b      	ldr	r3, [r3, #0]
 800271e:	687a      	ldr	r2, [r7, #4]
 8002720:	6852      	ldr	r2, [r2, #4]
 8002722:	605a      	str	r2, [r3, #4]
 8002724:	687b      	ldr	r3, [r7, #4]
 8002726:	681b      	ldr	r3, [r3, #0]
 8002728:	687a      	ldr	r2, [r7, #4]
 800272a:	6892      	ldr	r2, [r2, #8]
 800272c:	609a      	str	r2, [r3, #8]
 800272e:	f7ff fb67 	bl	8001e00 <HAL_GetTick>
 8002732:	0003      	movs	r3, r0
 8002734:	60fb      	str	r3, [r7, #12]
 8002736:	e00e      	b.n	8002756 <HAL_IWDG_Init+0x5e>
 8002738:	f7ff fb62 	bl	8001e00 <HAL_GetTick>
 800273c:	0002      	movs	r2, r0
 800273e:	68fb      	ldr	r3, [r7, #12]
 8002740:	1ad3      	subs	r3, r2, r3
 8002742:	2b27      	cmp	r3, #39	@ 0x27
 8002744:	d907      	bls.n	8002756 <HAL_IWDG_Init+0x5e>
 8002746:	687b      	ldr	r3, [r7, #4]
 8002748:	681b      	ldr	r3, [r3, #0]
 800274a:	68db      	ldr	r3, [r3, #12]
 800274c:	2207      	movs	r2, #7
 800274e:	4013      	ands	r3, r2
 8002750:	d001      	beq.n	8002756 <HAL_IWDG_Init+0x5e>
 8002752:	2303      	movs	r3, #3
 8002754:	e017      	b.n	8002786 <HAL_IWDG_Init+0x8e>
 8002756:	687b      	ldr	r3, [r7, #4]
 8002758:	681b      	ldr	r3, [r3, #0]
 800275a:	68db      	ldr	r3, [r3, #12]
 800275c:	2207      	movs	r2, #7
 800275e:	4013      	ands	r3, r2
 8002760:	d1ea      	bne.n	8002738 <HAL_IWDG_Init+0x40>
 8002762:	687b      	ldr	r3, [r7, #4]
 8002764:	681b      	ldr	r3, [r3, #0]
 8002766:	691a      	ldr	r2, [r3, #16]
 8002768:	687b      	ldr	r3, [r7, #4]
 800276a:	68db      	ldr	r3, [r3, #12]
 800276c:	429a      	cmp	r2, r3
 800276e:	d005      	beq.n	800277c <HAL_IWDG_Init+0x84>
 8002770:	687b      	ldr	r3, [r7, #4]
 8002772:	681b      	ldr	r3, [r3, #0]
 8002774:	687a      	ldr	r2, [r7, #4]
 8002776:	68d2      	ldr	r2, [r2, #12]
 8002778:	611a      	str	r2, [r3, #16]
 800277a:	e003      	b.n	8002784 <HAL_IWDG_Init+0x8c>
 800277c:	687b      	ldr	r3, [r7, #4]
 800277e:	681b      	ldr	r3, [r3, #0]
 8002780:	4a05      	ldr	r2, [pc, #20]	@ (8002798 <HAL_IWDG_Init+0xa0>)
 8002782:	601a      	str	r2, [r3, #0]
 8002784:	2300      	movs	r3, #0
 8002786:	0018      	movs	r0, r3
 8002788:	46bd      	mov	sp, r7
 800278a:	b004      	add	sp, #16
 800278c:	bd80      	pop	{r7, pc}
 800278e:	46c0      	nop			@ (mov r8, r8)
 8002790:	0000cccc 	.word	0x0000cccc
 8002794:	00005555 	.word	0x00005555
 8002798:	0000aaaa 	.word	0x0000aaaa

0800279c <HAL_IWDG_Refresh>:
 800279c:	b580      	push	{r7, lr}
 800279e:	b082      	sub	sp, #8
 80027a0:	af00      	add	r7, sp, #0
 80027a2:	6078      	str	r0, [r7, #4]
 80027a4:	687b      	ldr	r3, [r7, #4]
 80027a6:	681b      	ldr	r3, [r3, #0]
 80027a8:	4a03      	ldr	r2, [pc, #12]	@ (80027b8 <HAL_IWDG_Refresh+0x1c>)
 80027aa:	601a      	str	r2, [r3, #0]
 80027ac:	2300      	movs	r3, #0
 80027ae:	0018      	movs	r0, r3
 80027b0:	46bd      	mov	sp, r7
 80027b2:	b002      	add	sp, #8
 80027b4:	bd80      	pop	{r7, pc}
 80027b6:	46c0      	nop			@ (mov r8, r8)
 80027b8:	0000aaaa 	.word	0x0000aaaa

080027bc <HAL_RCC_OscConfig>:
 80027bc:	b580      	push	{r7, lr}
 80027be:	b088      	sub	sp, #32
 80027c0:	af00      	add	r7, sp, #0
 80027c2:	6078      	str	r0, [r7, #4]
 80027c4:	687b      	ldr	r3, [r7, #4]
 80027c6:	2b00      	cmp	r3, #0
 80027c8:	d101      	bne.n	80027ce <HAL_RCC_OscConfig+0x12>
 80027ca:	2301      	movs	r3, #1
 80027cc:	e301      	b.n	8002dd2 <HAL_RCC_OscConfig+0x616>
 80027ce:	687b      	ldr	r3, [r7, #4]
 80027d0:	681b      	ldr	r3, [r3, #0]
 80027d2:	2201      	movs	r2, #1
 80027d4:	4013      	ands	r3, r2
 80027d6:	d100      	bne.n	80027da <HAL_RCC_OscConfig+0x1e>
 80027d8:	e08d      	b.n	80028f6 <HAL_RCC_OscConfig+0x13a>
 80027da:	4bc3      	ldr	r3, [pc, #780]	@ (8002ae8 <HAL_RCC_OscConfig+0x32c>)
 80027dc:	685b      	ldr	r3, [r3, #4]
 80027de:	220c      	movs	r2, #12
 80027e0:	4013      	ands	r3, r2
 80027e2:	2b04      	cmp	r3, #4
 80027e4:	d00e      	beq.n	8002804 <HAL_RCC_OscConfig+0x48>
 80027e6:	4bc0      	ldr	r3, [pc, #768]	@ (8002ae8 <HAL_RCC_OscConfig+0x32c>)
 80027e8:	685b      	ldr	r3, [r3, #4]
 80027ea:	220c      	movs	r2, #12
 80027ec:	4013      	ands	r3, r2
 80027ee:	2b08      	cmp	r3, #8
 80027f0:	d116      	bne.n	8002820 <HAL_RCC_OscConfig+0x64>
 80027f2:	4bbd      	ldr	r3, [pc, #756]	@ (8002ae8 <HAL_RCC_OscConfig+0x32c>)
 80027f4:	685a      	ldr	r2, [r3, #4]
 80027f6:	2380      	movs	r3, #128	@ 0x80
 80027f8:	025b      	lsls	r3, r3, #9
 80027fa:	401a      	ands	r2, r3
 80027fc:	2380      	movs	r3, #128	@ 0x80
 80027fe:	025b      	lsls	r3, r3, #9
 8002800:	429a      	cmp	r2, r3
 8002802:	d10d      	bne.n	8002820 <HAL_RCC_OscConfig+0x64>
 8002804:	4bb8      	ldr	r3, [pc, #736]	@ (8002ae8 <HAL_RCC_OscConfig+0x32c>)
 8002806:	681a      	ldr	r2, [r3, #0]
 8002808:	2380      	movs	r3, #128	@ 0x80
 800280a:	029b      	lsls	r3, r3, #10
 800280c:	4013      	ands	r3, r2
 800280e:	d100      	bne.n	8002812 <HAL_RCC_OscConfig+0x56>
 8002810:	e070      	b.n	80028f4 <HAL_RCC_OscConfig+0x138>
 8002812:	687b      	ldr	r3, [r7, #4]
 8002814:	685b      	ldr	r3, [r3, #4]
 8002816:	2b00      	cmp	r3, #0
 8002818:	d000      	beq.n	800281c <HAL_RCC_OscConfig+0x60>
 800281a:	e06b      	b.n	80028f4 <HAL_RCC_OscConfig+0x138>
 800281c:	2301      	movs	r3, #1
 800281e:	e2d8      	b.n	8002dd2 <HAL_RCC_OscConfig+0x616>
 8002820:	687b      	ldr	r3, [r7, #4]
 8002822:	685b      	ldr	r3, [r3, #4]
 8002824:	2b01      	cmp	r3, #1
 8002826:	d107      	bne.n	8002838 <HAL_RCC_OscConfig+0x7c>
 8002828:	4baf      	ldr	r3, [pc, #700]	@ (8002ae8 <HAL_RCC_OscConfig+0x32c>)
 800282a:	681a      	ldr	r2, [r3, #0]
 800282c:	4bae      	ldr	r3, [pc, #696]	@ (8002ae8 <HAL_RCC_OscConfig+0x32c>)
 800282e:	2180      	movs	r1, #128	@ 0x80
 8002830:	0249      	lsls	r1, r1, #9
 8002832:	430a      	orrs	r2, r1
 8002834:	601a      	str	r2, [r3, #0]
 8002836:	e02f      	b.n	8002898 <HAL_RCC_OscConfig+0xdc>
 8002838:	687b      	ldr	r3, [r7, #4]
 800283a:	685b      	ldr	r3, [r3, #4]
 800283c:	2b00      	cmp	r3, #0
 800283e:	d10c      	bne.n	800285a <HAL_RCC_OscConfig+0x9e>
 8002840:	4ba9      	ldr	r3, [pc, #676]	@ (8002ae8 <HAL_RCC_OscConfig+0x32c>)
 8002842:	681a      	ldr	r2, [r3, #0]
 8002844:	4ba8      	ldr	r3, [pc, #672]	@ (8002ae8 <HAL_RCC_OscConfig+0x32c>)
 8002846:	49a9      	ldr	r1, [pc, #676]	@ (8002aec <HAL_RCC_OscConfig+0x330>)
 8002848:	400a      	ands	r2, r1
 800284a:	601a      	str	r2, [r3, #0]
 800284c:	4ba6      	ldr	r3, [pc, #664]	@ (8002ae8 <HAL_RCC_OscConfig+0x32c>)
 800284e:	681a      	ldr	r2, [r3, #0]
 8002850:	4ba5      	ldr	r3, [pc, #660]	@ (8002ae8 <HAL_RCC_OscConfig+0x32c>)
 8002852:	49a7      	ldr	r1, [pc, #668]	@ (8002af0 <HAL_RCC_OscConfig+0x334>)
 8002854:	400a      	ands	r2, r1
 8002856:	601a      	str	r2, [r3, #0]
 8002858:	e01e      	b.n	8002898 <HAL_RCC_OscConfig+0xdc>
 800285a:	687b      	ldr	r3, [r7, #4]
 800285c:	685b      	ldr	r3, [r3, #4]
 800285e:	2b05      	cmp	r3, #5
 8002860:	d10e      	bne.n	8002880 <HAL_RCC_OscConfig+0xc4>
 8002862:	4ba1      	ldr	r3, [pc, #644]	@ (8002ae8 <HAL_RCC_OscConfig+0x32c>)
 8002864:	681a      	ldr	r2, [r3, #0]
 8002866:	4ba0      	ldr	r3, [pc, #640]	@ (8002ae8 <HAL_RCC_OscConfig+0x32c>)
 8002868:	2180      	movs	r1, #128	@ 0x80
 800286a:	02c9      	lsls	r1, r1, #11
 800286c:	430a      	orrs	r2, r1
 800286e:	601a      	str	r2, [r3, #0]
 8002870:	4b9d      	ldr	r3, [pc, #628]	@ (8002ae8 <HAL_RCC_OscConfig+0x32c>)
 8002872:	681a      	ldr	r2, [r3, #0]
 8002874:	4b9c      	ldr	r3, [pc, #624]	@ (8002ae8 <HAL_RCC_OscConfig+0x32c>)
 8002876:	2180      	movs	r1, #128	@ 0x80
 8002878:	0249      	lsls	r1, r1, #9
 800287a:	430a      	orrs	r2, r1
 800287c:	601a      	str	r2, [r3, #0]
 800287e:	e00b      	b.n	8002898 <HAL_RCC_OscConfig+0xdc>
 8002880:	4b99      	ldr	r3, [pc, #612]	@ (8002ae8 <HAL_RCC_OscConfig+0x32c>)
 8002882:	681a      	ldr	r2, [r3, #0]
 8002884:	4b98      	ldr	r3, [pc, #608]	@ (8002ae8 <HAL_RCC_OscConfig+0x32c>)
 8002886:	4999      	ldr	r1, [pc, #612]	@ (8002aec <HAL_RCC_OscConfig+0x330>)
 8002888:	400a      	ands	r2, r1
 800288a:	601a      	str	r2, [r3, #0]
 800288c:	4b96      	ldr	r3, [pc, #600]	@ (8002ae8 <HAL_RCC_OscConfig+0x32c>)
 800288e:	681a      	ldr	r2, [r3, #0]
 8002890:	4b95      	ldr	r3, [pc, #596]	@ (8002ae8 <HAL_RCC_OscConfig+0x32c>)
 8002892:	4997      	ldr	r1, [pc, #604]	@ (8002af0 <HAL_RCC_OscConfig+0x334>)
 8002894:	400a      	ands	r2, r1
 8002896:	601a      	str	r2, [r3, #0]
 8002898:	687b      	ldr	r3, [r7, #4]
 800289a:	685b      	ldr	r3, [r3, #4]
 800289c:	2b00      	cmp	r3, #0
 800289e:	d014      	beq.n	80028ca <HAL_RCC_OscConfig+0x10e>
 80028a0:	f7ff faae 	bl	8001e00 <HAL_GetTick>
 80028a4:	0003      	movs	r3, r0
 80028a6:	61bb      	str	r3, [r7, #24]
 80028a8:	e008      	b.n	80028bc <HAL_RCC_OscConfig+0x100>
 80028aa:	f7ff faa9 	bl	8001e00 <HAL_GetTick>
 80028ae:	0002      	movs	r2, r0
 80028b0:	69bb      	ldr	r3, [r7, #24]
 80028b2:	1ad3      	subs	r3, r2, r3
 80028b4:	2b64      	cmp	r3, #100	@ 0x64
 80028b6:	d901      	bls.n	80028bc <HAL_RCC_OscConfig+0x100>
 80028b8:	2303      	movs	r3, #3
 80028ba:	e28a      	b.n	8002dd2 <HAL_RCC_OscConfig+0x616>
 80028bc:	4b8a      	ldr	r3, [pc, #552]	@ (8002ae8 <HAL_RCC_OscConfig+0x32c>)
 80028be:	681a      	ldr	r2, [r3, #0]
 80028c0:	2380      	movs	r3, #128	@ 0x80
 80028c2:	029b      	lsls	r3, r3, #10
 80028c4:	4013      	ands	r3, r2
 80028c6:	d0f0      	beq.n	80028aa <HAL_RCC_OscConfig+0xee>
 80028c8:	e015      	b.n	80028f6 <HAL_RCC_OscConfig+0x13a>
 80028ca:	f7ff fa99 	bl	8001e00 <HAL_GetTick>
 80028ce:	0003      	movs	r3, r0
 80028d0:	61bb      	str	r3, [r7, #24]
 80028d2:	e008      	b.n	80028e6 <HAL_RCC_OscConfig+0x12a>
 80028d4:	f7ff fa94 	bl	8001e00 <HAL_GetTick>
 80028d8:	0002      	movs	r2, r0
 80028da:	69bb      	ldr	r3, [r7, #24]
 80028dc:	1ad3      	subs	r3, r2, r3
 80028de:	2b64      	cmp	r3, #100	@ 0x64
 80028e0:	d901      	bls.n	80028e6 <HAL_RCC_OscConfig+0x12a>
 80028e2:	2303      	movs	r3, #3
 80028e4:	e275      	b.n	8002dd2 <HAL_RCC_OscConfig+0x616>
 80028e6:	4b80      	ldr	r3, [pc, #512]	@ (8002ae8 <HAL_RCC_OscConfig+0x32c>)
 80028e8:	681a      	ldr	r2, [r3, #0]
 80028ea:	2380      	movs	r3, #128	@ 0x80
 80028ec:	029b      	lsls	r3, r3, #10
 80028ee:	4013      	ands	r3, r2
 80028f0:	d1f0      	bne.n	80028d4 <HAL_RCC_OscConfig+0x118>
 80028f2:	e000      	b.n	80028f6 <HAL_RCC_OscConfig+0x13a>
 80028f4:	46c0      	nop			@ (mov r8, r8)
 80028f6:	687b      	ldr	r3, [r7, #4]
 80028f8:	681b      	ldr	r3, [r3, #0]
 80028fa:	2202      	movs	r2, #2
 80028fc:	4013      	ands	r3, r2
 80028fe:	d100      	bne.n	8002902 <HAL_RCC_OscConfig+0x146>
 8002900:	e069      	b.n	80029d6 <HAL_RCC_OscConfig+0x21a>
 8002902:	4b79      	ldr	r3, [pc, #484]	@ (8002ae8 <HAL_RCC_OscConfig+0x32c>)
 8002904:	685b      	ldr	r3, [r3, #4]
 8002906:	220c      	movs	r2, #12
 8002908:	4013      	ands	r3, r2
 800290a:	d00b      	beq.n	8002924 <HAL_RCC_OscConfig+0x168>
 800290c:	4b76      	ldr	r3, [pc, #472]	@ (8002ae8 <HAL_RCC_OscConfig+0x32c>)
 800290e:	685b      	ldr	r3, [r3, #4]
 8002910:	220c      	movs	r2, #12
 8002912:	4013      	ands	r3, r2
 8002914:	2b08      	cmp	r3, #8
 8002916:	d11c      	bne.n	8002952 <HAL_RCC_OscConfig+0x196>
 8002918:	4b73      	ldr	r3, [pc, #460]	@ (8002ae8 <HAL_RCC_OscConfig+0x32c>)
 800291a:	685a      	ldr	r2, [r3, #4]
 800291c:	2380      	movs	r3, #128	@ 0x80
 800291e:	025b      	lsls	r3, r3, #9
 8002920:	4013      	ands	r3, r2
 8002922:	d116      	bne.n	8002952 <HAL_RCC_OscConfig+0x196>
 8002924:	4b70      	ldr	r3, [pc, #448]	@ (8002ae8 <HAL_RCC_OscConfig+0x32c>)
 8002926:	681b      	ldr	r3, [r3, #0]
 8002928:	2202      	movs	r2, #2
 800292a:	4013      	ands	r3, r2
 800292c:	d005      	beq.n	800293a <HAL_RCC_OscConfig+0x17e>
 800292e:	687b      	ldr	r3, [r7, #4]
 8002930:	68db      	ldr	r3, [r3, #12]
 8002932:	2b01      	cmp	r3, #1
 8002934:	d001      	beq.n	800293a <HAL_RCC_OscConfig+0x17e>
 8002936:	2301      	movs	r3, #1
 8002938:	e24b      	b.n	8002dd2 <HAL_RCC_OscConfig+0x616>
 800293a:	4b6b      	ldr	r3, [pc, #428]	@ (8002ae8 <HAL_RCC_OscConfig+0x32c>)
 800293c:	681b      	ldr	r3, [r3, #0]
 800293e:	22f8      	movs	r2, #248	@ 0xf8
 8002940:	4393      	bics	r3, r2
 8002942:	0019      	movs	r1, r3
 8002944:	687b      	ldr	r3, [r7, #4]
 8002946:	691b      	ldr	r3, [r3, #16]
 8002948:	00da      	lsls	r2, r3, #3
 800294a:	4b67      	ldr	r3, [pc, #412]	@ (8002ae8 <HAL_RCC_OscConfig+0x32c>)
 800294c:	430a      	orrs	r2, r1
 800294e:	601a      	str	r2, [r3, #0]
 8002950:	e041      	b.n	80029d6 <HAL_RCC_OscConfig+0x21a>
 8002952:	687b      	ldr	r3, [r7, #4]
 8002954:	68db      	ldr	r3, [r3, #12]
 8002956:	2b00      	cmp	r3, #0
 8002958:	d024      	beq.n	80029a4 <HAL_RCC_OscConfig+0x1e8>
 800295a:	4b63      	ldr	r3, [pc, #396]	@ (8002ae8 <HAL_RCC_OscConfig+0x32c>)
 800295c:	681a      	ldr	r2, [r3, #0]
 800295e:	4b62      	ldr	r3, [pc, #392]	@ (8002ae8 <HAL_RCC_OscConfig+0x32c>)
 8002960:	2101      	movs	r1, #1
 8002962:	430a      	orrs	r2, r1
 8002964:	601a      	str	r2, [r3, #0]
 8002966:	f7ff fa4b 	bl	8001e00 <HAL_GetTick>
 800296a:	0003      	movs	r3, r0
 800296c:	61bb      	str	r3, [r7, #24]
 800296e:	e008      	b.n	8002982 <HAL_RCC_OscConfig+0x1c6>
 8002970:	f7ff fa46 	bl	8001e00 <HAL_GetTick>
 8002974:	0002      	movs	r2, r0
 8002976:	69bb      	ldr	r3, [r7, #24]
 8002978:	1ad3      	subs	r3, r2, r3
 800297a:	2b02      	cmp	r3, #2
 800297c:	d901      	bls.n	8002982 <HAL_RCC_OscConfig+0x1c6>
 800297e:	2303      	movs	r3, #3
 8002980:	e227      	b.n	8002dd2 <HAL_RCC_OscConfig+0x616>
 8002982:	4b59      	ldr	r3, [pc, #356]	@ (8002ae8 <HAL_RCC_OscConfig+0x32c>)
 8002984:	681b      	ldr	r3, [r3, #0]
 8002986:	2202      	movs	r2, #2
 8002988:	4013      	ands	r3, r2
 800298a:	d0f1      	beq.n	8002970 <HAL_RCC_OscConfig+0x1b4>
 800298c:	4b56      	ldr	r3, [pc, #344]	@ (8002ae8 <HAL_RCC_OscConfig+0x32c>)
 800298e:	681b      	ldr	r3, [r3, #0]
 8002990:	22f8      	movs	r2, #248	@ 0xf8
 8002992:	4393      	bics	r3, r2
 8002994:	0019      	movs	r1, r3
 8002996:	687b      	ldr	r3, [r7, #4]
 8002998:	691b      	ldr	r3, [r3, #16]
 800299a:	00da      	lsls	r2, r3, #3
 800299c:	4b52      	ldr	r3, [pc, #328]	@ (8002ae8 <HAL_RCC_OscConfig+0x32c>)
 800299e:	430a      	orrs	r2, r1
 80029a0:	601a      	str	r2, [r3, #0]
 80029a2:	e018      	b.n	80029d6 <HAL_RCC_OscConfig+0x21a>
 80029a4:	4b50      	ldr	r3, [pc, #320]	@ (8002ae8 <HAL_RCC_OscConfig+0x32c>)
 80029a6:	681a      	ldr	r2, [r3, #0]
 80029a8:	4b4f      	ldr	r3, [pc, #316]	@ (8002ae8 <HAL_RCC_OscConfig+0x32c>)
 80029aa:	2101      	movs	r1, #1
 80029ac:	438a      	bics	r2, r1
 80029ae:	601a      	str	r2, [r3, #0]
 80029b0:	f7ff fa26 	bl	8001e00 <HAL_GetTick>
 80029b4:	0003      	movs	r3, r0
 80029b6:	61bb      	str	r3, [r7, #24]
 80029b8:	e008      	b.n	80029cc <HAL_RCC_OscConfig+0x210>
 80029ba:	f7ff fa21 	bl	8001e00 <HAL_GetTick>
 80029be:	0002      	movs	r2, r0
 80029c0:	69bb      	ldr	r3, [r7, #24]
 80029c2:	1ad3      	subs	r3, r2, r3
 80029c4:	2b02      	cmp	r3, #2
 80029c6:	d901      	bls.n	80029cc <HAL_RCC_OscConfig+0x210>
 80029c8:	2303      	movs	r3, #3
 80029ca:	e202      	b.n	8002dd2 <HAL_RCC_OscConfig+0x616>
 80029cc:	4b46      	ldr	r3, [pc, #280]	@ (8002ae8 <HAL_RCC_OscConfig+0x32c>)
 80029ce:	681b      	ldr	r3, [r3, #0]
 80029d0:	2202      	movs	r2, #2
 80029d2:	4013      	ands	r3, r2
 80029d4:	d1f1      	bne.n	80029ba <HAL_RCC_OscConfig+0x1fe>
 80029d6:	687b      	ldr	r3, [r7, #4]
 80029d8:	681b      	ldr	r3, [r3, #0]
 80029da:	2208      	movs	r2, #8
 80029dc:	4013      	ands	r3, r2
 80029de:	d036      	beq.n	8002a4e <HAL_RCC_OscConfig+0x292>
 80029e0:	687b      	ldr	r3, [r7, #4]
 80029e2:	69db      	ldr	r3, [r3, #28]
 80029e4:	2b00      	cmp	r3, #0
 80029e6:	d019      	beq.n	8002a1c <HAL_RCC_OscConfig+0x260>
 80029e8:	4b3f      	ldr	r3, [pc, #252]	@ (8002ae8 <HAL_RCC_OscConfig+0x32c>)
 80029ea:	6a5a      	ldr	r2, [r3, #36]	@ 0x24
 80029ec:	4b3e      	ldr	r3, [pc, #248]	@ (8002ae8 <HAL_RCC_OscConfig+0x32c>)
 80029ee:	2101      	movs	r1, #1
 80029f0:	430a      	orrs	r2, r1
 80029f2:	625a      	str	r2, [r3, #36]	@ 0x24
 80029f4:	f7ff fa04 	bl	8001e00 <HAL_GetTick>
 80029f8:	0003      	movs	r3, r0
 80029fa:	61bb      	str	r3, [r7, #24]
 80029fc:	e008      	b.n	8002a10 <HAL_RCC_OscConfig+0x254>
 80029fe:	f7ff f9ff 	bl	8001e00 <HAL_GetTick>
 8002a02:	0002      	movs	r2, r0
 8002a04:	69bb      	ldr	r3, [r7, #24]
 8002a06:	1ad3      	subs	r3, r2, r3
 8002a08:	2b02      	cmp	r3, #2
 8002a0a:	d901      	bls.n	8002a10 <HAL_RCC_OscConfig+0x254>
 8002a0c:	2303      	movs	r3, #3
 8002a0e:	e1e0      	b.n	8002dd2 <HAL_RCC_OscConfig+0x616>
 8002a10:	4b35      	ldr	r3, [pc, #212]	@ (8002ae8 <HAL_RCC_OscConfig+0x32c>)
 8002a12:	6a5b      	ldr	r3, [r3, #36]	@ 0x24
 8002a14:	2202      	movs	r2, #2
 8002a16:	4013      	ands	r3, r2
 8002a18:	d0f1      	beq.n	80029fe <HAL_RCC_OscConfig+0x242>
 8002a1a:	e018      	b.n	8002a4e <HAL_RCC_OscConfig+0x292>
 8002a1c:	4b32      	ldr	r3, [pc, #200]	@ (8002ae8 <HAL_RCC_OscConfig+0x32c>)
 8002a1e:	6a5a      	ldr	r2, [r3, #36]	@ 0x24
 8002a20:	4b31      	ldr	r3, [pc, #196]	@ (8002ae8 <HAL_RCC_OscConfig+0x32c>)
 8002a22:	2101      	movs	r1, #1
 8002a24:	438a      	bics	r2, r1
 8002a26:	625a      	str	r2, [r3, #36]	@ 0x24
 8002a28:	f7ff f9ea 	bl	8001e00 <HAL_GetTick>
 8002a2c:	0003      	movs	r3, r0
 8002a2e:	61bb      	str	r3, [r7, #24]
 8002a30:	e008      	b.n	8002a44 <HAL_RCC_OscConfig+0x288>
 8002a32:	f7ff f9e5 	bl	8001e00 <HAL_GetTick>
 8002a36:	0002      	movs	r2, r0
 8002a38:	69bb      	ldr	r3, [r7, #24]
 8002a3a:	1ad3      	subs	r3, r2, r3
 8002a3c:	2b02      	cmp	r3, #2
 8002a3e:	d901      	bls.n	8002a44 <HAL_RCC_OscConfig+0x288>
 8002a40:	2303      	movs	r3, #3
 8002a42:	e1c6      	b.n	8002dd2 <HAL_RCC_OscConfig+0x616>
 8002a44:	4b28      	ldr	r3, [pc, #160]	@ (8002ae8 <HAL_RCC_OscConfig+0x32c>)
 8002a46:	6a5b      	ldr	r3, [r3, #36]	@ 0x24
 8002a48:	2202      	movs	r2, #2
 8002a4a:	4013      	ands	r3, r2
 8002a4c:	d1f1      	bne.n	8002a32 <HAL_RCC_OscConfig+0x276>
 8002a4e:	687b      	ldr	r3, [r7, #4]
 8002a50:	681b      	ldr	r3, [r3, #0]
 8002a52:	2204      	movs	r2, #4
 8002a54:	4013      	ands	r3, r2
 8002a56:	d100      	bne.n	8002a5a <HAL_RCC_OscConfig+0x29e>
 8002a58:	e0b4      	b.n	8002bc4 <HAL_RCC_OscConfig+0x408>
 8002a5a:	201f      	movs	r0, #31
 8002a5c:	183b      	adds	r3, r7, r0
 8002a5e:	2200      	movs	r2, #0
 8002a60:	701a      	strb	r2, [r3, #0]
 8002a62:	4b21      	ldr	r3, [pc, #132]	@ (8002ae8 <HAL_RCC_OscConfig+0x32c>)
 8002a64:	69da      	ldr	r2, [r3, #28]
 8002a66:	2380      	movs	r3, #128	@ 0x80
 8002a68:	055b      	lsls	r3, r3, #21
 8002a6a:	4013      	ands	r3, r2
 8002a6c:	d110      	bne.n	8002a90 <HAL_RCC_OscConfig+0x2d4>
 8002a6e:	4b1e      	ldr	r3, [pc, #120]	@ (8002ae8 <HAL_RCC_OscConfig+0x32c>)
 8002a70:	69da      	ldr	r2, [r3, #28]
 8002a72:	4b1d      	ldr	r3, [pc, #116]	@ (8002ae8 <HAL_RCC_OscConfig+0x32c>)
 8002a74:	2180      	movs	r1, #128	@ 0x80
 8002a76:	0549      	lsls	r1, r1, #21
 8002a78:	430a      	orrs	r2, r1
 8002a7a:	61da      	str	r2, [r3, #28]
 8002a7c:	4b1a      	ldr	r3, [pc, #104]	@ (8002ae8 <HAL_RCC_OscConfig+0x32c>)
 8002a7e:	69da      	ldr	r2, [r3, #28]
 8002a80:	2380      	movs	r3, #128	@ 0x80
 8002a82:	055b      	lsls	r3, r3, #21
 8002a84:	4013      	ands	r3, r2
 8002a86:	60fb      	str	r3, [r7, #12]
 8002a88:	68fb      	ldr	r3, [r7, #12]
 8002a8a:	183b      	adds	r3, r7, r0
 8002a8c:	2201      	movs	r2, #1
 8002a8e:	701a      	strb	r2, [r3, #0]
 8002a90:	4b18      	ldr	r3, [pc, #96]	@ (8002af4 <HAL_RCC_OscConfig+0x338>)
 8002a92:	681a      	ldr	r2, [r3, #0]
 8002a94:	2380      	movs	r3, #128	@ 0x80
 8002a96:	005b      	lsls	r3, r3, #1
 8002a98:	4013      	ands	r3, r2
 8002a9a:	d11a      	bne.n	8002ad2 <HAL_RCC_OscConfig+0x316>
 8002a9c:	4b15      	ldr	r3, [pc, #84]	@ (8002af4 <HAL_RCC_OscConfig+0x338>)
 8002a9e:	681a      	ldr	r2, [r3, #0]
 8002aa0:	4b14      	ldr	r3, [pc, #80]	@ (8002af4 <HAL_RCC_OscConfig+0x338>)
 8002aa2:	2180      	movs	r1, #128	@ 0x80
 8002aa4:	0049      	lsls	r1, r1, #1
 8002aa6:	430a      	orrs	r2, r1
 8002aa8:	601a      	str	r2, [r3, #0]
 8002aaa:	f7ff f9a9 	bl	8001e00 <HAL_GetTick>
 8002aae:	0003      	movs	r3, r0
 8002ab0:	61bb      	str	r3, [r7, #24]
 8002ab2:	e008      	b.n	8002ac6 <HAL_RCC_OscConfig+0x30a>
 8002ab4:	f7ff f9a4 	bl	8001e00 <HAL_GetTick>
 8002ab8:	0002      	movs	r2, r0
 8002aba:	69bb      	ldr	r3, [r7, #24]
 8002abc:	1ad3      	subs	r3, r2, r3
 8002abe:	2b64      	cmp	r3, #100	@ 0x64
 8002ac0:	d901      	bls.n	8002ac6 <HAL_RCC_OscConfig+0x30a>
 8002ac2:	2303      	movs	r3, #3
 8002ac4:	e185      	b.n	8002dd2 <HAL_RCC_OscConfig+0x616>
 8002ac6:	4b0b      	ldr	r3, [pc, #44]	@ (8002af4 <HAL_RCC_OscConfig+0x338>)
 8002ac8:	681a      	ldr	r2, [r3, #0]
 8002aca:	2380      	movs	r3, #128	@ 0x80
 8002acc:	005b      	lsls	r3, r3, #1
 8002ace:	4013      	ands	r3, r2
 8002ad0:	d0f0      	beq.n	8002ab4 <HAL_RCC_OscConfig+0x2f8>
 8002ad2:	687b      	ldr	r3, [r7, #4]
 8002ad4:	689b      	ldr	r3, [r3, #8]
 8002ad6:	2b01      	cmp	r3, #1
 8002ad8:	d10e      	bne.n	8002af8 <HAL_RCC_OscConfig+0x33c>
 8002ada:	4b03      	ldr	r3, [pc, #12]	@ (8002ae8 <HAL_RCC_OscConfig+0x32c>)
 8002adc:	6a1a      	ldr	r2, [r3, #32]
 8002ade:	4b02      	ldr	r3, [pc, #8]	@ (8002ae8 <HAL_RCC_OscConfig+0x32c>)
 8002ae0:	2101      	movs	r1, #1
 8002ae2:	430a      	orrs	r2, r1
 8002ae4:	621a      	str	r2, [r3, #32]
 8002ae6:	e035      	b.n	8002b54 <HAL_RCC_OscConfig+0x398>
 8002ae8:	40021000 	.word	0x40021000
 8002aec:	fffeffff 	.word	0xfffeffff
 8002af0:	fffbffff 	.word	0xfffbffff
 8002af4:	40007000 	.word	0x40007000
 8002af8:	687b      	ldr	r3, [r7, #4]
 8002afa:	689b      	ldr	r3, [r3, #8]
 8002afc:	2b00      	cmp	r3, #0
 8002afe:	d10c      	bne.n	8002b1a <HAL_RCC_OscConfig+0x35e>
 8002b00:	4bb6      	ldr	r3, [pc, #728]	@ (8002ddc <HAL_RCC_OscConfig+0x620>)
 8002b02:	6a1a      	ldr	r2, [r3, #32]
 8002b04:	4bb5      	ldr	r3, [pc, #724]	@ (8002ddc <HAL_RCC_OscConfig+0x620>)
 8002b06:	2101      	movs	r1, #1
 8002b08:	438a      	bics	r2, r1
 8002b0a:	621a      	str	r2, [r3, #32]
 8002b0c:	4bb3      	ldr	r3, [pc, #716]	@ (8002ddc <HAL_RCC_OscConfig+0x620>)
 8002b0e:	6a1a      	ldr	r2, [r3, #32]
 8002b10:	4bb2      	ldr	r3, [pc, #712]	@ (8002ddc <HAL_RCC_OscConfig+0x620>)
 8002b12:	2104      	movs	r1, #4
 8002b14:	438a      	bics	r2, r1
 8002b16:	621a      	str	r2, [r3, #32]
 8002b18:	e01c      	b.n	8002b54 <HAL_RCC_OscConfig+0x398>
 8002b1a:	687b      	ldr	r3, [r7, #4]
 8002b1c:	689b      	ldr	r3, [r3, #8]
 8002b1e:	2b05      	cmp	r3, #5
 8002b20:	d10c      	bne.n	8002b3c <HAL_RCC_OscConfig+0x380>
 8002b22:	4bae      	ldr	r3, [pc, #696]	@ (8002ddc <HAL_RCC_OscConfig+0x620>)
 8002b24:	6a1a      	ldr	r2, [r3, #32]
 8002b26:	4bad      	ldr	r3, [pc, #692]	@ (8002ddc <HAL_RCC_OscConfig+0x620>)
 8002b28:	2104      	movs	r1, #4
 8002b2a:	430a      	orrs	r2, r1
 8002b2c:	621a      	str	r2, [r3, #32]
 8002b2e:	4bab      	ldr	r3, [pc, #684]	@ (8002ddc <HAL_RCC_OscConfig+0x620>)
 8002b30:	6a1a      	ldr	r2, [r3, #32]
 8002b32:	4baa      	ldr	r3, [pc, #680]	@ (8002ddc <HAL_RCC_OscConfig+0x620>)
 8002b34:	2101      	movs	r1, #1
 8002b36:	430a      	orrs	r2, r1
 8002b38:	621a      	str	r2, [r3, #32]
 8002b3a:	e00b      	b.n	8002b54 <HAL_RCC_OscConfig+0x398>
 8002b3c:	4ba7      	ldr	r3, [pc, #668]	@ (8002ddc <HAL_RCC_OscConfig+0x620>)
 8002b3e:	6a1a      	ldr	r2, [r3, #32]
 8002b40:	4ba6      	ldr	r3, [pc, #664]	@ (8002ddc <HAL_RCC_OscConfig+0x620>)
 8002b42:	2101      	movs	r1, #1
 8002b44:	438a      	bics	r2, r1
 8002b46:	621a      	str	r2, [r3, #32]
 8002b48:	4ba4      	ldr	r3, [pc, #656]	@ (8002ddc <HAL_RCC_OscConfig+0x620>)
 8002b4a:	6a1a      	ldr	r2, [r3, #32]
 8002b4c:	4ba3      	ldr	r3, [pc, #652]	@ (8002ddc <HAL_RCC_OscConfig+0x620>)
 8002b4e:	2104      	movs	r1, #4
 8002b50:	438a      	bics	r2, r1
 8002b52:	621a      	str	r2, [r3, #32]
 8002b54:	687b      	ldr	r3, [r7, #4]
 8002b56:	689b      	ldr	r3, [r3, #8]
 8002b58:	2b00      	cmp	r3, #0
 8002b5a:	d014      	beq.n	8002b86 <HAL_RCC_OscConfig+0x3ca>
 8002b5c:	f7ff f950 	bl	8001e00 <HAL_GetTick>
 8002b60:	0003      	movs	r3, r0
 8002b62:	61bb      	str	r3, [r7, #24]
 8002b64:	e009      	b.n	8002b7a <HAL_RCC_OscConfig+0x3be>
 8002b66:	f7ff f94b 	bl	8001e00 <HAL_GetTick>
 8002b6a:	0002      	movs	r2, r0
 8002b6c:	69bb      	ldr	r3, [r7, #24]
 8002b6e:	1ad3      	subs	r3, r2, r3
 8002b70:	4a9b      	ldr	r2, [pc, #620]	@ (8002de0 <HAL_RCC_OscConfig+0x624>)
 8002b72:	4293      	cmp	r3, r2
 8002b74:	d901      	bls.n	8002b7a <HAL_RCC_OscConfig+0x3be>
 8002b76:	2303      	movs	r3, #3
 8002b78:	e12b      	b.n	8002dd2 <HAL_RCC_OscConfig+0x616>
 8002b7a:	4b98      	ldr	r3, [pc, #608]	@ (8002ddc <HAL_RCC_OscConfig+0x620>)
 8002b7c:	6a1b      	ldr	r3, [r3, #32]
 8002b7e:	2202      	movs	r2, #2
 8002b80:	4013      	ands	r3, r2
 8002b82:	d0f0      	beq.n	8002b66 <HAL_RCC_OscConfig+0x3aa>
 8002b84:	e013      	b.n	8002bae <HAL_RCC_OscConfig+0x3f2>
 8002b86:	f7ff f93b 	bl	8001e00 <HAL_GetTick>
 8002b8a:	0003      	movs	r3, r0
 8002b8c:	61bb      	str	r3, [r7, #24]
 8002b8e:	e009      	b.n	8002ba4 <HAL_RCC_OscConfig+0x3e8>
 8002b90:	f7ff f936 	bl	8001e00 <HAL_GetTick>
 8002b94:	0002      	movs	r2, r0
 8002b96:	69bb      	ldr	r3, [r7, #24]
 8002b98:	1ad3      	subs	r3, r2, r3
 8002b9a:	4a91      	ldr	r2, [pc, #580]	@ (8002de0 <HAL_RCC_OscConfig+0x624>)
 8002b9c:	4293      	cmp	r3, r2
 8002b9e:	d901      	bls.n	8002ba4 <HAL_RCC_OscConfig+0x3e8>
 8002ba0:	2303      	movs	r3, #3
 8002ba2:	e116      	b.n	8002dd2 <HAL_RCC_OscConfig+0x616>
 8002ba4:	4b8d      	ldr	r3, [pc, #564]	@ (8002ddc <HAL_RCC_OscConfig+0x620>)
 8002ba6:	6a1b      	ldr	r3, [r3, #32]
 8002ba8:	2202      	movs	r2, #2
 8002baa:	4013      	ands	r3, r2
 8002bac:	d1f0      	bne.n	8002b90 <HAL_RCC_OscConfig+0x3d4>
 8002bae:	231f      	movs	r3, #31
 8002bb0:	18fb      	adds	r3, r7, r3
 8002bb2:	781b      	ldrb	r3, [r3, #0]
 8002bb4:	2b01      	cmp	r3, #1
 8002bb6:	d105      	bne.n	8002bc4 <HAL_RCC_OscConfig+0x408>
 8002bb8:	4b88      	ldr	r3, [pc, #544]	@ (8002ddc <HAL_RCC_OscConfig+0x620>)
 8002bba:	69da      	ldr	r2, [r3, #28]
 8002bbc:	4b87      	ldr	r3, [pc, #540]	@ (8002ddc <HAL_RCC_OscConfig+0x620>)
 8002bbe:	4989      	ldr	r1, [pc, #548]	@ (8002de4 <HAL_RCC_OscConfig+0x628>)
 8002bc0:	400a      	ands	r2, r1
 8002bc2:	61da      	str	r2, [r3, #28]
 8002bc4:	687b      	ldr	r3, [r7, #4]
 8002bc6:	681b      	ldr	r3, [r3, #0]
 8002bc8:	2210      	movs	r2, #16
 8002bca:	4013      	ands	r3, r2
 8002bcc:	d063      	beq.n	8002c96 <HAL_RCC_OscConfig+0x4da>
 8002bce:	687b      	ldr	r3, [r7, #4]
 8002bd0:	695b      	ldr	r3, [r3, #20]
 8002bd2:	2b01      	cmp	r3, #1
 8002bd4:	d12a      	bne.n	8002c2c <HAL_RCC_OscConfig+0x470>
 8002bd6:	4b81      	ldr	r3, [pc, #516]	@ (8002ddc <HAL_RCC_OscConfig+0x620>)
 8002bd8:	6b5a      	ldr	r2, [r3, #52]	@ 0x34
 8002bda:	4b80      	ldr	r3, [pc, #512]	@ (8002ddc <HAL_RCC_OscConfig+0x620>)
 8002bdc:	2104      	movs	r1, #4
 8002bde:	430a      	orrs	r2, r1
 8002be0:	635a      	str	r2, [r3, #52]	@ 0x34
 8002be2:	4b7e      	ldr	r3, [pc, #504]	@ (8002ddc <HAL_RCC_OscConfig+0x620>)
 8002be4:	6b5a      	ldr	r2, [r3, #52]	@ 0x34
 8002be6:	4b7d      	ldr	r3, [pc, #500]	@ (8002ddc <HAL_RCC_OscConfig+0x620>)
 8002be8:	2101      	movs	r1, #1
 8002bea:	430a      	orrs	r2, r1
 8002bec:	635a      	str	r2, [r3, #52]	@ 0x34
 8002bee:	f7ff f907 	bl	8001e00 <HAL_GetTick>
 8002bf2:	0003      	movs	r3, r0
 8002bf4:	61bb      	str	r3, [r7, #24]
 8002bf6:	e008      	b.n	8002c0a <HAL_RCC_OscConfig+0x44e>
 8002bf8:	f7ff f902 	bl	8001e00 <HAL_GetTick>
 8002bfc:	0002      	movs	r2, r0
 8002bfe:	69bb      	ldr	r3, [r7, #24]
 8002c00:	1ad3      	subs	r3, r2, r3
 8002c02:	2b02      	cmp	r3, #2
 8002c04:	d901      	bls.n	8002c0a <HAL_RCC_OscConfig+0x44e>
 8002c06:	2303      	movs	r3, #3
 8002c08:	e0e3      	b.n	8002dd2 <HAL_RCC_OscConfig+0x616>
 8002c0a:	4b74      	ldr	r3, [pc, #464]	@ (8002ddc <HAL_RCC_OscConfig+0x620>)
 8002c0c:	6b5b      	ldr	r3, [r3, #52]	@ 0x34
 8002c0e:	2202      	movs	r2, #2
 8002c10:	4013      	ands	r3, r2
 8002c12:	d0f1      	beq.n	8002bf8 <HAL_RCC_OscConfig+0x43c>
 8002c14:	4b71      	ldr	r3, [pc, #452]	@ (8002ddc <HAL_RCC_OscConfig+0x620>)
 8002c16:	6b5b      	ldr	r3, [r3, #52]	@ 0x34
 8002c18:	22f8      	movs	r2, #248	@ 0xf8
 8002c1a:	4393      	bics	r3, r2
 8002c1c:	0019      	movs	r1, r3
 8002c1e:	687b      	ldr	r3, [r7, #4]
 8002c20:	699b      	ldr	r3, [r3, #24]
 8002c22:	00da      	lsls	r2, r3, #3
 8002c24:	4b6d      	ldr	r3, [pc, #436]	@ (8002ddc <HAL_RCC_OscConfig+0x620>)
 8002c26:	430a      	orrs	r2, r1
 8002c28:	635a      	str	r2, [r3, #52]	@ 0x34
 8002c2a:	e034      	b.n	8002c96 <HAL_RCC_OscConfig+0x4da>
 8002c2c:	687b      	ldr	r3, [r7, #4]
 8002c2e:	695b      	ldr	r3, [r3, #20]
 8002c30:	3305      	adds	r3, #5
 8002c32:	d111      	bne.n	8002c58 <HAL_RCC_OscConfig+0x49c>
 8002c34:	4b69      	ldr	r3, [pc, #420]	@ (8002ddc <HAL_RCC_OscConfig+0x620>)
 8002c36:	6b5a      	ldr	r2, [r3, #52]	@ 0x34
 8002c38:	4b68      	ldr	r3, [pc, #416]	@ (8002ddc <HAL_RCC_OscConfig+0x620>)
 8002c3a:	2104      	movs	r1, #4
 8002c3c:	438a      	bics	r2, r1
 8002c3e:	635a      	str	r2, [r3, #52]	@ 0x34
 8002c40:	4b66      	ldr	r3, [pc, #408]	@ (8002ddc <HAL_RCC_OscConfig+0x620>)
 8002c42:	6b5b      	ldr	r3, [r3, #52]	@ 0x34
 8002c44:	22f8      	movs	r2, #248	@ 0xf8
 8002c46:	4393      	bics	r3, r2
 8002c48:	0019      	movs	r1, r3
 8002c4a:	687b      	ldr	r3, [r7, #4]
 8002c4c:	699b      	ldr	r3, [r3, #24]
 8002c4e:	00da      	lsls	r2, r3, #3
 8002c50:	4b62      	ldr	r3, [pc, #392]	@ (8002ddc <HAL_RCC_OscConfig+0x620>)
 8002c52:	430a      	orrs	r2, r1
 8002c54:	635a      	str	r2, [r3, #52]	@ 0x34
 8002c56:	e01e      	b.n	8002c96 <HAL_RCC_OscConfig+0x4da>
 8002c58:	4b60      	ldr	r3, [pc, #384]	@ (8002ddc <HAL_RCC_OscConfig+0x620>)
 8002c5a:	6b5a      	ldr	r2, [r3, #52]	@ 0x34
 8002c5c:	4b5f      	ldr	r3, [pc, #380]	@ (8002ddc <HAL_RCC_OscConfig+0x620>)
 8002c5e:	2104      	movs	r1, #4
 8002c60:	430a      	orrs	r2, r1
 8002c62:	635a      	str	r2, [r3, #52]	@ 0x34
 8002c64:	4b5d      	ldr	r3, [pc, #372]	@ (8002ddc <HAL_RCC_OscConfig+0x620>)
 8002c66:	6b5a      	ldr	r2, [r3, #52]	@ 0x34
 8002c68:	4b5c      	ldr	r3, [pc, #368]	@ (8002ddc <HAL_RCC_OscConfig+0x620>)
 8002c6a:	2101      	movs	r1, #1
 8002c6c:	438a      	bics	r2, r1
 8002c6e:	635a      	str	r2, [r3, #52]	@ 0x34
 8002c70:	f7ff f8c6 	bl	8001e00 <HAL_GetTick>
 8002c74:	0003      	movs	r3, r0
 8002c76:	61bb      	str	r3, [r7, #24]
 8002c78:	e008      	b.n	8002c8c <HAL_RCC_OscConfig+0x4d0>
 8002c7a:	f7ff f8c1 	bl	8001e00 <HAL_GetTick>
 8002c7e:	0002      	movs	r2, r0
 8002c80:	69bb      	ldr	r3, [r7, #24]
 8002c82:	1ad3      	subs	r3, r2, r3
 8002c84:	2b02      	cmp	r3, #2
 8002c86:	d901      	bls.n	8002c8c <HAL_RCC_OscConfig+0x4d0>
 8002c88:	2303      	movs	r3, #3
 8002c8a:	e0a2      	b.n	8002dd2 <HAL_RCC_OscConfig+0x616>
 8002c8c:	4b53      	ldr	r3, [pc, #332]	@ (8002ddc <HAL_RCC_OscConfig+0x620>)
 8002c8e:	6b5b      	ldr	r3, [r3, #52]	@ 0x34
 8002c90:	2202      	movs	r2, #2
 8002c92:	4013      	ands	r3, r2
 8002c94:	d1f1      	bne.n	8002c7a <HAL_RCC_OscConfig+0x4be>
 8002c96:	687b      	ldr	r3, [r7, #4]
 8002c98:	6a1b      	ldr	r3, [r3, #32]
 8002c9a:	2b00      	cmp	r3, #0
 8002c9c:	d100      	bne.n	8002ca0 <HAL_RCC_OscConfig+0x4e4>
 8002c9e:	e097      	b.n	8002dd0 <HAL_RCC_OscConfig+0x614>
 8002ca0:	4b4e      	ldr	r3, [pc, #312]	@ (8002ddc <HAL_RCC_OscConfig+0x620>)
 8002ca2:	685b      	ldr	r3, [r3, #4]
 8002ca4:	220c      	movs	r2, #12
 8002ca6:	4013      	ands	r3, r2
 8002ca8:	2b08      	cmp	r3, #8
 8002caa:	d100      	bne.n	8002cae <HAL_RCC_OscConfig+0x4f2>
 8002cac:	e06b      	b.n	8002d86 <HAL_RCC_OscConfig+0x5ca>
 8002cae:	687b      	ldr	r3, [r7, #4]
 8002cb0:	6a1b      	ldr	r3, [r3, #32]
 8002cb2:	2b02      	cmp	r3, #2
 8002cb4:	d14c      	bne.n	8002d50 <HAL_RCC_OscConfig+0x594>
 8002cb6:	4b49      	ldr	r3, [pc, #292]	@ (8002ddc <HAL_RCC_OscConfig+0x620>)
 8002cb8:	681a      	ldr	r2, [r3, #0]
 8002cba:	4b48      	ldr	r3, [pc, #288]	@ (8002ddc <HAL_RCC_OscConfig+0x620>)
 8002cbc:	494a      	ldr	r1, [pc, #296]	@ (8002de8 <HAL_RCC_OscConfig+0x62c>)
 8002cbe:	400a      	ands	r2, r1
 8002cc0:	601a      	str	r2, [r3, #0]
 8002cc2:	f7ff f89d 	bl	8001e00 <HAL_GetTick>
 8002cc6:	0003      	movs	r3, r0
 8002cc8:	61bb      	str	r3, [r7, #24]
 8002cca:	e008      	b.n	8002cde <HAL_RCC_OscConfig+0x522>
 8002ccc:	f7ff f898 	bl	8001e00 <HAL_GetTick>
 8002cd0:	0002      	movs	r2, r0
 8002cd2:	69bb      	ldr	r3, [r7, #24]
 8002cd4:	1ad3      	subs	r3, r2, r3
 8002cd6:	2b02      	cmp	r3, #2
 8002cd8:	d901      	bls.n	8002cde <HAL_RCC_OscConfig+0x522>
 8002cda:	2303      	movs	r3, #3
 8002cdc:	e079      	b.n	8002dd2 <HAL_RCC_OscConfig+0x616>
 8002cde:	4b3f      	ldr	r3, [pc, #252]	@ (8002ddc <HAL_RCC_OscConfig+0x620>)
 8002ce0:	681a      	ldr	r2, [r3, #0]
 8002ce2:	2380      	movs	r3, #128	@ 0x80
 8002ce4:	049b      	lsls	r3, r3, #18
 8002ce6:	4013      	ands	r3, r2
 8002ce8:	d1f0      	bne.n	8002ccc <HAL_RCC_OscConfig+0x510>
 8002cea:	4b3c      	ldr	r3, [pc, #240]	@ (8002ddc <HAL_RCC_OscConfig+0x620>)
 8002cec:	6adb      	ldr	r3, [r3, #44]	@ 0x2c
 8002cee:	220f      	movs	r2, #15
 8002cf0:	4393      	bics	r3, r2
 8002cf2:	0019      	movs	r1, r3
 8002cf4:	687b      	ldr	r3, [r7, #4]
 8002cf6:	6ada      	ldr	r2, [r3, #44]	@ 0x2c
 8002cf8:	4b38      	ldr	r3, [pc, #224]	@ (8002ddc <HAL_RCC_OscConfig+0x620>)
 8002cfa:	430a      	orrs	r2, r1
 8002cfc:	62da      	str	r2, [r3, #44]	@ 0x2c
 8002cfe:	4b37      	ldr	r3, [pc, #220]	@ (8002ddc <HAL_RCC_OscConfig+0x620>)
 8002d00:	685b      	ldr	r3, [r3, #4]
 8002d02:	4a3a      	ldr	r2, [pc, #232]	@ (8002dec <HAL_RCC_OscConfig+0x630>)
 8002d04:	4013      	ands	r3, r2
 8002d06:	0019      	movs	r1, r3
 8002d08:	687b      	ldr	r3, [r7, #4]
 8002d0a:	6a9a      	ldr	r2, [r3, #40]	@ 0x28
 8002d0c:	687b      	ldr	r3, [r7, #4]
 8002d0e:	6a5b      	ldr	r3, [r3, #36]	@ 0x24
 8002d10:	431a      	orrs	r2, r3
 8002d12:	4b32      	ldr	r3, [pc, #200]	@ (8002ddc <HAL_RCC_OscConfig+0x620>)
 8002d14:	430a      	orrs	r2, r1
 8002d16:	605a      	str	r2, [r3, #4]
 8002d18:	4b30      	ldr	r3, [pc, #192]	@ (8002ddc <HAL_RCC_OscConfig+0x620>)
 8002d1a:	681a      	ldr	r2, [r3, #0]
 8002d1c:	4b2f      	ldr	r3, [pc, #188]	@ (8002ddc <HAL_RCC_OscConfig+0x620>)
 8002d1e:	2180      	movs	r1, #128	@ 0x80
 8002d20:	0449      	lsls	r1, r1, #17
 8002d22:	430a      	orrs	r2, r1
 8002d24:	601a      	str	r2, [r3, #0]
 8002d26:	f7ff f86b 	bl	8001e00 <HAL_GetTick>
 8002d2a:	0003      	movs	r3, r0
 8002d2c:	61bb      	str	r3, [r7, #24]
 8002d2e:	e008      	b.n	8002d42 <HAL_RCC_OscConfig+0x586>
 8002d30:	f7ff f866 	bl	8001e00 <HAL_GetTick>
 8002d34:	0002      	movs	r2, r0
 8002d36:	69bb      	ldr	r3, [r7, #24]
 8002d38:	1ad3      	subs	r3, r2, r3
 8002d3a:	2b02      	cmp	r3, #2
 8002d3c:	d901      	bls.n	8002d42 <HAL_RCC_OscConfig+0x586>
 8002d3e:	2303      	movs	r3, #3
 8002d40:	e047      	b.n	8002dd2 <HAL_RCC_OscConfig+0x616>
 8002d42:	4b26      	ldr	r3, [pc, #152]	@ (8002ddc <HAL_RCC_OscConfig+0x620>)
 8002d44:	681a      	ldr	r2, [r3, #0]
 8002d46:	2380      	movs	r3, #128	@ 0x80
 8002d48:	049b      	lsls	r3, r3, #18
 8002d4a:	4013      	ands	r3, r2
 8002d4c:	d0f0      	beq.n	8002d30 <HAL_RCC_OscConfig+0x574>
 8002d4e:	e03f      	b.n	8002dd0 <HAL_RCC_OscConfig+0x614>
 8002d50:	4b22      	ldr	r3, [pc, #136]	@ (8002ddc <HAL_RCC_OscConfig+0x620>)
 8002d52:	681a      	ldr	r2, [r3, #0]
 8002d54:	4b21      	ldr	r3, [pc, #132]	@ (8002ddc <HAL_RCC_OscConfig+0x620>)
 8002d56:	4924      	ldr	r1, [pc, #144]	@ (8002de8 <HAL_RCC_OscConfig+0x62c>)
 8002d58:	400a      	ands	r2, r1
 8002d5a:	601a      	str	r2, [r3, #0]
 8002d5c:	f7ff f850 	bl	8001e00 <HAL_GetTick>
 8002d60:	0003      	movs	r3, r0
 8002d62:	61bb      	str	r3, [r7, #24]
 8002d64:	e008      	b.n	8002d78 <HAL_RCC_OscConfig+0x5bc>
 8002d66:	f7ff f84b 	bl	8001e00 <HAL_GetTick>
 8002d6a:	0002      	movs	r2, r0
 8002d6c:	69bb      	ldr	r3, [r7, #24]
 8002d6e:	1ad3      	subs	r3, r2, r3
 8002d70:	2b02      	cmp	r3, #2
 8002d72:	d901      	bls.n	8002d78 <HAL_RCC_OscConfig+0x5bc>
 8002d74:	2303      	movs	r3, #3
 8002d76:	e02c      	b.n	8002dd2 <HAL_RCC_OscConfig+0x616>
 8002d78:	4b18      	ldr	r3, [pc, #96]	@ (8002ddc <HAL_RCC_OscConfig+0x620>)
 8002d7a:	681a      	ldr	r2, [r3, #0]
 8002d7c:	2380      	movs	r3, #128	@ 0x80
 8002d7e:	049b      	lsls	r3, r3, #18
 8002d80:	4013      	ands	r3, r2
 8002d82:	d1f0      	bne.n	8002d66 <HAL_RCC_OscConfig+0x5aa>
 8002d84:	e024      	b.n	8002dd0 <HAL_RCC_OscConfig+0x614>
 8002d86:	687b      	ldr	r3, [r7, #4]
 8002d88:	6a1b      	ldr	r3, [r3, #32]
 8002d8a:	2b01      	cmp	r3, #1
 8002d8c:	d101      	bne.n	8002d92 <HAL_RCC_OscConfig+0x5d6>
 8002d8e:	2301      	movs	r3, #1
 8002d90:	e01f      	b.n	8002dd2 <HAL_RCC_OscConfig+0x616>
 8002d92:	4b12      	ldr	r3, [pc, #72]	@ (8002ddc <HAL_RCC_OscConfig+0x620>)
 8002d94:	685b      	ldr	r3, [r3, #4]
 8002d96:	617b      	str	r3, [r7, #20]
 8002d98:	4b10      	ldr	r3, [pc, #64]	@ (8002ddc <HAL_RCC_OscConfig+0x620>)
 8002d9a:	6adb      	ldr	r3, [r3, #44]	@ 0x2c
 8002d9c:	613b      	str	r3, [r7, #16]
 8002d9e:	697a      	ldr	r2, [r7, #20]
 8002da0:	2380      	movs	r3, #128	@ 0x80
 8002da2:	025b      	lsls	r3, r3, #9
 8002da4:	401a      	ands	r2, r3
 8002da6:	687b      	ldr	r3, [r7, #4]
 8002da8:	6a5b      	ldr	r3, [r3, #36]	@ 0x24
 8002daa:	429a      	cmp	r2, r3
 8002dac:	d10e      	bne.n	8002dcc <HAL_RCC_OscConfig+0x610>
 8002dae:	693b      	ldr	r3, [r7, #16]
 8002db0:	220f      	movs	r2, #15
 8002db2:	401a      	ands	r2, r3
 8002db4:	687b      	ldr	r3, [r7, #4]
 8002db6:	6adb      	ldr	r3, [r3, #44]	@ 0x2c
 8002db8:	429a      	cmp	r2, r3
 8002dba:	d107      	bne.n	8002dcc <HAL_RCC_OscConfig+0x610>
 8002dbc:	697a      	ldr	r2, [r7, #20]
 8002dbe:	23f0      	movs	r3, #240	@ 0xf0
 8002dc0:	039b      	lsls	r3, r3, #14
 8002dc2:	401a      	ands	r2, r3
 8002dc4:	687b      	ldr	r3, [r7, #4]
 8002dc6:	6a9b      	ldr	r3, [r3, #40]	@ 0x28
 8002dc8:	429a      	cmp	r2, r3
 8002dca:	d001      	beq.n	8002dd0 <HAL_RCC_OscConfig+0x614>
 8002dcc:	2301      	movs	r3, #1
 8002dce:	e000      	b.n	8002dd2 <HAL_RCC_OscConfig+0x616>
 8002dd0:	2300      	movs	r3, #0
 8002dd2:	0018      	movs	r0, r3
 8002dd4:	46bd      	mov	sp, r7
 8002dd6:	b008      	add	sp, #32
 8002dd8:	bd80      	pop	{r7, pc}
 8002dda:	46c0      	nop			@ (mov r8, r8)
 8002ddc:	40021000 	.word	0x40021000
 8002de0:	00001388 	.word	0x00001388
 8002de4:	efffffff 	.word	0xefffffff
 8002de8:	feffffff 	.word	0xfeffffff
 8002dec:	ffc2ffff 	.word	0xffc2ffff

08002df0 <HAL_RCC_ClockConfig>:
 8002df0:	b580      	push	{r7, lr}
 8002df2:	b084      	sub	sp, #16
 8002df4:	af00      	add	r7, sp, #0
 8002df6:	6078      	str	r0, [r7, #4]
 8002df8:	6039      	str	r1, [r7, #0]
 8002dfa:	687b      	ldr	r3, [r7, #4]
 8002dfc:	2b00      	cmp	r3, #0
 8002dfe:	d101      	bne.n	8002e04 <HAL_RCC_ClockConfig+0x14>
 8002e00:	2301      	movs	r3, #1
 8002e02:	e0b3      	b.n	8002f6c <HAL_RCC_ClockConfig+0x17c>
 8002e04:	4b5b      	ldr	r3, [pc, #364]	@ (8002f74 <HAL_RCC_ClockConfig+0x184>)
 8002e06:	681b      	ldr	r3, [r3, #0]
 8002e08:	2201      	movs	r2, #1
 8002e0a:	4013      	ands	r3, r2
 8002e0c:	683a      	ldr	r2, [r7, #0]
 8002e0e:	429a      	cmp	r2, r3
 8002e10:	d911      	bls.n	8002e36 <HAL_RCC_ClockConfig+0x46>
 8002e12:	4b58      	ldr	r3, [pc, #352]	@ (8002f74 <HAL_RCC_ClockConfig+0x184>)
 8002e14:	681b      	ldr	r3, [r3, #0]
 8002e16:	2201      	movs	r2, #1
 8002e18:	4393      	bics	r3, r2
 8002e1a:	0019      	movs	r1, r3
 8002e1c:	4b55      	ldr	r3, [pc, #340]	@ (8002f74 <HAL_RCC_ClockConfig+0x184>)
 8002e1e:	683a      	ldr	r2, [r7, #0]
 8002e20:	430a      	orrs	r2, r1
 8002e22:	601a      	str	r2, [r3, #0]
 8002e24:	4b53      	ldr	r3, [pc, #332]	@ (8002f74 <HAL_RCC_ClockConfig+0x184>)
 8002e26:	681b      	ldr	r3, [r3, #0]
 8002e28:	2201      	movs	r2, #1
 8002e2a:	4013      	ands	r3, r2
 8002e2c:	683a      	ldr	r2, [r7, #0]
 8002e2e:	429a      	cmp	r2, r3
 8002e30:	d001      	beq.n	8002e36 <HAL_RCC_ClockConfig+0x46>
 8002e32:	2301      	movs	r3, #1
 8002e34:	e09a      	b.n	8002f6c <HAL_RCC_ClockConfig+0x17c>
 8002e36:	687b      	ldr	r3, [r7, #4]
 8002e38:	681b      	ldr	r3, [r3, #0]
 8002e3a:	2202      	movs	r2, #2
 8002e3c:	4013      	ands	r3, r2
 8002e3e:	d015      	beq.n	8002e6c <HAL_RCC_ClockConfig+0x7c>
 8002e40:	687b      	ldr	r3, [r7, #4]
 8002e42:	681b      	ldr	r3, [r3, #0]
 8002e44:	2204      	movs	r2, #4
 8002e46:	4013      	ands	r3, r2
 8002e48:	d006      	beq.n	8002e58 <HAL_RCC_ClockConfig+0x68>
 8002e4a:	4b4b      	ldr	r3, [pc, #300]	@ (8002f78 <HAL_RCC_ClockConfig+0x188>)
 8002e4c:	685a      	ldr	r2, [r3, #4]
 8002e4e:	4b4a      	ldr	r3, [pc, #296]	@ (8002f78 <HAL_RCC_ClockConfig+0x188>)
 8002e50:	21e0      	movs	r1, #224	@ 0xe0
 8002e52:	00c9      	lsls	r1, r1, #3
 8002e54:	430a      	orrs	r2, r1
 8002e56:	605a      	str	r2, [r3, #4]
 8002e58:	4b47      	ldr	r3, [pc, #284]	@ (8002f78 <HAL_RCC_ClockConfig+0x188>)
 8002e5a:	685b      	ldr	r3, [r3, #4]
 8002e5c:	22f0      	movs	r2, #240	@ 0xf0
 8002e5e:	4393      	bics	r3, r2
 8002e60:	0019      	movs	r1, r3
 8002e62:	687b      	ldr	r3, [r7, #4]
 8002e64:	689a      	ldr	r2, [r3, #8]
 8002e66:	4b44      	ldr	r3, [pc, #272]	@ (8002f78 <HAL_RCC_ClockConfig+0x188>)
 8002e68:	430a      	orrs	r2, r1
 8002e6a:	605a      	str	r2, [r3, #4]
 8002e6c:	687b      	ldr	r3, [r7, #4]
 8002e6e:	681b      	ldr	r3, [r3, #0]
 8002e70:	2201      	movs	r2, #1
 8002e72:	4013      	ands	r3, r2
 8002e74:	d040      	beq.n	8002ef8 <HAL_RCC_ClockConfig+0x108>
 8002e76:	687b      	ldr	r3, [r7, #4]
 8002e78:	685b      	ldr	r3, [r3, #4]
 8002e7a:	2b01      	cmp	r3, #1
 8002e7c:	d107      	bne.n	8002e8e <HAL_RCC_ClockConfig+0x9e>
 8002e7e:	4b3e      	ldr	r3, [pc, #248]	@ (8002f78 <HAL_RCC_ClockConfig+0x188>)
 8002e80:	681a      	ldr	r2, [r3, #0]
 8002e82:	2380      	movs	r3, #128	@ 0x80
 8002e84:	029b      	lsls	r3, r3, #10
 8002e86:	4013      	ands	r3, r2
 8002e88:	d114      	bne.n	8002eb4 <HAL_RCC_ClockConfig+0xc4>
 8002e8a:	2301      	movs	r3, #1
 8002e8c:	e06e      	b.n	8002f6c <HAL_RCC_ClockConfig+0x17c>
 8002e8e:	687b      	ldr	r3, [r7, #4]
 8002e90:	685b      	ldr	r3, [r3, #4]
 8002e92:	2b02      	cmp	r3, #2
 8002e94:	d107      	bne.n	8002ea6 <HAL_RCC_ClockConfig+0xb6>
 8002e96:	4b38      	ldr	r3, [pc, #224]	@ (8002f78 <HAL_RCC_ClockConfig+0x188>)
 8002e98:	681a      	ldr	r2, [r3, #0]
 8002e9a:	2380      	movs	r3, #128	@ 0x80
 8002e9c:	049b      	lsls	r3, r3, #18
 8002e9e:	4013      	ands	r3, r2
 8002ea0:	d108      	bne.n	8002eb4 <HAL_RCC_ClockConfig+0xc4>
 8002ea2:	2301      	movs	r3, #1
 8002ea4:	e062      	b.n	8002f6c <HAL_RCC_ClockConfig+0x17c>
 8002ea6:	4b34      	ldr	r3, [pc, #208]	@ (8002f78 <HAL_RCC_ClockConfig+0x188>)
 8002ea8:	681b      	ldr	r3, [r3, #0]
 8002eaa:	2202      	movs	r2, #2
 8002eac:	4013      	ands	r3, r2
 8002eae:	d101      	bne.n	8002eb4 <HAL_RCC_ClockConfig+0xc4>
 8002eb0:	2301      	movs	r3, #1
 8002eb2:	e05b      	b.n	8002f6c <HAL_RCC_ClockConfig+0x17c>
 8002eb4:	4b30      	ldr	r3, [pc, #192]	@ (8002f78 <HAL_RCC_ClockConfig+0x188>)
 8002eb6:	685b      	ldr	r3, [r3, #4]
 8002eb8:	2203      	movs	r2, #3
 8002eba:	4393      	bics	r3, r2
 8002ebc:	0019      	movs	r1, r3
 8002ebe:	687b      	ldr	r3, [r7, #4]
 8002ec0:	685a      	ldr	r2, [r3, #4]
 8002ec2:	4b2d      	ldr	r3, [pc, #180]	@ (8002f78 <HAL_RCC_ClockConfig+0x188>)
 8002ec4:	430a      	orrs	r2, r1
 8002ec6:	605a      	str	r2, [r3, #4]
 8002ec8:	f7fe ff9a 	bl	8001e00 <HAL_GetTick>
 8002ecc:	0003      	movs	r3, r0
 8002ece:	60fb      	str	r3, [r7, #12]
 8002ed0:	e009      	b.n	8002ee6 <HAL_RCC_ClockConfig+0xf6>
 8002ed2:	f7fe ff95 	bl	8001e00 <HAL_GetTick>
 8002ed6:	0002      	movs	r2, r0
 8002ed8:	68fb      	ldr	r3, [r7, #12]
 8002eda:	1ad3      	subs	r3, r2, r3
 8002edc:	4a27      	ldr	r2, [pc, #156]	@ (8002f7c <HAL_RCC_ClockConfig+0x18c>)
 8002ede:	4293      	cmp	r3, r2
 8002ee0:	d901      	bls.n	8002ee6 <HAL_RCC_ClockConfig+0xf6>
 8002ee2:	2303      	movs	r3, #3
 8002ee4:	e042      	b.n	8002f6c <HAL_RCC_ClockConfig+0x17c>
 8002ee6:	4b24      	ldr	r3, [pc, #144]	@ (8002f78 <HAL_RCC_ClockConfig+0x188>)
 8002ee8:	685b      	ldr	r3, [r3, #4]
 8002eea:	220c      	movs	r2, #12
 8002eec:	401a      	ands	r2, r3
 8002eee:	687b      	ldr	r3, [r7, #4]
 8002ef0:	685b      	ldr	r3, [r3, #4]
 8002ef2:	009b      	lsls	r3, r3, #2
 8002ef4:	429a      	cmp	r2, r3
 8002ef6:	d1ec      	bne.n	8002ed2 <HAL_RCC_ClockConfig+0xe2>
 8002ef8:	4b1e      	ldr	r3, [pc, #120]	@ (8002f74 <HAL_RCC_ClockConfig+0x184>)
 8002efa:	681b      	ldr	r3, [r3, #0]
 8002efc:	2201      	movs	r2, #1
 8002efe:	4013      	ands	r3, r2
 8002f00:	683a      	ldr	r2, [r7, #0]
 8002f02:	429a      	cmp	r2, r3
 8002f04:	d211      	bcs.n	8002f2a <HAL_RCC_ClockConfig+0x13a>
 8002f06:	4b1b      	ldr	r3, [pc, #108]	@ (8002f74 <HAL_RCC_ClockConfig+0x184>)
 8002f08:	681b      	ldr	r3, [r3, #0]
 8002f0a:	2201      	movs	r2, #1
 8002f0c:	4393      	bics	r3, r2
 8002f0e:	0019      	movs	r1, r3
 8002f10:	4b18      	ldr	r3, [pc, #96]	@ (8002f74 <HAL_RCC_ClockConfig+0x184>)
 8002f12:	683a      	ldr	r2, [r7, #0]
 8002f14:	430a      	orrs	r2, r1
 8002f16:	601a      	str	r2, [r3, #0]
 8002f18:	4b16      	ldr	r3, [pc, #88]	@ (8002f74 <HAL_RCC_ClockConfig+0x184>)
 8002f1a:	681b      	ldr	r3, [r3, #0]
 8002f1c:	2201      	movs	r2, #1
 8002f1e:	4013      	ands	r3, r2
 8002f20:	683a      	ldr	r2, [r7, #0]
 8002f22:	429a      	cmp	r2, r3
 8002f24:	d001      	beq.n	8002f2a <HAL_RCC_ClockConfig+0x13a>
 8002f26:	2301      	movs	r3, #1
 8002f28:	e020      	b.n	8002f6c <HAL_RCC_ClockConfig+0x17c>
 8002f2a:	687b      	ldr	r3, [r7, #4]
 8002f2c:	681b      	ldr	r3, [r3, #0]
 8002f2e:	2204      	movs	r2, #4
 8002f30:	4013      	ands	r3, r2
 8002f32:	d009      	beq.n	8002f48 <HAL_RCC_ClockConfig+0x158>
 8002f34:	4b10      	ldr	r3, [pc, #64]	@ (8002f78 <HAL_RCC_ClockConfig+0x188>)
 8002f36:	685b      	ldr	r3, [r3, #4]
 8002f38:	4a11      	ldr	r2, [pc, #68]	@ (8002f80 <HAL_RCC_ClockConfig+0x190>)
 8002f3a:	4013      	ands	r3, r2
 8002f3c:	0019      	movs	r1, r3
 8002f3e:	687b      	ldr	r3, [r7, #4]
 8002f40:	68da      	ldr	r2, [r3, #12]
 8002f42:	4b0d      	ldr	r3, [pc, #52]	@ (8002f78 <HAL_RCC_ClockConfig+0x188>)
 8002f44:	430a      	orrs	r2, r1
 8002f46:	605a      	str	r2, [r3, #4]
 8002f48:	f000 f820 	bl	8002f8c <HAL_RCC_GetSysClockFreq>
 8002f4c:	0001      	movs	r1, r0
 8002f4e:	4b0a      	ldr	r3, [pc, #40]	@ (8002f78 <HAL_RCC_ClockConfig+0x188>)
 8002f50:	685b      	ldr	r3, [r3, #4]
 8002f52:	091b      	lsrs	r3, r3, #4
 8002f54:	220f      	movs	r2, #15
 8002f56:	4013      	ands	r3, r2
 8002f58:	4a0a      	ldr	r2, [pc, #40]	@ (8002f84 <HAL_RCC_ClockConfig+0x194>)
 8002f5a:	5cd3      	ldrb	r3, [r2, r3]
 8002f5c:	000a      	movs	r2, r1
 8002f5e:	40da      	lsrs	r2, r3
 8002f60:	4b09      	ldr	r3, [pc, #36]	@ (8002f88 <HAL_RCC_ClockConfig+0x198>)
 8002f62:	601a      	str	r2, [r3, #0]
 8002f64:	2000      	movs	r0, #0
 8002f66:	f7fe ff05 	bl	8001d74 <HAL_InitTick>
 8002f6a:	2300      	movs	r3, #0
 8002f6c:	0018      	movs	r0, r3
 8002f6e:	46bd      	mov	sp, r7
 8002f70:	b004      	add	sp, #16
 8002f72:	bd80      	pop	{r7, pc}
 8002f74:	40022000 	.word	0x40022000
 8002f78:	40021000 	.word	0x40021000
 8002f7c:	00001388 	.word	0x00001388
 8002f80:	fffff8ff 	.word	0xfffff8ff
 8002f84:	080058d0 	.word	0x080058d0
 8002f88:	20000004 	.word	0x20000004

08002f8c <HAL_RCC_GetSysClockFreq>:
 8002f8c:	b580      	push	{r7, lr}
 8002f8e:	b086      	sub	sp, #24
 8002f90:	af00      	add	r7, sp, #0
 8002f92:	2300      	movs	r3, #0
 8002f94:	60fb      	str	r3, [r7, #12]
 8002f96:	2300      	movs	r3, #0
 8002f98:	60bb      	str	r3, [r7, #8]
 8002f9a:	2300      	movs	r3, #0
 8002f9c:	617b      	str	r3, [r7, #20]
 8002f9e:	2300      	movs	r3, #0
 8002fa0:	607b      	str	r3, [r7, #4]
 8002fa2:	2300      	movs	r3, #0
 8002fa4:	613b      	str	r3, [r7, #16]
 8002fa6:	4b20      	ldr	r3, [pc, #128]	@ (8003028 <HAL_RCC_GetSysClockFreq+0x9c>)
 8002fa8:	685b      	ldr	r3, [r3, #4]
 8002faa:	60fb      	str	r3, [r7, #12]
 8002fac:	68fb      	ldr	r3, [r7, #12]
 8002fae:	220c      	movs	r2, #12
 8002fb0:	4013      	ands	r3, r2
 8002fb2:	2b04      	cmp	r3, #4
 8002fb4:	d002      	beq.n	8002fbc <HAL_RCC_GetSysClockFreq+0x30>
 8002fb6:	2b08      	cmp	r3, #8
 8002fb8:	d003      	beq.n	8002fc2 <HAL_RCC_GetSysClockFreq+0x36>
 8002fba:	e02c      	b.n	8003016 <HAL_RCC_GetSysClockFreq+0x8a>
 8002fbc:	4b1b      	ldr	r3, [pc, #108]	@ (800302c <HAL_RCC_GetSysClockFreq+0xa0>)
 8002fbe:	613b      	str	r3, [r7, #16]
 8002fc0:	e02c      	b.n	800301c <HAL_RCC_GetSysClockFreq+0x90>
 8002fc2:	68fb      	ldr	r3, [r7, #12]
 8002fc4:	0c9b      	lsrs	r3, r3, #18
 8002fc6:	220f      	movs	r2, #15
 8002fc8:	4013      	ands	r3, r2
 8002fca:	4a19      	ldr	r2, [pc, #100]	@ (8003030 <HAL_RCC_GetSysClockFreq+0xa4>)
 8002fcc:	5cd3      	ldrb	r3, [r2, r3]
 8002fce:	607b      	str	r3, [r7, #4]
 8002fd0:	4b15      	ldr	r3, [pc, #84]	@ (8003028 <HAL_RCC_GetSysClockFreq+0x9c>)
 8002fd2:	6adb      	ldr	r3, [r3, #44]	@ 0x2c
 8002fd4:	220f      	movs	r2, #15
 8002fd6:	4013      	ands	r3, r2
 8002fd8:	4a16      	ldr	r2, [pc, #88]	@ (8003034 <HAL_RCC_GetSysClockFreq+0xa8>)
 8002fda:	5cd3      	ldrb	r3, [r2, r3]
 8002fdc:	60bb      	str	r3, [r7, #8]
 8002fde:	68fa      	ldr	r2, [r7, #12]
 8002fe0:	2380      	movs	r3, #128	@ 0x80
 8002fe2:	025b      	lsls	r3, r3, #9
 8002fe4:	4013      	ands	r3, r2
 8002fe6:	d009      	beq.n	8002ffc <HAL_RCC_GetSysClockFreq+0x70>
 8002fe8:	68b9      	ldr	r1, [r7, #8]
 8002fea:	4810      	ldr	r0, [pc, #64]	@ (800302c <HAL_RCC_GetSysClockFreq+0xa0>)
 8002fec:	f7fd f894 	bl	8000118 <__udivsi3>
 8002ff0:	0003      	movs	r3, r0
 8002ff2:	001a      	movs	r2, r3
 8002ff4:	687b      	ldr	r3, [r7, #4]
 8002ff6:	4353      	muls	r3, r2
 8002ff8:	617b      	str	r3, [r7, #20]
 8002ffa:	e009      	b.n	8003010 <HAL_RCC_GetSysClockFreq+0x84>
 8002ffc:	6879      	ldr	r1, [r7, #4]
 8002ffe:	000a      	movs	r2, r1
 8003000:	0152      	lsls	r2, r2, #5
 8003002:	1a52      	subs	r2, r2, r1
 8003004:	0193      	lsls	r3, r2, #6
 8003006:	1a9b      	subs	r3, r3, r2
 8003008:	00db      	lsls	r3, r3, #3
 800300a:	185b      	adds	r3, r3, r1
 800300c:	021b      	lsls	r3, r3, #8
 800300e:	617b      	str	r3, [r7, #20]
 8003010:	697b      	ldr	r3, [r7, #20]
 8003012:	613b      	str	r3, [r7, #16]
 8003014:	e002      	b.n	800301c <HAL_RCC_GetSysClockFreq+0x90>
 8003016:	4b05      	ldr	r3, [pc, #20]	@ (800302c <HAL_RCC_GetSysClockFreq+0xa0>)
 8003018:	613b      	str	r3, [r7, #16]
 800301a:	46c0      	nop			@ (mov r8, r8)
 800301c:	693b      	ldr	r3, [r7, #16]
 800301e:	0018      	movs	r0, r3
 8003020:	46bd      	mov	sp, r7
 8003022:	b006      	add	sp, #24
 8003024:	bd80      	pop	{r7, pc}
 8003026:	46c0      	nop			@ (mov r8, r8)
 8003028:	40021000 	.word	0x40021000
 800302c:	007a1200 	.word	0x007a1200
 8003030:	080058e8 	.word	0x080058e8
 8003034:	080058f8 	.word	0x080058f8

08003038 <HAL_RCC_GetHCLKFreq>:
 8003038:	b580      	push	{r7, lr}
 800303a:	af00      	add	r7, sp, #0
 800303c:	4b02      	ldr	r3, [pc, #8]	@ (8003048 <HAL_RCC_GetHCLKFreq+0x10>)
 800303e:	681b      	ldr	r3, [r3, #0]
 8003040:	0018      	movs	r0, r3
 8003042:	46bd      	mov	sp, r7
 8003044:	bd80      	pop	{r7, pc}
 8003046:	46c0      	nop			@ (mov r8, r8)
 8003048:	20000004 	.word	0x20000004

0800304c <HAL_RCC_GetPCLK1Freq>:
 800304c:	b580      	push	{r7, lr}
 800304e:	af00      	add	r7, sp, #0
 8003050:	f7ff fff2 	bl	8003038 <HAL_RCC_GetHCLKFreq>
 8003054:	0001      	movs	r1, r0
 8003056:	4b06      	ldr	r3, [pc, #24]	@ (8003070 <HAL_RCC_GetPCLK1Freq+0x24>)
 8003058:	685b      	ldr	r3, [r3, #4]
 800305a:	0a1b      	lsrs	r3, r3, #8
 800305c:	2207      	movs	r2, #7
 800305e:	4013      	ands	r3, r2
 8003060:	4a04      	ldr	r2, [pc, #16]	@ (8003074 <HAL_RCC_GetPCLK1Freq+0x28>)
 8003062:	5cd3      	ldrb	r3, [r2, r3]
 8003064:	40d9      	lsrs	r1, r3
 8003066:	000b      	movs	r3, r1
 8003068:	0018      	movs	r0, r3
 800306a:	46bd      	mov	sp, r7
 800306c:	bd80      	pop	{r7, pc}
 800306e:	46c0      	nop			@ (mov r8, r8)
 8003070:	40021000 	.word	0x40021000
 8003074:	080058e0 	.word	0x080058e0

08003078 <HAL_SPI_Init>:
 8003078:	b580      	push	{r7, lr}
 800307a:	b084      	sub	sp, #16
 800307c:	af00      	add	r7, sp, #0
 800307e:	6078      	str	r0, [r7, #4]
 8003080:	687b      	ldr	r3, [r7, #4]
 8003082:	2b00      	cmp	r3, #0
 8003084:	d101      	bne.n	800308a <HAL_SPI_Init+0x12>
 8003086:	2301      	movs	r3, #1
 8003088:	e0a8      	b.n	80031dc <HAL_SPI_Init+0x164>
 800308a:	687b      	ldr	r3, [r7, #4]
 800308c:	6a5b      	ldr	r3, [r3, #36]	@ 0x24
 800308e:	2b00      	cmp	r3, #0
 8003090:	d109      	bne.n	80030a6 <HAL_SPI_Init+0x2e>
 8003092:	687b      	ldr	r3, [r7, #4]
 8003094:	685a      	ldr	r2, [r3, #4]
 8003096:	2382      	movs	r3, #130	@ 0x82
 8003098:	005b      	lsls	r3, r3, #1
 800309a:	429a      	cmp	r2, r3
 800309c:	d009      	beq.n	80030b2 <HAL_SPI_Init+0x3a>
 800309e:	687b      	ldr	r3, [r7, #4]
 80030a0:	2200      	movs	r2, #0
 80030a2:	61da      	str	r2, [r3, #28]
 80030a4:	e005      	b.n	80030b2 <HAL_SPI_Init+0x3a>
 80030a6:	687b      	ldr	r3, [r7, #4]
 80030a8:	2200      	movs	r2, #0
 80030aa:	611a      	str	r2, [r3, #16]
 80030ac:	687b      	ldr	r3, [r7, #4]
 80030ae:	2200      	movs	r2, #0
 80030b0:	615a      	str	r2, [r3, #20]
 80030b2:	687b      	ldr	r3, [r7, #4]
 80030b4:	2200      	movs	r2, #0
 80030b6:	629a      	str	r2, [r3, #40]	@ 0x28
 80030b8:	687b      	ldr	r3, [r7, #4]
 80030ba:	225d      	movs	r2, #93	@ 0x5d
 80030bc:	5c9b      	ldrb	r3, [r3, r2]
 80030be:	b2db      	uxtb	r3, r3
 80030c0:	2b00      	cmp	r3, #0
 80030c2:	d107      	bne.n	80030d4 <HAL_SPI_Init+0x5c>
 80030c4:	687b      	ldr	r3, [r7, #4]
 80030c6:	225c      	movs	r2, #92	@ 0x5c
 80030c8:	2100      	movs	r1, #0
 80030ca:	5499      	strb	r1, [r3, r2]
 80030cc:	687b      	ldr	r3, [r7, #4]
 80030ce:	0018      	movs	r0, r3
 80030d0:	f7fe fbe0 	bl	8001894 <HAL_SPI_MspInit>
 80030d4:	687b      	ldr	r3, [r7, #4]
 80030d6:	225d      	movs	r2, #93	@ 0x5d
 80030d8:	2102      	movs	r1, #2
 80030da:	5499      	strb	r1, [r3, r2]
 80030dc:	687b      	ldr	r3, [r7, #4]
 80030de:	681b      	ldr	r3, [r3, #0]
 80030e0:	681a      	ldr	r2, [r3, #0]
 80030e2:	687b      	ldr	r3, [r7, #4]
 80030e4:	681b      	ldr	r3, [r3, #0]
 80030e6:	2140      	movs	r1, #64	@ 0x40
 80030e8:	438a      	bics	r2, r1
 80030ea:	601a      	str	r2, [r3, #0]
 80030ec:	687b      	ldr	r3, [r7, #4]
 80030ee:	68da      	ldr	r2, [r3, #12]
 80030f0:	23e0      	movs	r3, #224	@ 0xe0
 80030f2:	00db      	lsls	r3, r3, #3
 80030f4:	429a      	cmp	r2, r3
 80030f6:	d902      	bls.n	80030fe <HAL_SPI_Init+0x86>
 80030f8:	2300      	movs	r3, #0
 80030fa:	60fb      	str	r3, [r7, #12]
 80030fc:	e002      	b.n	8003104 <HAL_SPI_Init+0x8c>
 80030fe:	2380      	movs	r3, #128	@ 0x80
 8003100:	015b      	lsls	r3, r3, #5
 8003102:	60fb      	str	r3, [r7, #12]
 8003104:	687b      	ldr	r3, [r7, #4]
 8003106:	68da      	ldr	r2, [r3, #12]
 8003108:	23f0      	movs	r3, #240	@ 0xf0
 800310a:	011b      	lsls	r3, r3, #4
 800310c:	429a      	cmp	r2, r3
 800310e:	d008      	beq.n	8003122 <HAL_SPI_Init+0xaa>
 8003110:	687b      	ldr	r3, [r7, #4]
 8003112:	68da      	ldr	r2, [r3, #12]
 8003114:	23e0      	movs	r3, #224	@ 0xe0
 8003116:	00db      	lsls	r3, r3, #3
 8003118:	429a      	cmp	r2, r3
 800311a:	d002      	beq.n	8003122 <HAL_SPI_Init+0xaa>
 800311c:	687b      	ldr	r3, [r7, #4]
 800311e:	2200      	movs	r2, #0
 8003120:	629a      	str	r2, [r3, #40]	@ 0x28
 8003122:	687b      	ldr	r3, [r7, #4]
 8003124:	685a      	ldr	r2, [r3, #4]
 8003126:	2382      	movs	r3, #130	@ 0x82
 8003128:	005b      	lsls	r3, r3, #1
 800312a:	401a      	ands	r2, r3
 800312c:	687b      	ldr	r3, [r7, #4]
 800312e:	6899      	ldr	r1, [r3, #8]
 8003130:	2384      	movs	r3, #132	@ 0x84
 8003132:	021b      	lsls	r3, r3, #8
 8003134:	400b      	ands	r3, r1
 8003136:	431a      	orrs	r2, r3
 8003138:	687b      	ldr	r3, [r7, #4]
 800313a:	691b      	ldr	r3, [r3, #16]
 800313c:	2102      	movs	r1, #2
 800313e:	400b      	ands	r3, r1
 8003140:	431a      	orrs	r2, r3
 8003142:	687b      	ldr	r3, [r7, #4]
 8003144:	695b      	ldr	r3, [r3, #20]
 8003146:	2101      	movs	r1, #1
 8003148:	400b      	ands	r3, r1
 800314a:	431a      	orrs	r2, r3
 800314c:	687b      	ldr	r3, [r7, #4]
 800314e:	6999      	ldr	r1, [r3, #24]
 8003150:	2380      	movs	r3, #128	@ 0x80
 8003152:	009b      	lsls	r3, r3, #2
 8003154:	400b      	ands	r3, r1
 8003156:	431a      	orrs	r2, r3
 8003158:	687b      	ldr	r3, [r7, #4]
 800315a:	69db      	ldr	r3, [r3, #28]
 800315c:	2138      	movs	r1, #56	@ 0x38
 800315e:	400b      	ands	r3, r1
 8003160:	431a      	orrs	r2, r3
 8003162:	687b      	ldr	r3, [r7, #4]
 8003164:	6a1b      	ldr	r3, [r3, #32]
 8003166:	2180      	movs	r1, #128	@ 0x80
 8003168:	400b      	ands	r3, r1
 800316a:	431a      	orrs	r2, r3
 800316c:	0011      	movs	r1, r2
 800316e:	687b      	ldr	r3, [r7, #4]
 8003170:	6a9a      	ldr	r2, [r3, #40]	@ 0x28
 8003172:	2380      	movs	r3, #128	@ 0x80
 8003174:	019b      	lsls	r3, r3, #6
 8003176:	401a      	ands	r2, r3
 8003178:	687b      	ldr	r3, [r7, #4]
 800317a:	681b      	ldr	r3, [r3, #0]
 800317c:	430a      	orrs	r2, r1
 800317e:	601a      	str	r2, [r3, #0]
 8003180:	687b      	ldr	r3, [r7, #4]
 8003182:	699b      	ldr	r3, [r3, #24]
 8003184:	0c1b      	lsrs	r3, r3, #16
 8003186:	2204      	movs	r2, #4
 8003188:	401a      	ands	r2, r3
 800318a:	687b      	ldr	r3, [r7, #4]
 800318c:	6a5b      	ldr	r3, [r3, #36]	@ 0x24
 800318e:	2110      	movs	r1, #16
 8003190:	400b      	ands	r3, r1
 8003192:	431a      	orrs	r2, r3
 8003194:	687b      	ldr	r3, [r7, #4]
 8003196:	6b5b      	ldr	r3, [r3, #52]	@ 0x34
 8003198:	2108      	movs	r1, #8
 800319a:	400b      	ands	r3, r1
 800319c:	431a      	orrs	r2, r3
 800319e:	687b      	ldr	r3, [r7, #4]
 80031a0:	68d9      	ldr	r1, [r3, #12]
 80031a2:	23f0      	movs	r3, #240	@ 0xf0
 80031a4:	011b      	lsls	r3, r3, #4
 80031a6:	400b      	ands	r3, r1
 80031a8:	431a      	orrs	r2, r3
 80031aa:	0011      	movs	r1, r2
 80031ac:	68fa      	ldr	r2, [r7, #12]
 80031ae:	2380      	movs	r3, #128	@ 0x80
 80031b0:	015b      	lsls	r3, r3, #5
 80031b2:	401a      	ands	r2, r3
 80031b4:	687b      	ldr	r3, [r7, #4]
 80031b6:	681b      	ldr	r3, [r3, #0]
 80031b8:	430a      	orrs	r2, r1
 80031ba:	605a      	str	r2, [r3, #4]
 80031bc:	687b      	ldr	r3, [r7, #4]
 80031be:	681b      	ldr	r3, [r3, #0]
 80031c0:	69da      	ldr	r2, [r3, #28]
 80031c2:	687b      	ldr	r3, [r7, #4]
 80031c4:	681b      	ldr	r3, [r3, #0]
 80031c6:	4907      	ldr	r1, [pc, #28]	@ (80031e4 <HAL_SPI_Init+0x16c>)
 80031c8:	400a      	ands	r2, r1
 80031ca:	61da      	str	r2, [r3, #28]
 80031cc:	687b      	ldr	r3, [r7, #4]
 80031ce:	2200      	movs	r2, #0
 80031d0:	661a      	str	r2, [r3, #96]	@ 0x60
 80031d2:	687b      	ldr	r3, [r7, #4]
 80031d4:	225d      	movs	r2, #93	@ 0x5d
 80031d6:	2101      	movs	r1, #1
 80031d8:	5499      	strb	r1, [r3, r2]
 80031da:	2300      	movs	r3, #0
 80031dc:	0018      	movs	r0, r3
 80031de:	46bd      	mov	sp, r7
 80031e0:	b004      	add	sp, #16
 80031e2:	bd80      	pop	{r7, pc}
 80031e4:	fffff7ff 	.word	0xfffff7ff

080031e8 <HAL_SPI_Transmit>:
 80031e8:	b580      	push	{r7, lr}
 80031ea:	b088      	sub	sp, #32
 80031ec:	af00      	add	r7, sp, #0
 80031ee:	60f8      	str	r0, [r7, #12]
 80031f0:	60b9      	str	r1, [r7, #8]
 80031f2:	603b      	str	r3, [r7, #0]
 80031f4:	1dbb      	adds	r3, r7, #6
 80031f6:	801a      	strh	r2, [r3, #0]
 80031f8:	231f      	movs	r3, #31
 80031fa:	18fb      	adds	r3, r7, r3
 80031fc:	2200      	movs	r2, #0
 80031fe:	701a      	strb	r2, [r3, #0]
 8003200:	68fb      	ldr	r3, [r7, #12]
 8003202:	225c      	movs	r2, #92	@ 0x5c
 8003204:	5c9b      	ldrb	r3, [r3, r2]
 8003206:	2b01      	cmp	r3, #1
 8003208:	d101      	bne.n	800320e <HAL_SPI_Transmit+0x26>
 800320a:	2302      	movs	r3, #2
 800320c:	e147      	b.n	800349e <HAL_SPI_Transmit+0x2b6>
 800320e:	68fb      	ldr	r3, [r7, #12]
 8003210:	225c      	movs	r2, #92	@ 0x5c
 8003212:	2101      	movs	r1, #1
 8003214:	5499      	strb	r1, [r3, r2]
 8003216:	f7fe fdf3 	bl	8001e00 <HAL_GetTick>
 800321a:	0003      	movs	r3, r0
 800321c:	61bb      	str	r3, [r7, #24]
 800321e:	2316      	movs	r3, #22
 8003220:	18fb      	adds	r3, r7, r3
 8003222:	1dba      	adds	r2, r7, #6
 8003224:	8812      	ldrh	r2, [r2, #0]
 8003226:	801a      	strh	r2, [r3, #0]
 8003228:	68fb      	ldr	r3, [r7, #12]
 800322a:	225d      	movs	r2, #93	@ 0x5d
 800322c:	5c9b      	ldrb	r3, [r3, r2]
 800322e:	b2db      	uxtb	r3, r3
 8003230:	2b01      	cmp	r3, #1
 8003232:	d004      	beq.n	800323e <HAL_SPI_Transmit+0x56>
 8003234:	231f      	movs	r3, #31
 8003236:	18fb      	adds	r3, r7, r3
 8003238:	2202      	movs	r2, #2
 800323a:	701a      	strb	r2, [r3, #0]
 800323c:	e128      	b.n	8003490 <HAL_SPI_Transmit+0x2a8>
 800323e:	68bb      	ldr	r3, [r7, #8]
 8003240:	2b00      	cmp	r3, #0
 8003242:	d003      	beq.n	800324c <HAL_SPI_Transmit+0x64>
 8003244:	1dbb      	adds	r3, r7, #6
 8003246:	881b      	ldrh	r3, [r3, #0]
 8003248:	2b00      	cmp	r3, #0
 800324a:	d104      	bne.n	8003256 <HAL_SPI_Transmit+0x6e>
 800324c:	231f      	movs	r3, #31
 800324e:	18fb      	adds	r3, r7, r3
 8003250:	2201      	movs	r2, #1
 8003252:	701a      	strb	r2, [r3, #0]
 8003254:	e11c      	b.n	8003490 <HAL_SPI_Transmit+0x2a8>
 8003256:	68fb      	ldr	r3, [r7, #12]
 8003258:	225d      	movs	r2, #93	@ 0x5d
 800325a:	2103      	movs	r1, #3
 800325c:	5499      	strb	r1, [r3, r2]
 800325e:	68fb      	ldr	r3, [r7, #12]
 8003260:	2200      	movs	r2, #0
 8003262:	661a      	str	r2, [r3, #96]	@ 0x60
 8003264:	68fb      	ldr	r3, [r7, #12]
 8003266:	68ba      	ldr	r2, [r7, #8]
 8003268:	639a      	str	r2, [r3, #56]	@ 0x38
 800326a:	68fb      	ldr	r3, [r7, #12]
 800326c:	1dba      	adds	r2, r7, #6
 800326e:	8812      	ldrh	r2, [r2, #0]
 8003270:	879a      	strh	r2, [r3, #60]	@ 0x3c
 8003272:	68fb      	ldr	r3, [r7, #12]
 8003274:	1dba      	adds	r2, r7, #6
 8003276:	8812      	ldrh	r2, [r2, #0]
 8003278:	87da      	strh	r2, [r3, #62]	@ 0x3e
 800327a:	68fb      	ldr	r3, [r7, #12]
 800327c:	2200      	movs	r2, #0
 800327e:	641a      	str	r2, [r3, #64]	@ 0x40
 8003280:	68fb      	ldr	r3, [r7, #12]
 8003282:	2244      	movs	r2, #68	@ 0x44
 8003284:	2100      	movs	r1, #0
 8003286:	5299      	strh	r1, [r3, r2]
 8003288:	68fb      	ldr	r3, [r7, #12]
 800328a:	2246      	movs	r2, #70	@ 0x46
 800328c:	2100      	movs	r1, #0
 800328e:	5299      	strh	r1, [r3, r2]
 8003290:	68fb      	ldr	r3, [r7, #12]
 8003292:	2200      	movs	r2, #0
 8003294:	651a      	str	r2, [r3, #80]	@ 0x50
 8003296:	68fb      	ldr	r3, [r7, #12]
 8003298:	2200      	movs	r2, #0
 800329a:	64da      	str	r2, [r3, #76]	@ 0x4c
 800329c:	68fb      	ldr	r3, [r7, #12]
 800329e:	689a      	ldr	r2, [r3, #8]
 80032a0:	2380      	movs	r3, #128	@ 0x80
 80032a2:	021b      	lsls	r3, r3, #8
 80032a4:	429a      	cmp	r2, r3
 80032a6:	d110      	bne.n	80032ca <HAL_SPI_Transmit+0xe2>
 80032a8:	68fb      	ldr	r3, [r7, #12]
 80032aa:	681b      	ldr	r3, [r3, #0]
 80032ac:	681a      	ldr	r2, [r3, #0]
 80032ae:	68fb      	ldr	r3, [r7, #12]
 80032b0:	681b      	ldr	r3, [r3, #0]
 80032b2:	2140      	movs	r1, #64	@ 0x40
 80032b4:	438a      	bics	r2, r1
 80032b6:	601a      	str	r2, [r3, #0]
 80032b8:	68fb      	ldr	r3, [r7, #12]
 80032ba:	681b      	ldr	r3, [r3, #0]
 80032bc:	681a      	ldr	r2, [r3, #0]
 80032be:	68fb      	ldr	r3, [r7, #12]
 80032c0:	681b      	ldr	r3, [r3, #0]
 80032c2:	2180      	movs	r1, #128	@ 0x80
 80032c4:	01c9      	lsls	r1, r1, #7
 80032c6:	430a      	orrs	r2, r1
 80032c8:	601a      	str	r2, [r3, #0]
 80032ca:	68fb      	ldr	r3, [r7, #12]
 80032cc:	681b      	ldr	r3, [r3, #0]
 80032ce:	681b      	ldr	r3, [r3, #0]
 80032d0:	2240      	movs	r2, #64	@ 0x40
 80032d2:	4013      	ands	r3, r2
 80032d4:	2b40      	cmp	r3, #64	@ 0x40
 80032d6:	d007      	beq.n	80032e8 <HAL_SPI_Transmit+0x100>
 80032d8:	68fb      	ldr	r3, [r7, #12]
 80032da:	681b      	ldr	r3, [r3, #0]
 80032dc:	681a      	ldr	r2, [r3, #0]
 80032de:	68fb      	ldr	r3, [r7, #12]
 80032e0:	681b      	ldr	r3, [r3, #0]
 80032e2:	2140      	movs	r1, #64	@ 0x40
 80032e4:	430a      	orrs	r2, r1
 80032e6:	601a      	str	r2, [r3, #0]
 80032e8:	68fb      	ldr	r3, [r7, #12]
 80032ea:	68da      	ldr	r2, [r3, #12]
 80032ec:	23e0      	movs	r3, #224	@ 0xe0
 80032ee:	00db      	lsls	r3, r3, #3
 80032f0:	429a      	cmp	r2, r3
 80032f2:	d952      	bls.n	800339a <HAL_SPI_Transmit+0x1b2>
 80032f4:	68fb      	ldr	r3, [r7, #12]
 80032f6:	685b      	ldr	r3, [r3, #4]
 80032f8:	2b00      	cmp	r3, #0
 80032fa:	d004      	beq.n	8003306 <HAL_SPI_Transmit+0x11e>
 80032fc:	2316      	movs	r3, #22
 80032fe:	18fb      	adds	r3, r7, r3
 8003300:	881b      	ldrh	r3, [r3, #0]
 8003302:	2b01      	cmp	r3, #1
 8003304:	d143      	bne.n	800338e <HAL_SPI_Transmit+0x1a6>
 8003306:	68fb      	ldr	r3, [r7, #12]
 8003308:	6b9b      	ldr	r3, [r3, #56]	@ 0x38
 800330a:	881a      	ldrh	r2, [r3, #0]
 800330c:	68fb      	ldr	r3, [r7, #12]
 800330e:	681b      	ldr	r3, [r3, #0]
 8003310:	60da      	str	r2, [r3, #12]
 8003312:	68fb      	ldr	r3, [r7, #12]
 8003314:	6b9b      	ldr	r3, [r3, #56]	@ 0x38
 8003316:	1c9a      	adds	r2, r3, #2
 8003318:	68fb      	ldr	r3, [r7, #12]
 800331a:	639a      	str	r2, [r3, #56]	@ 0x38
 800331c:	68fb      	ldr	r3, [r7, #12]
 800331e:	8fdb      	ldrh	r3, [r3, #62]	@ 0x3e
 8003320:	b29b      	uxth	r3, r3
 8003322:	3b01      	subs	r3, #1
 8003324:	b29a      	uxth	r2, r3
 8003326:	68fb      	ldr	r3, [r7, #12]
 8003328:	87da      	strh	r2, [r3, #62]	@ 0x3e
 800332a:	e030      	b.n	800338e <HAL_SPI_Transmit+0x1a6>
 800332c:	68fb      	ldr	r3, [r7, #12]
 800332e:	681b      	ldr	r3, [r3, #0]
 8003330:	689b      	ldr	r3, [r3, #8]
 8003332:	2202      	movs	r2, #2
 8003334:	4013      	ands	r3, r2
 8003336:	2b02      	cmp	r3, #2
 8003338:	d112      	bne.n	8003360 <HAL_SPI_Transmit+0x178>
 800333a:	68fb      	ldr	r3, [r7, #12]
 800333c:	6b9b      	ldr	r3, [r3, #56]	@ 0x38
 800333e:	881a      	ldrh	r2, [r3, #0]
 8003340:	68fb      	ldr	r3, [r7, #12]
 8003342:	681b      	ldr	r3, [r3, #0]
 8003344:	60da      	str	r2, [r3, #12]
 8003346:	68fb      	ldr	r3, [r7, #12]
 8003348:	6b9b      	ldr	r3, [r3, #56]	@ 0x38
 800334a:	1c9a      	adds	r2, r3, #2
 800334c:	68fb      	ldr	r3, [r7, #12]
 800334e:	639a      	str	r2, [r3, #56]	@ 0x38
 8003350:	68fb      	ldr	r3, [r7, #12]
 8003352:	8fdb      	ldrh	r3, [r3, #62]	@ 0x3e
 8003354:	b29b      	uxth	r3, r3
 8003356:	3b01      	subs	r3, #1
 8003358:	b29a      	uxth	r2, r3
 800335a:	68fb      	ldr	r3, [r7, #12]
 800335c:	87da      	strh	r2, [r3, #62]	@ 0x3e
 800335e:	e016      	b.n	800338e <HAL_SPI_Transmit+0x1a6>
 8003360:	f7fe fd4e 	bl	8001e00 <HAL_GetTick>
 8003364:	0002      	movs	r2, r0
 8003366:	69bb      	ldr	r3, [r7, #24]
 8003368:	1ad3      	subs	r3, r2, r3
 800336a:	683a      	ldr	r2, [r7, #0]
 800336c:	429a      	cmp	r2, r3
 800336e:	d802      	bhi.n	8003376 <HAL_SPI_Transmit+0x18e>
 8003370:	683b      	ldr	r3, [r7, #0]
 8003372:	3301      	adds	r3, #1
 8003374:	d102      	bne.n	800337c <HAL_SPI_Transmit+0x194>
 8003376:	683b      	ldr	r3, [r7, #0]
 8003378:	2b00      	cmp	r3, #0
 800337a:	d108      	bne.n	800338e <HAL_SPI_Transmit+0x1a6>
 800337c:	231f      	movs	r3, #31
 800337e:	18fb      	adds	r3, r7, r3
 8003380:	2203      	movs	r2, #3
 8003382:	701a      	strb	r2, [r3, #0]
 8003384:	68fb      	ldr	r3, [r7, #12]
 8003386:	225d      	movs	r2, #93	@ 0x5d
 8003388:	2101      	movs	r1, #1
 800338a:	5499      	strb	r1, [r3, r2]
 800338c:	e080      	b.n	8003490 <HAL_SPI_Transmit+0x2a8>
 800338e:	68fb      	ldr	r3, [r7, #12]
 8003390:	8fdb      	ldrh	r3, [r3, #62]	@ 0x3e
 8003392:	b29b      	uxth	r3, r3
 8003394:	2b00      	cmp	r3, #0
 8003396:	d1c9      	bne.n	800332c <HAL_SPI_Transmit+0x144>
 8003398:	e053      	b.n	8003442 <HAL_SPI_Transmit+0x25a>
 800339a:	68fb      	ldr	r3, [r7, #12]
 800339c:	685b      	ldr	r3, [r3, #4]
 800339e:	2b00      	cmp	r3, #0
 80033a0:	d004      	beq.n	80033ac <HAL_SPI_Transmit+0x1c4>
 80033a2:	2316      	movs	r3, #22
 80033a4:	18fb      	adds	r3, r7, r3
 80033a6:	881b      	ldrh	r3, [r3, #0]
 80033a8:	2b01      	cmp	r3, #1
 80033aa:	d145      	bne.n	8003438 <HAL_SPI_Transmit+0x250>
 80033ac:	68fb      	ldr	r3, [r7, #12]
 80033ae:	6b9a      	ldr	r2, [r3, #56]	@ 0x38
 80033b0:	68fb      	ldr	r3, [r7, #12]
 80033b2:	681b      	ldr	r3, [r3, #0]
 80033b4:	330c      	adds	r3, #12
 80033b6:	7812      	ldrb	r2, [r2, #0]
 80033b8:	701a      	strb	r2, [r3, #0]
 80033ba:	68fb      	ldr	r3, [r7, #12]
 80033bc:	6b9b      	ldr	r3, [r3, #56]	@ 0x38
 80033be:	1c5a      	adds	r2, r3, #1
 80033c0:	68fb      	ldr	r3, [r7, #12]
 80033c2:	639a      	str	r2, [r3, #56]	@ 0x38
 80033c4:	68fb      	ldr	r3, [r7, #12]
 80033c6:	8fdb      	ldrh	r3, [r3, #62]	@ 0x3e
 80033c8:	b29b      	uxth	r3, r3
 80033ca:	3b01      	subs	r3, #1
 80033cc:	b29a      	uxth	r2, r3
 80033ce:	68fb      	ldr	r3, [r7, #12]
 80033d0:	87da      	strh	r2, [r3, #62]	@ 0x3e
 80033d2:	e031      	b.n	8003438 <HAL_SPI_Transmit+0x250>
 80033d4:	68fb      	ldr	r3, [r7, #12]
 80033d6:	681b      	ldr	r3, [r3, #0]
 80033d8:	689b      	ldr	r3, [r3, #8]
 80033da:	2202      	movs	r2, #2
 80033dc:	4013      	ands	r3, r2
 80033de:	2b02      	cmp	r3, #2
 80033e0:	d113      	bne.n	800340a <HAL_SPI_Transmit+0x222>
 80033e2:	68fb      	ldr	r3, [r7, #12]
 80033e4:	6b9a      	ldr	r2, [r3, #56]	@ 0x38
 80033e6:	68fb      	ldr	r3, [r7, #12]
 80033e8:	681b      	ldr	r3, [r3, #0]
 80033ea:	330c      	adds	r3, #12
 80033ec:	7812      	ldrb	r2, [r2, #0]
 80033ee:	701a      	strb	r2, [r3, #0]
 80033f0:	68fb      	ldr	r3, [r7, #12]
 80033f2:	6b9b      	ldr	r3, [r3, #56]	@ 0x38
 80033f4:	1c5a      	adds	r2, r3, #1
 80033f6:	68fb      	ldr	r3, [r7, #12]
 80033f8:	639a      	str	r2, [r3, #56]	@ 0x38
 80033fa:	68fb      	ldr	r3, [r7, #12]
 80033fc:	8fdb      	ldrh	r3, [r3, #62]	@ 0x3e
 80033fe:	b29b      	uxth	r3, r3
 8003400:	3b01      	subs	r3, #1
 8003402:	b29a      	uxth	r2, r3
 8003404:	68fb      	ldr	r3, [r7, #12]
 8003406:	87da      	strh	r2, [r3, #62]	@ 0x3e
 8003408:	e016      	b.n	8003438 <HAL_SPI_Transmit+0x250>
 800340a:	f7fe fcf9 	bl	8001e00 <HAL_GetTick>
 800340e:	0002      	movs	r2, r0
 8003410:	69bb      	ldr	r3, [r7, #24]
 8003412:	1ad3      	subs	r3, r2, r3
 8003414:	683a      	ldr	r2, [r7, #0]
 8003416:	429a      	cmp	r2, r3
 8003418:	d802      	bhi.n	8003420 <HAL_SPI_Transmit+0x238>
 800341a:	683b      	ldr	r3, [r7, #0]
 800341c:	3301      	adds	r3, #1
 800341e:	d102      	bne.n	8003426 <HAL_SPI_Transmit+0x23e>
 8003420:	683b      	ldr	r3, [r7, #0]
 8003422:	2b00      	cmp	r3, #0
 8003424:	d108      	bne.n	8003438 <HAL_SPI_Transmit+0x250>
 8003426:	231f      	movs	r3, #31
 8003428:	18fb      	adds	r3, r7, r3
 800342a:	2203      	movs	r2, #3
 800342c:	701a      	strb	r2, [r3, #0]
 800342e:	68fb      	ldr	r3, [r7, #12]
 8003430:	225d      	movs	r2, #93	@ 0x5d
 8003432:	2101      	movs	r1, #1
 8003434:	5499      	strb	r1, [r3, r2]
 8003436:	e02b      	b.n	8003490 <HAL_SPI_Transmit+0x2a8>
 8003438:	68fb      	ldr	r3, [r7, #12]
 800343a:	8fdb      	ldrh	r3, [r3, #62]	@ 0x3e
 800343c:	b29b      	uxth	r3, r3
 800343e:	2b00      	cmp	r3, #0
 8003440:	d1c8      	bne.n	80033d4 <HAL_SPI_Transmit+0x1ec>
 8003442:	69ba      	ldr	r2, [r7, #24]
 8003444:	6839      	ldr	r1, [r7, #0]
 8003446:	68fb      	ldr	r3, [r7, #12]
 8003448:	0018      	movs	r0, r3
 800344a:	f000 fcef 	bl	8003e2c <SPI_EndRxTxTransaction>
 800344e:	1e03      	subs	r3, r0, #0
 8003450:	d002      	beq.n	8003458 <HAL_SPI_Transmit+0x270>
 8003452:	68fb      	ldr	r3, [r7, #12]
 8003454:	2220      	movs	r2, #32
 8003456:	661a      	str	r2, [r3, #96]	@ 0x60
 8003458:	68fb      	ldr	r3, [r7, #12]
 800345a:	689b      	ldr	r3, [r3, #8]
 800345c:	2b00      	cmp	r3, #0
 800345e:	d10a      	bne.n	8003476 <HAL_SPI_Transmit+0x28e>
 8003460:	2300      	movs	r3, #0
 8003462:	613b      	str	r3, [r7, #16]
 8003464:	68fb      	ldr	r3, [r7, #12]
 8003466:	681b      	ldr	r3, [r3, #0]
 8003468:	68db      	ldr	r3, [r3, #12]
 800346a:	613b      	str	r3, [r7, #16]
 800346c:	68fb      	ldr	r3, [r7, #12]
 800346e:	681b      	ldr	r3, [r3, #0]
 8003470:	689b      	ldr	r3, [r3, #8]
 8003472:	613b      	str	r3, [r7, #16]
 8003474:	693b      	ldr	r3, [r7, #16]
 8003476:	68fb      	ldr	r3, [r7, #12]
 8003478:	6e1b      	ldr	r3, [r3, #96]	@ 0x60
 800347a:	2b00      	cmp	r3, #0
 800347c:	d004      	beq.n	8003488 <HAL_SPI_Transmit+0x2a0>
 800347e:	231f      	movs	r3, #31
 8003480:	18fb      	adds	r3, r7, r3
 8003482:	2201      	movs	r2, #1
 8003484:	701a      	strb	r2, [r3, #0]
 8003486:	e003      	b.n	8003490 <HAL_SPI_Transmit+0x2a8>
 8003488:	68fb      	ldr	r3, [r7, #12]
 800348a:	225d      	movs	r2, #93	@ 0x5d
 800348c:	2101      	movs	r1, #1
 800348e:	5499      	strb	r1, [r3, r2]
 8003490:	68fb      	ldr	r3, [r7, #12]
 8003492:	225c      	movs	r2, #92	@ 0x5c
 8003494:	2100      	movs	r1, #0
 8003496:	5499      	strb	r1, [r3, r2]
 8003498:	231f      	movs	r3, #31
 800349a:	18fb      	adds	r3, r7, r3
 800349c:	781b      	ldrb	r3, [r3, #0]
 800349e:	0018      	movs	r0, r3
 80034a0:	46bd      	mov	sp, r7
 80034a2:	b008      	add	sp, #32
 80034a4:	bd80      	pop	{r7, pc}
	...

080034a8 <HAL_SPI_Receive>:
 80034a8:	b590      	push	{r4, r7, lr}
 80034aa:	b089      	sub	sp, #36	@ 0x24
 80034ac:	af02      	add	r7, sp, #8
 80034ae:	60f8      	str	r0, [r7, #12]
 80034b0:	60b9      	str	r1, [r7, #8]
 80034b2:	603b      	str	r3, [r7, #0]
 80034b4:	1dbb      	adds	r3, r7, #6
 80034b6:	801a      	strh	r2, [r3, #0]
 80034b8:	2117      	movs	r1, #23
 80034ba:	187b      	adds	r3, r7, r1
 80034bc:	2200      	movs	r2, #0
 80034be:	701a      	strb	r2, [r3, #0]
 80034c0:	68fb      	ldr	r3, [r7, #12]
 80034c2:	225d      	movs	r2, #93	@ 0x5d
 80034c4:	5c9b      	ldrb	r3, [r3, r2]
 80034c6:	b2db      	uxtb	r3, r3
 80034c8:	2b01      	cmp	r3, #1
 80034ca:	d003      	beq.n	80034d4 <HAL_SPI_Receive+0x2c>
 80034cc:	187b      	adds	r3, r7, r1
 80034ce:	2202      	movs	r2, #2
 80034d0:	701a      	strb	r2, [r3, #0]
 80034d2:	e12b      	b.n	800372c <HAL_SPI_Receive+0x284>
 80034d4:	68fb      	ldr	r3, [r7, #12]
 80034d6:	685a      	ldr	r2, [r3, #4]
 80034d8:	2382      	movs	r3, #130	@ 0x82
 80034da:	005b      	lsls	r3, r3, #1
 80034dc:	429a      	cmp	r2, r3
 80034de:	d113      	bne.n	8003508 <HAL_SPI_Receive+0x60>
 80034e0:	68fb      	ldr	r3, [r7, #12]
 80034e2:	689b      	ldr	r3, [r3, #8]
 80034e4:	2b00      	cmp	r3, #0
 80034e6:	d10f      	bne.n	8003508 <HAL_SPI_Receive+0x60>
 80034e8:	68fb      	ldr	r3, [r7, #12]
 80034ea:	225d      	movs	r2, #93	@ 0x5d
 80034ec:	2104      	movs	r1, #4
 80034ee:	5499      	strb	r1, [r3, r2]
 80034f0:	1dbb      	adds	r3, r7, #6
 80034f2:	881c      	ldrh	r4, [r3, #0]
 80034f4:	68ba      	ldr	r2, [r7, #8]
 80034f6:	68b9      	ldr	r1, [r7, #8]
 80034f8:	68f8      	ldr	r0, [r7, #12]
 80034fa:	683b      	ldr	r3, [r7, #0]
 80034fc:	9300      	str	r3, [sp, #0]
 80034fe:	0023      	movs	r3, r4
 8003500:	f000 f924 	bl	800374c <HAL_SPI_TransmitReceive>
 8003504:	0003      	movs	r3, r0
 8003506:	e118      	b.n	800373a <HAL_SPI_Receive+0x292>
 8003508:	68fb      	ldr	r3, [r7, #12]
 800350a:	225c      	movs	r2, #92	@ 0x5c
 800350c:	5c9b      	ldrb	r3, [r3, r2]
 800350e:	2b01      	cmp	r3, #1
 8003510:	d101      	bne.n	8003516 <HAL_SPI_Receive+0x6e>
 8003512:	2302      	movs	r3, #2
 8003514:	e111      	b.n	800373a <HAL_SPI_Receive+0x292>
 8003516:	68fb      	ldr	r3, [r7, #12]
 8003518:	225c      	movs	r2, #92	@ 0x5c
 800351a:	2101      	movs	r1, #1
 800351c:	5499      	strb	r1, [r3, r2]
 800351e:	f7fe fc6f 	bl	8001e00 <HAL_GetTick>
 8003522:	0003      	movs	r3, r0
 8003524:	613b      	str	r3, [r7, #16]
 8003526:	68bb      	ldr	r3, [r7, #8]
 8003528:	2b00      	cmp	r3, #0
 800352a:	d003      	beq.n	8003534 <HAL_SPI_Receive+0x8c>
 800352c:	1dbb      	adds	r3, r7, #6
 800352e:	881b      	ldrh	r3, [r3, #0]
 8003530:	2b00      	cmp	r3, #0
 8003532:	d104      	bne.n	800353e <HAL_SPI_Receive+0x96>
 8003534:	2317      	movs	r3, #23
 8003536:	18fb      	adds	r3, r7, r3
 8003538:	2201      	movs	r2, #1
 800353a:	701a      	strb	r2, [r3, #0]
 800353c:	e0f6      	b.n	800372c <HAL_SPI_Receive+0x284>
 800353e:	68fb      	ldr	r3, [r7, #12]
 8003540:	225d      	movs	r2, #93	@ 0x5d
 8003542:	2104      	movs	r1, #4
 8003544:	5499      	strb	r1, [r3, r2]
 8003546:	68fb      	ldr	r3, [r7, #12]
 8003548:	2200      	movs	r2, #0
 800354a:	661a      	str	r2, [r3, #96]	@ 0x60
 800354c:	68fb      	ldr	r3, [r7, #12]
 800354e:	68ba      	ldr	r2, [r7, #8]
 8003550:	641a      	str	r2, [r3, #64]	@ 0x40
 8003552:	68fb      	ldr	r3, [r7, #12]
 8003554:	1dba      	adds	r2, r7, #6
 8003556:	2144      	movs	r1, #68	@ 0x44
 8003558:	8812      	ldrh	r2, [r2, #0]
 800355a:	525a      	strh	r2, [r3, r1]
 800355c:	68fb      	ldr	r3, [r7, #12]
 800355e:	1dba      	adds	r2, r7, #6
 8003560:	2146      	movs	r1, #70	@ 0x46
 8003562:	8812      	ldrh	r2, [r2, #0]
 8003564:	525a      	strh	r2, [r3, r1]
 8003566:	68fb      	ldr	r3, [r7, #12]
 8003568:	2200      	movs	r2, #0
 800356a:	639a      	str	r2, [r3, #56]	@ 0x38
 800356c:	68fb      	ldr	r3, [r7, #12]
 800356e:	2200      	movs	r2, #0
 8003570:	879a      	strh	r2, [r3, #60]	@ 0x3c
 8003572:	68fb      	ldr	r3, [r7, #12]
 8003574:	2200      	movs	r2, #0
 8003576:	87da      	strh	r2, [r3, #62]	@ 0x3e
 8003578:	68fb      	ldr	r3, [r7, #12]
 800357a:	2200      	movs	r2, #0
 800357c:	64da      	str	r2, [r3, #76]	@ 0x4c
 800357e:	68fb      	ldr	r3, [r7, #12]
 8003580:	2200      	movs	r2, #0
 8003582:	651a      	str	r2, [r3, #80]	@ 0x50
 8003584:	68fb      	ldr	r3, [r7, #12]
 8003586:	68da      	ldr	r2, [r3, #12]
 8003588:	23e0      	movs	r3, #224	@ 0xe0
 800358a:	00db      	lsls	r3, r3, #3
 800358c:	429a      	cmp	r2, r3
 800358e:	d908      	bls.n	80035a2 <HAL_SPI_Receive+0xfa>
 8003590:	68fb      	ldr	r3, [r7, #12]
 8003592:	681b      	ldr	r3, [r3, #0]
 8003594:	685a      	ldr	r2, [r3, #4]
 8003596:	68fb      	ldr	r3, [r7, #12]
 8003598:	681b      	ldr	r3, [r3, #0]
 800359a:	496a      	ldr	r1, [pc, #424]	@ (8003744 <HAL_SPI_Receive+0x29c>)
 800359c:	400a      	ands	r2, r1
 800359e:	605a      	str	r2, [r3, #4]
 80035a0:	e008      	b.n	80035b4 <HAL_SPI_Receive+0x10c>
 80035a2:	68fb      	ldr	r3, [r7, #12]
 80035a4:	681b      	ldr	r3, [r3, #0]
 80035a6:	685a      	ldr	r2, [r3, #4]
 80035a8:	68fb      	ldr	r3, [r7, #12]
 80035aa:	681b      	ldr	r3, [r3, #0]
 80035ac:	2180      	movs	r1, #128	@ 0x80
 80035ae:	0149      	lsls	r1, r1, #5
 80035b0:	430a      	orrs	r2, r1
 80035b2:	605a      	str	r2, [r3, #4]
 80035b4:	68fb      	ldr	r3, [r7, #12]
 80035b6:	689a      	ldr	r2, [r3, #8]
 80035b8:	2380      	movs	r3, #128	@ 0x80
 80035ba:	021b      	lsls	r3, r3, #8
 80035bc:	429a      	cmp	r2, r3
 80035be:	d10f      	bne.n	80035e0 <HAL_SPI_Receive+0x138>
 80035c0:	68fb      	ldr	r3, [r7, #12]
 80035c2:	681b      	ldr	r3, [r3, #0]
 80035c4:	681a      	ldr	r2, [r3, #0]
 80035c6:	68fb      	ldr	r3, [r7, #12]
 80035c8:	681b      	ldr	r3, [r3, #0]
 80035ca:	2140      	movs	r1, #64	@ 0x40
 80035cc:	438a      	bics	r2, r1
 80035ce:	601a      	str	r2, [r3, #0]
 80035d0:	68fb      	ldr	r3, [r7, #12]
 80035d2:	681b      	ldr	r3, [r3, #0]
 80035d4:	681a      	ldr	r2, [r3, #0]
 80035d6:	68fb      	ldr	r3, [r7, #12]
 80035d8:	681b      	ldr	r3, [r3, #0]
 80035da:	495b      	ldr	r1, [pc, #364]	@ (8003748 <HAL_SPI_Receive+0x2a0>)
 80035dc:	400a      	ands	r2, r1
 80035de:	601a      	str	r2, [r3, #0]
 80035e0:	68fb      	ldr	r3, [r7, #12]
 80035e2:	681b      	ldr	r3, [r3, #0]
 80035e4:	681b      	ldr	r3, [r3, #0]
 80035e6:	2240      	movs	r2, #64	@ 0x40
 80035e8:	4013      	ands	r3, r2
 80035ea:	2b40      	cmp	r3, #64	@ 0x40
 80035ec:	d007      	beq.n	80035fe <HAL_SPI_Receive+0x156>
 80035ee:	68fb      	ldr	r3, [r7, #12]
 80035f0:	681b      	ldr	r3, [r3, #0]
 80035f2:	681a      	ldr	r2, [r3, #0]
 80035f4:	68fb      	ldr	r3, [r7, #12]
 80035f6:	681b      	ldr	r3, [r3, #0]
 80035f8:	2140      	movs	r1, #64	@ 0x40
 80035fa:	430a      	orrs	r2, r1
 80035fc:	601a      	str	r2, [r3, #0]
 80035fe:	68fb      	ldr	r3, [r7, #12]
 8003600:	68da      	ldr	r2, [r3, #12]
 8003602:	23e0      	movs	r3, #224	@ 0xe0
 8003604:	00db      	lsls	r3, r3, #3
 8003606:	429a      	cmp	r2, r3
 8003608:	d900      	bls.n	800360c <HAL_SPI_Receive+0x164>
 800360a:	e071      	b.n	80036f0 <HAL_SPI_Receive+0x248>
 800360c:	e035      	b.n	800367a <HAL_SPI_Receive+0x1d2>
 800360e:	68fb      	ldr	r3, [r7, #12]
 8003610:	681b      	ldr	r3, [r3, #0]
 8003612:	689b      	ldr	r3, [r3, #8]
 8003614:	2201      	movs	r2, #1
 8003616:	4013      	ands	r3, r2
 8003618:	2b01      	cmp	r3, #1
 800361a:	d117      	bne.n	800364c <HAL_SPI_Receive+0x1a4>
 800361c:	68fb      	ldr	r3, [r7, #12]
 800361e:	681b      	ldr	r3, [r3, #0]
 8003620:	330c      	adds	r3, #12
 8003622:	001a      	movs	r2, r3
 8003624:	68fb      	ldr	r3, [r7, #12]
 8003626:	6c1b      	ldr	r3, [r3, #64]	@ 0x40
 8003628:	7812      	ldrb	r2, [r2, #0]
 800362a:	b2d2      	uxtb	r2, r2
 800362c:	701a      	strb	r2, [r3, #0]
 800362e:	68fb      	ldr	r3, [r7, #12]
 8003630:	6c1b      	ldr	r3, [r3, #64]	@ 0x40
 8003632:	1c5a      	adds	r2, r3, #1
 8003634:	68fb      	ldr	r3, [r7, #12]
 8003636:	641a      	str	r2, [r3, #64]	@ 0x40
 8003638:	68fb      	ldr	r3, [r7, #12]
 800363a:	2246      	movs	r2, #70	@ 0x46
 800363c:	5a9b      	ldrh	r3, [r3, r2]
 800363e:	b29b      	uxth	r3, r3
 8003640:	3b01      	subs	r3, #1
 8003642:	b299      	uxth	r1, r3
 8003644:	68fb      	ldr	r3, [r7, #12]
 8003646:	2246      	movs	r2, #70	@ 0x46
 8003648:	5299      	strh	r1, [r3, r2]
 800364a:	e016      	b.n	800367a <HAL_SPI_Receive+0x1d2>
 800364c:	f7fe fbd8 	bl	8001e00 <HAL_GetTick>
 8003650:	0002      	movs	r2, r0
 8003652:	693b      	ldr	r3, [r7, #16]
 8003654:	1ad3      	subs	r3, r2, r3
 8003656:	683a      	ldr	r2, [r7, #0]
 8003658:	429a      	cmp	r2, r3
 800365a:	d802      	bhi.n	8003662 <HAL_SPI_Receive+0x1ba>
 800365c:	683b      	ldr	r3, [r7, #0]
 800365e:	3301      	adds	r3, #1
 8003660:	d102      	bne.n	8003668 <HAL_SPI_Receive+0x1c0>
 8003662:	683b      	ldr	r3, [r7, #0]
 8003664:	2b00      	cmp	r3, #0
 8003666:	d108      	bne.n	800367a <HAL_SPI_Receive+0x1d2>
 8003668:	2317      	movs	r3, #23
 800366a:	18fb      	adds	r3, r7, r3
 800366c:	2203      	movs	r2, #3
 800366e:	701a      	strb	r2, [r3, #0]
 8003670:	68fb      	ldr	r3, [r7, #12]
 8003672:	225d      	movs	r2, #93	@ 0x5d
 8003674:	2101      	movs	r1, #1
 8003676:	5499      	strb	r1, [r3, r2]
 8003678:	e058      	b.n	800372c <HAL_SPI_Receive+0x284>
 800367a:	68fb      	ldr	r3, [r7, #12]
 800367c:	2246      	movs	r2, #70	@ 0x46
 800367e:	5a9b      	ldrh	r3, [r3, r2]
 8003680:	b29b      	uxth	r3, r3
 8003682:	2b00      	cmp	r3, #0
 8003684:	d1c3      	bne.n	800360e <HAL_SPI_Receive+0x166>
 8003686:	e039      	b.n	80036fc <HAL_SPI_Receive+0x254>
 8003688:	68fb      	ldr	r3, [r7, #12]
 800368a:	681b      	ldr	r3, [r3, #0]
 800368c:	689b      	ldr	r3, [r3, #8]
 800368e:	2201      	movs	r2, #1
 8003690:	4013      	ands	r3, r2
 8003692:	2b01      	cmp	r3, #1
 8003694:	d115      	bne.n	80036c2 <HAL_SPI_Receive+0x21a>
 8003696:	68fb      	ldr	r3, [r7, #12]
 8003698:	681b      	ldr	r3, [r3, #0]
 800369a:	68da      	ldr	r2, [r3, #12]
 800369c:	68fb      	ldr	r3, [r7, #12]
 800369e:	6c1b      	ldr	r3, [r3, #64]	@ 0x40
 80036a0:	b292      	uxth	r2, r2
 80036a2:	801a      	strh	r2, [r3, #0]
 80036a4:	68fb      	ldr	r3, [r7, #12]
 80036a6:	6c1b      	ldr	r3, [r3, #64]	@ 0x40
 80036a8:	1c9a      	adds	r2, r3, #2
 80036aa:	68fb      	ldr	r3, [r7, #12]
 80036ac:	641a      	str	r2, [r3, #64]	@ 0x40
 80036ae:	68fb      	ldr	r3, [r7, #12]
 80036b0:	2246      	movs	r2, #70	@ 0x46
 80036b2:	5a9b      	ldrh	r3, [r3, r2]
 80036b4:	b29b      	uxth	r3, r3
 80036b6:	3b01      	subs	r3, #1
 80036b8:	b299      	uxth	r1, r3
 80036ba:	68fb      	ldr	r3, [r7, #12]
 80036bc:	2246      	movs	r2, #70	@ 0x46
 80036be:	5299      	strh	r1, [r3, r2]
 80036c0:	e016      	b.n	80036f0 <HAL_SPI_Receive+0x248>
 80036c2:	f7fe fb9d 	bl	8001e00 <HAL_GetTick>
 80036c6:	0002      	movs	r2, r0
 80036c8:	693b      	ldr	r3, [r7, #16]
 80036ca:	1ad3      	subs	r3, r2, r3
 80036cc:	683a      	ldr	r2, [r7, #0]
 80036ce:	429a      	cmp	r2, r3
 80036d0:	d802      	bhi.n	80036d8 <HAL_SPI_Receive+0x230>
 80036d2:	683b      	ldr	r3, [r7, #0]
 80036d4:	3301      	adds	r3, #1
 80036d6:	d102      	bne.n	80036de <HAL_SPI_Receive+0x236>
 80036d8:	683b      	ldr	r3, [r7, #0]
 80036da:	2b00      	cmp	r3, #0
 80036dc:	d108      	bne.n	80036f0 <HAL_SPI_Receive+0x248>
 80036de:	2317      	movs	r3, #23
 80036e0:	18fb      	adds	r3, r7, r3
 80036e2:	2203      	movs	r2, #3
 80036e4:	701a      	strb	r2, [r3, #0]
 80036e6:	68fb      	ldr	r3, [r7, #12]
 80036e8:	225d      	movs	r2, #93	@ 0x5d
 80036ea:	2101      	movs	r1, #1
 80036ec:	5499      	strb	r1, [r3, r2]
 80036ee:	e01d      	b.n	800372c <HAL_SPI_Receive+0x284>
 80036f0:	68fb      	ldr	r3, [r7, #12]
 80036f2:	2246      	movs	r2, #70	@ 0x46
 80036f4:	5a9b      	ldrh	r3, [r3, r2]
 80036f6:	b29b      	uxth	r3, r3
 80036f8:	2b00      	cmp	r3, #0
 80036fa:	d1c5      	bne.n	8003688 <HAL_SPI_Receive+0x1e0>
 80036fc:	693a      	ldr	r2, [r7, #16]
 80036fe:	6839      	ldr	r1, [r7, #0]
 8003700:	68fb      	ldr	r3, [r7, #12]
 8003702:	0018      	movs	r0, r3
 8003704:	f000 fb34 	bl	8003d70 <SPI_EndRxTransaction>
 8003708:	1e03      	subs	r3, r0, #0
 800370a:	d002      	beq.n	8003712 <HAL_SPI_Receive+0x26a>
 800370c:	68fb      	ldr	r3, [r7, #12]
 800370e:	2220      	movs	r2, #32
 8003710:	661a      	str	r2, [r3, #96]	@ 0x60
 8003712:	68fb      	ldr	r3, [r7, #12]
 8003714:	6e1b      	ldr	r3, [r3, #96]	@ 0x60
 8003716:	2b00      	cmp	r3, #0
 8003718:	d004      	beq.n	8003724 <HAL_SPI_Receive+0x27c>
 800371a:	2317      	movs	r3, #23
 800371c:	18fb      	adds	r3, r7, r3
 800371e:	2201      	movs	r2, #1
 8003720:	701a      	strb	r2, [r3, #0]
 8003722:	e003      	b.n	800372c <HAL_SPI_Receive+0x284>
 8003724:	68fb      	ldr	r3, [r7, #12]
 8003726:	225d      	movs	r2, #93	@ 0x5d
 8003728:	2101      	movs	r1, #1
 800372a:	5499      	strb	r1, [r3, r2]
 800372c:	68fb      	ldr	r3, [r7, #12]
 800372e:	225c      	movs	r2, #92	@ 0x5c
 8003730:	2100      	movs	r1, #0
 8003732:	5499      	strb	r1, [r3, r2]
 8003734:	2317      	movs	r3, #23
 8003736:	18fb      	adds	r3, r7, r3
 8003738:	781b      	ldrb	r3, [r3, #0]
 800373a:	0018      	movs	r0, r3
 800373c:	46bd      	mov	sp, r7
 800373e:	b007      	add	sp, #28
 8003740:	bd90      	pop	{r4, r7, pc}
 8003742:	46c0      	nop			@ (mov r8, r8)
 8003744:	ffffefff 	.word	0xffffefff
 8003748:	ffffbfff 	.word	0xffffbfff

0800374c <HAL_SPI_TransmitReceive>:
 800374c:	b580      	push	{r7, lr}
 800374e:	b08a      	sub	sp, #40	@ 0x28
 8003750:	af00      	add	r7, sp, #0
 8003752:	60f8      	str	r0, [r7, #12]
 8003754:	60b9      	str	r1, [r7, #8]
 8003756:	607a      	str	r2, [r7, #4]
 8003758:	001a      	movs	r2, r3
 800375a:	1cbb      	adds	r3, r7, #2
 800375c:	801a      	strh	r2, [r3, #0]
 800375e:	2301      	movs	r3, #1
 8003760:	627b      	str	r3, [r7, #36]	@ 0x24
 8003762:	2323      	movs	r3, #35	@ 0x23
 8003764:	18fb      	adds	r3, r7, r3
 8003766:	2200      	movs	r2, #0
 8003768:	701a      	strb	r2, [r3, #0]
 800376a:	68fb      	ldr	r3, [r7, #12]
 800376c:	225c      	movs	r2, #92	@ 0x5c
 800376e:	5c9b      	ldrb	r3, [r3, r2]
 8003770:	2b01      	cmp	r3, #1
 8003772:	d101      	bne.n	8003778 <HAL_SPI_TransmitReceive+0x2c>
 8003774:	2302      	movs	r3, #2
 8003776:	e1c4      	b.n	8003b02 <HAL_SPI_TransmitReceive+0x3b6>
 8003778:	68fb      	ldr	r3, [r7, #12]
 800377a:	225c      	movs	r2, #92	@ 0x5c
 800377c:	2101      	movs	r1, #1
 800377e:	5499      	strb	r1, [r3, r2]
 8003780:	f7fe fb3e 	bl	8001e00 <HAL_GetTick>
 8003784:	0003      	movs	r3, r0
 8003786:	61fb      	str	r3, [r7, #28]
 8003788:	201b      	movs	r0, #27
 800378a:	183b      	adds	r3, r7, r0
 800378c:	68fa      	ldr	r2, [r7, #12]
 800378e:	215d      	movs	r1, #93	@ 0x5d
 8003790:	5c52      	ldrb	r2, [r2, r1]
 8003792:	701a      	strb	r2, [r3, #0]
 8003794:	68fb      	ldr	r3, [r7, #12]
 8003796:	685b      	ldr	r3, [r3, #4]
 8003798:	617b      	str	r3, [r7, #20]
 800379a:	2312      	movs	r3, #18
 800379c:	18fb      	adds	r3, r7, r3
 800379e:	1cba      	adds	r2, r7, #2
 80037a0:	8812      	ldrh	r2, [r2, #0]
 80037a2:	801a      	strh	r2, [r3, #0]
 80037a4:	183b      	adds	r3, r7, r0
 80037a6:	781b      	ldrb	r3, [r3, #0]
 80037a8:	2b01      	cmp	r3, #1
 80037aa:	d011      	beq.n	80037d0 <HAL_SPI_TransmitReceive+0x84>
 80037ac:	697a      	ldr	r2, [r7, #20]
 80037ae:	2382      	movs	r3, #130	@ 0x82
 80037b0:	005b      	lsls	r3, r3, #1
 80037b2:	429a      	cmp	r2, r3
 80037b4:	d107      	bne.n	80037c6 <HAL_SPI_TransmitReceive+0x7a>
 80037b6:	68fb      	ldr	r3, [r7, #12]
 80037b8:	689b      	ldr	r3, [r3, #8]
 80037ba:	2b00      	cmp	r3, #0
 80037bc:	d103      	bne.n	80037c6 <HAL_SPI_TransmitReceive+0x7a>
 80037be:	183b      	adds	r3, r7, r0
 80037c0:	781b      	ldrb	r3, [r3, #0]
 80037c2:	2b04      	cmp	r3, #4
 80037c4:	d004      	beq.n	80037d0 <HAL_SPI_TransmitReceive+0x84>
 80037c6:	2323      	movs	r3, #35	@ 0x23
 80037c8:	18fb      	adds	r3, r7, r3
 80037ca:	2202      	movs	r2, #2
 80037cc:	701a      	strb	r2, [r3, #0]
 80037ce:	e191      	b.n	8003af4 <HAL_SPI_TransmitReceive+0x3a8>
 80037d0:	68bb      	ldr	r3, [r7, #8]
 80037d2:	2b00      	cmp	r3, #0
 80037d4:	d006      	beq.n	80037e4 <HAL_SPI_TransmitReceive+0x98>
 80037d6:	687b      	ldr	r3, [r7, #4]
 80037d8:	2b00      	cmp	r3, #0
 80037da:	d003      	beq.n	80037e4 <HAL_SPI_TransmitReceive+0x98>
 80037dc:	1cbb      	adds	r3, r7, #2
 80037de:	881b      	ldrh	r3, [r3, #0]
 80037e0:	2b00      	cmp	r3, #0
 80037e2:	d104      	bne.n	80037ee <HAL_SPI_TransmitReceive+0xa2>
 80037e4:	2323      	movs	r3, #35	@ 0x23
 80037e6:	18fb      	adds	r3, r7, r3
 80037e8:	2201      	movs	r2, #1
 80037ea:	701a      	strb	r2, [r3, #0]
 80037ec:	e182      	b.n	8003af4 <HAL_SPI_TransmitReceive+0x3a8>
 80037ee:	68fb      	ldr	r3, [r7, #12]
 80037f0:	225d      	movs	r2, #93	@ 0x5d
 80037f2:	5c9b      	ldrb	r3, [r3, r2]
 80037f4:	b2db      	uxtb	r3, r3
 80037f6:	2b04      	cmp	r3, #4
 80037f8:	d003      	beq.n	8003802 <HAL_SPI_TransmitReceive+0xb6>
 80037fa:	68fb      	ldr	r3, [r7, #12]
 80037fc:	225d      	movs	r2, #93	@ 0x5d
 80037fe:	2105      	movs	r1, #5
 8003800:	5499      	strb	r1, [r3, r2]
 8003802:	68fb      	ldr	r3, [r7, #12]
 8003804:	2200      	movs	r2, #0
 8003806:	661a      	str	r2, [r3, #96]	@ 0x60
 8003808:	68fb      	ldr	r3, [r7, #12]
 800380a:	687a      	ldr	r2, [r7, #4]
 800380c:	641a      	str	r2, [r3, #64]	@ 0x40
 800380e:	68fb      	ldr	r3, [r7, #12]
 8003810:	1cba      	adds	r2, r7, #2
 8003812:	2146      	movs	r1, #70	@ 0x46
 8003814:	8812      	ldrh	r2, [r2, #0]
 8003816:	525a      	strh	r2, [r3, r1]
 8003818:	68fb      	ldr	r3, [r7, #12]
 800381a:	1cba      	adds	r2, r7, #2
 800381c:	2144      	movs	r1, #68	@ 0x44
 800381e:	8812      	ldrh	r2, [r2, #0]
 8003820:	525a      	strh	r2, [r3, r1]
 8003822:	68fb      	ldr	r3, [r7, #12]
 8003824:	68ba      	ldr	r2, [r7, #8]
 8003826:	639a      	str	r2, [r3, #56]	@ 0x38
 8003828:	68fb      	ldr	r3, [r7, #12]
 800382a:	1cba      	adds	r2, r7, #2
 800382c:	8812      	ldrh	r2, [r2, #0]
 800382e:	87da      	strh	r2, [r3, #62]	@ 0x3e
 8003830:	68fb      	ldr	r3, [r7, #12]
 8003832:	1cba      	adds	r2, r7, #2
 8003834:	8812      	ldrh	r2, [r2, #0]
 8003836:	879a      	strh	r2, [r3, #60]	@ 0x3c
 8003838:	68fb      	ldr	r3, [r7, #12]
 800383a:	2200      	movs	r2, #0
 800383c:	64da      	str	r2, [r3, #76]	@ 0x4c
 800383e:	68fb      	ldr	r3, [r7, #12]
 8003840:	2200      	movs	r2, #0
 8003842:	651a      	str	r2, [r3, #80]	@ 0x50
 8003844:	68fb      	ldr	r3, [r7, #12]
 8003846:	68da      	ldr	r2, [r3, #12]
 8003848:	23e0      	movs	r3, #224	@ 0xe0
 800384a:	00db      	lsls	r3, r3, #3
 800384c:	429a      	cmp	r2, r3
 800384e:	d908      	bls.n	8003862 <HAL_SPI_TransmitReceive+0x116>
 8003850:	68fb      	ldr	r3, [r7, #12]
 8003852:	681b      	ldr	r3, [r3, #0]
 8003854:	685a      	ldr	r2, [r3, #4]
 8003856:	68fb      	ldr	r3, [r7, #12]
 8003858:	681b      	ldr	r3, [r3, #0]
 800385a:	49ac      	ldr	r1, [pc, #688]	@ (8003b0c <HAL_SPI_TransmitReceive+0x3c0>)
 800385c:	400a      	ands	r2, r1
 800385e:	605a      	str	r2, [r3, #4]
 8003860:	e008      	b.n	8003874 <HAL_SPI_TransmitReceive+0x128>
 8003862:	68fb      	ldr	r3, [r7, #12]
 8003864:	681b      	ldr	r3, [r3, #0]
 8003866:	685a      	ldr	r2, [r3, #4]
 8003868:	68fb      	ldr	r3, [r7, #12]
 800386a:	681b      	ldr	r3, [r3, #0]
 800386c:	2180      	movs	r1, #128	@ 0x80
 800386e:	0149      	lsls	r1, r1, #5
 8003870:	430a      	orrs	r2, r1
 8003872:	605a      	str	r2, [r3, #4]
 8003874:	68fb      	ldr	r3, [r7, #12]
 8003876:	681b      	ldr	r3, [r3, #0]
 8003878:	681b      	ldr	r3, [r3, #0]
 800387a:	2240      	movs	r2, #64	@ 0x40
 800387c:	4013      	ands	r3, r2
 800387e:	2b40      	cmp	r3, #64	@ 0x40
 8003880:	d007      	beq.n	8003892 <HAL_SPI_TransmitReceive+0x146>
 8003882:	68fb      	ldr	r3, [r7, #12]
 8003884:	681b      	ldr	r3, [r3, #0]
 8003886:	681a      	ldr	r2, [r3, #0]
 8003888:	68fb      	ldr	r3, [r7, #12]
 800388a:	681b      	ldr	r3, [r3, #0]
 800388c:	2140      	movs	r1, #64	@ 0x40
 800388e:	430a      	orrs	r2, r1
 8003890:	601a      	str	r2, [r3, #0]
 8003892:	68fb      	ldr	r3, [r7, #12]
 8003894:	68da      	ldr	r2, [r3, #12]
 8003896:	23e0      	movs	r3, #224	@ 0xe0
 8003898:	00db      	lsls	r3, r3, #3
 800389a:	429a      	cmp	r2, r3
 800389c:	d800      	bhi.n	80038a0 <HAL_SPI_TransmitReceive+0x154>
 800389e:	e083      	b.n	80039a8 <HAL_SPI_TransmitReceive+0x25c>
 80038a0:	68fb      	ldr	r3, [r7, #12]
 80038a2:	685b      	ldr	r3, [r3, #4]
 80038a4:	2b00      	cmp	r3, #0
 80038a6:	d005      	beq.n	80038b4 <HAL_SPI_TransmitReceive+0x168>
 80038a8:	2312      	movs	r3, #18
 80038aa:	18fb      	adds	r3, r7, r3
 80038ac:	881b      	ldrh	r3, [r3, #0]
 80038ae:	2b01      	cmp	r3, #1
 80038b0:	d000      	beq.n	80038b4 <HAL_SPI_TransmitReceive+0x168>
 80038b2:	e06d      	b.n	8003990 <HAL_SPI_TransmitReceive+0x244>
 80038b4:	68fb      	ldr	r3, [r7, #12]
 80038b6:	6b9b      	ldr	r3, [r3, #56]	@ 0x38
 80038b8:	881a      	ldrh	r2, [r3, #0]
 80038ba:	68fb      	ldr	r3, [r7, #12]
 80038bc:	681b      	ldr	r3, [r3, #0]
 80038be:	60da      	str	r2, [r3, #12]
 80038c0:	68fb      	ldr	r3, [r7, #12]
 80038c2:	6b9b      	ldr	r3, [r3, #56]	@ 0x38
 80038c4:	1c9a      	adds	r2, r3, #2
 80038c6:	68fb      	ldr	r3, [r7, #12]
 80038c8:	639a      	str	r2, [r3, #56]	@ 0x38
 80038ca:	68fb      	ldr	r3, [r7, #12]
 80038cc:	8fdb      	ldrh	r3, [r3, #62]	@ 0x3e
 80038ce:	b29b      	uxth	r3, r3
 80038d0:	3b01      	subs	r3, #1
 80038d2:	b29a      	uxth	r2, r3
 80038d4:	68fb      	ldr	r3, [r7, #12]
 80038d6:	87da      	strh	r2, [r3, #62]	@ 0x3e
 80038d8:	e05a      	b.n	8003990 <HAL_SPI_TransmitReceive+0x244>
 80038da:	68fb      	ldr	r3, [r7, #12]
 80038dc:	681b      	ldr	r3, [r3, #0]
 80038de:	689b      	ldr	r3, [r3, #8]
 80038e0:	2202      	movs	r2, #2
 80038e2:	4013      	ands	r3, r2
 80038e4:	2b02      	cmp	r3, #2
 80038e6:	d11b      	bne.n	8003920 <HAL_SPI_TransmitReceive+0x1d4>
 80038e8:	68fb      	ldr	r3, [r7, #12]
 80038ea:	8fdb      	ldrh	r3, [r3, #62]	@ 0x3e
 80038ec:	b29b      	uxth	r3, r3
 80038ee:	2b00      	cmp	r3, #0
 80038f0:	d016      	beq.n	8003920 <HAL_SPI_TransmitReceive+0x1d4>
 80038f2:	6a7b      	ldr	r3, [r7, #36]	@ 0x24
 80038f4:	2b01      	cmp	r3, #1
 80038f6:	d113      	bne.n	8003920 <HAL_SPI_TransmitReceive+0x1d4>
 80038f8:	68fb      	ldr	r3, [r7, #12]
 80038fa:	6b9b      	ldr	r3, [r3, #56]	@ 0x38
 80038fc:	881a      	ldrh	r2, [r3, #0]
 80038fe:	68fb      	ldr	r3, [r7, #12]
 8003900:	681b      	ldr	r3, [r3, #0]
 8003902:	60da      	str	r2, [r3, #12]
 8003904:	68fb      	ldr	r3, [r7, #12]
 8003906:	6b9b      	ldr	r3, [r3, #56]	@ 0x38
 8003908:	1c9a      	adds	r2, r3, #2
 800390a:	68fb      	ldr	r3, [r7, #12]
 800390c:	639a      	str	r2, [r3, #56]	@ 0x38
 800390e:	68fb      	ldr	r3, [r7, #12]
 8003910:	8fdb      	ldrh	r3, [r3, #62]	@ 0x3e
 8003912:	b29b      	uxth	r3, r3
 8003914:	3b01      	subs	r3, #1
 8003916:	b29a      	uxth	r2, r3
 8003918:	68fb      	ldr	r3, [r7, #12]
 800391a:	87da      	strh	r2, [r3, #62]	@ 0x3e
 800391c:	2300      	movs	r3, #0
 800391e:	627b      	str	r3, [r7, #36]	@ 0x24
 8003920:	68fb      	ldr	r3, [r7, #12]
 8003922:	681b      	ldr	r3, [r3, #0]
 8003924:	689b      	ldr	r3, [r3, #8]
 8003926:	2201      	movs	r2, #1
 8003928:	4013      	ands	r3, r2
 800392a:	2b01      	cmp	r3, #1
 800392c:	d11c      	bne.n	8003968 <HAL_SPI_TransmitReceive+0x21c>
 800392e:	68fb      	ldr	r3, [r7, #12]
 8003930:	2246      	movs	r2, #70	@ 0x46
 8003932:	5a9b      	ldrh	r3, [r3, r2]
 8003934:	b29b      	uxth	r3, r3
 8003936:	2b00      	cmp	r3, #0
 8003938:	d016      	beq.n	8003968 <HAL_SPI_TransmitReceive+0x21c>
 800393a:	68fb      	ldr	r3, [r7, #12]
 800393c:	681b      	ldr	r3, [r3, #0]
 800393e:	68da      	ldr	r2, [r3, #12]
 8003940:	68fb      	ldr	r3, [r7, #12]
 8003942:	6c1b      	ldr	r3, [r3, #64]	@ 0x40
 8003944:	b292      	uxth	r2, r2
 8003946:	801a      	strh	r2, [r3, #0]
 8003948:	68fb      	ldr	r3, [r7, #12]
 800394a:	6c1b      	ldr	r3, [r3, #64]	@ 0x40
 800394c:	1c9a      	adds	r2, r3, #2
 800394e:	68fb      	ldr	r3, [r7, #12]
 8003950:	641a      	str	r2, [r3, #64]	@ 0x40
 8003952:	68fb      	ldr	r3, [r7, #12]
 8003954:	2246      	movs	r2, #70	@ 0x46
 8003956:	5a9b      	ldrh	r3, [r3, r2]
 8003958:	b29b      	uxth	r3, r3
 800395a:	3b01      	subs	r3, #1
 800395c:	b299      	uxth	r1, r3
 800395e:	68fb      	ldr	r3, [r7, #12]
 8003960:	2246      	movs	r2, #70	@ 0x46
 8003962:	5299      	strh	r1, [r3, r2]
 8003964:	2301      	movs	r3, #1
 8003966:	627b      	str	r3, [r7, #36]	@ 0x24
 8003968:	f7fe fa4a 	bl	8001e00 <HAL_GetTick>
 800396c:	0002      	movs	r2, r0
 800396e:	69fb      	ldr	r3, [r7, #28]
 8003970:	1ad3      	subs	r3, r2, r3
 8003972:	6b3a      	ldr	r2, [r7, #48]	@ 0x30
 8003974:	429a      	cmp	r2, r3
 8003976:	d80b      	bhi.n	8003990 <HAL_SPI_TransmitReceive+0x244>
 8003978:	6b3b      	ldr	r3, [r7, #48]	@ 0x30
 800397a:	3301      	adds	r3, #1
 800397c:	d008      	beq.n	8003990 <HAL_SPI_TransmitReceive+0x244>
 800397e:	2323      	movs	r3, #35	@ 0x23
 8003980:	18fb      	adds	r3, r7, r3
 8003982:	2203      	movs	r2, #3
 8003984:	701a      	strb	r2, [r3, #0]
 8003986:	68fb      	ldr	r3, [r7, #12]
 8003988:	225d      	movs	r2, #93	@ 0x5d
 800398a:	2101      	movs	r1, #1
 800398c:	5499      	strb	r1, [r3, r2]
 800398e:	e0b1      	b.n	8003af4 <HAL_SPI_TransmitReceive+0x3a8>
 8003990:	68fb      	ldr	r3, [r7, #12]
 8003992:	8fdb      	ldrh	r3, [r3, #62]	@ 0x3e
 8003994:	b29b      	uxth	r3, r3
 8003996:	2b00      	cmp	r3, #0
 8003998:	d19f      	bne.n	80038da <HAL_SPI_TransmitReceive+0x18e>
 800399a:	68fb      	ldr	r3, [r7, #12]
 800399c:	2246      	movs	r2, #70	@ 0x46
 800399e:	5a9b      	ldrh	r3, [r3, r2]
 80039a0:	b29b      	uxth	r3, r3
 80039a2:	2b00      	cmp	r3, #0
 80039a4:	d199      	bne.n	80038da <HAL_SPI_TransmitReceive+0x18e>
 80039a6:	e089      	b.n	8003abc <HAL_SPI_TransmitReceive+0x370>
 80039a8:	68fb      	ldr	r3, [r7, #12]
 80039aa:	685b      	ldr	r3, [r3, #4]
 80039ac:	2b00      	cmp	r3, #0
 80039ae:	d005      	beq.n	80039bc <HAL_SPI_TransmitReceive+0x270>
 80039b0:	2312      	movs	r3, #18
 80039b2:	18fb      	adds	r3, r7, r3
 80039b4:	881b      	ldrh	r3, [r3, #0]
 80039b6:	2b01      	cmp	r3, #1
 80039b8:	d000      	beq.n	80039bc <HAL_SPI_TransmitReceive+0x270>
 80039ba:	e074      	b.n	8003aa6 <HAL_SPI_TransmitReceive+0x35a>
 80039bc:	68fb      	ldr	r3, [r7, #12]
 80039be:	6b9a      	ldr	r2, [r3, #56]	@ 0x38
 80039c0:	68fb      	ldr	r3, [r7, #12]
 80039c2:	681b      	ldr	r3, [r3, #0]
 80039c4:	330c      	adds	r3, #12
 80039c6:	7812      	ldrb	r2, [r2, #0]
 80039c8:	701a      	strb	r2, [r3, #0]
 80039ca:	68fb      	ldr	r3, [r7, #12]
 80039cc:	6b9b      	ldr	r3, [r3, #56]	@ 0x38
 80039ce:	1c5a      	adds	r2, r3, #1
 80039d0:	68fb      	ldr	r3, [r7, #12]
 80039d2:	639a      	str	r2, [r3, #56]	@ 0x38
 80039d4:	68fb      	ldr	r3, [r7, #12]
 80039d6:	8fdb      	ldrh	r3, [r3, #62]	@ 0x3e
 80039d8:	b29b      	uxth	r3, r3
 80039da:	3b01      	subs	r3, #1
 80039dc:	b29a      	uxth	r2, r3
 80039de:	68fb      	ldr	r3, [r7, #12]
 80039e0:	87da      	strh	r2, [r3, #62]	@ 0x3e
 80039e2:	e060      	b.n	8003aa6 <HAL_SPI_TransmitReceive+0x35a>
 80039e4:	68fb      	ldr	r3, [r7, #12]
 80039e6:	681b      	ldr	r3, [r3, #0]
 80039e8:	689b      	ldr	r3, [r3, #8]
 80039ea:	2202      	movs	r2, #2
 80039ec:	4013      	ands	r3, r2
 80039ee:	2b02      	cmp	r3, #2
 80039f0:	d11c      	bne.n	8003a2c <HAL_SPI_TransmitReceive+0x2e0>
 80039f2:	68fb      	ldr	r3, [r7, #12]
 80039f4:	8fdb      	ldrh	r3, [r3, #62]	@ 0x3e
 80039f6:	b29b      	uxth	r3, r3
 80039f8:	2b00      	cmp	r3, #0
 80039fa:	d017      	beq.n	8003a2c <HAL_SPI_TransmitReceive+0x2e0>
 80039fc:	6a7b      	ldr	r3, [r7, #36]	@ 0x24
 80039fe:	2b01      	cmp	r3, #1
 8003a00:	d114      	bne.n	8003a2c <HAL_SPI_TransmitReceive+0x2e0>
 8003a02:	68fb      	ldr	r3, [r7, #12]
 8003a04:	6b9a      	ldr	r2, [r3, #56]	@ 0x38
 8003a06:	68fb      	ldr	r3, [r7, #12]
 8003a08:	681b      	ldr	r3, [r3, #0]
 8003a0a:	330c      	adds	r3, #12
 8003a0c:	7812      	ldrb	r2, [r2, #0]
 8003a0e:	701a      	strb	r2, [r3, #0]
 8003a10:	68fb      	ldr	r3, [r7, #12]
 8003a12:	6b9b      	ldr	r3, [r3, #56]	@ 0x38
 8003a14:	1c5a      	adds	r2, r3, #1
 8003a16:	68fb      	ldr	r3, [r7, #12]
 8003a18:	639a      	str	r2, [r3, #56]	@ 0x38
 8003a1a:	68fb      	ldr	r3, [r7, #12]
 8003a1c:	8fdb      	ldrh	r3, [r3, #62]	@ 0x3e
 8003a1e:	b29b      	uxth	r3, r3
 8003a20:	3b01      	subs	r3, #1
 8003a22:	b29a      	uxth	r2, r3
 8003a24:	68fb      	ldr	r3, [r7, #12]
 8003a26:	87da      	strh	r2, [r3, #62]	@ 0x3e
 8003a28:	2300      	movs	r3, #0
 8003a2a:	627b      	str	r3, [r7, #36]	@ 0x24
 8003a2c:	68fb      	ldr	r3, [r7, #12]
 8003a2e:	681b      	ldr	r3, [r3, #0]
 8003a30:	689b      	ldr	r3, [r3, #8]
 8003a32:	2201      	movs	r2, #1
 8003a34:	4013      	ands	r3, r2
 8003a36:	2b01      	cmp	r3, #1
 8003a38:	d11e      	bne.n	8003a78 <HAL_SPI_TransmitReceive+0x32c>
 8003a3a:	68fb      	ldr	r3, [r7, #12]
 8003a3c:	2246      	movs	r2, #70	@ 0x46
 8003a3e:	5a9b      	ldrh	r3, [r3, r2]
 8003a40:	b29b      	uxth	r3, r3
 8003a42:	2b00      	cmp	r3, #0
 8003a44:	d018      	beq.n	8003a78 <HAL_SPI_TransmitReceive+0x32c>
 8003a46:	68fb      	ldr	r3, [r7, #12]
 8003a48:	681b      	ldr	r3, [r3, #0]
 8003a4a:	330c      	adds	r3, #12
 8003a4c:	001a      	movs	r2, r3
 8003a4e:	68fb      	ldr	r3, [r7, #12]
 8003a50:	6c1b      	ldr	r3, [r3, #64]	@ 0x40
 8003a52:	7812      	ldrb	r2, [r2, #0]
 8003a54:	b2d2      	uxtb	r2, r2
 8003a56:	701a      	strb	r2, [r3, #0]
 8003a58:	68fb      	ldr	r3, [r7, #12]
 8003a5a:	6c1b      	ldr	r3, [r3, #64]	@ 0x40
 8003a5c:	1c5a      	adds	r2, r3, #1
 8003a5e:	68fb      	ldr	r3, [r7, #12]
 8003a60:	641a      	str	r2, [r3, #64]	@ 0x40
 8003a62:	68fb      	ldr	r3, [r7, #12]
 8003a64:	2246      	movs	r2, #70	@ 0x46
 8003a66:	5a9b      	ldrh	r3, [r3, r2]
 8003a68:	b29b      	uxth	r3, r3
 8003a6a:	3b01      	subs	r3, #1
 8003a6c:	b299      	uxth	r1, r3
 8003a6e:	68fb      	ldr	r3, [r7, #12]
 8003a70:	2246      	movs	r2, #70	@ 0x46
 8003a72:	5299      	strh	r1, [r3, r2]
 8003a74:	2301      	movs	r3, #1
 8003a76:	627b      	str	r3, [r7, #36]	@ 0x24
 8003a78:	f7fe f9c2 	bl	8001e00 <HAL_GetTick>
 8003a7c:	0002      	movs	r2, r0
 8003a7e:	69fb      	ldr	r3, [r7, #28]
 8003a80:	1ad3      	subs	r3, r2, r3
 8003a82:	6b3a      	ldr	r2, [r7, #48]	@ 0x30
 8003a84:	429a      	cmp	r2, r3
 8003a86:	d802      	bhi.n	8003a8e <HAL_SPI_TransmitReceive+0x342>
 8003a88:	6b3b      	ldr	r3, [r7, #48]	@ 0x30
 8003a8a:	3301      	adds	r3, #1
 8003a8c:	d102      	bne.n	8003a94 <HAL_SPI_TransmitReceive+0x348>
 8003a8e:	6b3b      	ldr	r3, [r7, #48]	@ 0x30
 8003a90:	2b00      	cmp	r3, #0
 8003a92:	d108      	bne.n	8003aa6 <HAL_SPI_TransmitReceive+0x35a>
 8003a94:	2323      	movs	r3, #35	@ 0x23
 8003a96:	18fb      	adds	r3, r7, r3
 8003a98:	2203      	movs	r2, #3
 8003a9a:	701a      	strb	r2, [r3, #0]
 8003a9c:	68fb      	ldr	r3, [r7, #12]
 8003a9e:	225d      	movs	r2, #93	@ 0x5d
 8003aa0:	2101      	movs	r1, #1
 8003aa2:	5499      	strb	r1, [r3, r2]
 8003aa4:	e026      	b.n	8003af4 <HAL_SPI_TransmitReceive+0x3a8>
 8003aa6:	68fb      	ldr	r3, [r7, #12]
 8003aa8:	8fdb      	ldrh	r3, [r3, #62]	@ 0x3e
 8003aaa:	b29b      	uxth	r3, r3
 8003aac:	2b00      	cmp	r3, #0
 8003aae:	d199      	bne.n	80039e4 <HAL_SPI_TransmitReceive+0x298>
 8003ab0:	68fb      	ldr	r3, [r7, #12]
 8003ab2:	2246      	movs	r2, #70	@ 0x46
 8003ab4:	5a9b      	ldrh	r3, [r3, r2]
 8003ab6:	b29b      	uxth	r3, r3
 8003ab8:	2b00      	cmp	r3, #0
 8003aba:	d193      	bne.n	80039e4 <HAL_SPI_TransmitReceive+0x298>
 8003abc:	69fa      	ldr	r2, [r7, #28]
 8003abe:	6b39      	ldr	r1, [r7, #48]	@ 0x30
 8003ac0:	68fb      	ldr	r3, [r7, #12]
 8003ac2:	0018      	movs	r0, r3
 8003ac4:	f000 f9b2 	bl	8003e2c <SPI_EndRxTxTransaction>
 8003ac8:	1e03      	subs	r3, r0, #0
 8003aca:	d006      	beq.n	8003ada <HAL_SPI_TransmitReceive+0x38e>
 8003acc:	2323      	movs	r3, #35	@ 0x23
 8003ace:	18fb      	adds	r3, r7, r3
 8003ad0:	2201      	movs	r2, #1
 8003ad2:	701a      	strb	r2, [r3, #0]
 8003ad4:	68fb      	ldr	r3, [r7, #12]
 8003ad6:	2220      	movs	r2, #32
 8003ad8:	661a      	str	r2, [r3, #96]	@ 0x60
 8003ada:	68fb      	ldr	r3, [r7, #12]
 8003adc:	6e1b      	ldr	r3, [r3, #96]	@ 0x60
 8003ade:	2b00      	cmp	r3, #0
 8003ae0:	d004      	beq.n	8003aec <HAL_SPI_TransmitReceive+0x3a0>
 8003ae2:	2323      	movs	r3, #35	@ 0x23
 8003ae4:	18fb      	adds	r3, r7, r3
 8003ae6:	2201      	movs	r2, #1
 8003ae8:	701a      	strb	r2, [r3, #0]
 8003aea:	e003      	b.n	8003af4 <HAL_SPI_TransmitReceive+0x3a8>
 8003aec:	68fb      	ldr	r3, [r7, #12]
 8003aee:	225d      	movs	r2, #93	@ 0x5d
 8003af0:	2101      	movs	r1, #1
 8003af2:	5499      	strb	r1, [r3, r2]
 8003af4:	68fb      	ldr	r3, [r7, #12]
 8003af6:	225c      	movs	r2, #92	@ 0x5c
 8003af8:	2100      	movs	r1, #0
 8003afa:	5499      	strb	r1, [r3, r2]
 8003afc:	2323      	movs	r3, #35	@ 0x23
 8003afe:	18fb      	adds	r3, r7, r3
 8003b00:	781b      	ldrb	r3, [r3, #0]
 8003b02:	0018      	movs	r0, r3
 8003b04:	46bd      	mov	sp, r7
 8003b06:	b00a      	add	sp, #40	@ 0x28
 8003b08:	bd80      	pop	{r7, pc}
 8003b0a:	46c0      	nop			@ (mov r8, r8)
 8003b0c:	ffffefff 	.word	0xffffefff

08003b10 <SPI_WaitFlagStateUntilTimeout>:
 8003b10:	b580      	push	{r7, lr}
 8003b12:	b088      	sub	sp, #32
 8003b14:	af00      	add	r7, sp, #0
 8003b16:	60f8      	str	r0, [r7, #12]
 8003b18:	60b9      	str	r1, [r7, #8]
 8003b1a:	603b      	str	r3, [r7, #0]
 8003b1c:	1dfb      	adds	r3, r7, #7
 8003b1e:	701a      	strb	r2, [r3, #0]
 8003b20:	f7fe f96e 	bl	8001e00 <HAL_GetTick>
 8003b24:	0002      	movs	r2, r0
 8003b26:	6abb      	ldr	r3, [r7, #40]	@ 0x28
 8003b28:	1a9b      	subs	r3, r3, r2
 8003b2a:	683a      	ldr	r2, [r7, #0]
 8003b2c:	18d3      	adds	r3, r2, r3
 8003b2e:	61fb      	str	r3, [r7, #28]
 8003b30:	f7fe f966 	bl	8001e00 <HAL_GetTick>
 8003b34:	0003      	movs	r3, r0
 8003b36:	61bb      	str	r3, [r7, #24]
 8003b38:	4b3a      	ldr	r3, [pc, #232]	@ (8003c24 <SPI_WaitFlagStateUntilTimeout+0x114>)
 8003b3a:	681b      	ldr	r3, [r3, #0]
 8003b3c:	015b      	lsls	r3, r3, #5
 8003b3e:	0d1b      	lsrs	r3, r3, #20
 8003b40:	69fa      	ldr	r2, [r7, #28]
 8003b42:	4353      	muls	r3, r2
 8003b44:	617b      	str	r3, [r7, #20]
 8003b46:	e058      	b.n	8003bfa <SPI_WaitFlagStateUntilTimeout+0xea>
 8003b48:	683b      	ldr	r3, [r7, #0]
 8003b4a:	3301      	adds	r3, #1
 8003b4c:	d055      	beq.n	8003bfa <SPI_WaitFlagStateUntilTimeout+0xea>
 8003b4e:	f7fe f957 	bl	8001e00 <HAL_GetTick>
 8003b52:	0002      	movs	r2, r0
 8003b54:	69bb      	ldr	r3, [r7, #24]
 8003b56:	1ad3      	subs	r3, r2, r3
 8003b58:	69fa      	ldr	r2, [r7, #28]
 8003b5a:	429a      	cmp	r2, r3
 8003b5c:	d902      	bls.n	8003b64 <SPI_WaitFlagStateUntilTimeout+0x54>
 8003b5e:	69fb      	ldr	r3, [r7, #28]
 8003b60:	2b00      	cmp	r3, #0
 8003b62:	d142      	bne.n	8003bea <SPI_WaitFlagStateUntilTimeout+0xda>
 8003b64:	68fb      	ldr	r3, [r7, #12]
 8003b66:	681b      	ldr	r3, [r3, #0]
 8003b68:	685a      	ldr	r2, [r3, #4]
 8003b6a:	68fb      	ldr	r3, [r7, #12]
 8003b6c:	681b      	ldr	r3, [r3, #0]
 8003b6e:	21e0      	movs	r1, #224	@ 0xe0
 8003b70:	438a      	bics	r2, r1
 8003b72:	605a      	str	r2, [r3, #4]
 8003b74:	68fb      	ldr	r3, [r7, #12]
 8003b76:	685a      	ldr	r2, [r3, #4]
 8003b78:	2382      	movs	r3, #130	@ 0x82
 8003b7a:	005b      	lsls	r3, r3, #1
 8003b7c:	429a      	cmp	r2, r3
 8003b7e:	d113      	bne.n	8003ba8 <SPI_WaitFlagStateUntilTimeout+0x98>
 8003b80:	68fb      	ldr	r3, [r7, #12]
 8003b82:	689a      	ldr	r2, [r3, #8]
 8003b84:	2380      	movs	r3, #128	@ 0x80
 8003b86:	021b      	lsls	r3, r3, #8
 8003b88:	429a      	cmp	r2, r3
 8003b8a:	d005      	beq.n	8003b98 <SPI_WaitFlagStateUntilTimeout+0x88>
 8003b8c:	68fb      	ldr	r3, [r7, #12]
 8003b8e:	689a      	ldr	r2, [r3, #8]
 8003b90:	2380      	movs	r3, #128	@ 0x80
 8003b92:	00db      	lsls	r3, r3, #3
 8003b94:	429a      	cmp	r2, r3
 8003b96:	d107      	bne.n	8003ba8 <SPI_WaitFlagStateUntilTimeout+0x98>
 8003b98:	68fb      	ldr	r3, [r7, #12]
 8003b9a:	681b      	ldr	r3, [r3, #0]
 8003b9c:	681a      	ldr	r2, [r3, #0]
 8003b9e:	68fb      	ldr	r3, [r7, #12]
 8003ba0:	681b      	ldr	r3, [r3, #0]
 8003ba2:	2140      	movs	r1, #64	@ 0x40
 8003ba4:	438a      	bics	r2, r1
 8003ba6:	601a      	str	r2, [r3, #0]
 8003ba8:	68fb      	ldr	r3, [r7, #12]
 8003baa:	6a9a      	ldr	r2, [r3, #40]	@ 0x28
 8003bac:	2380      	movs	r3, #128	@ 0x80
 8003bae:	019b      	lsls	r3, r3, #6
 8003bb0:	429a      	cmp	r2, r3
 8003bb2:	d110      	bne.n	8003bd6 <SPI_WaitFlagStateUntilTimeout+0xc6>
 8003bb4:	68fb      	ldr	r3, [r7, #12]
 8003bb6:	681b      	ldr	r3, [r3, #0]
 8003bb8:	681a      	ldr	r2, [r3, #0]
 8003bba:	68fb      	ldr	r3, [r7, #12]
 8003bbc:	681b      	ldr	r3, [r3, #0]
 8003bbe:	491a      	ldr	r1, [pc, #104]	@ (8003c28 <SPI_WaitFlagStateUntilTimeout+0x118>)
 8003bc0:	400a      	ands	r2, r1
 8003bc2:	601a      	str	r2, [r3, #0]
 8003bc4:	68fb      	ldr	r3, [r7, #12]
 8003bc6:	681b      	ldr	r3, [r3, #0]
 8003bc8:	681a      	ldr	r2, [r3, #0]
 8003bca:	68fb      	ldr	r3, [r7, #12]
 8003bcc:	681b      	ldr	r3, [r3, #0]
 8003bce:	2180      	movs	r1, #128	@ 0x80
 8003bd0:	0189      	lsls	r1, r1, #6
 8003bd2:	430a      	orrs	r2, r1
 8003bd4:	601a      	str	r2, [r3, #0]
 8003bd6:	68fb      	ldr	r3, [r7, #12]
 8003bd8:	225d      	movs	r2, #93	@ 0x5d
 8003bda:	2101      	movs	r1, #1
 8003bdc:	5499      	strb	r1, [r3, r2]
 8003bde:	68fb      	ldr	r3, [r7, #12]
 8003be0:	225c      	movs	r2, #92	@ 0x5c
 8003be2:	2100      	movs	r1, #0
 8003be4:	5499      	strb	r1, [r3, r2]
 8003be6:	2303      	movs	r3, #3
 8003be8:	e017      	b.n	8003c1a <SPI_WaitFlagStateUntilTimeout+0x10a>
 8003bea:	697b      	ldr	r3, [r7, #20]
 8003bec:	2b00      	cmp	r3, #0
 8003bee:	d101      	bne.n	8003bf4 <SPI_WaitFlagStateUntilTimeout+0xe4>
 8003bf0:	2300      	movs	r3, #0
 8003bf2:	61fb      	str	r3, [r7, #28]
 8003bf4:	697b      	ldr	r3, [r7, #20]
 8003bf6:	3b01      	subs	r3, #1
 8003bf8:	617b      	str	r3, [r7, #20]
 8003bfa:	68fb      	ldr	r3, [r7, #12]
 8003bfc:	681b      	ldr	r3, [r3, #0]
 8003bfe:	689b      	ldr	r3, [r3, #8]
 8003c00:	68ba      	ldr	r2, [r7, #8]
 8003c02:	4013      	ands	r3, r2
 8003c04:	68ba      	ldr	r2, [r7, #8]
 8003c06:	1ad3      	subs	r3, r2, r3
 8003c08:	425a      	negs	r2, r3
 8003c0a:	4153      	adcs	r3, r2
 8003c0c:	b2db      	uxtb	r3, r3
 8003c0e:	001a      	movs	r2, r3
 8003c10:	1dfb      	adds	r3, r7, #7
 8003c12:	781b      	ldrb	r3, [r3, #0]
 8003c14:	429a      	cmp	r2, r3
 8003c16:	d197      	bne.n	8003b48 <SPI_WaitFlagStateUntilTimeout+0x38>
 8003c18:	2300      	movs	r3, #0
 8003c1a:	0018      	movs	r0, r3
 8003c1c:	46bd      	mov	sp, r7
 8003c1e:	b008      	add	sp, #32
 8003c20:	bd80      	pop	{r7, pc}
 8003c22:	46c0      	nop			@ (mov r8, r8)
 8003c24:	20000004 	.word	0x20000004
 8003c28:	ffffdfff 	.word	0xffffdfff

08003c2c <SPI_WaitFifoStateUntilTimeout>:
 8003c2c:	b580      	push	{r7, lr}
 8003c2e:	b08a      	sub	sp, #40	@ 0x28
 8003c30:	af00      	add	r7, sp, #0
 8003c32:	60f8      	str	r0, [r7, #12]
 8003c34:	60b9      	str	r1, [r7, #8]
 8003c36:	607a      	str	r2, [r7, #4]
 8003c38:	603b      	str	r3, [r7, #0]
 8003c3a:	2317      	movs	r3, #23
 8003c3c:	18fb      	adds	r3, r7, r3
 8003c3e:	2200      	movs	r2, #0
 8003c40:	701a      	strb	r2, [r3, #0]
 8003c42:	f7fe f8dd 	bl	8001e00 <HAL_GetTick>
 8003c46:	0002      	movs	r2, r0
 8003c48:	6b3b      	ldr	r3, [r7, #48]	@ 0x30
 8003c4a:	1a9b      	subs	r3, r3, r2
 8003c4c:	683a      	ldr	r2, [r7, #0]
 8003c4e:	18d3      	adds	r3, r2, r3
 8003c50:	627b      	str	r3, [r7, #36]	@ 0x24
 8003c52:	f7fe f8d5 	bl	8001e00 <HAL_GetTick>
 8003c56:	0003      	movs	r3, r0
 8003c58:	623b      	str	r3, [r7, #32]
 8003c5a:	68fb      	ldr	r3, [r7, #12]
 8003c5c:	681b      	ldr	r3, [r3, #0]
 8003c5e:	330c      	adds	r3, #12
 8003c60:	61fb      	str	r3, [r7, #28]
 8003c62:	4b41      	ldr	r3, [pc, #260]	@ (8003d68 <SPI_WaitFifoStateUntilTimeout+0x13c>)
 8003c64:	681a      	ldr	r2, [r3, #0]
 8003c66:	0013      	movs	r3, r2
 8003c68:	009b      	lsls	r3, r3, #2
 8003c6a:	189b      	adds	r3, r3, r2
 8003c6c:	00da      	lsls	r2, r3, #3
 8003c6e:	1ad3      	subs	r3, r2, r3
 8003c70:	0d1b      	lsrs	r3, r3, #20
 8003c72:	6a7a      	ldr	r2, [r7, #36]	@ 0x24
 8003c74:	4353      	muls	r3, r2
 8003c76:	61bb      	str	r3, [r7, #24]
 8003c78:	e068      	b.n	8003d4c <SPI_WaitFifoStateUntilTimeout+0x120>
 8003c7a:	68ba      	ldr	r2, [r7, #8]
 8003c7c:	23c0      	movs	r3, #192	@ 0xc0
 8003c7e:	00db      	lsls	r3, r3, #3
 8003c80:	429a      	cmp	r2, r3
 8003c82:	d10a      	bne.n	8003c9a <SPI_WaitFifoStateUntilTimeout+0x6e>
 8003c84:	687b      	ldr	r3, [r7, #4]
 8003c86:	2b00      	cmp	r3, #0
 8003c88:	d107      	bne.n	8003c9a <SPI_WaitFifoStateUntilTimeout+0x6e>
 8003c8a:	69fb      	ldr	r3, [r7, #28]
 8003c8c:	781b      	ldrb	r3, [r3, #0]
 8003c8e:	b2da      	uxtb	r2, r3
 8003c90:	2117      	movs	r1, #23
 8003c92:	187b      	adds	r3, r7, r1
 8003c94:	701a      	strb	r2, [r3, #0]
 8003c96:	187b      	adds	r3, r7, r1
 8003c98:	781b      	ldrb	r3, [r3, #0]
 8003c9a:	683b      	ldr	r3, [r7, #0]
 8003c9c:	3301      	adds	r3, #1
 8003c9e:	d055      	beq.n	8003d4c <SPI_WaitFifoStateUntilTimeout+0x120>
 8003ca0:	f7fe f8ae 	bl	8001e00 <HAL_GetTick>
 8003ca4:	0002      	movs	r2, r0
 8003ca6:	6a3b      	ldr	r3, [r7, #32]
 8003ca8:	1ad3      	subs	r3, r2, r3
 8003caa:	6a7a      	ldr	r2, [r7, #36]	@ 0x24
 8003cac:	429a      	cmp	r2, r3
 8003cae:	d902      	bls.n	8003cb6 <SPI_WaitFifoStateUntilTimeout+0x8a>
 8003cb0:	6a7b      	ldr	r3, [r7, #36]	@ 0x24
 8003cb2:	2b00      	cmp	r3, #0
 8003cb4:	d142      	bne.n	8003d3c <SPI_WaitFifoStateUntilTimeout+0x110>
 8003cb6:	68fb      	ldr	r3, [r7, #12]
 8003cb8:	681b      	ldr	r3, [r3, #0]
 8003cba:	685a      	ldr	r2, [r3, #4]
 8003cbc:	68fb      	ldr	r3, [r7, #12]
 8003cbe:	681b      	ldr	r3, [r3, #0]
 8003cc0:	21e0      	movs	r1, #224	@ 0xe0
 8003cc2:	438a      	bics	r2, r1
 8003cc4:	605a      	str	r2, [r3, #4]
 8003cc6:	68fb      	ldr	r3, [r7, #12]
 8003cc8:	685a      	ldr	r2, [r3, #4]
 8003cca:	2382      	movs	r3, #130	@ 0x82
 8003ccc:	005b      	lsls	r3, r3, #1
 8003cce:	429a      	cmp	r2, r3
 8003cd0:	d113      	bne.n	8003cfa <SPI_WaitFifoStateUntilTimeout+0xce>
 8003cd2:	68fb      	ldr	r3, [r7, #12]
 8003cd4:	689a      	ldr	r2, [r3, #8]
 8003cd6:	2380      	movs	r3, #128	@ 0x80
 8003cd8:	021b      	lsls	r3, r3, #8
 8003cda:	429a      	cmp	r2, r3
 8003cdc:	d005      	beq.n	8003cea <SPI_WaitFifoStateUntilTimeout+0xbe>
 8003cde:	68fb      	ldr	r3, [r7, #12]
 8003ce0:	689a      	ldr	r2, [r3, #8]
 8003ce2:	2380      	movs	r3, #128	@ 0x80
 8003ce4:	00db      	lsls	r3, r3, #3
 8003ce6:	429a      	cmp	r2, r3
 8003ce8:	d107      	bne.n	8003cfa <SPI_WaitFifoStateUntilTimeout+0xce>
 8003cea:	68fb      	ldr	r3, [r7, #12]
 8003cec:	681b      	ldr	r3, [r3, #0]
 8003cee:	681a      	ldr	r2, [r3, #0]
 8003cf0:	68fb      	ldr	r3, [r7, #12]
 8003cf2:	681b      	ldr	r3, [r3, #0]
 8003cf4:	2140      	movs	r1, #64	@ 0x40
 8003cf6:	438a      	bics	r2, r1
 8003cf8:	601a      	str	r2, [r3, #0]
 8003cfa:	68fb      	ldr	r3, [r7, #12]
 8003cfc:	6a9a      	ldr	r2, [r3, #40]	@ 0x28
 8003cfe:	2380      	movs	r3, #128	@ 0x80
 8003d00:	019b      	lsls	r3, r3, #6
 8003d02:	429a      	cmp	r2, r3
 8003d04:	d110      	bne.n	8003d28 <SPI_WaitFifoStateUntilTimeout+0xfc>
 8003d06:	68fb      	ldr	r3, [r7, #12]
 8003d08:	681b      	ldr	r3, [r3, #0]
 8003d0a:	681a      	ldr	r2, [r3, #0]
 8003d0c:	68fb      	ldr	r3, [r7, #12]
 8003d0e:	681b      	ldr	r3, [r3, #0]
 8003d10:	4916      	ldr	r1, [pc, #88]	@ (8003d6c <SPI_WaitFifoStateUntilTimeout+0x140>)
 8003d12:	400a      	ands	r2, r1
 8003d14:	601a      	str	r2, [r3, #0]
 8003d16:	68fb      	ldr	r3, [r7, #12]
 8003d18:	681b      	ldr	r3, [r3, #0]
 8003d1a:	681a      	ldr	r2, [r3, #0]
 8003d1c:	68fb      	ldr	r3, [r7, #12]
 8003d1e:	681b      	ldr	r3, [r3, #0]
 8003d20:	2180      	movs	r1, #128	@ 0x80
 8003d22:	0189      	lsls	r1, r1, #6
 8003d24:	430a      	orrs	r2, r1
 8003d26:	601a      	str	r2, [r3, #0]
 8003d28:	68fb      	ldr	r3, [r7, #12]
 8003d2a:	225d      	movs	r2, #93	@ 0x5d
 8003d2c:	2101      	movs	r1, #1
 8003d2e:	5499      	strb	r1, [r3, r2]
 8003d30:	68fb      	ldr	r3, [r7, #12]
 8003d32:	225c      	movs	r2, #92	@ 0x5c
 8003d34:	2100      	movs	r1, #0
 8003d36:	5499      	strb	r1, [r3, r2]
 8003d38:	2303      	movs	r3, #3
 8003d3a:	e010      	b.n	8003d5e <SPI_WaitFifoStateUntilTimeout+0x132>
 8003d3c:	69bb      	ldr	r3, [r7, #24]
 8003d3e:	2b00      	cmp	r3, #0
 8003d40:	d101      	bne.n	8003d46 <SPI_WaitFifoStateUntilTimeout+0x11a>
 8003d42:	2300      	movs	r3, #0
 8003d44:	627b      	str	r3, [r7, #36]	@ 0x24
 8003d46:	69bb      	ldr	r3, [r7, #24]
 8003d48:	3b01      	subs	r3, #1
 8003d4a:	61bb      	str	r3, [r7, #24]
 8003d4c:	68fb      	ldr	r3, [r7, #12]
 8003d4e:	681b      	ldr	r3, [r3, #0]
 8003d50:	689b      	ldr	r3, [r3, #8]
 8003d52:	68ba      	ldr	r2, [r7, #8]
 8003d54:	4013      	ands	r3, r2
 8003d56:	687a      	ldr	r2, [r7, #4]
 8003d58:	429a      	cmp	r2, r3
 8003d5a:	d18e      	bne.n	8003c7a <SPI_WaitFifoStateUntilTimeout+0x4e>
 8003d5c:	2300      	movs	r3, #0
 8003d5e:	0018      	movs	r0, r3
 8003d60:	46bd      	mov	sp, r7
 8003d62:	b00a      	add	sp, #40	@ 0x28
 8003d64:	bd80      	pop	{r7, pc}
 8003d66:	46c0      	nop			@ (mov r8, r8)
 8003d68:	20000004 	.word	0x20000004
 8003d6c:	ffffdfff 	.word	0xffffdfff

08003d70 <SPI_EndRxTransaction>:
 8003d70:	b580      	push	{r7, lr}
 8003d72:	b086      	sub	sp, #24
 8003d74:	af02      	add	r7, sp, #8
 8003d76:	60f8      	str	r0, [r7, #12]
 8003d78:	60b9      	str	r1, [r7, #8]
 8003d7a:	607a      	str	r2, [r7, #4]
 8003d7c:	68fb      	ldr	r3, [r7, #12]
 8003d7e:	685a      	ldr	r2, [r3, #4]
 8003d80:	2382      	movs	r3, #130	@ 0x82
 8003d82:	005b      	lsls	r3, r3, #1
 8003d84:	429a      	cmp	r2, r3
 8003d86:	d113      	bne.n	8003db0 <SPI_EndRxTransaction+0x40>
 8003d88:	68fb      	ldr	r3, [r7, #12]
 8003d8a:	689a      	ldr	r2, [r3, #8]
 8003d8c:	2380      	movs	r3, #128	@ 0x80
 8003d8e:	021b      	lsls	r3, r3, #8
 8003d90:	429a      	cmp	r2, r3
 8003d92:	d005      	beq.n	8003da0 <SPI_EndRxTransaction+0x30>
 8003d94:	68fb      	ldr	r3, [r7, #12]
 8003d96:	689a      	ldr	r2, [r3, #8]
 8003d98:	2380      	movs	r3, #128	@ 0x80
 8003d9a:	00db      	lsls	r3, r3, #3
 8003d9c:	429a      	cmp	r2, r3
 8003d9e:	d107      	bne.n	8003db0 <SPI_EndRxTransaction+0x40>
 8003da0:	68fb      	ldr	r3, [r7, #12]
 8003da2:	681b      	ldr	r3, [r3, #0]
 8003da4:	681a      	ldr	r2, [r3, #0]
 8003da6:	68fb      	ldr	r3, [r7, #12]
 8003da8:	681b      	ldr	r3, [r3, #0]
 8003daa:	2140      	movs	r1, #64	@ 0x40
 8003dac:	438a      	bics	r2, r1
 8003dae:	601a      	str	r2, [r3, #0]
 8003db0:	68ba      	ldr	r2, [r7, #8]
 8003db2:	68f8      	ldr	r0, [r7, #12]
 8003db4:	687b      	ldr	r3, [r7, #4]
 8003db6:	9300      	str	r3, [sp, #0]
 8003db8:	0013      	movs	r3, r2
 8003dba:	2200      	movs	r2, #0
 8003dbc:	2180      	movs	r1, #128	@ 0x80
 8003dbe:	f7ff fea7 	bl	8003b10 <SPI_WaitFlagStateUntilTimeout>
 8003dc2:	1e03      	subs	r3, r0, #0
 8003dc4:	d007      	beq.n	8003dd6 <SPI_EndRxTransaction+0x66>
 8003dc6:	68fb      	ldr	r3, [r7, #12]
 8003dc8:	6e1b      	ldr	r3, [r3, #96]	@ 0x60
 8003dca:	2220      	movs	r2, #32
 8003dcc:	431a      	orrs	r2, r3
 8003dce:	68fb      	ldr	r3, [r7, #12]
 8003dd0:	661a      	str	r2, [r3, #96]	@ 0x60
 8003dd2:	2303      	movs	r3, #3
 8003dd4:	e026      	b.n	8003e24 <SPI_EndRxTransaction+0xb4>
 8003dd6:	68fb      	ldr	r3, [r7, #12]
 8003dd8:	685a      	ldr	r2, [r3, #4]
 8003dda:	2382      	movs	r3, #130	@ 0x82
 8003ddc:	005b      	lsls	r3, r3, #1
 8003dde:	429a      	cmp	r2, r3
 8003de0:	d11f      	bne.n	8003e22 <SPI_EndRxTransaction+0xb2>
 8003de2:	68fb      	ldr	r3, [r7, #12]
 8003de4:	689a      	ldr	r2, [r3, #8]
 8003de6:	2380      	movs	r3, #128	@ 0x80
 8003de8:	021b      	lsls	r3, r3, #8
 8003dea:	429a      	cmp	r2, r3
 8003dec:	d005      	beq.n	8003dfa <SPI_EndRxTransaction+0x8a>
 8003dee:	68fb      	ldr	r3, [r7, #12]
 8003df0:	689a      	ldr	r2, [r3, #8]
 8003df2:	2380      	movs	r3, #128	@ 0x80
 8003df4:	00db      	lsls	r3, r3, #3
 8003df6:	429a      	cmp	r2, r3
 8003df8:	d113      	bne.n	8003e22 <SPI_EndRxTransaction+0xb2>
 8003dfa:	68ba      	ldr	r2, [r7, #8]
 8003dfc:	23c0      	movs	r3, #192	@ 0xc0
 8003dfe:	00d9      	lsls	r1, r3, #3
 8003e00:	68f8      	ldr	r0, [r7, #12]
 8003e02:	687b      	ldr	r3, [r7, #4]
 8003e04:	9300      	str	r3, [sp, #0]
 8003e06:	0013      	movs	r3, r2
 8003e08:	2200      	movs	r2, #0
 8003e0a:	f7ff ff0f 	bl	8003c2c <SPI_WaitFifoStateUntilTimeout>
 8003e0e:	1e03      	subs	r3, r0, #0
 8003e10:	d007      	beq.n	8003e22 <SPI_EndRxTransaction+0xb2>
 8003e12:	68fb      	ldr	r3, [r7, #12]
 8003e14:	6e1b      	ldr	r3, [r3, #96]	@ 0x60
 8003e16:	2220      	movs	r2, #32
 8003e18:	431a      	orrs	r2, r3
 8003e1a:	68fb      	ldr	r3, [r7, #12]
 8003e1c:	661a      	str	r2, [r3, #96]	@ 0x60
 8003e1e:	2303      	movs	r3, #3
 8003e20:	e000      	b.n	8003e24 <SPI_EndRxTransaction+0xb4>
 8003e22:	2300      	movs	r3, #0
 8003e24:	0018      	movs	r0, r3
 8003e26:	46bd      	mov	sp, r7
 8003e28:	b004      	add	sp, #16
 8003e2a:	bd80      	pop	{r7, pc}

08003e2c <SPI_EndRxTxTransaction>:
 8003e2c:	b580      	push	{r7, lr}
 8003e2e:	b086      	sub	sp, #24
 8003e30:	af02      	add	r7, sp, #8
 8003e32:	60f8      	str	r0, [r7, #12]
 8003e34:	60b9      	str	r1, [r7, #8]
 8003e36:	607a      	str	r2, [r7, #4]
 8003e38:	68ba      	ldr	r2, [r7, #8]
 8003e3a:	23c0      	movs	r3, #192	@ 0xc0
 8003e3c:	0159      	lsls	r1, r3, #5
 8003e3e:	68f8      	ldr	r0, [r7, #12]
 8003e40:	687b      	ldr	r3, [r7, #4]
 8003e42:	9300      	str	r3, [sp, #0]
 8003e44:	0013      	movs	r3, r2
 8003e46:	2200      	movs	r2, #0
 8003e48:	f7ff fef0 	bl	8003c2c <SPI_WaitFifoStateUntilTimeout>
 8003e4c:	1e03      	subs	r3, r0, #0
 8003e4e:	d007      	beq.n	8003e60 <SPI_EndRxTxTransaction+0x34>
 8003e50:	68fb      	ldr	r3, [r7, #12]
 8003e52:	6e1b      	ldr	r3, [r3, #96]	@ 0x60
 8003e54:	2220      	movs	r2, #32
 8003e56:	431a      	orrs	r2, r3
 8003e58:	68fb      	ldr	r3, [r7, #12]
 8003e5a:	661a      	str	r2, [r3, #96]	@ 0x60
 8003e5c:	2303      	movs	r3, #3
 8003e5e:	e027      	b.n	8003eb0 <SPI_EndRxTxTransaction+0x84>
 8003e60:	68ba      	ldr	r2, [r7, #8]
 8003e62:	68f8      	ldr	r0, [r7, #12]
 8003e64:	687b      	ldr	r3, [r7, #4]
 8003e66:	9300      	str	r3, [sp, #0]
 8003e68:	0013      	movs	r3, r2
 8003e6a:	2200      	movs	r2, #0
 8003e6c:	2180      	movs	r1, #128	@ 0x80
 8003e6e:	f7ff fe4f 	bl	8003b10 <SPI_WaitFlagStateUntilTimeout>
 8003e72:	1e03      	subs	r3, r0, #0
 8003e74:	d007      	beq.n	8003e86 <SPI_EndRxTxTransaction+0x5a>
 8003e76:	68fb      	ldr	r3, [r7, #12]
 8003e78:	6e1b      	ldr	r3, [r3, #96]	@ 0x60
 8003e7a:	2220      	movs	r2, #32
 8003e7c:	431a      	orrs	r2, r3
 8003e7e:	68fb      	ldr	r3, [r7, #12]
 8003e80:	661a      	str	r2, [r3, #96]	@ 0x60
 8003e82:	2303      	movs	r3, #3
 8003e84:	e014      	b.n	8003eb0 <SPI_EndRxTxTransaction+0x84>
 8003e86:	68ba      	ldr	r2, [r7, #8]
 8003e88:	23c0      	movs	r3, #192	@ 0xc0
 8003e8a:	00d9      	lsls	r1, r3, #3
 8003e8c:	68f8      	ldr	r0, [r7, #12]
 8003e8e:	687b      	ldr	r3, [r7, #4]
 8003e90:	9300      	str	r3, [sp, #0]
 8003e92:	0013      	movs	r3, r2
 8003e94:	2200      	movs	r2, #0
 8003e96:	f7ff fec9 	bl	8003c2c <SPI_WaitFifoStateUntilTimeout>
 8003e9a:	1e03      	subs	r3, r0, #0
 8003e9c:	d007      	beq.n	8003eae <SPI_EndRxTxTransaction+0x82>
 8003e9e:	68fb      	ldr	r3, [r7, #12]
 8003ea0:	6e1b      	ldr	r3, [r3, #96]	@ 0x60
 8003ea2:	2220      	movs	r2, #32
 8003ea4:	431a      	orrs	r2, r3
 8003ea6:	68fb      	ldr	r3, [r7, #12]
 8003ea8:	661a      	str	r2, [r3, #96]	@ 0x60
 8003eaa:	2303      	movs	r3, #3
 8003eac:	e000      	b.n	8003eb0 <SPI_EndRxTxTransaction+0x84>
 8003eae:	2300      	movs	r3, #0
 8003eb0:	0018      	movs	r0, r3
 8003eb2:	46bd      	mov	sp, r7
 8003eb4:	b004      	add	sp, #16
 8003eb6:	bd80      	pop	{r7, pc}

08003eb8 <HAL_TIM_Base_Init>:
 8003eb8:	b580      	push	{r7, lr}
 8003eba:	b082      	sub	sp, #8
 8003ebc:	af00      	add	r7, sp, #0
 8003ebe:	6078      	str	r0, [r7, #4]
 8003ec0:	687b      	ldr	r3, [r7, #4]
 8003ec2:	2b00      	cmp	r3, #0
 8003ec4:	d101      	bne.n	8003eca <HAL_TIM_Base_Init+0x12>
 8003ec6:	2301      	movs	r3, #1
 8003ec8:	e042      	b.n	8003f50 <HAL_TIM_Base_Init+0x98>
 8003eca:	687b      	ldr	r3, [r7, #4]
 8003ecc:	223d      	movs	r2, #61	@ 0x3d
 8003ece:	5c9b      	ldrb	r3, [r3, r2]
 8003ed0:	b2db      	uxtb	r3, r3
 8003ed2:	2b00      	cmp	r3, #0
 8003ed4:	d107      	bne.n	8003ee6 <HAL_TIM_Base_Init+0x2e>
 8003ed6:	687b      	ldr	r3, [r7, #4]
 8003ed8:	223c      	movs	r2, #60	@ 0x3c
 8003eda:	2100      	movs	r1, #0
 8003edc:	5499      	strb	r1, [r3, r2]
 8003ede:	687b      	ldr	r3, [r7, #4]
 8003ee0:	0018      	movs	r0, r3
 8003ee2:	f7fd fded 	bl	8001ac0 <HAL_TIM_Base_MspInit>
 8003ee6:	687b      	ldr	r3, [r7, #4]
 8003ee8:	223d      	movs	r2, #61	@ 0x3d
 8003eea:	2102      	movs	r1, #2
 8003eec:	5499      	strb	r1, [r3, r2]
 8003eee:	687b      	ldr	r3, [r7, #4]
 8003ef0:	681a      	ldr	r2, [r3, #0]
 8003ef2:	687b      	ldr	r3, [r7, #4]
 8003ef4:	3304      	adds	r3, #4
 8003ef6:	0019      	movs	r1, r3
 8003ef8:	0010      	movs	r0, r2
 8003efa:	f000 f943 	bl	8004184 <TIM_Base_SetConfig>
 8003efe:	687b      	ldr	r3, [r7, #4]
 8003f00:	2246      	movs	r2, #70	@ 0x46
 8003f02:	2101      	movs	r1, #1
 8003f04:	5499      	strb	r1, [r3, r2]
 8003f06:	687b      	ldr	r3, [r7, #4]
 8003f08:	223e      	movs	r2, #62	@ 0x3e
 8003f0a:	2101      	movs	r1, #1
 8003f0c:	5499      	strb	r1, [r3, r2]
 8003f0e:	687b      	ldr	r3, [r7, #4]
 8003f10:	223f      	movs	r2, #63	@ 0x3f
 8003f12:	2101      	movs	r1, #1
 8003f14:	5499      	strb	r1, [r3, r2]
 8003f16:	687b      	ldr	r3, [r7, #4]
 8003f18:	2240      	movs	r2, #64	@ 0x40
 8003f1a:	2101      	movs	r1, #1
 8003f1c:	5499      	strb	r1, [r3, r2]
 8003f1e:	687b      	ldr	r3, [r7, #4]
 8003f20:	2241      	movs	r2, #65	@ 0x41
 8003f22:	2101      	movs	r1, #1
 8003f24:	5499      	strb	r1, [r3, r2]
 8003f26:	687b      	ldr	r3, [r7, #4]
 8003f28:	2242      	movs	r2, #66	@ 0x42
 8003f2a:	2101      	movs	r1, #1
 8003f2c:	5499      	strb	r1, [r3, r2]
 8003f2e:	687b      	ldr	r3, [r7, #4]
 8003f30:	2243      	movs	r2, #67	@ 0x43
 8003f32:	2101      	movs	r1, #1
 8003f34:	5499      	strb	r1, [r3, r2]
 8003f36:	687b      	ldr	r3, [r7, #4]
 8003f38:	2244      	movs	r2, #68	@ 0x44
 8003f3a:	2101      	movs	r1, #1
 8003f3c:	5499      	strb	r1, [r3, r2]
 8003f3e:	687b      	ldr	r3, [r7, #4]
 8003f40:	2245      	movs	r2, #69	@ 0x45
 8003f42:	2101      	movs	r1, #1
 8003f44:	5499      	strb	r1, [r3, r2]
 8003f46:	687b      	ldr	r3, [r7, #4]
 8003f48:	223d      	movs	r2, #61	@ 0x3d
 8003f4a:	2101      	movs	r1, #1
 8003f4c:	5499      	strb	r1, [r3, r2]
 8003f4e:	2300      	movs	r3, #0
 8003f50:	0018      	movs	r0, r3
 8003f52:	46bd      	mov	sp, r7
 8003f54:	b002      	add	sp, #8
 8003f56:	bd80      	pop	{r7, pc}

08003f58 <HAL_TIM_IRQHandler>:
 8003f58:	b580      	push	{r7, lr}
 8003f5a:	b084      	sub	sp, #16
 8003f5c:	af00      	add	r7, sp, #0
 8003f5e:	6078      	str	r0, [r7, #4]
 8003f60:	687b      	ldr	r3, [r7, #4]
 8003f62:	681b      	ldr	r3, [r3, #0]
 8003f64:	68db      	ldr	r3, [r3, #12]
 8003f66:	60fb      	str	r3, [r7, #12]
 8003f68:	687b      	ldr	r3, [r7, #4]
 8003f6a:	681b      	ldr	r3, [r3, #0]
 8003f6c:	691b      	ldr	r3, [r3, #16]
 8003f6e:	60bb      	str	r3, [r7, #8]
 8003f70:	68bb      	ldr	r3, [r7, #8]
 8003f72:	2202      	movs	r2, #2
 8003f74:	4013      	ands	r3, r2
 8003f76:	d021      	beq.n	8003fbc <HAL_TIM_IRQHandler+0x64>
 8003f78:	68fb      	ldr	r3, [r7, #12]
 8003f7a:	2202      	movs	r2, #2
 8003f7c:	4013      	ands	r3, r2
 8003f7e:	d01d      	beq.n	8003fbc <HAL_TIM_IRQHandler+0x64>
 8003f80:	687b      	ldr	r3, [r7, #4]
 8003f82:	681b      	ldr	r3, [r3, #0]
 8003f84:	2203      	movs	r2, #3
 8003f86:	4252      	negs	r2, r2
 8003f88:	611a      	str	r2, [r3, #16]
 8003f8a:	687b      	ldr	r3, [r7, #4]
 8003f8c:	2201      	movs	r2, #1
 8003f8e:	771a      	strb	r2, [r3, #28]
 8003f90:	687b      	ldr	r3, [r7, #4]
 8003f92:	681b      	ldr	r3, [r3, #0]
 8003f94:	699b      	ldr	r3, [r3, #24]
 8003f96:	2203      	movs	r2, #3
 8003f98:	4013      	ands	r3, r2
 8003f9a:	d004      	beq.n	8003fa6 <HAL_TIM_IRQHandler+0x4e>
 8003f9c:	687b      	ldr	r3, [r7, #4]
 8003f9e:	0018      	movs	r0, r3
 8003fa0:	f000 f8d8 	bl	8004154 <HAL_TIM_IC_CaptureCallback>
 8003fa4:	e007      	b.n	8003fb6 <HAL_TIM_IRQHandler+0x5e>
 8003fa6:	687b      	ldr	r3, [r7, #4]
 8003fa8:	0018      	movs	r0, r3
 8003faa:	f000 f8cb 	bl	8004144 <HAL_TIM_OC_DelayElapsedCallback>
 8003fae:	687b      	ldr	r3, [r7, #4]
 8003fb0:	0018      	movs	r0, r3
 8003fb2:	f000 f8d7 	bl	8004164 <HAL_TIM_PWM_PulseFinishedCallback>
 8003fb6:	687b      	ldr	r3, [r7, #4]
 8003fb8:	2200      	movs	r2, #0
 8003fba:	771a      	strb	r2, [r3, #28]
 8003fbc:	68bb      	ldr	r3, [r7, #8]
 8003fbe:	2204      	movs	r2, #4
 8003fc0:	4013      	ands	r3, r2
 8003fc2:	d022      	beq.n	800400a <HAL_TIM_IRQHandler+0xb2>
 8003fc4:	68fb      	ldr	r3, [r7, #12]
 8003fc6:	2204      	movs	r2, #4
 8003fc8:	4013      	ands	r3, r2
 8003fca:	d01e      	beq.n	800400a <HAL_TIM_IRQHandler+0xb2>
 8003fcc:	687b      	ldr	r3, [r7, #4]
 8003fce:	681b      	ldr	r3, [r3, #0]
 8003fd0:	2205      	movs	r2, #5
 8003fd2:	4252      	negs	r2, r2
 8003fd4:	611a      	str	r2, [r3, #16]
 8003fd6:	687b      	ldr	r3, [r7, #4]
 8003fd8:	2202      	movs	r2, #2
 8003fda:	771a      	strb	r2, [r3, #28]
 8003fdc:	687b      	ldr	r3, [r7, #4]
 8003fde:	681b      	ldr	r3, [r3, #0]
 8003fe0:	699a      	ldr	r2, [r3, #24]
 8003fe2:	23c0      	movs	r3, #192	@ 0xc0
 8003fe4:	009b      	lsls	r3, r3, #2
 8003fe6:	4013      	ands	r3, r2
 8003fe8:	d004      	beq.n	8003ff4 <HAL_TIM_IRQHandler+0x9c>
 8003fea:	687b      	ldr	r3, [r7, #4]
 8003fec:	0018      	movs	r0, r3
 8003fee:	f000 f8b1 	bl	8004154 <HAL_TIM_IC_CaptureCallback>
 8003ff2:	e007      	b.n	8004004 <HAL_TIM_IRQHandler+0xac>
 8003ff4:	687b      	ldr	r3, [r7, #4]
 8003ff6:	0018      	movs	r0, r3
 8003ff8:	f000 f8a4 	bl	8004144 <HAL_TIM_OC_DelayElapsedCallback>
 8003ffc:	687b      	ldr	r3, [r7, #4]
 8003ffe:	0018      	movs	r0, r3
 8004000:	f000 f8b0 	bl	8004164 <HAL_TIM_PWM_PulseFinishedCallback>
 8004004:	687b      	ldr	r3, [r7, #4]
 8004006:	2200      	movs	r2, #0
 8004008:	771a      	strb	r2, [r3, #28]
 800400a:	68bb      	ldr	r3, [r7, #8]
 800400c:	2208      	movs	r2, #8
 800400e:	4013      	ands	r3, r2
 8004010:	d021      	beq.n	8004056 <HAL_TIM_IRQHandler+0xfe>
 8004012:	68fb      	ldr	r3, [r7, #12]
 8004014:	2208      	movs	r2, #8
 8004016:	4013      	ands	r3, r2
 8004018:	d01d      	beq.n	8004056 <HAL_TIM_IRQHandler+0xfe>
 800401a:	687b      	ldr	r3, [r7, #4]
 800401c:	681b      	ldr	r3, [r3, #0]
 800401e:	2209      	movs	r2, #9
 8004020:	4252      	negs	r2, r2
 8004022:	611a      	str	r2, [r3, #16]
 8004024:	687b      	ldr	r3, [r7, #4]
 8004026:	2204      	movs	r2, #4
 8004028:	771a      	strb	r2, [r3, #28]
 800402a:	687b      	ldr	r3, [r7, #4]
 800402c:	681b      	ldr	r3, [r3, #0]
 800402e:	69db      	ldr	r3, [r3, #28]
 8004030:	2203      	movs	r2, #3
 8004032:	4013      	ands	r3, r2
 8004034:	d004      	beq.n	8004040 <HAL_TIM_IRQHandler+0xe8>
 8004036:	687b      	ldr	r3, [r7, #4]
 8004038:	0018      	movs	r0, r3
 800403a:	f000 f88b 	bl	8004154 <HAL_TIM_IC_CaptureCallback>
 800403e:	e007      	b.n	8004050 <HAL_TIM_IRQHandler+0xf8>
 8004040:	687b      	ldr	r3, [r7, #4]
 8004042:	0018      	movs	r0, r3
 8004044:	f000 f87e 	bl	8004144 <HAL_TIM_OC_DelayElapsedCallback>
 8004048:	687b      	ldr	r3, [r7, #4]
 800404a:	0018      	movs	r0, r3
 800404c:	f000 f88a 	bl	8004164 <HAL_TIM_PWM_PulseFinishedCallback>
 8004050:	687b      	ldr	r3, [r7, #4]
 8004052:	2200      	movs	r2, #0
 8004054:	771a      	strb	r2, [r3, #28]
 8004056:	68bb      	ldr	r3, [r7, #8]
 8004058:	2210      	movs	r2, #16
 800405a:	4013      	ands	r3, r2
 800405c:	d022      	beq.n	80040a4 <HAL_TIM_IRQHandler+0x14c>
 800405e:	68fb      	ldr	r3, [r7, #12]
 8004060:	2210      	movs	r2, #16
 8004062:	4013      	ands	r3, r2
 8004064:	d01e      	beq.n	80040a4 <HAL_TIM_IRQHandler+0x14c>
 8004066:	687b      	ldr	r3, [r7, #4]
 8004068:	681b      	ldr	r3, [r3, #0]
 800406a:	2211      	movs	r2, #17
 800406c:	4252      	negs	r2, r2
 800406e:	611a      	str	r2, [r3, #16]
 8004070:	687b      	ldr	r3, [r7, #4]
 8004072:	2208      	movs	r2, #8
 8004074:	771a      	strb	r2, [r3, #28]
 8004076:	687b      	ldr	r3, [r7, #4]
 8004078:	681b      	ldr	r3, [r3, #0]
 800407a:	69da      	ldr	r2, [r3, #28]
 800407c:	23c0      	movs	r3, #192	@ 0xc0
 800407e:	009b      	lsls	r3, r3, #2
 8004080:	4013      	ands	r3, r2
 8004082:	d004      	beq.n	800408e <HAL_TIM_IRQHandler+0x136>
 8004084:	687b      	ldr	r3, [r7, #4]
 8004086:	0018      	movs	r0, r3
 8004088:	f000 f864 	bl	8004154 <HAL_TIM_IC_CaptureCallback>
 800408c:	e007      	b.n	800409e <HAL_TIM_IRQHandler+0x146>
 800408e:	687b      	ldr	r3, [r7, #4]
 8004090:	0018      	movs	r0, r3
 8004092:	f000 f857 	bl	8004144 <HAL_TIM_OC_DelayElapsedCallback>
 8004096:	687b      	ldr	r3, [r7, #4]
 8004098:	0018      	movs	r0, r3
 800409a:	f000 f863 	bl	8004164 <HAL_TIM_PWM_PulseFinishedCallback>
 800409e:	687b      	ldr	r3, [r7, #4]
 80040a0:	2200      	movs	r2, #0
 80040a2:	771a      	strb	r2, [r3, #28]
 80040a4:	68bb      	ldr	r3, [r7, #8]
 80040a6:	2201      	movs	r2, #1
 80040a8:	4013      	ands	r3, r2
 80040aa:	d00c      	beq.n	80040c6 <HAL_TIM_IRQHandler+0x16e>
 80040ac:	68fb      	ldr	r3, [r7, #12]
 80040ae:	2201      	movs	r2, #1
 80040b0:	4013      	ands	r3, r2
 80040b2:	d008      	beq.n	80040c6 <HAL_TIM_IRQHandler+0x16e>
 80040b4:	687b      	ldr	r3, [r7, #4]
 80040b6:	681b      	ldr	r3, [r3, #0]
 80040b8:	2202      	movs	r2, #2
 80040ba:	4252      	negs	r2, r2
 80040bc:	611a      	str	r2, [r3, #16]
 80040be:	687b      	ldr	r3, [r7, #4]
 80040c0:	0018      	movs	r0, r3
 80040c2:	f000 f837 	bl	8004134 <HAL_TIM_PeriodElapsedCallback>
 80040c6:	68bb      	ldr	r3, [r7, #8]
 80040c8:	2280      	movs	r2, #128	@ 0x80
 80040ca:	4013      	ands	r3, r2
 80040cc:	d00c      	beq.n	80040e8 <HAL_TIM_IRQHandler+0x190>
 80040ce:	68fb      	ldr	r3, [r7, #12]
 80040d0:	2280      	movs	r2, #128	@ 0x80
 80040d2:	4013      	ands	r3, r2
 80040d4:	d008      	beq.n	80040e8 <HAL_TIM_IRQHandler+0x190>
 80040d6:	687b      	ldr	r3, [r7, #4]
 80040d8:	681b      	ldr	r3, [r3, #0]
 80040da:	2281      	movs	r2, #129	@ 0x81
 80040dc:	4252      	negs	r2, r2
 80040de:	611a      	str	r2, [r3, #16]
 80040e0:	687b      	ldr	r3, [r7, #4]
 80040e2:	0018      	movs	r0, r3
 80040e4:	f000 f8da 	bl	800429c <HAL_TIMEx_BreakCallback>
 80040e8:	68bb      	ldr	r3, [r7, #8]
 80040ea:	2240      	movs	r2, #64	@ 0x40
 80040ec:	4013      	ands	r3, r2
 80040ee:	d00c      	beq.n	800410a <HAL_TIM_IRQHandler+0x1b2>
 80040f0:	68fb      	ldr	r3, [r7, #12]
 80040f2:	2240      	movs	r2, #64	@ 0x40
 80040f4:	4013      	ands	r3, r2
 80040f6:	d008      	beq.n	800410a <HAL_TIM_IRQHandler+0x1b2>
 80040f8:	687b      	ldr	r3, [r7, #4]
 80040fa:	681b      	ldr	r3, [r3, #0]
 80040fc:	2241      	movs	r2, #65	@ 0x41
 80040fe:	4252      	negs	r2, r2
 8004100:	611a      	str	r2, [r3, #16]
 8004102:	687b      	ldr	r3, [r7, #4]
 8004104:	0018      	movs	r0, r3
 8004106:	f000 f835 	bl	8004174 <HAL_TIM_TriggerCallback>
 800410a:	68bb      	ldr	r3, [r7, #8]
 800410c:	2220      	movs	r2, #32
 800410e:	4013      	ands	r3, r2
 8004110:	d00c      	beq.n	800412c <HAL_TIM_IRQHandler+0x1d4>
 8004112:	68fb      	ldr	r3, [r7, #12]
 8004114:	2220      	movs	r2, #32
 8004116:	4013      	ands	r3, r2
 8004118:	d008      	beq.n	800412c <HAL_TIM_IRQHandler+0x1d4>
 800411a:	687b      	ldr	r3, [r7, #4]
 800411c:	681b      	ldr	r3, [r3, #0]
 800411e:	2221      	movs	r2, #33	@ 0x21
 8004120:	4252      	negs	r2, r2
 8004122:	611a      	str	r2, [r3, #16]
 8004124:	687b      	ldr	r3, [r7, #4]
 8004126:	0018      	movs	r0, r3
 8004128:	f000 f8b0 	bl	800428c <HAL_TIMEx_CommutCallback>
 800412c:	46c0      	nop			@ (mov r8, r8)
 800412e:	46bd      	mov	sp, r7
 8004130:	b004      	add	sp, #16
 8004132:	bd80      	pop	{r7, pc}

08004134 <HAL_TIM_PeriodElapsedCallback>:
 8004134:	b580      	push	{r7, lr}
 8004136:	b082      	sub	sp, #8
 8004138:	af00      	add	r7, sp, #0
 800413a:	6078      	str	r0, [r7, #4]
 800413c:	46c0      	nop			@ (mov r8, r8)
 800413e:	46bd      	mov	sp, r7
 8004140:	b002      	add	sp, #8
 8004142:	bd80      	pop	{r7, pc}

08004144 <HAL_TIM_OC_DelayElapsedCallback>:
 8004144:	b580      	push	{r7, lr}
 8004146:	b082      	sub	sp, #8
 8004148:	af00      	add	r7, sp, #0
 800414a:	6078      	str	r0, [r7, #4]
 800414c:	46c0      	nop			@ (mov r8, r8)
 800414e:	46bd      	mov	sp, r7
 8004150:	b002      	add	sp, #8
 8004152:	bd80      	pop	{r7, pc}

08004154 <HAL_TIM_IC_CaptureCallback>:
 8004154:	b580      	push	{r7, lr}
 8004156:	b082      	sub	sp, #8
 8004158:	af00      	add	r7, sp, #0
 800415a:	6078      	str	r0, [r7, #4]
 800415c:	46c0      	nop			@ (mov r8, r8)
 800415e:	46bd      	mov	sp, r7
 8004160:	b002      	add	sp, #8
 8004162:	bd80      	pop	{r7, pc}

08004164 <HAL_TIM_PWM_PulseFinishedCallback>:
 8004164:	b580      	push	{r7, lr}
 8004166:	b082      	sub	sp, #8
 8004168:	af00      	add	r7, sp, #0
 800416a:	6078      	str	r0, [r7, #4]
 800416c:	46c0      	nop			@ (mov r8, r8)
 800416e:	46bd      	mov	sp, r7
 8004170:	b002      	add	sp, #8
 8004172:	bd80      	pop	{r7, pc}

08004174 <HAL_TIM_TriggerCallback>:
 8004174:	b580      	push	{r7, lr}
 8004176:	b082      	sub	sp, #8
 8004178:	af00      	add	r7, sp, #0
 800417a:	6078      	str	r0, [r7, #4]
 800417c:	46c0      	nop			@ (mov r8, r8)
 800417e:	46bd      	mov	sp, r7
 8004180:	b002      	add	sp, #8
 8004182:	bd80      	pop	{r7, pc}

08004184 <TIM_Base_SetConfig>:
 8004184:	b580      	push	{r7, lr}
 8004186:	b084      	sub	sp, #16
 8004188:	af00      	add	r7, sp, #0
 800418a:	6078      	str	r0, [r7, #4]
 800418c:	6039      	str	r1, [r7, #0]
 800418e:	687b      	ldr	r3, [r7, #4]
 8004190:	681b      	ldr	r3, [r3, #0]
 8004192:	60fb      	str	r3, [r7, #12]
 8004194:	687b      	ldr	r3, [r7, #4]
 8004196:	4a36      	ldr	r2, [pc, #216]	@ (8004270 <TIM_Base_SetConfig+0xec>)
 8004198:	4293      	cmp	r3, r2
 800419a:	d003      	beq.n	80041a4 <TIM_Base_SetConfig+0x20>
 800419c:	687b      	ldr	r3, [r7, #4]
 800419e:	4a35      	ldr	r2, [pc, #212]	@ (8004274 <TIM_Base_SetConfig+0xf0>)
 80041a0:	4293      	cmp	r3, r2
 80041a2:	d108      	bne.n	80041b6 <TIM_Base_SetConfig+0x32>
 80041a4:	68fb      	ldr	r3, [r7, #12]
 80041a6:	2270      	movs	r2, #112	@ 0x70
 80041a8:	4393      	bics	r3, r2
 80041aa:	60fb      	str	r3, [r7, #12]
 80041ac:	683b      	ldr	r3, [r7, #0]
 80041ae:	685b      	ldr	r3, [r3, #4]
 80041b0:	68fa      	ldr	r2, [r7, #12]
 80041b2:	4313      	orrs	r3, r2
 80041b4:	60fb      	str	r3, [r7, #12]
 80041b6:	687b      	ldr	r3, [r7, #4]
 80041b8:	4a2d      	ldr	r2, [pc, #180]	@ (8004270 <TIM_Base_SetConfig+0xec>)
 80041ba:	4293      	cmp	r3, r2
 80041bc:	d013      	beq.n	80041e6 <TIM_Base_SetConfig+0x62>
 80041be:	687b      	ldr	r3, [r7, #4]
 80041c0:	4a2c      	ldr	r2, [pc, #176]	@ (8004274 <TIM_Base_SetConfig+0xf0>)
 80041c2:	4293      	cmp	r3, r2
 80041c4:	d00f      	beq.n	80041e6 <TIM_Base_SetConfig+0x62>
 80041c6:	687b      	ldr	r3, [r7, #4]
 80041c8:	4a2b      	ldr	r2, [pc, #172]	@ (8004278 <TIM_Base_SetConfig+0xf4>)
 80041ca:	4293      	cmp	r3, r2
 80041cc:	d00b      	beq.n	80041e6 <TIM_Base_SetConfig+0x62>
 80041ce:	687b      	ldr	r3, [r7, #4]
 80041d0:	4a2a      	ldr	r2, [pc, #168]	@ (800427c <TIM_Base_SetConfig+0xf8>)
 80041d2:	4293      	cmp	r3, r2
 80041d4:	d007      	beq.n	80041e6 <TIM_Base_SetConfig+0x62>
 80041d6:	687b      	ldr	r3, [r7, #4]
 80041d8:	4a29      	ldr	r2, [pc, #164]	@ (8004280 <TIM_Base_SetConfig+0xfc>)
 80041da:	4293      	cmp	r3, r2
 80041dc:	d003      	beq.n	80041e6 <TIM_Base_SetConfig+0x62>
 80041de:	687b      	ldr	r3, [r7, #4]
 80041e0:	4a28      	ldr	r2, [pc, #160]	@ (8004284 <TIM_Base_SetConfig+0x100>)
 80041e2:	4293      	cmp	r3, r2
 80041e4:	d108      	bne.n	80041f8 <TIM_Base_SetConfig+0x74>
 80041e6:	68fb      	ldr	r3, [r7, #12]
 80041e8:	4a27      	ldr	r2, [pc, #156]	@ (8004288 <TIM_Base_SetConfig+0x104>)
 80041ea:	4013      	ands	r3, r2
 80041ec:	60fb      	str	r3, [r7, #12]
 80041ee:	683b      	ldr	r3, [r7, #0]
 80041f0:	68db      	ldr	r3, [r3, #12]
 80041f2:	68fa      	ldr	r2, [r7, #12]
 80041f4:	4313      	orrs	r3, r2
 80041f6:	60fb      	str	r3, [r7, #12]
 80041f8:	68fb      	ldr	r3, [r7, #12]
 80041fa:	2280      	movs	r2, #128	@ 0x80
 80041fc:	4393      	bics	r3, r2
 80041fe:	001a      	movs	r2, r3
 8004200:	683b      	ldr	r3, [r7, #0]
 8004202:	695b      	ldr	r3, [r3, #20]
 8004204:	4313      	orrs	r3, r2
 8004206:	60fb      	str	r3, [r7, #12]
 8004208:	687b      	ldr	r3, [r7, #4]
 800420a:	68fa      	ldr	r2, [r7, #12]
 800420c:	601a      	str	r2, [r3, #0]
 800420e:	683b      	ldr	r3, [r7, #0]
 8004210:	689a      	ldr	r2, [r3, #8]
 8004212:	687b      	ldr	r3, [r7, #4]
 8004214:	62da      	str	r2, [r3, #44]	@ 0x2c
 8004216:	683b      	ldr	r3, [r7, #0]
 8004218:	681a      	ldr	r2, [r3, #0]
 800421a:	687b      	ldr	r3, [r7, #4]
 800421c:	629a      	str	r2, [r3, #40]	@ 0x28
 800421e:	687b      	ldr	r3, [r7, #4]
 8004220:	4a13      	ldr	r2, [pc, #76]	@ (8004270 <TIM_Base_SetConfig+0xec>)
 8004222:	4293      	cmp	r3, r2
 8004224:	d00b      	beq.n	800423e <TIM_Base_SetConfig+0xba>
 8004226:	687b      	ldr	r3, [r7, #4]
 8004228:	4a14      	ldr	r2, [pc, #80]	@ (800427c <TIM_Base_SetConfig+0xf8>)
 800422a:	4293      	cmp	r3, r2
 800422c:	d007      	beq.n	800423e <TIM_Base_SetConfig+0xba>
 800422e:	687b      	ldr	r3, [r7, #4]
 8004230:	4a13      	ldr	r2, [pc, #76]	@ (8004280 <TIM_Base_SetConfig+0xfc>)
 8004232:	4293      	cmp	r3, r2
 8004234:	d003      	beq.n	800423e <TIM_Base_SetConfig+0xba>
 8004236:	687b      	ldr	r3, [r7, #4]
 8004238:	4a12      	ldr	r2, [pc, #72]	@ (8004284 <TIM_Base_SetConfig+0x100>)
 800423a:	4293      	cmp	r3, r2
 800423c:	d103      	bne.n	8004246 <TIM_Base_SetConfig+0xc2>
 800423e:	683b      	ldr	r3, [r7, #0]
 8004240:	691a      	ldr	r2, [r3, #16]
 8004242:	687b      	ldr	r3, [r7, #4]
 8004244:	631a      	str	r2, [r3, #48]	@ 0x30
 8004246:	687b      	ldr	r3, [r7, #4]
 8004248:	2201      	movs	r2, #1
 800424a:	615a      	str	r2, [r3, #20]
 800424c:	687b      	ldr	r3, [r7, #4]
 800424e:	691b      	ldr	r3, [r3, #16]
 8004250:	2201      	movs	r2, #1
 8004252:	4013      	ands	r3, r2
 8004254:	2b01      	cmp	r3, #1
 8004256:	d106      	bne.n	8004266 <TIM_Base_SetConfig+0xe2>
 8004258:	687b      	ldr	r3, [r7, #4]
 800425a:	691b      	ldr	r3, [r3, #16]
 800425c:	2201      	movs	r2, #1
 800425e:	4393      	bics	r3, r2
 8004260:	001a      	movs	r2, r3
 8004262:	687b      	ldr	r3, [r7, #4]
 8004264:	611a      	str	r2, [r3, #16]
 8004266:	46c0      	nop			@ (mov r8, r8)
 8004268:	46bd      	mov	sp, r7
 800426a:	b004      	add	sp, #16
 800426c:	bd80      	pop	{r7, pc}
 800426e:	46c0      	nop			@ (mov r8, r8)
 8004270:	40012c00 	.word	0x40012c00
 8004274:	40000400 	.word	0x40000400
 8004278:	40002000 	.word	0x40002000
 800427c:	40014000 	.word	0x40014000
 8004280:	40014400 	.word	0x40014400
 8004284:	40014800 	.word	0x40014800
 8004288:	fffffcff 	.word	0xfffffcff

0800428c <HAL_TIMEx_CommutCallback>:
 800428c:	b580      	push	{r7, lr}
 800428e:	b082      	sub	sp, #8
 8004290:	af00      	add	r7, sp, #0
 8004292:	6078      	str	r0, [r7, #4]
 8004294:	46c0      	nop			@ (mov r8, r8)
 8004296:	46bd      	mov	sp, r7
 8004298:	b002      	add	sp, #8
 800429a:	bd80      	pop	{r7, pc}

0800429c <HAL_TIMEx_BreakCallback>:
 800429c:	b580      	push	{r7, lr}
 800429e:	b082      	sub	sp, #8
 80042a0:	af00      	add	r7, sp, #0
 80042a2:	6078      	str	r0, [r7, #4]
 80042a4:	46c0      	nop			@ (mov r8, r8)
 80042a6:	46bd      	mov	sp, r7
 80042a8:	b002      	add	sp, #8
 80042aa:	bd80      	pop	{r7, pc}

080042ac <HAL_UART_Init>:
 80042ac:	b580      	push	{r7, lr}
 80042ae:	b082      	sub	sp, #8
 80042b0:	af00      	add	r7, sp, #0
 80042b2:	6078      	str	r0, [r7, #4]
 80042b4:	687b      	ldr	r3, [r7, #4]
 80042b6:	2b00      	cmp	r3, #0
 80042b8:	d101      	bne.n	80042be <HAL_UART_Init+0x12>
 80042ba:	2301      	movs	r3, #1
 80042bc:	e044      	b.n	8004348 <HAL_UART_Init+0x9c>
 80042be:	687b      	ldr	r3, [r7, #4]
 80042c0:	6fdb      	ldr	r3, [r3, #124]	@ 0x7c
 80042c2:	2b00      	cmp	r3, #0
 80042c4:	d107      	bne.n	80042d6 <HAL_UART_Init+0x2a>
 80042c6:	687b      	ldr	r3, [r7, #4]
 80042c8:	2278      	movs	r2, #120	@ 0x78
 80042ca:	2100      	movs	r1, #0
 80042cc:	5499      	strb	r1, [r3, r2]
 80042ce:	687b      	ldr	r3, [r7, #4]
 80042d0:	0018      	movs	r0, r3
 80042d2:	f7fd fc67 	bl	8001ba4 <HAL_UART_MspInit>
 80042d6:	687b      	ldr	r3, [r7, #4]
 80042d8:	2224      	movs	r2, #36	@ 0x24
 80042da:	67da      	str	r2, [r3, #124]	@ 0x7c
 80042dc:	687b      	ldr	r3, [r7, #4]
 80042de:	681b      	ldr	r3, [r3, #0]
 80042e0:	681a      	ldr	r2, [r3, #0]
 80042e2:	687b      	ldr	r3, [r7, #4]
 80042e4:	681b      	ldr	r3, [r3, #0]
 80042e6:	2101      	movs	r1, #1
 80042e8:	438a      	bics	r2, r1
 80042ea:	601a      	str	r2, [r3, #0]
 80042ec:	687b      	ldr	r3, [r7, #4]
 80042ee:	6a5b      	ldr	r3, [r3, #36]	@ 0x24
 80042f0:	2b00      	cmp	r3, #0
 80042f2:	d003      	beq.n	80042fc <HAL_UART_Init+0x50>
 80042f4:	687b      	ldr	r3, [r7, #4]
 80042f6:	0018      	movs	r0, r3
 80042f8:	f000 fdc4 	bl	8004e84 <UART_AdvFeatureConfig>
 80042fc:	687b      	ldr	r3, [r7, #4]
 80042fe:	0018      	movs	r0, r3
 8004300:	f000 fc80 	bl	8004c04 <UART_SetConfig>
 8004304:	0003      	movs	r3, r0
 8004306:	2b01      	cmp	r3, #1
 8004308:	d101      	bne.n	800430e <HAL_UART_Init+0x62>
 800430a:	2301      	movs	r3, #1
 800430c:	e01c      	b.n	8004348 <HAL_UART_Init+0x9c>
 800430e:	687b      	ldr	r3, [r7, #4]
 8004310:	681b      	ldr	r3, [r3, #0]
 8004312:	685a      	ldr	r2, [r3, #4]
 8004314:	687b      	ldr	r3, [r7, #4]
 8004316:	681b      	ldr	r3, [r3, #0]
 8004318:	490d      	ldr	r1, [pc, #52]	@ (8004350 <HAL_UART_Init+0xa4>)
 800431a:	400a      	ands	r2, r1
 800431c:	605a      	str	r2, [r3, #4]
 800431e:	687b      	ldr	r3, [r7, #4]
 8004320:	681b      	ldr	r3, [r3, #0]
 8004322:	689a      	ldr	r2, [r3, #8]
 8004324:	687b      	ldr	r3, [r7, #4]
 8004326:	681b      	ldr	r3, [r3, #0]
 8004328:	2108      	movs	r1, #8
 800432a:	438a      	bics	r2, r1
 800432c:	609a      	str	r2, [r3, #8]
 800432e:	687b      	ldr	r3, [r7, #4]
 8004330:	681b      	ldr	r3, [r3, #0]
 8004332:	681a      	ldr	r2, [r3, #0]
 8004334:	687b      	ldr	r3, [r7, #4]
 8004336:	681b      	ldr	r3, [r3, #0]
 8004338:	2101      	movs	r1, #1
 800433a:	430a      	orrs	r2, r1
 800433c:	601a      	str	r2, [r3, #0]
 800433e:	687b      	ldr	r3, [r7, #4]
 8004340:	0018      	movs	r0, r3
 8004342:	f000 fe53 	bl	8004fec <UART_CheckIdleState>
 8004346:	0003      	movs	r3, r0
 8004348:	0018      	movs	r0, r3
 800434a:	46bd      	mov	sp, r7
 800434c:	b002      	add	sp, #8
 800434e:	bd80      	pop	{r7, pc}
 8004350:	fffff7ff 	.word	0xfffff7ff

08004354 <HAL_UART_Transmit>:
 8004354:	b580      	push	{r7, lr}
 8004356:	b08a      	sub	sp, #40	@ 0x28
 8004358:	af02      	add	r7, sp, #8
 800435a:	60f8      	str	r0, [r7, #12]
 800435c:	60b9      	str	r1, [r7, #8]
 800435e:	603b      	str	r3, [r7, #0]
 8004360:	1dbb      	adds	r3, r7, #6
 8004362:	801a      	strh	r2, [r3, #0]
 8004364:	68fb      	ldr	r3, [r7, #12]
 8004366:	6fdb      	ldr	r3, [r3, #124]	@ 0x7c
 8004368:	2b20      	cmp	r3, #32
 800436a:	d000      	beq.n	800436e <HAL_UART_Transmit+0x1a>
 800436c:	e08c      	b.n	8004488 <HAL_UART_Transmit+0x134>
 800436e:	68bb      	ldr	r3, [r7, #8]
 8004370:	2b00      	cmp	r3, #0
 8004372:	d003      	beq.n	800437c <HAL_UART_Transmit+0x28>
 8004374:	1dbb      	adds	r3, r7, #6
 8004376:	881b      	ldrh	r3, [r3, #0]
 8004378:	2b00      	cmp	r3, #0
 800437a:	d101      	bne.n	8004380 <HAL_UART_Transmit+0x2c>
 800437c:	2301      	movs	r3, #1
 800437e:	e084      	b.n	800448a <HAL_UART_Transmit+0x136>
 8004380:	68fb      	ldr	r3, [r7, #12]
 8004382:	689a      	ldr	r2, [r3, #8]
 8004384:	2380      	movs	r3, #128	@ 0x80
 8004386:	015b      	lsls	r3, r3, #5
 8004388:	429a      	cmp	r2, r3
 800438a:	d109      	bne.n	80043a0 <HAL_UART_Transmit+0x4c>
 800438c:	68fb      	ldr	r3, [r7, #12]
 800438e:	691b      	ldr	r3, [r3, #16]
 8004390:	2b00      	cmp	r3, #0
 8004392:	d105      	bne.n	80043a0 <HAL_UART_Transmit+0x4c>
 8004394:	68bb      	ldr	r3, [r7, #8]
 8004396:	2201      	movs	r2, #1
 8004398:	4013      	ands	r3, r2
 800439a:	d001      	beq.n	80043a0 <HAL_UART_Transmit+0x4c>
 800439c:	2301      	movs	r3, #1
 800439e:	e074      	b.n	800448a <HAL_UART_Transmit+0x136>
 80043a0:	68fb      	ldr	r3, [r7, #12]
 80043a2:	2284      	movs	r2, #132	@ 0x84
 80043a4:	2100      	movs	r1, #0
 80043a6:	5099      	str	r1, [r3, r2]
 80043a8:	68fb      	ldr	r3, [r7, #12]
 80043aa:	2221      	movs	r2, #33	@ 0x21
 80043ac:	67da      	str	r2, [r3, #124]	@ 0x7c
 80043ae:	f7fd fd27 	bl	8001e00 <HAL_GetTick>
 80043b2:	0003      	movs	r3, r0
 80043b4:	617b      	str	r3, [r7, #20]
 80043b6:	68fb      	ldr	r3, [r7, #12]
 80043b8:	1dba      	adds	r2, r7, #6
 80043ba:	2150      	movs	r1, #80	@ 0x50
 80043bc:	8812      	ldrh	r2, [r2, #0]
 80043be:	525a      	strh	r2, [r3, r1]
 80043c0:	68fb      	ldr	r3, [r7, #12]
 80043c2:	1dba      	adds	r2, r7, #6
 80043c4:	2152      	movs	r1, #82	@ 0x52
 80043c6:	8812      	ldrh	r2, [r2, #0]
 80043c8:	525a      	strh	r2, [r3, r1]
 80043ca:	68fb      	ldr	r3, [r7, #12]
 80043cc:	689a      	ldr	r2, [r3, #8]
 80043ce:	2380      	movs	r3, #128	@ 0x80
 80043d0:	015b      	lsls	r3, r3, #5
 80043d2:	429a      	cmp	r2, r3
 80043d4:	d108      	bne.n	80043e8 <HAL_UART_Transmit+0x94>
 80043d6:	68fb      	ldr	r3, [r7, #12]
 80043d8:	691b      	ldr	r3, [r3, #16]
 80043da:	2b00      	cmp	r3, #0
 80043dc:	d104      	bne.n	80043e8 <HAL_UART_Transmit+0x94>
 80043de:	2300      	movs	r3, #0
 80043e0:	61fb      	str	r3, [r7, #28]
 80043e2:	68bb      	ldr	r3, [r7, #8]
 80043e4:	61bb      	str	r3, [r7, #24]
 80043e6:	e003      	b.n	80043f0 <HAL_UART_Transmit+0x9c>
 80043e8:	68bb      	ldr	r3, [r7, #8]
 80043ea:	61fb      	str	r3, [r7, #28]
 80043ec:	2300      	movs	r3, #0
 80043ee:	61bb      	str	r3, [r7, #24]
 80043f0:	e02f      	b.n	8004452 <HAL_UART_Transmit+0xfe>
 80043f2:	697a      	ldr	r2, [r7, #20]
 80043f4:	68f8      	ldr	r0, [r7, #12]
 80043f6:	683b      	ldr	r3, [r7, #0]
 80043f8:	9300      	str	r3, [sp, #0]
 80043fa:	0013      	movs	r3, r2
 80043fc:	2200      	movs	r2, #0
 80043fe:	2180      	movs	r1, #128	@ 0x80
 8004400:	f000 fe9c 	bl	800513c <UART_WaitOnFlagUntilTimeout>
 8004404:	1e03      	subs	r3, r0, #0
 8004406:	d004      	beq.n	8004412 <HAL_UART_Transmit+0xbe>
 8004408:	68fb      	ldr	r3, [r7, #12]
 800440a:	2220      	movs	r2, #32
 800440c:	67da      	str	r2, [r3, #124]	@ 0x7c
 800440e:	2303      	movs	r3, #3
 8004410:	e03b      	b.n	800448a <HAL_UART_Transmit+0x136>
 8004412:	69fb      	ldr	r3, [r7, #28]
 8004414:	2b00      	cmp	r3, #0
 8004416:	d10b      	bne.n	8004430 <HAL_UART_Transmit+0xdc>
 8004418:	69bb      	ldr	r3, [r7, #24]
 800441a:	881a      	ldrh	r2, [r3, #0]
 800441c:	68fb      	ldr	r3, [r7, #12]
 800441e:	681b      	ldr	r3, [r3, #0]
 8004420:	05d2      	lsls	r2, r2, #23
 8004422:	0dd2      	lsrs	r2, r2, #23
 8004424:	b292      	uxth	r2, r2
 8004426:	851a      	strh	r2, [r3, #40]	@ 0x28
 8004428:	69bb      	ldr	r3, [r7, #24]
 800442a:	3302      	adds	r3, #2
 800442c:	61bb      	str	r3, [r7, #24]
 800442e:	e007      	b.n	8004440 <HAL_UART_Transmit+0xec>
 8004430:	69fb      	ldr	r3, [r7, #28]
 8004432:	781a      	ldrb	r2, [r3, #0]
 8004434:	68fb      	ldr	r3, [r7, #12]
 8004436:	681b      	ldr	r3, [r3, #0]
 8004438:	851a      	strh	r2, [r3, #40]	@ 0x28
 800443a:	69fb      	ldr	r3, [r7, #28]
 800443c:	3301      	adds	r3, #1
 800443e:	61fb      	str	r3, [r7, #28]
 8004440:	68fb      	ldr	r3, [r7, #12]
 8004442:	2252      	movs	r2, #82	@ 0x52
 8004444:	5a9b      	ldrh	r3, [r3, r2]
 8004446:	b29b      	uxth	r3, r3
 8004448:	3b01      	subs	r3, #1
 800444a:	b299      	uxth	r1, r3
 800444c:	68fb      	ldr	r3, [r7, #12]
 800444e:	2252      	movs	r2, #82	@ 0x52
 8004450:	5299      	strh	r1, [r3, r2]
 8004452:	68fb      	ldr	r3, [r7, #12]
 8004454:	2252      	movs	r2, #82	@ 0x52
 8004456:	5a9b      	ldrh	r3, [r3, r2]
 8004458:	b29b      	uxth	r3, r3
 800445a:	2b00      	cmp	r3, #0
 800445c:	d1c9      	bne.n	80043f2 <HAL_UART_Transmit+0x9e>
 800445e:	697a      	ldr	r2, [r7, #20]
 8004460:	68f8      	ldr	r0, [r7, #12]
 8004462:	683b      	ldr	r3, [r7, #0]
 8004464:	9300      	str	r3, [sp, #0]
 8004466:	0013      	movs	r3, r2
 8004468:	2200      	movs	r2, #0
 800446a:	2140      	movs	r1, #64	@ 0x40
 800446c:	f000 fe66 	bl	800513c <UART_WaitOnFlagUntilTimeout>
 8004470:	1e03      	subs	r3, r0, #0
 8004472:	d004      	beq.n	800447e <HAL_UART_Transmit+0x12a>
 8004474:	68fb      	ldr	r3, [r7, #12]
 8004476:	2220      	movs	r2, #32
 8004478:	67da      	str	r2, [r3, #124]	@ 0x7c
 800447a:	2303      	movs	r3, #3
 800447c:	e005      	b.n	800448a <HAL_UART_Transmit+0x136>
 800447e:	68fb      	ldr	r3, [r7, #12]
 8004480:	2220      	movs	r2, #32
 8004482:	67da      	str	r2, [r3, #124]	@ 0x7c
 8004484:	2300      	movs	r3, #0
 8004486:	e000      	b.n	800448a <HAL_UART_Transmit+0x136>
 8004488:	2302      	movs	r3, #2
 800448a:	0018      	movs	r0, r3
 800448c:	46bd      	mov	sp, r7
 800448e:	b008      	add	sp, #32
 8004490:	bd80      	pop	{r7, pc}
	...

08004494 <HAL_UART_Receive>:
 8004494:	b580      	push	{r7, lr}
 8004496:	b08a      	sub	sp, #40	@ 0x28
 8004498:	af02      	add	r7, sp, #8
 800449a:	60f8      	str	r0, [r7, #12]
 800449c:	60b9      	str	r1, [r7, #8]
 800449e:	603b      	str	r3, [r7, #0]
 80044a0:	1dbb      	adds	r3, r7, #6
 80044a2:	801a      	strh	r2, [r3, #0]
 80044a4:	68fb      	ldr	r3, [r7, #12]
 80044a6:	2280      	movs	r2, #128	@ 0x80
 80044a8:	589b      	ldr	r3, [r3, r2]
 80044aa:	2b20      	cmp	r3, #32
 80044ac:	d000      	beq.n	80044b0 <HAL_UART_Receive+0x1c>
 80044ae:	e0bd      	b.n	800462c <HAL_UART_Receive+0x198>
 80044b0:	68bb      	ldr	r3, [r7, #8]
 80044b2:	2b00      	cmp	r3, #0
 80044b4:	d003      	beq.n	80044be <HAL_UART_Receive+0x2a>
 80044b6:	1dbb      	adds	r3, r7, #6
 80044b8:	881b      	ldrh	r3, [r3, #0]
 80044ba:	2b00      	cmp	r3, #0
 80044bc:	d101      	bne.n	80044c2 <HAL_UART_Receive+0x2e>
 80044be:	2301      	movs	r3, #1
 80044c0:	e0b5      	b.n	800462e <HAL_UART_Receive+0x19a>
 80044c2:	68fb      	ldr	r3, [r7, #12]
 80044c4:	689a      	ldr	r2, [r3, #8]
 80044c6:	2380      	movs	r3, #128	@ 0x80
 80044c8:	015b      	lsls	r3, r3, #5
 80044ca:	429a      	cmp	r2, r3
 80044cc:	d109      	bne.n	80044e2 <HAL_UART_Receive+0x4e>
 80044ce:	68fb      	ldr	r3, [r7, #12]
 80044d0:	691b      	ldr	r3, [r3, #16]
 80044d2:	2b00      	cmp	r3, #0
 80044d4:	d105      	bne.n	80044e2 <HAL_UART_Receive+0x4e>
 80044d6:	68bb      	ldr	r3, [r7, #8]
 80044d8:	2201      	movs	r2, #1
 80044da:	4013      	ands	r3, r2
 80044dc:	d001      	beq.n	80044e2 <HAL_UART_Receive+0x4e>
 80044de:	2301      	movs	r3, #1
 80044e0:	e0a5      	b.n	800462e <HAL_UART_Receive+0x19a>
 80044e2:	68fb      	ldr	r3, [r7, #12]
 80044e4:	2284      	movs	r2, #132	@ 0x84
 80044e6:	2100      	movs	r1, #0
 80044e8:	5099      	str	r1, [r3, r2]
 80044ea:	68fb      	ldr	r3, [r7, #12]
 80044ec:	2280      	movs	r2, #128	@ 0x80
 80044ee:	2122      	movs	r1, #34	@ 0x22
 80044f0:	5099      	str	r1, [r3, r2]
 80044f2:	68fb      	ldr	r3, [r7, #12]
 80044f4:	2200      	movs	r2, #0
 80044f6:	661a      	str	r2, [r3, #96]	@ 0x60
 80044f8:	f7fd fc82 	bl	8001e00 <HAL_GetTick>
 80044fc:	0003      	movs	r3, r0
 80044fe:	617b      	str	r3, [r7, #20]
 8004500:	68fb      	ldr	r3, [r7, #12]
 8004502:	1dba      	adds	r2, r7, #6
 8004504:	2158      	movs	r1, #88	@ 0x58
 8004506:	8812      	ldrh	r2, [r2, #0]
 8004508:	525a      	strh	r2, [r3, r1]
 800450a:	68fb      	ldr	r3, [r7, #12]
 800450c:	1dba      	adds	r2, r7, #6
 800450e:	215a      	movs	r1, #90	@ 0x5a
 8004510:	8812      	ldrh	r2, [r2, #0]
 8004512:	525a      	strh	r2, [r3, r1]
 8004514:	68fb      	ldr	r3, [r7, #12]
 8004516:	689a      	ldr	r2, [r3, #8]
 8004518:	2380      	movs	r3, #128	@ 0x80
 800451a:	015b      	lsls	r3, r3, #5
 800451c:	429a      	cmp	r2, r3
 800451e:	d10d      	bne.n	800453c <HAL_UART_Receive+0xa8>
 8004520:	68fb      	ldr	r3, [r7, #12]
 8004522:	691b      	ldr	r3, [r3, #16]
 8004524:	2b00      	cmp	r3, #0
 8004526:	d104      	bne.n	8004532 <HAL_UART_Receive+0x9e>
 8004528:	68fb      	ldr	r3, [r7, #12]
 800452a:	225c      	movs	r2, #92	@ 0x5c
 800452c:	4942      	ldr	r1, [pc, #264]	@ (8004638 <HAL_UART_Receive+0x1a4>)
 800452e:	5299      	strh	r1, [r3, r2]
 8004530:	e01a      	b.n	8004568 <HAL_UART_Receive+0xd4>
 8004532:	68fb      	ldr	r3, [r7, #12]
 8004534:	225c      	movs	r2, #92	@ 0x5c
 8004536:	21ff      	movs	r1, #255	@ 0xff
 8004538:	5299      	strh	r1, [r3, r2]
 800453a:	e015      	b.n	8004568 <HAL_UART_Receive+0xd4>
 800453c:	68fb      	ldr	r3, [r7, #12]
 800453e:	689b      	ldr	r3, [r3, #8]
 8004540:	2b00      	cmp	r3, #0
 8004542:	d10d      	bne.n	8004560 <HAL_UART_Receive+0xcc>
 8004544:	68fb      	ldr	r3, [r7, #12]
 8004546:	691b      	ldr	r3, [r3, #16]
 8004548:	2b00      	cmp	r3, #0
 800454a:	d104      	bne.n	8004556 <HAL_UART_Receive+0xc2>
 800454c:	68fb      	ldr	r3, [r7, #12]
 800454e:	225c      	movs	r2, #92	@ 0x5c
 8004550:	21ff      	movs	r1, #255	@ 0xff
 8004552:	5299      	strh	r1, [r3, r2]
 8004554:	e008      	b.n	8004568 <HAL_UART_Receive+0xd4>
 8004556:	68fb      	ldr	r3, [r7, #12]
 8004558:	225c      	movs	r2, #92	@ 0x5c
 800455a:	217f      	movs	r1, #127	@ 0x7f
 800455c:	5299      	strh	r1, [r3, r2]
 800455e:	e003      	b.n	8004568 <HAL_UART_Receive+0xd4>
 8004560:	68fb      	ldr	r3, [r7, #12]
 8004562:	225c      	movs	r2, #92	@ 0x5c
 8004564:	2100      	movs	r1, #0
 8004566:	5299      	strh	r1, [r3, r2]
 8004568:	2312      	movs	r3, #18
 800456a:	18fb      	adds	r3, r7, r3
 800456c:	68fa      	ldr	r2, [r7, #12]
 800456e:	215c      	movs	r1, #92	@ 0x5c
 8004570:	5a52      	ldrh	r2, [r2, r1]
 8004572:	801a      	strh	r2, [r3, #0]
 8004574:	68fb      	ldr	r3, [r7, #12]
 8004576:	689a      	ldr	r2, [r3, #8]
 8004578:	2380      	movs	r3, #128	@ 0x80
 800457a:	015b      	lsls	r3, r3, #5
 800457c:	429a      	cmp	r2, r3
 800457e:	d108      	bne.n	8004592 <HAL_UART_Receive+0xfe>
 8004580:	68fb      	ldr	r3, [r7, #12]
 8004582:	691b      	ldr	r3, [r3, #16]
 8004584:	2b00      	cmp	r3, #0
 8004586:	d104      	bne.n	8004592 <HAL_UART_Receive+0xfe>
 8004588:	2300      	movs	r3, #0
 800458a:	61fb      	str	r3, [r7, #28]
 800458c:	68bb      	ldr	r3, [r7, #8]
 800458e:	61bb      	str	r3, [r7, #24]
 8004590:	e003      	b.n	800459a <HAL_UART_Receive+0x106>
 8004592:	68bb      	ldr	r3, [r7, #8]
 8004594:	61fb      	str	r3, [r7, #28]
 8004596:	2300      	movs	r3, #0
 8004598:	61bb      	str	r3, [r7, #24]
 800459a:	e03b      	b.n	8004614 <HAL_UART_Receive+0x180>
 800459c:	697a      	ldr	r2, [r7, #20]
 800459e:	68f8      	ldr	r0, [r7, #12]
 80045a0:	683b      	ldr	r3, [r7, #0]
 80045a2:	9300      	str	r3, [sp, #0]
 80045a4:	0013      	movs	r3, r2
 80045a6:	2200      	movs	r2, #0
 80045a8:	2120      	movs	r1, #32
 80045aa:	f000 fdc7 	bl	800513c <UART_WaitOnFlagUntilTimeout>
 80045ae:	1e03      	subs	r3, r0, #0
 80045b0:	d005      	beq.n	80045be <HAL_UART_Receive+0x12a>
 80045b2:	68fb      	ldr	r3, [r7, #12]
 80045b4:	2280      	movs	r2, #128	@ 0x80
 80045b6:	2120      	movs	r1, #32
 80045b8:	5099      	str	r1, [r3, r2]
 80045ba:	2303      	movs	r3, #3
 80045bc:	e037      	b.n	800462e <HAL_UART_Receive+0x19a>
 80045be:	69fb      	ldr	r3, [r7, #28]
 80045c0:	2b00      	cmp	r3, #0
 80045c2:	d10e      	bne.n	80045e2 <HAL_UART_Receive+0x14e>
 80045c4:	68fb      	ldr	r3, [r7, #12]
 80045c6:	681b      	ldr	r3, [r3, #0]
 80045c8:	8c9b      	ldrh	r3, [r3, #36]	@ 0x24
 80045ca:	b29b      	uxth	r3, r3
 80045cc:	2212      	movs	r2, #18
 80045ce:	18ba      	adds	r2, r7, r2
 80045d0:	8812      	ldrh	r2, [r2, #0]
 80045d2:	4013      	ands	r3, r2
 80045d4:	b29a      	uxth	r2, r3
 80045d6:	69bb      	ldr	r3, [r7, #24]
 80045d8:	801a      	strh	r2, [r3, #0]
 80045da:	69bb      	ldr	r3, [r7, #24]
 80045dc:	3302      	adds	r3, #2
 80045de:	61bb      	str	r3, [r7, #24]
 80045e0:	e00f      	b.n	8004602 <HAL_UART_Receive+0x16e>
 80045e2:	68fb      	ldr	r3, [r7, #12]
 80045e4:	681b      	ldr	r3, [r3, #0]
 80045e6:	8c9b      	ldrh	r3, [r3, #36]	@ 0x24
 80045e8:	b29b      	uxth	r3, r3
 80045ea:	b2db      	uxtb	r3, r3
 80045ec:	2212      	movs	r2, #18
 80045ee:	18ba      	adds	r2, r7, r2
 80045f0:	8812      	ldrh	r2, [r2, #0]
 80045f2:	b2d2      	uxtb	r2, r2
 80045f4:	4013      	ands	r3, r2
 80045f6:	b2da      	uxtb	r2, r3
 80045f8:	69fb      	ldr	r3, [r7, #28]
 80045fa:	701a      	strb	r2, [r3, #0]
 80045fc:	69fb      	ldr	r3, [r7, #28]
 80045fe:	3301      	adds	r3, #1
 8004600:	61fb      	str	r3, [r7, #28]
 8004602:	68fb      	ldr	r3, [r7, #12]
 8004604:	225a      	movs	r2, #90	@ 0x5a
 8004606:	5a9b      	ldrh	r3, [r3, r2]
 8004608:	b29b      	uxth	r3, r3
 800460a:	3b01      	subs	r3, #1
 800460c:	b299      	uxth	r1, r3
 800460e:	68fb      	ldr	r3, [r7, #12]
 8004610:	225a      	movs	r2, #90	@ 0x5a
 8004612:	5299      	strh	r1, [r3, r2]
 8004614:	68fb      	ldr	r3, [r7, #12]
 8004616:	225a      	movs	r2, #90	@ 0x5a
 8004618:	5a9b      	ldrh	r3, [r3, r2]
 800461a:	b29b      	uxth	r3, r3
 800461c:	2b00      	cmp	r3, #0
 800461e:	d1bd      	bne.n	800459c <HAL_UART_Receive+0x108>
 8004620:	68fb      	ldr	r3, [r7, #12]
 8004622:	2280      	movs	r2, #128	@ 0x80
 8004624:	2120      	movs	r1, #32
 8004626:	5099      	str	r1, [r3, r2]
 8004628:	2300      	movs	r3, #0
 800462a:	e000      	b.n	800462e <HAL_UART_Receive+0x19a>
 800462c:	2302      	movs	r3, #2
 800462e:	0018      	movs	r0, r3
 8004630:	46bd      	mov	sp, r7
 8004632:	b008      	add	sp, #32
 8004634:	bd80      	pop	{r7, pc}
 8004636:	46c0      	nop			@ (mov r8, r8)
 8004638:	000001ff 	.word	0x000001ff

0800463c <HAL_UART_IRQHandler>:
 800463c:	b590      	push	{r4, r7, lr}
 800463e:	b0ab      	sub	sp, #172	@ 0xac
 8004640:	af00      	add	r7, sp, #0
 8004642:	6078      	str	r0, [r7, #4]
 8004644:	687b      	ldr	r3, [r7, #4]
 8004646:	681b      	ldr	r3, [r3, #0]
 8004648:	69db      	ldr	r3, [r3, #28]
 800464a:	22a4      	movs	r2, #164	@ 0xa4
 800464c:	18b9      	adds	r1, r7, r2
 800464e:	600b      	str	r3, [r1, #0]
 8004650:	687b      	ldr	r3, [r7, #4]
 8004652:	681b      	ldr	r3, [r3, #0]
 8004654:	681b      	ldr	r3, [r3, #0]
 8004656:	20a0      	movs	r0, #160	@ 0xa0
 8004658:	1839      	adds	r1, r7, r0
 800465a:	600b      	str	r3, [r1, #0]
 800465c:	687b      	ldr	r3, [r7, #4]
 800465e:	681b      	ldr	r3, [r3, #0]
 8004660:	689b      	ldr	r3, [r3, #8]
 8004662:	219c      	movs	r1, #156	@ 0x9c
 8004664:	1879      	adds	r1, r7, r1
 8004666:	600b      	str	r3, [r1, #0]
 8004668:	0011      	movs	r1, r2
 800466a:	18bb      	adds	r3, r7, r2
 800466c:	681b      	ldr	r3, [r3, #0]
 800466e:	4a99      	ldr	r2, [pc, #612]	@ (80048d4 <HAL_UART_IRQHandler+0x298>)
 8004670:	4013      	ands	r3, r2
 8004672:	2298      	movs	r2, #152	@ 0x98
 8004674:	18bc      	adds	r4, r7, r2
 8004676:	6023      	str	r3, [r4, #0]
 8004678:	18bb      	adds	r3, r7, r2
 800467a:	681b      	ldr	r3, [r3, #0]
 800467c:	2b00      	cmp	r3, #0
 800467e:	d114      	bne.n	80046aa <HAL_UART_IRQHandler+0x6e>
 8004680:	187b      	adds	r3, r7, r1
 8004682:	681b      	ldr	r3, [r3, #0]
 8004684:	2220      	movs	r2, #32
 8004686:	4013      	ands	r3, r2
 8004688:	d00f      	beq.n	80046aa <HAL_UART_IRQHandler+0x6e>
 800468a:	183b      	adds	r3, r7, r0
 800468c:	681b      	ldr	r3, [r3, #0]
 800468e:	2220      	movs	r2, #32
 8004690:	4013      	ands	r3, r2
 8004692:	d00a      	beq.n	80046aa <HAL_UART_IRQHandler+0x6e>
 8004694:	687b      	ldr	r3, [r7, #4]
 8004696:	6e9b      	ldr	r3, [r3, #104]	@ 0x68
 8004698:	2b00      	cmp	r3, #0
 800469a:	d100      	bne.n	800469e <HAL_UART_IRQHandler+0x62>
 800469c:	e286      	b.n	8004bac <HAL_UART_IRQHandler+0x570>
 800469e:	687b      	ldr	r3, [r7, #4]
 80046a0:	6e9b      	ldr	r3, [r3, #104]	@ 0x68
 80046a2:	687a      	ldr	r2, [r7, #4]
 80046a4:	0010      	movs	r0, r2
 80046a6:	4798      	blx	r3
 80046a8:	e280      	b.n	8004bac <HAL_UART_IRQHandler+0x570>
 80046aa:	2398      	movs	r3, #152	@ 0x98
 80046ac:	18fb      	adds	r3, r7, r3
 80046ae:	681b      	ldr	r3, [r3, #0]
 80046b0:	2b00      	cmp	r3, #0
 80046b2:	d100      	bne.n	80046b6 <HAL_UART_IRQHandler+0x7a>
 80046b4:	e114      	b.n	80048e0 <HAL_UART_IRQHandler+0x2a4>
 80046b6:	239c      	movs	r3, #156	@ 0x9c
 80046b8:	18fb      	adds	r3, r7, r3
 80046ba:	681b      	ldr	r3, [r3, #0]
 80046bc:	2201      	movs	r2, #1
 80046be:	4013      	ands	r3, r2
 80046c0:	d106      	bne.n	80046d0 <HAL_UART_IRQHandler+0x94>
 80046c2:	23a0      	movs	r3, #160	@ 0xa0
 80046c4:	18fb      	adds	r3, r7, r3
 80046c6:	681b      	ldr	r3, [r3, #0]
 80046c8:	4a83      	ldr	r2, [pc, #524]	@ (80048d8 <HAL_UART_IRQHandler+0x29c>)
 80046ca:	4013      	ands	r3, r2
 80046cc:	d100      	bne.n	80046d0 <HAL_UART_IRQHandler+0x94>
 80046ce:	e107      	b.n	80048e0 <HAL_UART_IRQHandler+0x2a4>
 80046d0:	23a4      	movs	r3, #164	@ 0xa4
 80046d2:	18fb      	adds	r3, r7, r3
 80046d4:	681b      	ldr	r3, [r3, #0]
 80046d6:	2201      	movs	r2, #1
 80046d8:	4013      	ands	r3, r2
 80046da:	d012      	beq.n	8004702 <HAL_UART_IRQHandler+0xc6>
 80046dc:	23a0      	movs	r3, #160	@ 0xa0
 80046de:	18fb      	adds	r3, r7, r3
 80046e0:	681a      	ldr	r2, [r3, #0]
 80046e2:	2380      	movs	r3, #128	@ 0x80
 80046e4:	005b      	lsls	r3, r3, #1
 80046e6:	4013      	ands	r3, r2
 80046e8:	d00b      	beq.n	8004702 <HAL_UART_IRQHandler+0xc6>
 80046ea:	687b      	ldr	r3, [r7, #4]
 80046ec:	681b      	ldr	r3, [r3, #0]
 80046ee:	2201      	movs	r2, #1
 80046f0:	621a      	str	r2, [r3, #32]
 80046f2:	687b      	ldr	r3, [r7, #4]
 80046f4:	2284      	movs	r2, #132	@ 0x84
 80046f6:	589b      	ldr	r3, [r3, r2]
 80046f8:	2201      	movs	r2, #1
 80046fa:	431a      	orrs	r2, r3
 80046fc:	687b      	ldr	r3, [r7, #4]
 80046fe:	2184      	movs	r1, #132	@ 0x84
 8004700:	505a      	str	r2, [r3, r1]
 8004702:	23a4      	movs	r3, #164	@ 0xa4
 8004704:	18fb      	adds	r3, r7, r3
 8004706:	681b      	ldr	r3, [r3, #0]
 8004708:	2202      	movs	r2, #2
 800470a:	4013      	ands	r3, r2
 800470c:	d011      	beq.n	8004732 <HAL_UART_IRQHandler+0xf6>
 800470e:	239c      	movs	r3, #156	@ 0x9c
 8004710:	18fb      	adds	r3, r7, r3
 8004712:	681b      	ldr	r3, [r3, #0]
 8004714:	2201      	movs	r2, #1
 8004716:	4013      	ands	r3, r2
 8004718:	d00b      	beq.n	8004732 <HAL_UART_IRQHandler+0xf6>
 800471a:	687b      	ldr	r3, [r7, #4]
 800471c:	681b      	ldr	r3, [r3, #0]
 800471e:	2202      	movs	r2, #2
 8004720:	621a      	str	r2, [r3, #32]
 8004722:	687b      	ldr	r3, [r7, #4]
 8004724:	2284      	movs	r2, #132	@ 0x84
 8004726:	589b      	ldr	r3, [r3, r2]
 8004728:	2204      	movs	r2, #4
 800472a:	431a      	orrs	r2, r3
 800472c:	687b      	ldr	r3, [r7, #4]
 800472e:	2184      	movs	r1, #132	@ 0x84
 8004730:	505a      	str	r2, [r3, r1]
 8004732:	23a4      	movs	r3, #164	@ 0xa4
 8004734:	18fb      	adds	r3, r7, r3
 8004736:	681b      	ldr	r3, [r3, #0]
 8004738:	2204      	movs	r2, #4
 800473a:	4013      	ands	r3, r2
 800473c:	d011      	beq.n	8004762 <HAL_UART_IRQHandler+0x126>
 800473e:	239c      	movs	r3, #156	@ 0x9c
 8004740:	18fb      	adds	r3, r7, r3
 8004742:	681b      	ldr	r3, [r3, #0]
 8004744:	2201      	movs	r2, #1
 8004746:	4013      	ands	r3, r2
 8004748:	d00b      	beq.n	8004762 <HAL_UART_IRQHandler+0x126>
 800474a:	687b      	ldr	r3, [r7, #4]
 800474c:	681b      	ldr	r3, [r3, #0]
 800474e:	2204      	movs	r2, #4
 8004750:	621a      	str	r2, [r3, #32]
 8004752:	687b      	ldr	r3, [r7, #4]
 8004754:	2284      	movs	r2, #132	@ 0x84
 8004756:	589b      	ldr	r3, [r3, r2]
 8004758:	2202      	movs	r2, #2
 800475a:	431a      	orrs	r2, r3
 800475c:	687b      	ldr	r3, [r7, #4]
 800475e:	2184      	movs	r1, #132	@ 0x84
 8004760:	505a      	str	r2, [r3, r1]
 8004762:	23a4      	movs	r3, #164	@ 0xa4
 8004764:	18fb      	adds	r3, r7, r3
 8004766:	681b      	ldr	r3, [r3, #0]
 8004768:	2208      	movs	r2, #8
 800476a:	4013      	ands	r3, r2
 800476c:	d017      	beq.n	800479e <HAL_UART_IRQHandler+0x162>
 800476e:	23a0      	movs	r3, #160	@ 0xa0
 8004770:	18fb      	adds	r3, r7, r3
 8004772:	681b      	ldr	r3, [r3, #0]
 8004774:	2220      	movs	r2, #32
 8004776:	4013      	ands	r3, r2
 8004778:	d105      	bne.n	8004786 <HAL_UART_IRQHandler+0x14a>
 800477a:	239c      	movs	r3, #156	@ 0x9c
 800477c:	18fb      	adds	r3, r7, r3
 800477e:	681b      	ldr	r3, [r3, #0]
 8004780:	2201      	movs	r2, #1
 8004782:	4013      	ands	r3, r2
 8004784:	d00b      	beq.n	800479e <HAL_UART_IRQHandler+0x162>
 8004786:	687b      	ldr	r3, [r7, #4]
 8004788:	681b      	ldr	r3, [r3, #0]
 800478a:	2208      	movs	r2, #8
 800478c:	621a      	str	r2, [r3, #32]
 800478e:	687b      	ldr	r3, [r7, #4]
 8004790:	2284      	movs	r2, #132	@ 0x84
 8004792:	589b      	ldr	r3, [r3, r2]
 8004794:	2208      	movs	r2, #8
 8004796:	431a      	orrs	r2, r3
 8004798:	687b      	ldr	r3, [r7, #4]
 800479a:	2184      	movs	r1, #132	@ 0x84
 800479c:	505a      	str	r2, [r3, r1]
 800479e:	23a4      	movs	r3, #164	@ 0xa4
 80047a0:	18fb      	adds	r3, r7, r3
 80047a2:	681a      	ldr	r2, [r3, #0]
 80047a4:	2380      	movs	r3, #128	@ 0x80
 80047a6:	011b      	lsls	r3, r3, #4
 80047a8:	4013      	ands	r3, r2
 80047aa:	d013      	beq.n	80047d4 <HAL_UART_IRQHandler+0x198>
 80047ac:	23a0      	movs	r3, #160	@ 0xa0
 80047ae:	18fb      	adds	r3, r7, r3
 80047b0:	681a      	ldr	r2, [r3, #0]
 80047b2:	2380      	movs	r3, #128	@ 0x80
 80047b4:	04db      	lsls	r3, r3, #19
 80047b6:	4013      	ands	r3, r2
 80047b8:	d00c      	beq.n	80047d4 <HAL_UART_IRQHandler+0x198>
 80047ba:	687b      	ldr	r3, [r7, #4]
 80047bc:	681b      	ldr	r3, [r3, #0]
 80047be:	2280      	movs	r2, #128	@ 0x80
 80047c0:	0112      	lsls	r2, r2, #4
 80047c2:	621a      	str	r2, [r3, #32]
 80047c4:	687b      	ldr	r3, [r7, #4]
 80047c6:	2284      	movs	r2, #132	@ 0x84
 80047c8:	589b      	ldr	r3, [r3, r2]
 80047ca:	2220      	movs	r2, #32
 80047cc:	431a      	orrs	r2, r3
 80047ce:	687b      	ldr	r3, [r7, #4]
 80047d0:	2184      	movs	r1, #132	@ 0x84
 80047d2:	505a      	str	r2, [r3, r1]
 80047d4:	687b      	ldr	r3, [r7, #4]
 80047d6:	2284      	movs	r2, #132	@ 0x84
 80047d8:	589b      	ldr	r3, [r3, r2]
 80047da:	2b00      	cmp	r3, #0
 80047dc:	d100      	bne.n	80047e0 <HAL_UART_IRQHandler+0x1a4>
 80047de:	e1e7      	b.n	8004bb0 <HAL_UART_IRQHandler+0x574>
 80047e0:	23a4      	movs	r3, #164	@ 0xa4
 80047e2:	18fb      	adds	r3, r7, r3
 80047e4:	681b      	ldr	r3, [r3, #0]
 80047e6:	2220      	movs	r2, #32
 80047e8:	4013      	ands	r3, r2
 80047ea:	d00e      	beq.n	800480a <HAL_UART_IRQHandler+0x1ce>
 80047ec:	23a0      	movs	r3, #160	@ 0xa0
 80047ee:	18fb      	adds	r3, r7, r3
 80047f0:	681b      	ldr	r3, [r3, #0]
 80047f2:	2220      	movs	r2, #32
 80047f4:	4013      	ands	r3, r2
 80047f6:	d008      	beq.n	800480a <HAL_UART_IRQHandler+0x1ce>
 80047f8:	687b      	ldr	r3, [r7, #4]
 80047fa:	6e9b      	ldr	r3, [r3, #104]	@ 0x68
 80047fc:	2b00      	cmp	r3, #0
 80047fe:	d004      	beq.n	800480a <HAL_UART_IRQHandler+0x1ce>
 8004800:	687b      	ldr	r3, [r7, #4]
 8004802:	6e9b      	ldr	r3, [r3, #104]	@ 0x68
 8004804:	687a      	ldr	r2, [r7, #4]
 8004806:	0010      	movs	r0, r2
 8004808:	4798      	blx	r3
 800480a:	687b      	ldr	r3, [r7, #4]
 800480c:	2284      	movs	r2, #132	@ 0x84
 800480e:	589b      	ldr	r3, [r3, r2]
 8004810:	2194      	movs	r1, #148	@ 0x94
 8004812:	187a      	adds	r2, r7, r1
 8004814:	6013      	str	r3, [r2, #0]
 8004816:	687b      	ldr	r3, [r7, #4]
 8004818:	681b      	ldr	r3, [r3, #0]
 800481a:	689b      	ldr	r3, [r3, #8]
 800481c:	2240      	movs	r2, #64	@ 0x40
 800481e:	4013      	ands	r3, r2
 8004820:	2b40      	cmp	r3, #64	@ 0x40
 8004822:	d004      	beq.n	800482e <HAL_UART_IRQHandler+0x1f2>
 8004824:	187b      	adds	r3, r7, r1
 8004826:	681b      	ldr	r3, [r3, #0]
 8004828:	2228      	movs	r2, #40	@ 0x28
 800482a:	4013      	ands	r3, r2
 800482c:	d047      	beq.n	80048be <HAL_UART_IRQHandler+0x282>
 800482e:	687b      	ldr	r3, [r7, #4]
 8004830:	0018      	movs	r0, r3
 8004832:	f000 fcf3 	bl	800521c <UART_EndRxTransfer>
 8004836:	687b      	ldr	r3, [r7, #4]
 8004838:	681b      	ldr	r3, [r3, #0]
 800483a:	689b      	ldr	r3, [r3, #8]
 800483c:	2240      	movs	r2, #64	@ 0x40
 800483e:	4013      	ands	r3, r2
 8004840:	2b40      	cmp	r3, #64	@ 0x40
 8004842:	d137      	bne.n	80048b4 <HAL_UART_IRQHandler+0x278>
 8004844:	f3ef 8310 	mrs	r3, PRIMASK
 8004848:	663b      	str	r3, [r7, #96]	@ 0x60
 800484a:	6e3b      	ldr	r3, [r7, #96]	@ 0x60
 800484c:	2090      	movs	r0, #144	@ 0x90
 800484e:	183a      	adds	r2, r7, r0
 8004850:	6013      	str	r3, [r2, #0]
 8004852:	2301      	movs	r3, #1
 8004854:	667b      	str	r3, [r7, #100]	@ 0x64
 8004856:	6e7b      	ldr	r3, [r7, #100]	@ 0x64
 8004858:	f383 8810 	msr	PRIMASK, r3
 800485c:	46c0      	nop			@ (mov r8, r8)
 800485e:	687b      	ldr	r3, [r7, #4]
 8004860:	681b      	ldr	r3, [r3, #0]
 8004862:	689a      	ldr	r2, [r3, #8]
 8004864:	687b      	ldr	r3, [r7, #4]
 8004866:	681b      	ldr	r3, [r3, #0]
 8004868:	2140      	movs	r1, #64	@ 0x40
 800486a:	438a      	bics	r2, r1
 800486c:	609a      	str	r2, [r3, #8]
 800486e:	183b      	adds	r3, r7, r0
 8004870:	681b      	ldr	r3, [r3, #0]
 8004872:	66bb      	str	r3, [r7, #104]	@ 0x68
 8004874:	6ebb      	ldr	r3, [r7, #104]	@ 0x68
 8004876:	f383 8810 	msr	PRIMASK, r3
 800487a:	46c0      	nop			@ (mov r8, r8)
 800487c:	687b      	ldr	r3, [r7, #4]
 800487e:	6f5b      	ldr	r3, [r3, #116]	@ 0x74
 8004880:	2b00      	cmp	r3, #0
 8004882:	d012      	beq.n	80048aa <HAL_UART_IRQHandler+0x26e>
 8004884:	687b      	ldr	r3, [r7, #4]
 8004886:	6f5b      	ldr	r3, [r3, #116]	@ 0x74
 8004888:	4a14      	ldr	r2, [pc, #80]	@ (80048dc <HAL_UART_IRQHandler+0x2a0>)
 800488a:	635a      	str	r2, [r3, #52]	@ 0x34
 800488c:	687b      	ldr	r3, [r7, #4]
 800488e:	6f5b      	ldr	r3, [r3, #116]	@ 0x74
 8004890:	0018      	movs	r0, r3
 8004892:	f7fd fc41 	bl	8002118 <HAL_DMA_Abort_IT>
 8004896:	1e03      	subs	r3, r0, #0
 8004898:	d01a      	beq.n	80048d0 <HAL_UART_IRQHandler+0x294>
 800489a:	687b      	ldr	r3, [r7, #4]
 800489c:	6f5b      	ldr	r3, [r3, #116]	@ 0x74
 800489e:	6b5a      	ldr	r2, [r3, #52]	@ 0x34
 80048a0:	687b      	ldr	r3, [r7, #4]
 80048a2:	6f5b      	ldr	r3, [r3, #116]	@ 0x74
 80048a4:	0018      	movs	r0, r3
 80048a6:	4790      	blx	r2
 80048a8:	e012      	b.n	80048d0 <HAL_UART_IRQHandler+0x294>
 80048aa:	687b      	ldr	r3, [r7, #4]
 80048ac:	0018      	movs	r0, r3
 80048ae:	f000 f995 	bl	8004bdc <HAL_UART_ErrorCallback>
 80048b2:	e00d      	b.n	80048d0 <HAL_UART_IRQHandler+0x294>
 80048b4:	687b      	ldr	r3, [r7, #4]
 80048b6:	0018      	movs	r0, r3
 80048b8:	f000 f990 	bl	8004bdc <HAL_UART_ErrorCallback>
 80048bc:	e008      	b.n	80048d0 <HAL_UART_IRQHandler+0x294>
 80048be:	687b      	ldr	r3, [r7, #4]
 80048c0:	0018      	movs	r0, r3
 80048c2:	f000 f98b 	bl	8004bdc <HAL_UART_ErrorCallback>
 80048c6:	687b      	ldr	r3, [r7, #4]
 80048c8:	2284      	movs	r2, #132	@ 0x84
 80048ca:	2100      	movs	r1, #0
 80048cc:	5099      	str	r1, [r3, r2]
 80048ce:	e16f      	b.n	8004bb0 <HAL_UART_IRQHandler+0x574>
 80048d0:	46c0      	nop			@ (mov r8, r8)
 80048d2:	e16d      	b.n	8004bb0 <HAL_UART_IRQHandler+0x574>
 80048d4:	0000080f 	.word	0x0000080f
 80048d8:	04000120 	.word	0x04000120
 80048dc:	080052e5 	.word	0x080052e5
 80048e0:	687b      	ldr	r3, [r7, #4]
 80048e2:	6e1b      	ldr	r3, [r3, #96]	@ 0x60
 80048e4:	2b01      	cmp	r3, #1
 80048e6:	d000      	beq.n	80048ea <HAL_UART_IRQHandler+0x2ae>
 80048e8:	e139      	b.n	8004b5e <HAL_UART_IRQHandler+0x522>
 80048ea:	23a4      	movs	r3, #164	@ 0xa4
 80048ec:	18fb      	adds	r3, r7, r3
 80048ee:	681b      	ldr	r3, [r3, #0]
 80048f0:	2210      	movs	r2, #16
 80048f2:	4013      	ands	r3, r2
 80048f4:	d100      	bne.n	80048f8 <HAL_UART_IRQHandler+0x2bc>
 80048f6:	e132      	b.n	8004b5e <HAL_UART_IRQHandler+0x522>
 80048f8:	23a0      	movs	r3, #160	@ 0xa0
 80048fa:	18fb      	adds	r3, r7, r3
 80048fc:	681b      	ldr	r3, [r3, #0]
 80048fe:	2210      	movs	r2, #16
 8004900:	4013      	ands	r3, r2
 8004902:	d100      	bne.n	8004906 <HAL_UART_IRQHandler+0x2ca>
 8004904:	e12b      	b.n	8004b5e <HAL_UART_IRQHandler+0x522>
 8004906:	687b      	ldr	r3, [r7, #4]
 8004908:	681b      	ldr	r3, [r3, #0]
 800490a:	2210      	movs	r2, #16
 800490c:	621a      	str	r2, [r3, #32]
 800490e:	687b      	ldr	r3, [r7, #4]
 8004910:	681b      	ldr	r3, [r3, #0]
 8004912:	689b      	ldr	r3, [r3, #8]
 8004914:	2240      	movs	r2, #64	@ 0x40
 8004916:	4013      	ands	r3, r2
 8004918:	2b40      	cmp	r3, #64	@ 0x40
 800491a:	d000      	beq.n	800491e <HAL_UART_IRQHandler+0x2e2>
 800491c:	e09f      	b.n	8004a5e <HAL_UART_IRQHandler+0x422>
 800491e:	687b      	ldr	r3, [r7, #4]
 8004920:	6f5b      	ldr	r3, [r3, #116]	@ 0x74
 8004922:	681b      	ldr	r3, [r3, #0]
 8004924:	685a      	ldr	r2, [r3, #4]
 8004926:	217e      	movs	r1, #126	@ 0x7e
 8004928:	187b      	adds	r3, r7, r1
 800492a:	801a      	strh	r2, [r3, #0]
 800492c:	187b      	adds	r3, r7, r1
 800492e:	881b      	ldrh	r3, [r3, #0]
 8004930:	2b00      	cmp	r3, #0
 8004932:	d100      	bne.n	8004936 <HAL_UART_IRQHandler+0x2fa>
 8004934:	e13e      	b.n	8004bb4 <HAL_UART_IRQHandler+0x578>
 8004936:	687b      	ldr	r3, [r7, #4]
 8004938:	2258      	movs	r2, #88	@ 0x58
 800493a:	5a9b      	ldrh	r3, [r3, r2]
 800493c:	187a      	adds	r2, r7, r1
 800493e:	8812      	ldrh	r2, [r2, #0]
 8004940:	429a      	cmp	r2, r3
 8004942:	d300      	bcc.n	8004946 <HAL_UART_IRQHandler+0x30a>
 8004944:	e136      	b.n	8004bb4 <HAL_UART_IRQHandler+0x578>
 8004946:	687b      	ldr	r3, [r7, #4]
 8004948:	187a      	adds	r2, r7, r1
 800494a:	215a      	movs	r1, #90	@ 0x5a
 800494c:	8812      	ldrh	r2, [r2, #0]
 800494e:	525a      	strh	r2, [r3, r1]
 8004950:	687b      	ldr	r3, [r7, #4]
 8004952:	6f5b      	ldr	r3, [r3, #116]	@ 0x74
 8004954:	699b      	ldr	r3, [r3, #24]
 8004956:	2b20      	cmp	r3, #32
 8004958:	d06f      	beq.n	8004a3a <HAL_UART_IRQHandler+0x3fe>
 800495a:	f3ef 8310 	mrs	r3, PRIMASK
 800495e:	633b      	str	r3, [r7, #48]	@ 0x30
 8004960:	6b3b      	ldr	r3, [r7, #48]	@ 0x30
 8004962:	67bb      	str	r3, [r7, #120]	@ 0x78
 8004964:	2301      	movs	r3, #1
 8004966:	637b      	str	r3, [r7, #52]	@ 0x34
 8004968:	6b7b      	ldr	r3, [r7, #52]	@ 0x34
 800496a:	f383 8810 	msr	PRIMASK, r3
 800496e:	46c0      	nop			@ (mov r8, r8)
 8004970:	687b      	ldr	r3, [r7, #4]
 8004972:	681b      	ldr	r3, [r3, #0]
 8004974:	681a      	ldr	r2, [r3, #0]
 8004976:	687b      	ldr	r3, [r7, #4]
 8004978:	681b      	ldr	r3, [r3, #0]
 800497a:	4992      	ldr	r1, [pc, #584]	@ (8004bc4 <HAL_UART_IRQHandler+0x588>)
 800497c:	400a      	ands	r2, r1
 800497e:	601a      	str	r2, [r3, #0]
 8004980:	6fbb      	ldr	r3, [r7, #120]	@ 0x78
 8004982:	63bb      	str	r3, [r7, #56]	@ 0x38
 8004984:	6bbb      	ldr	r3, [r7, #56]	@ 0x38
 8004986:	f383 8810 	msr	PRIMASK, r3
 800498a:	46c0      	nop			@ (mov r8, r8)
 800498c:	f3ef 8310 	mrs	r3, PRIMASK
 8004990:	63fb      	str	r3, [r7, #60]	@ 0x3c
 8004992:	6bfb      	ldr	r3, [r7, #60]	@ 0x3c
 8004994:	677b      	str	r3, [r7, #116]	@ 0x74
 8004996:	2301      	movs	r3, #1
 8004998:	643b      	str	r3, [r7, #64]	@ 0x40
 800499a:	6c3b      	ldr	r3, [r7, #64]	@ 0x40
 800499c:	f383 8810 	msr	PRIMASK, r3
 80049a0:	46c0      	nop			@ (mov r8, r8)
 80049a2:	687b      	ldr	r3, [r7, #4]
 80049a4:	681b      	ldr	r3, [r3, #0]
 80049a6:	689a      	ldr	r2, [r3, #8]
 80049a8:	687b      	ldr	r3, [r7, #4]
 80049aa:	681b      	ldr	r3, [r3, #0]
 80049ac:	2101      	movs	r1, #1
 80049ae:	438a      	bics	r2, r1
 80049b0:	609a      	str	r2, [r3, #8]
 80049b2:	6f7b      	ldr	r3, [r7, #116]	@ 0x74
 80049b4:	647b      	str	r3, [r7, #68]	@ 0x44
 80049b6:	6c7b      	ldr	r3, [r7, #68]	@ 0x44
 80049b8:	f383 8810 	msr	PRIMASK, r3
 80049bc:	46c0      	nop			@ (mov r8, r8)
 80049be:	f3ef 8310 	mrs	r3, PRIMASK
 80049c2:	64bb      	str	r3, [r7, #72]	@ 0x48
 80049c4:	6cbb      	ldr	r3, [r7, #72]	@ 0x48
 80049c6:	673b      	str	r3, [r7, #112]	@ 0x70
 80049c8:	2301      	movs	r3, #1
 80049ca:	64fb      	str	r3, [r7, #76]	@ 0x4c
 80049cc:	6cfb      	ldr	r3, [r7, #76]	@ 0x4c
 80049ce:	f383 8810 	msr	PRIMASK, r3
 80049d2:	46c0      	nop			@ (mov r8, r8)
 80049d4:	687b      	ldr	r3, [r7, #4]
 80049d6:	681b      	ldr	r3, [r3, #0]
 80049d8:	689a      	ldr	r2, [r3, #8]
 80049da:	687b      	ldr	r3, [r7, #4]
 80049dc:	681b      	ldr	r3, [r3, #0]
 80049de:	2140      	movs	r1, #64	@ 0x40
 80049e0:	438a      	bics	r2, r1
 80049e2:	609a      	str	r2, [r3, #8]
 80049e4:	6f3b      	ldr	r3, [r7, #112]	@ 0x70
 80049e6:	653b      	str	r3, [r7, #80]	@ 0x50
 80049e8:	6d3b      	ldr	r3, [r7, #80]	@ 0x50
 80049ea:	f383 8810 	msr	PRIMASK, r3
 80049ee:	46c0      	nop			@ (mov r8, r8)
 80049f0:	687b      	ldr	r3, [r7, #4]
 80049f2:	2280      	movs	r2, #128	@ 0x80
 80049f4:	2120      	movs	r1, #32
 80049f6:	5099      	str	r1, [r3, r2]
 80049f8:	687b      	ldr	r3, [r7, #4]
 80049fa:	2200      	movs	r2, #0
 80049fc:	661a      	str	r2, [r3, #96]	@ 0x60
 80049fe:	f3ef 8310 	mrs	r3, PRIMASK
 8004a02:	657b      	str	r3, [r7, #84]	@ 0x54
 8004a04:	6d7b      	ldr	r3, [r7, #84]	@ 0x54
 8004a06:	66fb      	str	r3, [r7, #108]	@ 0x6c
 8004a08:	2301      	movs	r3, #1
 8004a0a:	65bb      	str	r3, [r7, #88]	@ 0x58
 8004a0c:	6dbb      	ldr	r3, [r7, #88]	@ 0x58
 8004a0e:	f383 8810 	msr	PRIMASK, r3
 8004a12:	46c0      	nop			@ (mov r8, r8)
 8004a14:	687b      	ldr	r3, [r7, #4]
 8004a16:	681b      	ldr	r3, [r3, #0]
 8004a18:	681a      	ldr	r2, [r3, #0]
 8004a1a:	687b      	ldr	r3, [r7, #4]
 8004a1c:	681b      	ldr	r3, [r3, #0]
 8004a1e:	2110      	movs	r1, #16
 8004a20:	438a      	bics	r2, r1
 8004a22:	601a      	str	r2, [r3, #0]
 8004a24:	6efb      	ldr	r3, [r7, #108]	@ 0x6c
 8004a26:	65fb      	str	r3, [r7, #92]	@ 0x5c
 8004a28:	6dfb      	ldr	r3, [r7, #92]	@ 0x5c
 8004a2a:	f383 8810 	msr	PRIMASK, r3
 8004a2e:	46c0      	nop			@ (mov r8, r8)
 8004a30:	687b      	ldr	r3, [r7, #4]
 8004a32:	6f5b      	ldr	r3, [r3, #116]	@ 0x74
 8004a34:	0018      	movs	r0, r3
 8004a36:	f7fd fb37 	bl	80020a8 <HAL_DMA_Abort>
 8004a3a:	687b      	ldr	r3, [r7, #4]
 8004a3c:	2202      	movs	r2, #2
 8004a3e:	665a      	str	r2, [r3, #100]	@ 0x64
 8004a40:	687b      	ldr	r3, [r7, #4]
 8004a42:	2258      	movs	r2, #88	@ 0x58
 8004a44:	5a9a      	ldrh	r2, [r3, r2]
 8004a46:	687b      	ldr	r3, [r7, #4]
 8004a48:	215a      	movs	r1, #90	@ 0x5a
 8004a4a:	5a5b      	ldrh	r3, [r3, r1]
 8004a4c:	b29b      	uxth	r3, r3
 8004a4e:	1ad3      	subs	r3, r2, r3
 8004a50:	b29a      	uxth	r2, r3
 8004a52:	687b      	ldr	r3, [r7, #4]
 8004a54:	0011      	movs	r1, r2
 8004a56:	0018      	movs	r0, r3
 8004a58:	f000 f8c8 	bl	8004bec <HAL_UARTEx_RxEventCallback>
 8004a5c:	e0aa      	b.n	8004bb4 <HAL_UART_IRQHandler+0x578>
 8004a5e:	687b      	ldr	r3, [r7, #4]
 8004a60:	2258      	movs	r2, #88	@ 0x58
 8004a62:	5a99      	ldrh	r1, [r3, r2]
 8004a64:	687b      	ldr	r3, [r7, #4]
 8004a66:	225a      	movs	r2, #90	@ 0x5a
 8004a68:	5a9b      	ldrh	r3, [r3, r2]
 8004a6a:	b29a      	uxth	r2, r3
 8004a6c:	208e      	movs	r0, #142	@ 0x8e
 8004a6e:	183b      	adds	r3, r7, r0
 8004a70:	1a8a      	subs	r2, r1, r2
 8004a72:	801a      	strh	r2, [r3, #0]
 8004a74:	687b      	ldr	r3, [r7, #4]
 8004a76:	225a      	movs	r2, #90	@ 0x5a
 8004a78:	5a9b      	ldrh	r3, [r3, r2]
 8004a7a:	b29b      	uxth	r3, r3
 8004a7c:	2b00      	cmp	r3, #0
 8004a7e:	d100      	bne.n	8004a82 <HAL_UART_IRQHandler+0x446>
 8004a80:	e09a      	b.n	8004bb8 <HAL_UART_IRQHandler+0x57c>
 8004a82:	183b      	adds	r3, r7, r0
 8004a84:	881b      	ldrh	r3, [r3, #0]
 8004a86:	2b00      	cmp	r3, #0
 8004a88:	d100      	bne.n	8004a8c <HAL_UART_IRQHandler+0x450>
 8004a8a:	e095      	b.n	8004bb8 <HAL_UART_IRQHandler+0x57c>
 8004a8c:	f3ef 8310 	mrs	r3, PRIMASK
 8004a90:	60fb      	str	r3, [r7, #12]
 8004a92:	68fb      	ldr	r3, [r7, #12]
 8004a94:	2488      	movs	r4, #136	@ 0x88
 8004a96:	193a      	adds	r2, r7, r4
 8004a98:	6013      	str	r3, [r2, #0]
 8004a9a:	2301      	movs	r3, #1
 8004a9c:	613b      	str	r3, [r7, #16]
 8004a9e:	693b      	ldr	r3, [r7, #16]
 8004aa0:	f383 8810 	msr	PRIMASK, r3
 8004aa4:	46c0      	nop			@ (mov r8, r8)
 8004aa6:	687b      	ldr	r3, [r7, #4]
 8004aa8:	681b      	ldr	r3, [r3, #0]
 8004aaa:	681a      	ldr	r2, [r3, #0]
 8004aac:	687b      	ldr	r3, [r7, #4]
 8004aae:	681b      	ldr	r3, [r3, #0]
 8004ab0:	4945      	ldr	r1, [pc, #276]	@ (8004bc8 <HAL_UART_IRQHandler+0x58c>)
 8004ab2:	400a      	ands	r2, r1
 8004ab4:	601a      	str	r2, [r3, #0]
 8004ab6:	193b      	adds	r3, r7, r4
 8004ab8:	681b      	ldr	r3, [r3, #0]
 8004aba:	617b      	str	r3, [r7, #20]
 8004abc:	697b      	ldr	r3, [r7, #20]
 8004abe:	f383 8810 	msr	PRIMASK, r3
 8004ac2:	46c0      	nop			@ (mov r8, r8)
 8004ac4:	f3ef 8310 	mrs	r3, PRIMASK
 8004ac8:	61bb      	str	r3, [r7, #24]
 8004aca:	69bb      	ldr	r3, [r7, #24]
 8004acc:	2484      	movs	r4, #132	@ 0x84
 8004ace:	193a      	adds	r2, r7, r4
 8004ad0:	6013      	str	r3, [r2, #0]
 8004ad2:	2301      	movs	r3, #1
 8004ad4:	61fb      	str	r3, [r7, #28]
 8004ad6:	69fb      	ldr	r3, [r7, #28]
 8004ad8:	f383 8810 	msr	PRIMASK, r3
 8004adc:	46c0      	nop			@ (mov r8, r8)
 8004ade:	687b      	ldr	r3, [r7, #4]
 8004ae0:	681b      	ldr	r3, [r3, #0]
 8004ae2:	689a      	ldr	r2, [r3, #8]
 8004ae4:	687b      	ldr	r3, [r7, #4]
 8004ae6:	681b      	ldr	r3, [r3, #0]
 8004ae8:	2101      	movs	r1, #1
 8004aea:	438a      	bics	r2, r1
 8004aec:	609a      	str	r2, [r3, #8]
 8004aee:	193b      	adds	r3, r7, r4
 8004af0:	681b      	ldr	r3, [r3, #0]
 8004af2:	623b      	str	r3, [r7, #32]
 8004af4:	6a3b      	ldr	r3, [r7, #32]
 8004af6:	f383 8810 	msr	PRIMASK, r3
 8004afa:	46c0      	nop			@ (mov r8, r8)
 8004afc:	687b      	ldr	r3, [r7, #4]
 8004afe:	2280      	movs	r2, #128	@ 0x80
 8004b00:	2120      	movs	r1, #32
 8004b02:	5099      	str	r1, [r3, r2]
 8004b04:	687b      	ldr	r3, [r7, #4]
 8004b06:	2200      	movs	r2, #0
 8004b08:	661a      	str	r2, [r3, #96]	@ 0x60
 8004b0a:	687b      	ldr	r3, [r7, #4]
 8004b0c:	2200      	movs	r2, #0
 8004b0e:	669a      	str	r2, [r3, #104]	@ 0x68
 8004b10:	f3ef 8310 	mrs	r3, PRIMASK
 8004b14:	627b      	str	r3, [r7, #36]	@ 0x24
 8004b16:	6a7b      	ldr	r3, [r7, #36]	@ 0x24
 8004b18:	2480      	movs	r4, #128	@ 0x80
 8004b1a:	193a      	adds	r2, r7, r4
 8004b1c:	6013      	str	r3, [r2, #0]
 8004b1e:	2301      	movs	r3, #1
 8004b20:	62bb      	str	r3, [r7, #40]	@ 0x28
 8004b22:	6abb      	ldr	r3, [r7, #40]	@ 0x28
 8004b24:	f383 8810 	msr	PRIMASK, r3
 8004b28:	46c0      	nop			@ (mov r8, r8)
 8004b2a:	687b      	ldr	r3, [r7, #4]
 8004b2c:	681b      	ldr	r3, [r3, #0]
 8004b2e:	681a      	ldr	r2, [r3, #0]
 8004b30:	687b      	ldr	r3, [r7, #4]
 8004b32:	681b      	ldr	r3, [r3, #0]
 8004b34:	2110      	movs	r1, #16
 8004b36:	438a      	bics	r2, r1
 8004b38:	601a      	str	r2, [r3, #0]
 8004b3a:	193b      	adds	r3, r7, r4
 8004b3c:	681b      	ldr	r3, [r3, #0]
 8004b3e:	62fb      	str	r3, [r7, #44]	@ 0x2c
 8004b40:	6afb      	ldr	r3, [r7, #44]	@ 0x2c
 8004b42:	f383 8810 	msr	PRIMASK, r3
 8004b46:	46c0      	nop			@ (mov r8, r8)
 8004b48:	687b      	ldr	r3, [r7, #4]
 8004b4a:	2202      	movs	r2, #2
 8004b4c:	665a      	str	r2, [r3, #100]	@ 0x64
 8004b4e:	183b      	adds	r3, r7, r0
 8004b50:	881a      	ldrh	r2, [r3, #0]
 8004b52:	687b      	ldr	r3, [r7, #4]
 8004b54:	0011      	movs	r1, r2
 8004b56:	0018      	movs	r0, r3
 8004b58:	f000 f848 	bl	8004bec <HAL_UARTEx_RxEventCallback>
 8004b5c:	e02c      	b.n	8004bb8 <HAL_UART_IRQHandler+0x57c>
 8004b5e:	23a4      	movs	r3, #164	@ 0xa4
 8004b60:	18fb      	adds	r3, r7, r3
 8004b62:	681b      	ldr	r3, [r3, #0]
 8004b64:	2280      	movs	r2, #128	@ 0x80
 8004b66:	4013      	ands	r3, r2
 8004b68:	d00f      	beq.n	8004b8a <HAL_UART_IRQHandler+0x54e>
 8004b6a:	23a0      	movs	r3, #160	@ 0xa0
 8004b6c:	18fb      	adds	r3, r7, r3
 8004b6e:	681b      	ldr	r3, [r3, #0]
 8004b70:	2280      	movs	r2, #128	@ 0x80
 8004b72:	4013      	ands	r3, r2
 8004b74:	d009      	beq.n	8004b8a <HAL_UART_IRQHandler+0x54e>
 8004b76:	687b      	ldr	r3, [r7, #4]
 8004b78:	6edb      	ldr	r3, [r3, #108]	@ 0x6c
 8004b7a:	2b00      	cmp	r3, #0
 8004b7c:	d01e      	beq.n	8004bbc <HAL_UART_IRQHandler+0x580>
 8004b7e:	687b      	ldr	r3, [r7, #4]
 8004b80:	6edb      	ldr	r3, [r3, #108]	@ 0x6c
 8004b82:	687a      	ldr	r2, [r7, #4]
 8004b84:	0010      	movs	r0, r2
 8004b86:	4798      	blx	r3
 8004b88:	e018      	b.n	8004bbc <HAL_UART_IRQHandler+0x580>
 8004b8a:	23a4      	movs	r3, #164	@ 0xa4
 8004b8c:	18fb      	adds	r3, r7, r3
 8004b8e:	681b      	ldr	r3, [r3, #0]
 8004b90:	2240      	movs	r2, #64	@ 0x40
 8004b92:	4013      	ands	r3, r2
 8004b94:	d013      	beq.n	8004bbe <HAL_UART_IRQHandler+0x582>
 8004b96:	23a0      	movs	r3, #160	@ 0xa0
 8004b98:	18fb      	adds	r3, r7, r3
 8004b9a:	681b      	ldr	r3, [r3, #0]
 8004b9c:	2240      	movs	r2, #64	@ 0x40
 8004b9e:	4013      	ands	r3, r2
 8004ba0:	d00d      	beq.n	8004bbe <HAL_UART_IRQHandler+0x582>
 8004ba2:	687b      	ldr	r3, [r7, #4]
 8004ba4:	0018      	movs	r0, r3
 8004ba6:	f000 fbb4 	bl	8005312 <UART_EndTransmit_IT>
 8004baa:	e008      	b.n	8004bbe <HAL_UART_IRQHandler+0x582>
 8004bac:	46c0      	nop			@ (mov r8, r8)
 8004bae:	e006      	b.n	8004bbe <HAL_UART_IRQHandler+0x582>
 8004bb0:	46c0      	nop			@ (mov r8, r8)
 8004bb2:	e004      	b.n	8004bbe <HAL_UART_IRQHandler+0x582>
 8004bb4:	46c0      	nop			@ (mov r8, r8)
 8004bb6:	e002      	b.n	8004bbe <HAL_UART_IRQHandler+0x582>
 8004bb8:	46c0      	nop			@ (mov r8, r8)
 8004bba:	e000      	b.n	8004bbe <HAL_UART_IRQHandler+0x582>
 8004bbc:	46c0      	nop			@ (mov r8, r8)
 8004bbe:	46bd      	mov	sp, r7
 8004bc0:	b02b      	add	sp, #172	@ 0xac
 8004bc2:	bd90      	pop	{r4, r7, pc}
 8004bc4:	fffffeff 	.word	0xfffffeff
 8004bc8:	fffffedf 	.word	0xfffffedf

08004bcc <HAL_UART_TxCpltCallback>:
 8004bcc:	b580      	push	{r7, lr}
 8004bce:	b082      	sub	sp, #8
 8004bd0:	af00      	add	r7, sp, #0
 8004bd2:	6078      	str	r0, [r7, #4]
 8004bd4:	46c0      	nop			@ (mov r8, r8)
 8004bd6:	46bd      	mov	sp, r7
 8004bd8:	b002      	add	sp, #8
 8004bda:	bd80      	pop	{r7, pc}

08004bdc <HAL_UART_ErrorCallback>:
 8004bdc:	b580      	push	{r7, lr}
 8004bde:	b082      	sub	sp, #8
 8004be0:	af00      	add	r7, sp, #0
 8004be2:	6078      	str	r0, [r7, #4]
 8004be4:	46c0      	nop			@ (mov r8, r8)
 8004be6:	46bd      	mov	sp, r7
 8004be8:	b002      	add	sp, #8
 8004bea:	bd80      	pop	{r7, pc}

08004bec <HAL_UARTEx_RxEventCallback>:
 8004bec:	b580      	push	{r7, lr}
 8004bee:	b082      	sub	sp, #8
 8004bf0:	af00      	add	r7, sp, #0
 8004bf2:	6078      	str	r0, [r7, #4]
 8004bf4:	000a      	movs	r2, r1
 8004bf6:	1cbb      	adds	r3, r7, #2
 8004bf8:	801a      	strh	r2, [r3, #0]
 8004bfa:	46c0      	nop			@ (mov r8, r8)
 8004bfc:	46bd      	mov	sp, r7
 8004bfe:	b002      	add	sp, #8
 8004c00:	bd80      	pop	{r7, pc}
	...

08004c04 <UART_SetConfig>:
 8004c04:	b580      	push	{r7, lr}
 8004c06:	b088      	sub	sp, #32
 8004c08:	af00      	add	r7, sp, #0
 8004c0a:	6078      	str	r0, [r7, #4]
 8004c0c:	231e      	movs	r3, #30
 8004c0e:	18fb      	adds	r3, r7, r3
 8004c10:	2200      	movs	r2, #0
 8004c12:	701a      	strb	r2, [r3, #0]
 8004c14:	687b      	ldr	r3, [r7, #4]
 8004c16:	689a      	ldr	r2, [r3, #8]
 8004c18:	687b      	ldr	r3, [r7, #4]
 8004c1a:	691b      	ldr	r3, [r3, #16]
 8004c1c:	431a      	orrs	r2, r3
 8004c1e:	687b      	ldr	r3, [r7, #4]
 8004c20:	695b      	ldr	r3, [r3, #20]
 8004c22:	431a      	orrs	r2, r3
 8004c24:	687b      	ldr	r3, [r7, #4]
 8004c26:	69db      	ldr	r3, [r3, #28]
 8004c28:	4313      	orrs	r3, r2
 8004c2a:	617b      	str	r3, [r7, #20]
 8004c2c:	687b      	ldr	r3, [r7, #4]
 8004c2e:	681b      	ldr	r3, [r3, #0]
 8004c30:	681b      	ldr	r3, [r3, #0]
 8004c32:	4a8d      	ldr	r2, [pc, #564]	@ (8004e68 <UART_SetConfig+0x264>)
 8004c34:	4013      	ands	r3, r2
 8004c36:	0019      	movs	r1, r3
 8004c38:	687b      	ldr	r3, [r7, #4]
 8004c3a:	681b      	ldr	r3, [r3, #0]
 8004c3c:	697a      	ldr	r2, [r7, #20]
 8004c3e:	430a      	orrs	r2, r1
 8004c40:	601a      	str	r2, [r3, #0]
 8004c42:	687b      	ldr	r3, [r7, #4]
 8004c44:	681b      	ldr	r3, [r3, #0]
 8004c46:	685b      	ldr	r3, [r3, #4]
 8004c48:	4a88      	ldr	r2, [pc, #544]	@ (8004e6c <UART_SetConfig+0x268>)
 8004c4a:	4013      	ands	r3, r2
 8004c4c:	0019      	movs	r1, r3
 8004c4e:	687b      	ldr	r3, [r7, #4]
 8004c50:	68da      	ldr	r2, [r3, #12]
 8004c52:	687b      	ldr	r3, [r7, #4]
 8004c54:	681b      	ldr	r3, [r3, #0]
 8004c56:	430a      	orrs	r2, r1
 8004c58:	605a      	str	r2, [r3, #4]
 8004c5a:	687b      	ldr	r3, [r7, #4]
 8004c5c:	699b      	ldr	r3, [r3, #24]
 8004c5e:	617b      	str	r3, [r7, #20]
 8004c60:	687b      	ldr	r3, [r7, #4]
 8004c62:	6a1b      	ldr	r3, [r3, #32]
 8004c64:	697a      	ldr	r2, [r7, #20]
 8004c66:	4313      	orrs	r3, r2
 8004c68:	617b      	str	r3, [r7, #20]
 8004c6a:	687b      	ldr	r3, [r7, #4]
 8004c6c:	681b      	ldr	r3, [r3, #0]
 8004c6e:	689b      	ldr	r3, [r3, #8]
 8004c70:	4a7f      	ldr	r2, [pc, #508]	@ (8004e70 <UART_SetConfig+0x26c>)
 8004c72:	4013      	ands	r3, r2
 8004c74:	0019      	movs	r1, r3
 8004c76:	687b      	ldr	r3, [r7, #4]
 8004c78:	681b      	ldr	r3, [r3, #0]
 8004c7a:	697a      	ldr	r2, [r7, #20]
 8004c7c:	430a      	orrs	r2, r1
 8004c7e:	609a      	str	r2, [r3, #8]
 8004c80:	687b      	ldr	r3, [r7, #4]
 8004c82:	681b      	ldr	r3, [r3, #0]
 8004c84:	4a7b      	ldr	r2, [pc, #492]	@ (8004e74 <UART_SetConfig+0x270>)
 8004c86:	4293      	cmp	r3, r2
 8004c88:	d127      	bne.n	8004cda <UART_SetConfig+0xd6>
 8004c8a:	4b7b      	ldr	r3, [pc, #492]	@ (8004e78 <UART_SetConfig+0x274>)
 8004c8c:	6b1b      	ldr	r3, [r3, #48]	@ 0x30
 8004c8e:	2203      	movs	r2, #3
 8004c90:	4013      	ands	r3, r2
 8004c92:	2b03      	cmp	r3, #3
 8004c94:	d00d      	beq.n	8004cb2 <UART_SetConfig+0xae>
 8004c96:	d81b      	bhi.n	8004cd0 <UART_SetConfig+0xcc>
 8004c98:	2b02      	cmp	r3, #2
 8004c9a:	d014      	beq.n	8004cc6 <UART_SetConfig+0xc2>
 8004c9c:	d818      	bhi.n	8004cd0 <UART_SetConfig+0xcc>
 8004c9e:	2b00      	cmp	r3, #0
 8004ca0:	d002      	beq.n	8004ca8 <UART_SetConfig+0xa4>
 8004ca2:	2b01      	cmp	r3, #1
 8004ca4:	d00a      	beq.n	8004cbc <UART_SetConfig+0xb8>
 8004ca6:	e013      	b.n	8004cd0 <UART_SetConfig+0xcc>
 8004ca8:	231f      	movs	r3, #31
 8004caa:	18fb      	adds	r3, r7, r3
 8004cac:	2200      	movs	r2, #0
 8004cae:	701a      	strb	r2, [r3, #0]
 8004cb0:	e021      	b.n	8004cf6 <UART_SetConfig+0xf2>
 8004cb2:	231f      	movs	r3, #31
 8004cb4:	18fb      	adds	r3, r7, r3
 8004cb6:	2202      	movs	r2, #2
 8004cb8:	701a      	strb	r2, [r3, #0]
 8004cba:	e01c      	b.n	8004cf6 <UART_SetConfig+0xf2>
 8004cbc:	231f      	movs	r3, #31
 8004cbe:	18fb      	adds	r3, r7, r3
 8004cc0:	2204      	movs	r2, #4
 8004cc2:	701a      	strb	r2, [r3, #0]
 8004cc4:	e017      	b.n	8004cf6 <UART_SetConfig+0xf2>
 8004cc6:	231f      	movs	r3, #31
 8004cc8:	18fb      	adds	r3, r7, r3
 8004cca:	2208      	movs	r2, #8
 8004ccc:	701a      	strb	r2, [r3, #0]
 8004cce:	e012      	b.n	8004cf6 <UART_SetConfig+0xf2>
 8004cd0:	231f      	movs	r3, #31
 8004cd2:	18fb      	adds	r3, r7, r3
 8004cd4:	2210      	movs	r2, #16
 8004cd6:	701a      	strb	r2, [r3, #0]
 8004cd8:	e00d      	b.n	8004cf6 <UART_SetConfig+0xf2>
 8004cda:	687b      	ldr	r3, [r7, #4]
 8004cdc:	681b      	ldr	r3, [r3, #0]
 8004cde:	4a67      	ldr	r2, [pc, #412]	@ (8004e7c <UART_SetConfig+0x278>)
 8004ce0:	4293      	cmp	r3, r2
 8004ce2:	d104      	bne.n	8004cee <UART_SetConfig+0xea>
 8004ce4:	231f      	movs	r3, #31
 8004ce6:	18fb      	adds	r3, r7, r3
 8004ce8:	2200      	movs	r2, #0
 8004cea:	701a      	strb	r2, [r3, #0]
 8004cec:	e003      	b.n	8004cf6 <UART_SetConfig+0xf2>
 8004cee:	231f      	movs	r3, #31
 8004cf0:	18fb      	adds	r3, r7, r3
 8004cf2:	2210      	movs	r2, #16
 8004cf4:	701a      	strb	r2, [r3, #0]
 8004cf6:	687b      	ldr	r3, [r7, #4]
 8004cf8:	69da      	ldr	r2, [r3, #28]
 8004cfa:	2380      	movs	r3, #128	@ 0x80
 8004cfc:	021b      	lsls	r3, r3, #8
 8004cfe:	429a      	cmp	r2, r3
 8004d00:	d15c      	bne.n	8004dbc <UART_SetConfig+0x1b8>
 8004d02:	231f      	movs	r3, #31
 8004d04:	18fb      	adds	r3, r7, r3
 8004d06:	781b      	ldrb	r3, [r3, #0]
 8004d08:	2b08      	cmp	r3, #8
 8004d0a:	d015      	beq.n	8004d38 <UART_SetConfig+0x134>
 8004d0c:	dc18      	bgt.n	8004d40 <UART_SetConfig+0x13c>
 8004d0e:	2b04      	cmp	r3, #4
 8004d10:	d00d      	beq.n	8004d2e <UART_SetConfig+0x12a>
 8004d12:	dc15      	bgt.n	8004d40 <UART_SetConfig+0x13c>
 8004d14:	2b00      	cmp	r3, #0
 8004d16:	d002      	beq.n	8004d1e <UART_SetConfig+0x11a>
 8004d18:	2b02      	cmp	r3, #2
 8004d1a:	d005      	beq.n	8004d28 <UART_SetConfig+0x124>
 8004d1c:	e010      	b.n	8004d40 <UART_SetConfig+0x13c>
 8004d1e:	f7fe f995 	bl	800304c <HAL_RCC_GetPCLK1Freq>
 8004d22:	0003      	movs	r3, r0
 8004d24:	61bb      	str	r3, [r7, #24]
 8004d26:	e012      	b.n	8004d4e <UART_SetConfig+0x14a>
 8004d28:	4b55      	ldr	r3, [pc, #340]	@ (8004e80 <UART_SetConfig+0x27c>)
 8004d2a:	61bb      	str	r3, [r7, #24]
 8004d2c:	e00f      	b.n	8004d4e <UART_SetConfig+0x14a>
 8004d2e:	f7fe f92d 	bl	8002f8c <HAL_RCC_GetSysClockFreq>
 8004d32:	0003      	movs	r3, r0
 8004d34:	61bb      	str	r3, [r7, #24]
 8004d36:	e00a      	b.n	8004d4e <UART_SetConfig+0x14a>
 8004d38:	2380      	movs	r3, #128	@ 0x80
 8004d3a:	021b      	lsls	r3, r3, #8
 8004d3c:	61bb      	str	r3, [r7, #24]
 8004d3e:	e006      	b.n	8004d4e <UART_SetConfig+0x14a>
 8004d40:	2300      	movs	r3, #0
 8004d42:	61bb      	str	r3, [r7, #24]
 8004d44:	231e      	movs	r3, #30
 8004d46:	18fb      	adds	r3, r7, r3
 8004d48:	2201      	movs	r2, #1
 8004d4a:	701a      	strb	r2, [r3, #0]
 8004d4c:	46c0      	nop			@ (mov r8, r8)
 8004d4e:	69bb      	ldr	r3, [r7, #24]
 8004d50:	2b00      	cmp	r3, #0
 8004d52:	d100      	bne.n	8004d56 <UART_SetConfig+0x152>
 8004d54:	e07a      	b.n	8004e4c <UART_SetConfig+0x248>
 8004d56:	69bb      	ldr	r3, [r7, #24]
 8004d58:	005a      	lsls	r2, r3, #1
 8004d5a:	687b      	ldr	r3, [r7, #4]
 8004d5c:	685b      	ldr	r3, [r3, #4]
 8004d5e:	085b      	lsrs	r3, r3, #1
 8004d60:	18d2      	adds	r2, r2, r3
 8004d62:	687b      	ldr	r3, [r7, #4]
 8004d64:	685b      	ldr	r3, [r3, #4]
 8004d66:	0019      	movs	r1, r3
 8004d68:	0010      	movs	r0, r2
 8004d6a:	f7fb f9d5 	bl	8000118 <__udivsi3>
 8004d6e:	0003      	movs	r3, r0
 8004d70:	613b      	str	r3, [r7, #16]
 8004d72:	693b      	ldr	r3, [r7, #16]
 8004d74:	2b0f      	cmp	r3, #15
 8004d76:	d91c      	bls.n	8004db2 <UART_SetConfig+0x1ae>
 8004d78:	693a      	ldr	r2, [r7, #16]
 8004d7a:	2380      	movs	r3, #128	@ 0x80
 8004d7c:	025b      	lsls	r3, r3, #9
 8004d7e:	429a      	cmp	r2, r3
 8004d80:	d217      	bcs.n	8004db2 <UART_SetConfig+0x1ae>
 8004d82:	693b      	ldr	r3, [r7, #16]
 8004d84:	b29a      	uxth	r2, r3
 8004d86:	200e      	movs	r0, #14
 8004d88:	183b      	adds	r3, r7, r0
 8004d8a:	210f      	movs	r1, #15
 8004d8c:	438a      	bics	r2, r1
 8004d8e:	801a      	strh	r2, [r3, #0]
 8004d90:	693b      	ldr	r3, [r7, #16]
 8004d92:	085b      	lsrs	r3, r3, #1
 8004d94:	b29b      	uxth	r3, r3
 8004d96:	2207      	movs	r2, #7
 8004d98:	4013      	ands	r3, r2
 8004d9a:	b299      	uxth	r1, r3
 8004d9c:	183b      	adds	r3, r7, r0
 8004d9e:	183a      	adds	r2, r7, r0
 8004da0:	8812      	ldrh	r2, [r2, #0]
 8004da2:	430a      	orrs	r2, r1
 8004da4:	801a      	strh	r2, [r3, #0]
 8004da6:	687b      	ldr	r3, [r7, #4]
 8004da8:	681b      	ldr	r3, [r3, #0]
 8004daa:	183a      	adds	r2, r7, r0
 8004dac:	8812      	ldrh	r2, [r2, #0]
 8004dae:	60da      	str	r2, [r3, #12]
 8004db0:	e04c      	b.n	8004e4c <UART_SetConfig+0x248>
 8004db2:	231e      	movs	r3, #30
 8004db4:	18fb      	adds	r3, r7, r3
 8004db6:	2201      	movs	r2, #1
 8004db8:	701a      	strb	r2, [r3, #0]
 8004dba:	e047      	b.n	8004e4c <UART_SetConfig+0x248>
 8004dbc:	231f      	movs	r3, #31
 8004dbe:	18fb      	adds	r3, r7, r3
 8004dc0:	781b      	ldrb	r3, [r3, #0]
 8004dc2:	2b08      	cmp	r3, #8
 8004dc4:	d015      	beq.n	8004df2 <UART_SetConfig+0x1ee>
 8004dc6:	dc18      	bgt.n	8004dfa <UART_SetConfig+0x1f6>
 8004dc8:	2b04      	cmp	r3, #4
 8004dca:	d00d      	beq.n	8004de8 <UART_SetConfig+0x1e4>
 8004dcc:	dc15      	bgt.n	8004dfa <UART_SetConfig+0x1f6>
 8004dce:	2b00      	cmp	r3, #0
 8004dd0:	d002      	beq.n	8004dd8 <UART_SetConfig+0x1d4>
 8004dd2:	2b02      	cmp	r3, #2
 8004dd4:	d005      	beq.n	8004de2 <UART_SetConfig+0x1de>
 8004dd6:	e010      	b.n	8004dfa <UART_SetConfig+0x1f6>
 8004dd8:	f7fe f938 	bl	800304c <HAL_RCC_GetPCLK1Freq>
 8004ddc:	0003      	movs	r3, r0
 8004dde:	61bb      	str	r3, [r7, #24]
 8004de0:	e012      	b.n	8004e08 <UART_SetConfig+0x204>
 8004de2:	4b27      	ldr	r3, [pc, #156]	@ (8004e80 <UART_SetConfig+0x27c>)
 8004de4:	61bb      	str	r3, [r7, #24]
 8004de6:	e00f      	b.n	8004e08 <UART_SetConfig+0x204>
 8004de8:	f7fe f8d0 	bl	8002f8c <HAL_RCC_GetSysClockFreq>
 8004dec:	0003      	movs	r3, r0
 8004dee:	61bb      	str	r3, [r7, #24]
 8004df0:	e00a      	b.n	8004e08 <UART_SetConfig+0x204>
 8004df2:	2380      	movs	r3, #128	@ 0x80
 8004df4:	021b      	lsls	r3, r3, #8
 8004df6:	61bb      	str	r3, [r7, #24]
 8004df8:	e006      	b.n	8004e08 <UART_SetConfig+0x204>
 8004dfa:	2300      	movs	r3, #0
 8004dfc:	61bb      	str	r3, [r7, #24]
 8004dfe:	231e      	movs	r3, #30
 8004e00:	18fb      	adds	r3, r7, r3
 8004e02:	2201      	movs	r2, #1
 8004e04:	701a      	strb	r2, [r3, #0]
 8004e06:	46c0      	nop			@ (mov r8, r8)
 8004e08:	69bb      	ldr	r3, [r7, #24]
 8004e0a:	2b00      	cmp	r3, #0
 8004e0c:	d01e      	beq.n	8004e4c <UART_SetConfig+0x248>
 8004e0e:	687b      	ldr	r3, [r7, #4]
 8004e10:	685b      	ldr	r3, [r3, #4]
 8004e12:	085a      	lsrs	r2, r3, #1
 8004e14:	69bb      	ldr	r3, [r7, #24]
 8004e16:	18d2      	adds	r2, r2, r3
 8004e18:	687b      	ldr	r3, [r7, #4]
 8004e1a:	685b      	ldr	r3, [r3, #4]
 8004e1c:	0019      	movs	r1, r3
 8004e1e:	0010      	movs	r0, r2
 8004e20:	f7fb f97a 	bl	8000118 <__udivsi3>
 8004e24:	0003      	movs	r3, r0
 8004e26:	613b      	str	r3, [r7, #16]
 8004e28:	693b      	ldr	r3, [r7, #16]
 8004e2a:	2b0f      	cmp	r3, #15
 8004e2c:	d90a      	bls.n	8004e44 <UART_SetConfig+0x240>
 8004e2e:	693a      	ldr	r2, [r7, #16]
 8004e30:	2380      	movs	r3, #128	@ 0x80
 8004e32:	025b      	lsls	r3, r3, #9
 8004e34:	429a      	cmp	r2, r3
 8004e36:	d205      	bcs.n	8004e44 <UART_SetConfig+0x240>
 8004e38:	693b      	ldr	r3, [r7, #16]
 8004e3a:	b29a      	uxth	r2, r3
 8004e3c:	687b      	ldr	r3, [r7, #4]
 8004e3e:	681b      	ldr	r3, [r3, #0]
 8004e40:	60da      	str	r2, [r3, #12]
 8004e42:	e003      	b.n	8004e4c <UART_SetConfig+0x248>
 8004e44:	231e      	movs	r3, #30
 8004e46:	18fb      	adds	r3, r7, r3
 8004e48:	2201      	movs	r2, #1
 8004e4a:	701a      	strb	r2, [r3, #0]
 8004e4c:	687b      	ldr	r3, [r7, #4]
 8004e4e:	2200      	movs	r2, #0
 8004e50:	669a      	str	r2, [r3, #104]	@ 0x68
 8004e52:	687b      	ldr	r3, [r7, #4]
 8004e54:	2200      	movs	r2, #0
 8004e56:	66da      	str	r2, [r3, #108]	@ 0x6c
 8004e58:	231e      	movs	r3, #30
 8004e5a:	18fb      	adds	r3, r7, r3
 8004e5c:	781b      	ldrb	r3, [r3, #0]
 8004e5e:	0018      	movs	r0, r3
 8004e60:	46bd      	mov	sp, r7
 8004e62:	b008      	add	sp, #32
 8004e64:	bd80      	pop	{r7, pc}
 8004e66:	46c0      	nop			@ (mov r8, r8)
 8004e68:	ffff69f3 	.word	0xffff69f3
 8004e6c:	ffffcfff 	.word	0xffffcfff
 8004e70:	fffff4ff 	.word	0xfffff4ff
 8004e74:	40013800 	.word	0x40013800
 8004e78:	40021000 	.word	0x40021000
 8004e7c:	40004400 	.word	0x40004400
 8004e80:	007a1200 	.word	0x007a1200

08004e84 <UART_AdvFeatureConfig>:
 8004e84:	b580      	push	{r7, lr}
 8004e86:	b082      	sub	sp, #8
 8004e88:	af00      	add	r7, sp, #0
 8004e8a:	6078      	str	r0, [r7, #4]
 8004e8c:	687b      	ldr	r3, [r7, #4]
 8004e8e:	6a5b      	ldr	r3, [r3, #36]	@ 0x24
 8004e90:	2208      	movs	r2, #8
 8004e92:	4013      	ands	r3, r2
 8004e94:	d00b      	beq.n	8004eae <UART_AdvFeatureConfig+0x2a>
 8004e96:	687b      	ldr	r3, [r7, #4]
 8004e98:	681b      	ldr	r3, [r3, #0]
 8004e9a:	685b      	ldr	r3, [r3, #4]
 8004e9c:	4a4a      	ldr	r2, [pc, #296]	@ (8004fc8 <UART_AdvFeatureConfig+0x144>)
 8004e9e:	4013      	ands	r3, r2
 8004ea0:	0019      	movs	r1, r3
 8004ea2:	687b      	ldr	r3, [r7, #4]
 8004ea4:	6b5a      	ldr	r2, [r3, #52]	@ 0x34
 8004ea6:	687b      	ldr	r3, [r7, #4]
 8004ea8:	681b      	ldr	r3, [r3, #0]
 8004eaa:	430a      	orrs	r2, r1
 8004eac:	605a      	str	r2, [r3, #4]
 8004eae:	687b      	ldr	r3, [r7, #4]
 8004eb0:	6a5b      	ldr	r3, [r3, #36]	@ 0x24
 8004eb2:	2201      	movs	r2, #1
 8004eb4:	4013      	ands	r3, r2
 8004eb6:	d00b      	beq.n	8004ed0 <UART_AdvFeatureConfig+0x4c>
 8004eb8:	687b      	ldr	r3, [r7, #4]
 8004eba:	681b      	ldr	r3, [r3, #0]
 8004ebc:	685b      	ldr	r3, [r3, #4]
 8004ebe:	4a43      	ldr	r2, [pc, #268]	@ (8004fcc <UART_AdvFeatureConfig+0x148>)
 8004ec0:	4013      	ands	r3, r2
 8004ec2:	0019      	movs	r1, r3
 8004ec4:	687b      	ldr	r3, [r7, #4]
 8004ec6:	6a9a      	ldr	r2, [r3, #40]	@ 0x28
 8004ec8:	687b      	ldr	r3, [r7, #4]
 8004eca:	681b      	ldr	r3, [r3, #0]
 8004ecc:	430a      	orrs	r2, r1
 8004ece:	605a      	str	r2, [r3, #4]
 8004ed0:	687b      	ldr	r3, [r7, #4]
 8004ed2:	6a5b      	ldr	r3, [r3, #36]	@ 0x24
 8004ed4:	2202      	movs	r2, #2
 8004ed6:	4013      	ands	r3, r2
 8004ed8:	d00b      	beq.n	8004ef2 <UART_AdvFeatureConfig+0x6e>
 8004eda:	687b      	ldr	r3, [r7, #4]
 8004edc:	681b      	ldr	r3, [r3, #0]
 8004ede:	685b      	ldr	r3, [r3, #4]
 8004ee0:	4a3b      	ldr	r2, [pc, #236]	@ (8004fd0 <UART_AdvFeatureConfig+0x14c>)
 8004ee2:	4013      	ands	r3, r2
 8004ee4:	0019      	movs	r1, r3
 8004ee6:	687b      	ldr	r3, [r7, #4]
 8004ee8:	6ada      	ldr	r2, [r3, #44]	@ 0x2c
 8004eea:	687b      	ldr	r3, [r7, #4]
 8004eec:	681b      	ldr	r3, [r3, #0]
 8004eee:	430a      	orrs	r2, r1
 8004ef0:	605a      	str	r2, [r3, #4]
 8004ef2:	687b      	ldr	r3, [r7, #4]
 8004ef4:	6a5b      	ldr	r3, [r3, #36]	@ 0x24
 8004ef6:	2204      	movs	r2, #4
 8004ef8:	4013      	ands	r3, r2
 8004efa:	d00b      	beq.n	8004f14 <UART_AdvFeatureConfig+0x90>
 8004efc:	687b      	ldr	r3, [r7, #4]
 8004efe:	681b      	ldr	r3, [r3, #0]
 8004f00:	685b      	ldr	r3, [r3, #4]
 8004f02:	4a34      	ldr	r2, [pc, #208]	@ (8004fd4 <UART_AdvFeatureConfig+0x150>)
 8004f04:	4013      	ands	r3, r2
 8004f06:	0019      	movs	r1, r3
 8004f08:	687b      	ldr	r3, [r7, #4]
 8004f0a:	6b1a      	ldr	r2, [r3, #48]	@ 0x30
 8004f0c:	687b      	ldr	r3, [r7, #4]
 8004f0e:	681b      	ldr	r3, [r3, #0]
 8004f10:	430a      	orrs	r2, r1
 8004f12:	605a      	str	r2, [r3, #4]
 8004f14:	687b      	ldr	r3, [r7, #4]
 8004f16:	6a5b      	ldr	r3, [r3, #36]	@ 0x24
 8004f18:	2210      	movs	r2, #16
 8004f1a:	4013      	ands	r3, r2
 8004f1c:	d00b      	beq.n	8004f36 <UART_AdvFeatureConfig+0xb2>
 8004f1e:	687b      	ldr	r3, [r7, #4]
 8004f20:	681b      	ldr	r3, [r3, #0]
 8004f22:	689b      	ldr	r3, [r3, #8]
 8004f24:	4a2c      	ldr	r2, [pc, #176]	@ (8004fd8 <UART_AdvFeatureConfig+0x154>)
 8004f26:	4013      	ands	r3, r2
 8004f28:	0019      	movs	r1, r3
 8004f2a:	687b      	ldr	r3, [r7, #4]
 8004f2c:	6b9a      	ldr	r2, [r3, #56]	@ 0x38
 8004f2e:	687b      	ldr	r3, [r7, #4]
 8004f30:	681b      	ldr	r3, [r3, #0]
 8004f32:	430a      	orrs	r2, r1
 8004f34:	609a      	str	r2, [r3, #8]
 8004f36:	687b      	ldr	r3, [r7, #4]
 8004f38:	6a5b      	ldr	r3, [r3, #36]	@ 0x24
 8004f3a:	2220      	movs	r2, #32
 8004f3c:	4013      	ands	r3, r2
 8004f3e:	d00b      	beq.n	8004f58 <UART_AdvFeatureConfig+0xd4>
 8004f40:	687b      	ldr	r3, [r7, #4]
 8004f42:	681b      	ldr	r3, [r3, #0]
 8004f44:	689b      	ldr	r3, [r3, #8]
 8004f46:	4a25      	ldr	r2, [pc, #148]	@ (8004fdc <UART_AdvFeatureConfig+0x158>)
 8004f48:	4013      	ands	r3, r2
 8004f4a:	0019      	movs	r1, r3
 8004f4c:	687b      	ldr	r3, [r7, #4]
 8004f4e:	6bda      	ldr	r2, [r3, #60]	@ 0x3c
 8004f50:	687b      	ldr	r3, [r7, #4]
 8004f52:	681b      	ldr	r3, [r3, #0]
 8004f54:	430a      	orrs	r2, r1
 8004f56:	609a      	str	r2, [r3, #8]
 8004f58:	687b      	ldr	r3, [r7, #4]
 8004f5a:	6a5b      	ldr	r3, [r3, #36]	@ 0x24
 8004f5c:	2240      	movs	r2, #64	@ 0x40
 8004f5e:	4013      	ands	r3, r2
 8004f60:	d01d      	beq.n	8004f9e <UART_AdvFeatureConfig+0x11a>
 8004f62:	687b      	ldr	r3, [r7, #4]
 8004f64:	681b      	ldr	r3, [r3, #0]
 8004f66:	685b      	ldr	r3, [r3, #4]
 8004f68:	4a1d      	ldr	r2, [pc, #116]	@ (8004fe0 <UART_AdvFeatureConfig+0x15c>)
 8004f6a:	4013      	ands	r3, r2
 8004f6c:	0019      	movs	r1, r3
 8004f6e:	687b      	ldr	r3, [r7, #4]
 8004f70:	6c1a      	ldr	r2, [r3, #64]	@ 0x40
 8004f72:	687b      	ldr	r3, [r7, #4]
 8004f74:	681b      	ldr	r3, [r3, #0]
 8004f76:	430a      	orrs	r2, r1
 8004f78:	605a      	str	r2, [r3, #4]
 8004f7a:	687b      	ldr	r3, [r7, #4]
 8004f7c:	6c1a      	ldr	r2, [r3, #64]	@ 0x40
 8004f7e:	2380      	movs	r3, #128	@ 0x80
 8004f80:	035b      	lsls	r3, r3, #13
 8004f82:	429a      	cmp	r2, r3
 8004f84:	d10b      	bne.n	8004f9e <UART_AdvFeatureConfig+0x11a>
 8004f86:	687b      	ldr	r3, [r7, #4]
 8004f88:	681b      	ldr	r3, [r3, #0]
 8004f8a:	685b      	ldr	r3, [r3, #4]
 8004f8c:	4a15      	ldr	r2, [pc, #84]	@ (8004fe4 <UART_AdvFeatureConfig+0x160>)
 8004f8e:	4013      	ands	r3, r2
 8004f90:	0019      	movs	r1, r3
 8004f92:	687b      	ldr	r3, [r7, #4]
 8004f94:	6c5a      	ldr	r2, [r3, #68]	@ 0x44
 8004f96:	687b      	ldr	r3, [r7, #4]
 8004f98:	681b      	ldr	r3, [r3, #0]
 8004f9a:	430a      	orrs	r2, r1
 8004f9c:	605a      	str	r2, [r3, #4]
 8004f9e:	687b      	ldr	r3, [r7, #4]
 8004fa0:	6a5b      	ldr	r3, [r3, #36]	@ 0x24
 8004fa2:	2280      	movs	r2, #128	@ 0x80
 8004fa4:	4013      	ands	r3, r2
 8004fa6:	d00b      	beq.n	8004fc0 <UART_AdvFeatureConfig+0x13c>
 8004fa8:	687b      	ldr	r3, [r7, #4]
 8004faa:	681b      	ldr	r3, [r3, #0]
 8004fac:	685b      	ldr	r3, [r3, #4]
 8004fae:	4a0e      	ldr	r2, [pc, #56]	@ (8004fe8 <UART_AdvFeatureConfig+0x164>)
 8004fb0:	4013      	ands	r3, r2
 8004fb2:	0019      	movs	r1, r3
 8004fb4:	687b      	ldr	r3, [r7, #4]
 8004fb6:	6c9a      	ldr	r2, [r3, #72]	@ 0x48
 8004fb8:	687b      	ldr	r3, [r7, #4]
 8004fba:	681b      	ldr	r3, [r3, #0]
 8004fbc:	430a      	orrs	r2, r1
 8004fbe:	605a      	str	r2, [r3, #4]
 8004fc0:	46c0      	nop			@ (mov r8, r8)
 8004fc2:	46bd      	mov	sp, r7
 8004fc4:	b002      	add	sp, #8
 8004fc6:	bd80      	pop	{r7, pc}
 8004fc8:	ffff7fff 	.word	0xffff7fff
 8004fcc:	fffdffff 	.word	0xfffdffff
 8004fd0:	fffeffff 	.word	0xfffeffff
 8004fd4:	fffbffff 	.word	0xfffbffff
 8004fd8:	ffffefff 	.word	0xffffefff
 8004fdc:	ffffdfff 	.word	0xffffdfff
 8004fe0:	ffefffff 	.word	0xffefffff
 8004fe4:	ff9fffff 	.word	0xff9fffff
 8004fe8:	fff7ffff 	.word	0xfff7ffff

08004fec <UART_CheckIdleState>:
 8004fec:	b580      	push	{r7, lr}
 8004fee:	b092      	sub	sp, #72	@ 0x48
 8004ff0:	af02      	add	r7, sp, #8
 8004ff2:	6078      	str	r0, [r7, #4]
 8004ff4:	687b      	ldr	r3, [r7, #4]
 8004ff6:	2284      	movs	r2, #132	@ 0x84
 8004ff8:	2100      	movs	r1, #0
 8004ffa:	5099      	str	r1, [r3, r2]
 8004ffc:	f7fc ff00 	bl	8001e00 <HAL_GetTick>
 8005000:	0003      	movs	r3, r0
 8005002:	63fb      	str	r3, [r7, #60]	@ 0x3c
 8005004:	687b      	ldr	r3, [r7, #4]
 8005006:	681b      	ldr	r3, [r3, #0]
 8005008:	681b      	ldr	r3, [r3, #0]
 800500a:	2208      	movs	r2, #8
 800500c:	4013      	ands	r3, r2
 800500e:	2b08      	cmp	r3, #8
 8005010:	d12c      	bne.n	800506c <UART_CheckIdleState+0x80>
 8005012:	6bfb      	ldr	r3, [r7, #60]	@ 0x3c
 8005014:	2280      	movs	r2, #128	@ 0x80
 8005016:	0391      	lsls	r1, r2, #14
 8005018:	6878      	ldr	r0, [r7, #4]
 800501a:	4a46      	ldr	r2, [pc, #280]	@ (8005134 <UART_CheckIdleState+0x148>)
 800501c:	9200      	str	r2, [sp, #0]
 800501e:	2200      	movs	r2, #0
 8005020:	f000 f88c 	bl	800513c <UART_WaitOnFlagUntilTimeout>
 8005024:	1e03      	subs	r3, r0, #0
 8005026:	d021      	beq.n	800506c <UART_CheckIdleState+0x80>
 8005028:	f3ef 8310 	mrs	r3, PRIMASK
 800502c:	627b      	str	r3, [r7, #36]	@ 0x24
 800502e:	6a7b      	ldr	r3, [r7, #36]	@ 0x24
 8005030:	63bb      	str	r3, [r7, #56]	@ 0x38
 8005032:	2301      	movs	r3, #1
 8005034:	62bb      	str	r3, [r7, #40]	@ 0x28
 8005036:	6abb      	ldr	r3, [r7, #40]	@ 0x28
 8005038:	f383 8810 	msr	PRIMASK, r3
 800503c:	46c0      	nop			@ (mov r8, r8)
 800503e:	687b      	ldr	r3, [r7, #4]
 8005040:	681b      	ldr	r3, [r3, #0]
 8005042:	681a      	ldr	r2, [r3, #0]
 8005044:	687b      	ldr	r3, [r7, #4]
 8005046:	681b      	ldr	r3, [r3, #0]
 8005048:	2180      	movs	r1, #128	@ 0x80
 800504a:	438a      	bics	r2, r1
 800504c:	601a      	str	r2, [r3, #0]
 800504e:	6bbb      	ldr	r3, [r7, #56]	@ 0x38
 8005050:	62fb      	str	r3, [r7, #44]	@ 0x2c
 8005052:	6afb      	ldr	r3, [r7, #44]	@ 0x2c
 8005054:	f383 8810 	msr	PRIMASK, r3
 8005058:	46c0      	nop			@ (mov r8, r8)
 800505a:	687b      	ldr	r3, [r7, #4]
 800505c:	2220      	movs	r2, #32
 800505e:	67da      	str	r2, [r3, #124]	@ 0x7c
 8005060:	687b      	ldr	r3, [r7, #4]
 8005062:	2278      	movs	r2, #120	@ 0x78
 8005064:	2100      	movs	r1, #0
 8005066:	5499      	strb	r1, [r3, r2]
 8005068:	2303      	movs	r3, #3
 800506a:	e05f      	b.n	800512c <UART_CheckIdleState+0x140>
 800506c:	687b      	ldr	r3, [r7, #4]
 800506e:	681b      	ldr	r3, [r3, #0]
 8005070:	681b      	ldr	r3, [r3, #0]
 8005072:	2204      	movs	r2, #4
 8005074:	4013      	ands	r3, r2
 8005076:	2b04      	cmp	r3, #4
 8005078:	d146      	bne.n	8005108 <UART_CheckIdleState+0x11c>
 800507a:	6bfb      	ldr	r3, [r7, #60]	@ 0x3c
 800507c:	2280      	movs	r2, #128	@ 0x80
 800507e:	03d1      	lsls	r1, r2, #15
 8005080:	6878      	ldr	r0, [r7, #4]
 8005082:	4a2c      	ldr	r2, [pc, #176]	@ (8005134 <UART_CheckIdleState+0x148>)
 8005084:	9200      	str	r2, [sp, #0]
 8005086:	2200      	movs	r2, #0
 8005088:	f000 f858 	bl	800513c <UART_WaitOnFlagUntilTimeout>
 800508c:	1e03      	subs	r3, r0, #0
 800508e:	d03b      	beq.n	8005108 <UART_CheckIdleState+0x11c>
 8005090:	f3ef 8310 	mrs	r3, PRIMASK
 8005094:	60fb      	str	r3, [r7, #12]
 8005096:	68fb      	ldr	r3, [r7, #12]
 8005098:	637b      	str	r3, [r7, #52]	@ 0x34
 800509a:	2301      	movs	r3, #1
 800509c:	613b      	str	r3, [r7, #16]
 800509e:	693b      	ldr	r3, [r7, #16]
 80050a0:	f383 8810 	msr	PRIMASK, r3
 80050a4:	46c0      	nop			@ (mov r8, r8)
 80050a6:	687b      	ldr	r3, [r7, #4]
 80050a8:	681b      	ldr	r3, [r3, #0]
 80050aa:	681a      	ldr	r2, [r3, #0]
 80050ac:	687b      	ldr	r3, [r7, #4]
 80050ae:	681b      	ldr	r3, [r3, #0]
 80050b0:	4921      	ldr	r1, [pc, #132]	@ (8005138 <UART_CheckIdleState+0x14c>)
 80050b2:	400a      	ands	r2, r1
 80050b4:	601a      	str	r2, [r3, #0]
 80050b6:	6b7b      	ldr	r3, [r7, #52]	@ 0x34
 80050b8:	617b      	str	r3, [r7, #20]
 80050ba:	697b      	ldr	r3, [r7, #20]
 80050bc:	f383 8810 	msr	PRIMASK, r3
 80050c0:	46c0      	nop			@ (mov r8, r8)
 80050c2:	f3ef 8310 	mrs	r3, PRIMASK
 80050c6:	61bb      	str	r3, [r7, #24]
 80050c8:	69bb      	ldr	r3, [r7, #24]
 80050ca:	633b      	str	r3, [r7, #48]	@ 0x30
 80050cc:	2301      	movs	r3, #1
 80050ce:	61fb      	str	r3, [r7, #28]
 80050d0:	69fb      	ldr	r3, [r7, #28]
 80050d2:	f383 8810 	msr	PRIMASK, r3
 80050d6:	46c0      	nop			@ (mov r8, r8)
 80050d8:	687b      	ldr	r3, [r7, #4]
 80050da:	681b      	ldr	r3, [r3, #0]
 80050dc:	689a      	ldr	r2, [r3, #8]
 80050de:	687b      	ldr	r3, [r7, #4]
 80050e0:	681b      	ldr	r3, [r3, #0]
 80050e2:	2101      	movs	r1, #1
 80050e4:	438a      	bics	r2, r1
 80050e6:	609a      	str	r2, [r3, #8]
 80050e8:	6b3b      	ldr	r3, [r7, #48]	@ 0x30
 80050ea:	623b      	str	r3, [r7, #32]
 80050ec:	6a3b      	ldr	r3, [r7, #32]
 80050ee:	f383 8810 	msr	PRIMASK, r3
 80050f2:	46c0      	nop			@ (mov r8, r8)
 80050f4:	687b      	ldr	r3, [r7, #4]
 80050f6:	2280      	movs	r2, #128	@ 0x80
 80050f8:	2120      	movs	r1, #32
 80050fa:	5099      	str	r1, [r3, r2]
 80050fc:	687b      	ldr	r3, [r7, #4]
 80050fe:	2278      	movs	r2, #120	@ 0x78
 8005100:	2100      	movs	r1, #0
 8005102:	5499      	strb	r1, [r3, r2]
 8005104:	2303      	movs	r3, #3
 8005106:	e011      	b.n	800512c <UART_CheckIdleState+0x140>
 8005108:	687b      	ldr	r3, [r7, #4]
 800510a:	2220      	movs	r2, #32
 800510c:	67da      	str	r2, [r3, #124]	@ 0x7c
 800510e:	687b      	ldr	r3, [r7, #4]
 8005110:	2280      	movs	r2, #128	@ 0x80
 8005112:	2120      	movs	r1, #32
 8005114:	5099      	str	r1, [r3, r2]
 8005116:	687b      	ldr	r3, [r7, #4]
 8005118:	2200      	movs	r2, #0
 800511a:	661a      	str	r2, [r3, #96]	@ 0x60
 800511c:	687b      	ldr	r3, [r7, #4]
 800511e:	2200      	movs	r2, #0
 8005120:	665a      	str	r2, [r3, #100]	@ 0x64
 8005122:	687b      	ldr	r3, [r7, #4]
 8005124:	2278      	movs	r2, #120	@ 0x78
 8005126:	2100      	movs	r1, #0
 8005128:	5499      	strb	r1, [r3, r2]
 800512a:	2300      	movs	r3, #0
 800512c:	0018      	movs	r0, r3
 800512e:	46bd      	mov	sp, r7
 8005130:	b010      	add	sp, #64	@ 0x40
 8005132:	bd80      	pop	{r7, pc}
 8005134:	01ffffff 	.word	0x01ffffff
 8005138:	fffffedf 	.word	0xfffffedf

0800513c <UART_WaitOnFlagUntilTimeout>:
 800513c:	b580      	push	{r7, lr}
 800513e:	b084      	sub	sp, #16
 8005140:	af00      	add	r7, sp, #0
 8005142:	60f8      	str	r0, [r7, #12]
 8005144:	60b9      	str	r1, [r7, #8]
 8005146:	603b      	str	r3, [r7, #0]
 8005148:	1dfb      	adds	r3, r7, #7
 800514a:	701a      	strb	r2, [r3, #0]
 800514c:	e051      	b.n	80051f2 <UART_WaitOnFlagUntilTimeout+0xb6>
 800514e:	69bb      	ldr	r3, [r7, #24]
 8005150:	3301      	adds	r3, #1
 8005152:	d04e      	beq.n	80051f2 <UART_WaitOnFlagUntilTimeout+0xb6>
 8005154:	f7fc fe54 	bl	8001e00 <HAL_GetTick>
 8005158:	0002      	movs	r2, r0
 800515a:	683b      	ldr	r3, [r7, #0]
 800515c:	1ad3      	subs	r3, r2, r3
 800515e:	69ba      	ldr	r2, [r7, #24]
 8005160:	429a      	cmp	r2, r3
 8005162:	d302      	bcc.n	800516a <UART_WaitOnFlagUntilTimeout+0x2e>
 8005164:	69bb      	ldr	r3, [r7, #24]
 8005166:	2b00      	cmp	r3, #0
 8005168:	d101      	bne.n	800516e <UART_WaitOnFlagUntilTimeout+0x32>
 800516a:	2303      	movs	r3, #3
 800516c:	e051      	b.n	8005212 <UART_WaitOnFlagUntilTimeout+0xd6>
 800516e:	68fb      	ldr	r3, [r7, #12]
 8005170:	681b      	ldr	r3, [r3, #0]
 8005172:	681b      	ldr	r3, [r3, #0]
 8005174:	2204      	movs	r2, #4
 8005176:	4013      	ands	r3, r2
 8005178:	d03b      	beq.n	80051f2 <UART_WaitOnFlagUntilTimeout+0xb6>
 800517a:	68bb      	ldr	r3, [r7, #8]
 800517c:	2b80      	cmp	r3, #128	@ 0x80
 800517e:	d038      	beq.n	80051f2 <UART_WaitOnFlagUntilTimeout+0xb6>
 8005180:	68bb      	ldr	r3, [r7, #8]
 8005182:	2b40      	cmp	r3, #64	@ 0x40
 8005184:	d035      	beq.n	80051f2 <UART_WaitOnFlagUntilTimeout+0xb6>
 8005186:	68fb      	ldr	r3, [r7, #12]
 8005188:	681b      	ldr	r3, [r3, #0]
 800518a:	69db      	ldr	r3, [r3, #28]
 800518c:	2208      	movs	r2, #8
 800518e:	4013      	ands	r3, r2
 8005190:	2b08      	cmp	r3, #8
 8005192:	d111      	bne.n	80051b8 <UART_WaitOnFlagUntilTimeout+0x7c>
 8005194:	68fb      	ldr	r3, [r7, #12]
 8005196:	681b      	ldr	r3, [r3, #0]
 8005198:	2208      	movs	r2, #8
 800519a:	621a      	str	r2, [r3, #32]
 800519c:	68fb      	ldr	r3, [r7, #12]
 800519e:	0018      	movs	r0, r3
 80051a0:	f000 f83c 	bl	800521c <UART_EndRxTransfer>
 80051a4:	68fb      	ldr	r3, [r7, #12]
 80051a6:	2284      	movs	r2, #132	@ 0x84
 80051a8:	2108      	movs	r1, #8
 80051aa:	5099      	str	r1, [r3, r2]
 80051ac:	68fb      	ldr	r3, [r7, #12]
 80051ae:	2278      	movs	r2, #120	@ 0x78
 80051b0:	2100      	movs	r1, #0
 80051b2:	5499      	strb	r1, [r3, r2]
 80051b4:	2301      	movs	r3, #1
 80051b6:	e02c      	b.n	8005212 <UART_WaitOnFlagUntilTimeout+0xd6>
 80051b8:	68fb      	ldr	r3, [r7, #12]
 80051ba:	681b      	ldr	r3, [r3, #0]
 80051bc:	69da      	ldr	r2, [r3, #28]
 80051be:	2380      	movs	r3, #128	@ 0x80
 80051c0:	011b      	lsls	r3, r3, #4
 80051c2:	401a      	ands	r2, r3
 80051c4:	2380      	movs	r3, #128	@ 0x80
 80051c6:	011b      	lsls	r3, r3, #4
 80051c8:	429a      	cmp	r2, r3
 80051ca:	d112      	bne.n	80051f2 <UART_WaitOnFlagUntilTimeout+0xb6>
 80051cc:	68fb      	ldr	r3, [r7, #12]
 80051ce:	681b      	ldr	r3, [r3, #0]
 80051d0:	2280      	movs	r2, #128	@ 0x80
 80051d2:	0112      	lsls	r2, r2, #4
 80051d4:	621a      	str	r2, [r3, #32]
 80051d6:	68fb      	ldr	r3, [r7, #12]
 80051d8:	0018      	movs	r0, r3
 80051da:	f000 f81f 	bl	800521c <UART_EndRxTransfer>
 80051de:	68fb      	ldr	r3, [r7, #12]
 80051e0:	2284      	movs	r2, #132	@ 0x84
 80051e2:	2120      	movs	r1, #32
 80051e4:	5099      	str	r1, [r3, r2]
 80051e6:	68fb      	ldr	r3, [r7, #12]
 80051e8:	2278      	movs	r2, #120	@ 0x78
 80051ea:	2100      	movs	r1, #0
 80051ec:	5499      	strb	r1, [r3, r2]
 80051ee:	2303      	movs	r3, #3
 80051f0:	e00f      	b.n	8005212 <UART_WaitOnFlagUntilTimeout+0xd6>
 80051f2:	68fb      	ldr	r3, [r7, #12]
 80051f4:	681b      	ldr	r3, [r3, #0]
 80051f6:	69db      	ldr	r3, [r3, #28]
 80051f8:	68ba      	ldr	r2, [r7, #8]
 80051fa:	4013      	ands	r3, r2
 80051fc:	68ba      	ldr	r2, [r7, #8]
 80051fe:	1ad3      	subs	r3, r2, r3
 8005200:	425a      	negs	r2, r3
 8005202:	4153      	adcs	r3, r2
 8005204:	b2db      	uxtb	r3, r3
 8005206:	001a      	movs	r2, r3
 8005208:	1dfb      	adds	r3, r7, #7
 800520a:	781b      	ldrb	r3, [r3, #0]
 800520c:	429a      	cmp	r2, r3
 800520e:	d09e      	beq.n	800514e <UART_WaitOnFlagUntilTimeout+0x12>
 8005210:	2300      	movs	r3, #0
 8005212:	0018      	movs	r0, r3
 8005214:	46bd      	mov	sp, r7
 8005216:	b004      	add	sp, #16
 8005218:	bd80      	pop	{r7, pc}
	...

0800521c <UART_EndRxTransfer>:
 800521c:	b580      	push	{r7, lr}
 800521e:	b08e      	sub	sp, #56	@ 0x38
 8005220:	af00      	add	r7, sp, #0
 8005222:	6078      	str	r0, [r7, #4]
 8005224:	f3ef 8310 	mrs	r3, PRIMASK
 8005228:	617b      	str	r3, [r7, #20]
 800522a:	697b      	ldr	r3, [r7, #20]
 800522c:	637b      	str	r3, [r7, #52]	@ 0x34
 800522e:	2301      	movs	r3, #1
 8005230:	61bb      	str	r3, [r7, #24]
 8005232:	69bb      	ldr	r3, [r7, #24]
 8005234:	f383 8810 	msr	PRIMASK, r3
 8005238:	46c0      	nop			@ (mov r8, r8)
 800523a:	687b      	ldr	r3, [r7, #4]
 800523c:	681b      	ldr	r3, [r3, #0]
 800523e:	681a      	ldr	r2, [r3, #0]
 8005240:	687b      	ldr	r3, [r7, #4]
 8005242:	681b      	ldr	r3, [r3, #0]
 8005244:	4926      	ldr	r1, [pc, #152]	@ (80052e0 <UART_EndRxTransfer+0xc4>)
 8005246:	400a      	ands	r2, r1
 8005248:	601a      	str	r2, [r3, #0]
 800524a:	6b7b      	ldr	r3, [r7, #52]	@ 0x34
 800524c:	61fb      	str	r3, [r7, #28]
 800524e:	69fb      	ldr	r3, [r7, #28]
 8005250:	f383 8810 	msr	PRIMASK, r3
 8005254:	46c0      	nop			@ (mov r8, r8)
 8005256:	f3ef 8310 	mrs	r3, PRIMASK
 800525a:	623b      	str	r3, [r7, #32]
 800525c:	6a3b      	ldr	r3, [r7, #32]
 800525e:	633b      	str	r3, [r7, #48]	@ 0x30
 8005260:	2301      	movs	r3, #1
 8005262:	627b      	str	r3, [r7, #36]	@ 0x24
 8005264:	6a7b      	ldr	r3, [r7, #36]	@ 0x24
 8005266:	f383 8810 	msr	PRIMASK, r3
 800526a:	46c0      	nop			@ (mov r8, r8)
 800526c:	687b      	ldr	r3, [r7, #4]
 800526e:	681b      	ldr	r3, [r3, #0]
 8005270:	689a      	ldr	r2, [r3, #8]
 8005272:	687b      	ldr	r3, [r7, #4]
 8005274:	681b      	ldr	r3, [r3, #0]
 8005276:	2101      	movs	r1, #1
 8005278:	438a      	bics	r2, r1
 800527a:	609a      	str	r2, [r3, #8]
 800527c:	6b3b      	ldr	r3, [r7, #48]	@ 0x30
 800527e:	62bb      	str	r3, [r7, #40]	@ 0x28
 8005280:	6abb      	ldr	r3, [r7, #40]	@ 0x28
 8005282:	f383 8810 	msr	PRIMASK, r3
 8005286:	46c0      	nop			@ (mov r8, r8)
 8005288:	687b      	ldr	r3, [r7, #4]
 800528a:	6e1b      	ldr	r3, [r3, #96]	@ 0x60
 800528c:	2b01      	cmp	r3, #1
 800528e:	d118      	bne.n	80052c2 <UART_EndRxTransfer+0xa6>
 8005290:	f3ef 8310 	mrs	r3, PRIMASK
 8005294:	60bb      	str	r3, [r7, #8]
 8005296:	68bb      	ldr	r3, [r7, #8]
 8005298:	62fb      	str	r3, [r7, #44]	@ 0x2c
 800529a:	2301      	movs	r3, #1
 800529c:	60fb      	str	r3, [r7, #12]
 800529e:	68fb      	ldr	r3, [r7, #12]
 80052a0:	f383 8810 	msr	PRIMASK, r3
 80052a4:	46c0      	nop			@ (mov r8, r8)
 80052a6:	687b      	ldr	r3, [r7, #4]
 80052a8:	681b      	ldr	r3, [r3, #0]
 80052aa:	681a      	ldr	r2, [r3, #0]
 80052ac:	687b      	ldr	r3, [r7, #4]
 80052ae:	681b      	ldr	r3, [r3, #0]
 80052b0:	2110      	movs	r1, #16
 80052b2:	438a      	bics	r2, r1
 80052b4:	601a      	str	r2, [r3, #0]
 80052b6:	6afb      	ldr	r3, [r7, #44]	@ 0x2c
 80052b8:	613b      	str	r3, [r7, #16]
 80052ba:	693b      	ldr	r3, [r7, #16]
 80052bc:	f383 8810 	msr	PRIMASK, r3
 80052c0:	46c0      	nop			@ (mov r8, r8)
 80052c2:	687b      	ldr	r3, [r7, #4]
 80052c4:	2280      	movs	r2, #128	@ 0x80
 80052c6:	2120      	movs	r1, #32
 80052c8:	5099      	str	r1, [r3, r2]
 80052ca:	687b      	ldr	r3, [r7, #4]
 80052cc:	2200      	movs	r2, #0
 80052ce:	661a      	str	r2, [r3, #96]	@ 0x60
 80052d0:	687b      	ldr	r3, [r7, #4]
 80052d2:	2200      	movs	r2, #0
 80052d4:	669a      	str	r2, [r3, #104]	@ 0x68
 80052d6:	46c0      	nop			@ (mov r8, r8)
 80052d8:	46bd      	mov	sp, r7
 80052da:	b00e      	add	sp, #56	@ 0x38
 80052dc:	bd80      	pop	{r7, pc}
 80052de:	46c0      	nop			@ (mov r8, r8)
 80052e0:	fffffedf 	.word	0xfffffedf

080052e4 <UART_DMAAbortOnError>:
 80052e4:	b580      	push	{r7, lr}
 80052e6:	b084      	sub	sp, #16
 80052e8:	af00      	add	r7, sp, #0
 80052ea:	6078      	str	r0, [r7, #4]
 80052ec:	687b      	ldr	r3, [r7, #4]
 80052ee:	6a5b      	ldr	r3, [r3, #36]	@ 0x24
 80052f0:	60fb      	str	r3, [r7, #12]
 80052f2:	68fb      	ldr	r3, [r7, #12]
 80052f4:	225a      	movs	r2, #90	@ 0x5a
 80052f6:	2100      	movs	r1, #0
 80052f8:	5299      	strh	r1, [r3, r2]
 80052fa:	68fb      	ldr	r3, [r7, #12]
 80052fc:	2252      	movs	r2, #82	@ 0x52
 80052fe:	2100      	movs	r1, #0
 8005300:	5299      	strh	r1, [r3, r2]
 8005302:	68fb      	ldr	r3, [r7, #12]
 8005304:	0018      	movs	r0, r3
 8005306:	f7ff fc69 	bl	8004bdc <HAL_UART_ErrorCallback>
 800530a:	46c0      	nop			@ (mov r8, r8)
 800530c:	46bd      	mov	sp, r7
 800530e:	b004      	add	sp, #16
 8005310:	bd80      	pop	{r7, pc}

08005312 <UART_EndTransmit_IT>:
 8005312:	b580      	push	{r7, lr}
 8005314:	b086      	sub	sp, #24
 8005316:	af00      	add	r7, sp, #0
 8005318:	6078      	str	r0, [r7, #4]
 800531a:	f3ef 8310 	mrs	r3, PRIMASK
 800531e:	60bb      	str	r3, [r7, #8]
 8005320:	68bb      	ldr	r3, [r7, #8]
 8005322:	617b      	str	r3, [r7, #20]
 8005324:	2301      	movs	r3, #1
 8005326:	60fb      	str	r3, [r7, #12]
 8005328:	68fb      	ldr	r3, [r7, #12]
 800532a:	f383 8810 	msr	PRIMASK, r3
 800532e:	46c0      	nop			@ (mov r8, r8)
 8005330:	687b      	ldr	r3, [r7, #4]
 8005332:	681b      	ldr	r3, [r3, #0]
 8005334:	681a      	ldr	r2, [r3, #0]
 8005336:	687b      	ldr	r3, [r7, #4]
 8005338:	681b      	ldr	r3, [r3, #0]
 800533a:	2140      	movs	r1, #64	@ 0x40
 800533c:	438a      	bics	r2, r1
 800533e:	601a      	str	r2, [r3, #0]
 8005340:	697b      	ldr	r3, [r7, #20]
 8005342:	613b      	str	r3, [r7, #16]
 8005344:	693b      	ldr	r3, [r7, #16]
 8005346:	f383 8810 	msr	PRIMASK, r3
 800534a:	46c0      	nop			@ (mov r8, r8)
 800534c:	687b      	ldr	r3, [r7, #4]
 800534e:	2220      	movs	r2, #32
 8005350:	67da      	str	r2, [r3, #124]	@ 0x7c
 8005352:	687b      	ldr	r3, [r7, #4]
 8005354:	2200      	movs	r2, #0
 8005356:	66da      	str	r2, [r3, #108]	@ 0x6c
 8005358:	687b      	ldr	r3, [r7, #4]
 800535a:	0018      	movs	r0, r3
 800535c:	f7ff fc36 	bl	8004bcc <HAL_UART_TxCpltCallback>
 8005360:	46c0      	nop			@ (mov r8, r8)
 8005362:	46bd      	mov	sp, r7
 8005364:	b006      	add	sp, #24
 8005366:	bd80      	pop	{r7, pc}

08005368 <memcmp>:
 8005368:	b530      	push	{r4, r5, lr}
 800536a:	2400      	movs	r4, #0
 800536c:	3901      	subs	r1, #1
 800536e:	42a2      	cmp	r2, r4
 8005370:	d101      	bne.n	8005376 <memcmp+0xe>
 8005372:	2000      	movs	r0, #0
 8005374:	e005      	b.n	8005382 <memcmp+0x1a>
 8005376:	5d03      	ldrb	r3, [r0, r4]
 8005378:	3401      	adds	r4, #1
 800537a:	5d0d      	ldrb	r5, [r1, r4]
 800537c:	42ab      	cmp	r3, r5
 800537e:	d0f6      	beq.n	800536e <memcmp+0x6>
 8005380:	1b58      	subs	r0, r3, r5
 8005382:	bd30      	pop	{r4, r5, pc}

08005384 <memset>:
 8005384:	0003      	movs	r3, r0
 8005386:	1882      	adds	r2, r0, r2
 8005388:	4293      	cmp	r3, r2
 800538a:	d100      	bne.n	800538e <memset+0xa>
 800538c:	4770      	bx	lr
 800538e:	7019      	strb	r1, [r3, #0]
 8005390:	3301      	adds	r3, #1
 8005392:	e7f9      	b.n	8005388 <memset+0x4>

08005394 <__libc_init_array>:
 8005394:	b570      	push	{r4, r5, r6, lr}
 8005396:	2600      	movs	r6, #0
 8005398:	4c0c      	ldr	r4, [pc, #48]	@ (80053cc <__libc_init_array+0x38>)
 800539a:	4d0d      	ldr	r5, [pc, #52]	@ (80053d0 <__libc_init_array+0x3c>)
 800539c:	1b64      	subs	r4, r4, r5
 800539e:	10a4      	asrs	r4, r4, #2
 80053a0:	42a6      	cmp	r6, r4
 80053a2:	d109      	bne.n	80053b8 <__libc_init_array+0x24>
 80053a4:	2600      	movs	r6, #0
 80053a6:	f000 f823 	bl	80053f0 <_init>
 80053aa:	4c0a      	ldr	r4, [pc, #40]	@ (80053d4 <__libc_init_array+0x40>)
 80053ac:	4d0a      	ldr	r5, [pc, #40]	@ (80053d8 <__libc_init_array+0x44>)
 80053ae:	1b64      	subs	r4, r4, r5
 80053b0:	10a4      	asrs	r4, r4, #2
 80053b2:	42a6      	cmp	r6, r4
 80053b4:	d105      	bne.n	80053c2 <__libc_init_array+0x2e>
 80053b6:	bd70      	pop	{r4, r5, r6, pc}
 80053b8:	00b3      	lsls	r3, r6, #2
 80053ba:	58eb      	ldr	r3, [r5, r3]
 80053bc:	4798      	blx	r3
 80053be:	3601      	adds	r6, #1
 80053c0:	e7ee      	b.n	80053a0 <__libc_init_array+0xc>
 80053c2:	00b3      	lsls	r3, r6, #2
 80053c4:	58eb      	ldr	r3, [r5, r3]
 80053c6:	4798      	blx	r3
 80053c8:	3601      	adds	r6, #1
 80053ca:	e7f2      	b.n	80053b2 <__libc_init_array+0x1e>
 80053cc:	08005908 	.word	0x08005908
 80053d0:	08005908 	.word	0x08005908
 80053d4:	0800590c 	.word	0x0800590c
 80053d8:	08005908 	.word	0x08005908

080053dc <memcpy>:
 80053dc:	2300      	movs	r3, #0
 80053de:	b510      	push	{r4, lr}
 80053e0:	429a      	cmp	r2, r3
 80053e2:	d100      	bne.n	80053e6 <memcpy+0xa>
 80053e4:	bd10      	pop	{r4, pc}
 80053e6:	5ccc      	ldrb	r4, [r1, r3]
 80053e8:	54c4      	strb	r4, [r0, r3]
 80053ea:	3301      	adds	r3, #1
 80053ec:	e7f8      	b.n	80053e0 <memcpy+0x4>
	...

080053f0 <_init>:
 80053f0:	b5f8      	push	{r3, r4, r5, r6, r7, lr}
 80053f2:	46c0      	nop			@ (mov r8, r8)
 80053f4:	bcf8      	pop	{r3, r4, r5, r6, r7}
 80053f6:	bc08      	pop	{r3}
 80053f8:	469e      	mov	lr, r3
 80053fa:	4770      	bx	lr

080053fc <_fini>:
 80053fc:	b5f8      	push	{r3, r4, r5, r6, r7, lr}
 80053fe:	46c0      	nop			@ (mov r8, r8)
 8005400:	bcf8      	pop	{r3, r4, r5, r6, r7}
 8005402:	bc08      	pop	{r3}
 8005404:	469e      	mov	lr, r3
 8005406:	4770      	bx	lr
