
uart_rf_gonderici.elf:     file format elf32-littlearm

Sections:
Idx Name          Size      VMA       LMA       File off  Algn
  0 .isr_vector   000000c0  08000000  08000000  00001000  2**0
                  CONTENTS, ALLOC, LOAD, READONLY, DATA
  1 .text         000058c4  080000c0  080000c0  000010c0  2**2
                  CONTENTS, ALLOC, LOAD, READONLY, CODE
  2 .rodata       000006b8  08005984  08005984  00006984  2**2
                  CONTENTS, ALLOC, LOAD, READONLY, DATA
  3 .ARM.extab    00000000  0800603c  0800603c  00008010  2**0
                  CONTENTS, READONLY
  4 .ARM          00000000  0800603c  0800603c  00008010  2**0
                  CONTENTS, READONLY
  5 .preinit_array 00000000  0800603c  0800603c  00008010  2**0
                  CONTENTS, ALLOC, LOAD, DATA
  6 .init_array   00000004  0800603c  0800603c  0000703c  2**2
                  CONTENTS, ALLOC, LOAD, READONLY, DATA
  7 .fini_array   00000004  08006040  08006040  00007040  2**2
                  CONTENTS, ALLOC, LOAD, READONLY, DATA
  8 .data         00000010  20000000  08006044  00008000  2**2
                  CONTENTS, ALLOC, LOAD, DATA
  9 .bss          00000330  20000010  08006054  00008010  2**2
                  ALLOC
 10 ._user_heap_stack 00000800  20000340  08006054  00008340  2**0
                  ALLOC
 11 .ARM.attributes 00000028  00000000  00000000  00008010  2**0
                  CONTENTS, READONLY
 12 .debug_info   00011db9  00000000  00000000  00008038  2**0
                  CONTENTS, READONLY, DEBUGGING, OCTETS
 13 .debug_abbrev 000031cc  00000000  00000000  00019df1  2**0
                  CONTENTS, READONLY, DEBUGGING, OCTETS
 14 .debug_aranges 00000f58  00000000  00000000  0001cfc0  2**3
                  CONTENTS, READONLY, DEBUGGING, OCTETS
 15 .debug_rnglists 00000bdd  00000000  00000000  0001df18  2**0
                  CONTENTS, READONLY, DEBUGGING, OCTETS
 16 .debug_macro  000125bc  00000000  00000000  0001eaf5  2**0
                  CONTENTS, READONLY, DEBUGGING, OCTETS
 17 .debug_line   00017035  00000000  00000000  000310b1  2**0
                  CONTENTS, READONLY, DEBUGGING, OCTETS
 18 .debug_str    00067cc3  00000000  00000000  000480e6  2**0
                  CONTENTS, READONLY, DEBUGGING, OCTETS
 19 .comment      00000043  00000000  00000000  000afda9  2**0
                  CONTENTS, READONLY
 20 .debug_frame  000034c8  00000000  00000000  000afdec  2**2
                  CONTENTS, READONLY, DEBUGGING, OCTETS
 21 .debug_line_str 0000006c  00000000  00000000  000b32b4  2**0
                  CONTENTS, READONLY, DEBUGGING, OCTETS

Disassembly of section .text:

080000c0 <__do_global_dtors_aux>:
 80000c0:	b510      	push	{r4, lr}
 80000c2:	4c06      	ldr	r4, [pc, #24]	@ (80000dc <__do_global_dtors_aux+0x1c>)
 80000c4:	7823      	ldrb	r3, [r4, #0]
 80000c6:	2b00      	cmp	r3, #0
 80000c8:	d107      	bne.n	80000da <__do_global_dtors_aux+0x1a>
 80000ca:	4b05      	ldr	r3, [pc, #20]	@ (80000e0 <__do_global_dtors_aux+0x20>)
 80000cc:	2b00      	cmp	r3, #0
 80000ce:	d002      	beq.n	80000d6 <__do_global_dtors_aux+0x16>
 80000d0:	4804      	ldr	r0, [pc, #16]	@ (80000e4 <__do_global_dtors_aux+0x24>)
 80000d2:	e000      	b.n	80000d6 <__do_global_dtors_aux+0x16>
 80000d4:	bf00      	nop
 80000d6:	2301      	movs	r3, #1
 80000d8:	7023      	strb	r3, [r4, #0]
 80000da:	bd10      	pop	{r4, pc}
 80000dc:	20000010 	.word	0x20000010
 80000e0:	00000000 	.word	0x00000000
 80000e4:	0800596c 	.word	0x0800596c

080000e8 <frame_dummy>:
 80000e8:	4b04      	ldr	r3, [pc, #16]	@ (80000fc <frame_dummy+0x14>)
 80000ea:	b510      	push	{r4, lr}
 80000ec:	2b00      	cmp	r3, #0
 80000ee:	d003      	beq.n	80000f8 <frame_dummy+0x10>
 80000f0:	4903      	ldr	r1, [pc, #12]	@ (8000100 <frame_dummy+0x18>)
 80000f2:	4804      	ldr	r0, [pc, #16]	@ (8000104 <frame_dummy+0x1c>)
 80000f4:	e000      	b.n	80000f8 <frame_dummy+0x10>
 80000f6:	bf00      	nop
 80000f8:	bd10      	pop	{r4, pc}
 80000fa:	46c0      	nop			@ (mov r8, r8)
 80000fc:	00000000 	.word	0x00000000
 8000100:	20000014 	.word	0x20000014
 8000104:	0800596c 	.word	0x0800596c

08000108 <strlen>:
 8000108:	2300      	movs	r3, #0
 800010a:	5cc2      	ldrb	r2, [r0, r3]
 800010c:	3301      	adds	r3, #1
 800010e:	2a00      	cmp	r2, #0
 8000110:	d1fb      	bne.n	800010a <strlen+0x2>
 8000112:	1e58      	subs	r0, r3, #1
 8000114:	4770      	bx	lr
	...

08000118 <__udivsi3>:
 8000118:	2200      	movs	r2, #0
 800011a:	0843      	lsrs	r3, r0, #1
 800011c:	428b      	cmp	r3, r1
 800011e:	d374      	bcc.n	800020a <__udivsi3+0xf2>
 8000120:	0903      	lsrs	r3, r0, #4
 8000122:	428b      	cmp	r3, r1
 8000124:	d35f      	bcc.n	80001e6 <__udivsi3+0xce>
 8000126:	0a03      	lsrs	r3, r0, #8
 8000128:	428b      	cmp	r3, r1
 800012a:	d344      	bcc.n	80001b6 <__udivsi3+0x9e>
 800012c:	0b03      	lsrs	r3, r0, #12
 800012e:	428b      	cmp	r3, r1
 8000130:	d328      	bcc.n	8000184 <__udivsi3+0x6c>
 8000132:	0c03      	lsrs	r3, r0, #16
 8000134:	428b      	cmp	r3, r1
 8000136:	d30d      	bcc.n	8000154 <__udivsi3+0x3c>
 8000138:	22ff      	movs	r2, #255	@ 0xff
 800013a:	0209      	lsls	r1, r1, #8
 800013c:	ba12      	rev	r2, r2
 800013e:	0c03      	lsrs	r3, r0, #16
 8000140:	428b      	cmp	r3, r1
 8000142:	d302      	bcc.n	800014a <__udivsi3+0x32>
 8000144:	1212      	asrs	r2, r2, #8
 8000146:	0209      	lsls	r1, r1, #8
 8000148:	d065      	beq.n	8000216 <__udivsi3+0xfe>
 800014a:	0b03      	lsrs	r3, r0, #12
 800014c:	428b      	cmp	r3, r1
 800014e:	d319      	bcc.n	8000184 <__udivsi3+0x6c>
 8000150:	e000      	b.n	8000154 <__udivsi3+0x3c>
 8000152:	0a09      	lsrs	r1, r1, #8
 8000154:	0bc3      	lsrs	r3, r0, #15
 8000156:	428b      	cmp	r3, r1
 8000158:	d301      	bcc.n	800015e <__udivsi3+0x46>
 800015a:	03cb      	lsls	r3, r1, #15
 800015c:	1ac0      	subs	r0, r0, r3
 800015e:	4152      	adcs	r2, r2
 8000160:	0b83      	lsrs	r3, r0, #14
 8000162:	428b      	cmp	r3, r1
 8000164:	d301      	bcc.n	800016a <__udivsi3+0x52>
 8000166:	038b      	lsls	r3, r1, #14
 8000168:	1ac0      	subs	r0, r0, r3
 800016a:	4152      	adcs	r2, r2
 800016c:	0b43      	lsrs	r3, r0, #13
 800016e:	428b      	cmp	r3, r1
 8000170:	d301      	bcc.n	8000176 <__udivsi3+0x5e>
 8000172:	034b      	lsls	r3, r1, #13
 8000174:	1ac0      	subs	r0, r0, r3
 8000176:	4152      	adcs	r2, r2
 8000178:	0b03      	lsrs	r3, r0, #12
 800017a:	428b      	cmp	r3, r1
 800017c:	d301      	bcc.n	8000182 <__udivsi3+0x6a>
 800017e:	030b      	lsls	r3, r1, #12
 8000180:	1ac0      	subs	r0, r0, r3
 8000182:	4152      	adcs	r2, r2
 8000184:	0ac3      	lsrs	r3, r0, #11
 8000186:	428b      	cmp	r3, r1
 8000188:	d301      	bcc.n	800018e <__udivsi3+0x76>
 800018a:	02cb      	lsls	r3, r1, #11
 800018c:	1ac0      	subs	r0, r0, r3
 800018e:	4152      	adcs	r2, r2
 8000190:	0a83      	lsrs	r3, r0, #10
 8000192:	428b      	cmp	r3, r1
 8000194:	d301      	bcc.n	800019a <__udivsi3+0x82>
 8000196:	028b      	lsls	r3, r1, #10
 8000198:	1ac0      	subs	r0, r0, r3
 800019a:	4152      	adcs	r2, r2
 800019c:	0a43      	lsrs	r3, r0, #9
 800019e:	428b      	cmp	r3, r1
 80001a0:	d301      	bcc.n	80001a6 <__udivsi3+0x8e>
 80001a2:	024b      	lsls	r3, r1, #9
 80001a4:	1ac0      	subs	r0, r0, r3
 80001a6:	4152      	adcs	r2, r2
 80001a8:	0a03      	lsrs	r3, r0, #8
 80001aa:	428b      	cmp	r3, r1
 80001ac:	d301      	bcc.n	80001b2 <__udivsi3+0x9a>
 80001ae:	020b      	lsls	r3, r1, #8
 80001b0:	1ac0      	subs	r0, r0, r3
 80001b2:	4152      	adcs	r2, r2
 80001b4:	d2cd      	bcs.n	8000152 <__udivsi3+0x3a>
 80001b6:	09c3      	lsrs	r3, r0, #7
 80001b8:	428b      	cmp	r3, r1
 80001ba:	d301      	bcc.n	80001c0 <__udivsi3+0xa8>
 80001bc:	01cb      	lsls	r3, r1, #7
 80001be:	1ac0      	subs	r0, r0, r3
 80001c0:	4152      	adcs	r2, r2
 80001c2:	0983      	lsrs	r3, r0, #6
 80001c4:	428b      	cmp	r3, r1
 80001c6:	d301      	bcc.n	80001cc <__udivsi3+0xb4>
 80001c8:	018b      	lsls	r3, r1, #6
 80001ca:	1ac0      	subs	r0, r0, r3
 80001cc:	4152      	adcs	r2, r2
 80001ce:	0943      	lsrs	r3, r0, #5
 80001d0:	428b      	cmp	r3, r1
 80001d2:	d301      	bcc.n	80001d8 <__udivsi3+0xc0>
 80001d4:	014b      	lsls	r3, r1, #5
 80001d6:	1ac0      	subs	r0, r0, r3
 80001d8:	4152      	adcs	r2, r2
 80001da:	0903      	lsrs	r3, r0, #4
 80001dc:	428b      	cmp	r3, r1
 80001de:	d301      	bcc.n	80001e4 <__udivsi3+0xcc>
 80001e0:	010b      	lsls	r3, r1, #4
 80001e2:	1ac0      	subs	r0, r0, r3
 80001e4:	4152      	adcs	r2, r2
 80001e6:	08c3      	lsrs	r3, r0, #3
 80001e8:	428b      	cmp	r3, r1
 80001ea:	d301      	bcc.n	80001f0 <__udivsi3+0xd8>
 80001ec:	00cb      	lsls	r3, r1, #3
 80001ee:	1ac0      	subs	r0, r0, r3
 80001f0:	4152      	adcs	r2, r2
 80001f2:	0883      	lsrs	r3, r0, #2
 80001f4:	428b      	cmp	r3, r1
 80001f6:	d301      	bcc.n	80001fc <__udivsi3+0xe4>
 80001f8:	008b      	lsls	r3, r1, #2
 80001fa:	1ac0      	subs	r0, r0, r3
 80001fc:	4152      	adcs	r2, r2
 80001fe:	0843      	lsrs	r3, r0, #1
 8000200:	428b      	cmp	r3, r1
 8000202:	d301      	bcc.n	8000208 <__udivsi3+0xf0>
 8000204:	004b      	lsls	r3, r1, #1
 8000206:	1ac0      	subs	r0, r0, r3
 8000208:	4152      	adcs	r2, r2
 800020a:	1a41      	subs	r1, r0, r1
 800020c:	d200      	bcs.n	8000210 <__udivsi3+0xf8>
 800020e:	4601      	mov	r1, r0
 8000210:	4152      	adcs	r2, r2
 8000212:	4610      	mov	r0, r2
 8000214:	4770      	bx	lr
 8000216:	e7ff      	b.n	8000218 <__udivsi3+0x100>
 8000218:	b501      	push	{r0, lr}
 800021a:	2000      	movs	r0, #0
 800021c:	f000 f806 	bl	800022c <__aeabi_idiv0>
 8000220:	bd02      	pop	{r1, pc}
 8000222:	46c0      	nop			@ (mov r8, r8)

08000224 <__aeabi_uidivmod>:
 8000224:	2900      	cmp	r1, #0
 8000226:	d0f7      	beq.n	8000218 <__udivsi3+0x100>
 8000228:	e776      	b.n	8000118 <__udivsi3>
 800022a:	4770      	bx	lr

0800022c <__aeabi_idiv0>:
 800022c:	4770      	bx	lr
 800022e:	46c0      	nop			@ (mov r8, r8)

08000230 <MX_DMA_Init>:

/**
  * Enable DMA controller clock
  */
void MX_DMA_Init(void)
{
 8000230:	b580      	push	{r7, lr}
 8000232:	b082      	sub	sp, #8
 8000234:	af00      	add	r7, sp, #0

  /* DMA controller clock enable */
  __HAL_RCC_DMA1_CLK_ENABLE();
 8000236:	4b0c      	ldr	r3, [pc, #48]	@ (8000268 <MX_DMA_Init+0x38>)
 8000238:	695a      	ldr	r2, [r3, #20]
 800023a:	4b0b      	ldr	r3, [pc, #44]	@ (8000268 <MX_DMA_Init+0x38>)
 800023c:	2101      	movs	r1, #1
 800023e:	430a      	orrs	r2, r1
 8000240:	615a      	str	r2, [r3, #20]
 8000242:	4b09      	ldr	r3, [pc, #36]	@ (8000268 <MX_DMA_Init+0x38>)
 8000244:	695b      	ldr	r3, [r3, #20]
 8000246:	2201      	movs	r2, #1
 8000248:	4013      	ands	r3, r2
 800024a:	607b      	str	r3, [r7, #4]
 800024c:	687b      	ldr	r3, [r7, #4]

  /* DMA interrupt init */
  /* DMA1_Channel2_3_IRQn interrupt configuration */
  HAL_NVIC_SetPriority(DMA1_Channel2_3_IRQn, 3, 0);
 800024e:	2200      	movs	r2, #0
 8000250:	2103      	movs	r1, #3
 8000252:	200a      	movs	r0, #10
 8000254:	f002 f96c 	bl	8002530 <HAL_NVIC_SetPriority>
  HAL_NVIC_EnableIRQ(DMA1_Channel2_3_IRQn);
 8000258:	200a      	movs	r0, #10
 800025a:	f002 f97e 	bl	800255a <HAL_NVIC_EnableIRQ>

}
 800025e:	46c0      	nop			@ (mov r8, r8)
 8000260:	46bd      	mov	sp, r7
 8000262:	b002      	add	sp, #8
 8000264:	bd80      	pop	{r7, pc}
 8000266:	46c0      	nop			@ (mov r8, r8)
 8000268:	40021000 	.word	0x40021000

0800026c <MX_GPIO_Init>:
/** Configure pins
     PA2   ------> USART2_TX
     PA3   ------> USART2_RX
*/
void MX_GPIO_Init(void)
{
 800026c:	b590      	push	{r4, r7, lr}
 800026e:	b089      	sub	sp, #36	@ 0x24
 8000270:	af00      	add	r7, sp, #0

  GPIO_InitTypeDef GPIO_InitStruct = {0};
 8000272:	240c      	movs	r4, #12
 8000274:	193b      	adds	r3, r7, r4
 8000276:	0018      	movs	r0, r3
 8000278:	2314      	movs	r3, #20
 800027a:	001a      	movs	r2, r3
 800027c:	2100      	movs	r1, #0
 800027e:	f005 fb3f 	bl	8005900 <memset>

  /* GPIO Ports Clock Enable */
  __HAL_RCC_GPIOA_CLK_ENABLE();
 8000282:	4b6c      	ldr	r3, [pc, #432]	@ (8000434 <MX_GPIO_Init+0x1c8>)
 8000284:	695a      	ldr	r2, [r3, #20]
 8000286:	4b6b      	ldr	r3, [pc, #428]	@ (8000434 <MX_GPIO_Init+0x1c8>)
 8000288:	2180      	movs	r1, #128	@ 0x80
 800028a:	0289      	lsls	r1, r1, #10
 800028c:	430a      	orrs	r2, r1
 800028e:	615a      	str	r2, [r3, #20]
 8000290:	4b68      	ldr	r3, [pc, #416]	@ (8000434 <MX_GPIO_Init+0x1c8>)
 8000292:	695a      	ldr	r2, [r3, #20]
 8000294:	2380      	movs	r3, #128	@ 0x80
 8000296:	029b      	lsls	r3, r3, #10
 8000298:	4013      	ands	r3, r2
 800029a:	60bb      	str	r3, [r7, #8]
 800029c:	68bb      	ldr	r3, [r7, #8]
  __HAL_RCC_GPIOB_CLK_ENABLE();
 800029e:	4b65      	ldr	r3, [pc, #404]	@ (8000434 <MX_GPIO_Init+0x1c8>)
 80002a0:	695a      	ldr	r2, [r3, #20]
 80002a2:	4b64      	ldr	r3, [pc, #400]	@ (8000434 <MX_GPIO_Init+0x1c8>)
 80002a4:	2180      	movs	r1, #128	@ 0x80
 80002a6:	02c9      	lsls	r1, r1, #11
 80002a8:	430a      	orrs	r2, r1
 80002aa:	615a      	str	r2, [r3, #20]
 80002ac:	4b61      	ldr	r3, [pc, #388]	@ (8000434 <MX_GPIO_Init+0x1c8>)
 80002ae:	695a      	ldr	r2, [r3, #20]
 80002b0:	2380      	movs	r3, #128	@ 0x80
 80002b2:	02db      	lsls	r3, r3, #11
 80002b4:	4013      	ands	r3, r2
 80002b6:	607b      	str	r3, [r7, #4]
 80002b8:	687b      	ldr	r3, [r7, #4]
  __HAL_RCC_GPIOF_CLK_ENABLE();
 80002ba:	4b5e      	ldr	r3, [pc, #376]	@ (8000434 <MX_GPIO_Init+0x1c8>)
 80002bc:	695a      	ldr	r2, [r3, #20]
 80002be:	4b5d      	ldr	r3, [pc, #372]	@ (8000434 <MX_GPIO_Init+0x1c8>)
 80002c0:	2180      	movs	r1, #128	@ 0x80
 80002c2:	03c9      	lsls	r1, r1, #15
 80002c4:	430a      	orrs	r2, r1
 80002c6:	615a      	str	r2, [r3, #20]
 80002c8:	4b5a      	ldr	r3, [pc, #360]	@ (8000434 <MX_GPIO_Init+0x1c8>)
 80002ca:	695a      	ldr	r2, [r3, #20]
 80002cc:	2380      	movs	r3, #128	@ 0x80
 80002ce:	03db      	lsls	r3, r3, #15
 80002d0:	4013      	ands	r3, r2
 80002d2:	603b      	str	r3, [r7, #0]
 80002d4:	683b      	ldr	r3, [r7, #0]

  /*Configure GPIO pin Output Level */
  HAL_GPIO_WritePin(SI4432_SDN_GPIO_Port, SI4432_SDN_Pin, GPIO_PIN_SET);
 80002d6:	2380      	movs	r3, #128	@ 0x80
 80002d8:	00db      	lsls	r3, r3, #3
 80002da:	4857      	ldr	r0, [pc, #348]	@ (8000438 <MX_GPIO_Init+0x1cc>)
 80002dc:	2201      	movs	r2, #1
 80002de:	0019      	movs	r1, r3
 80002e0:	f002 fc69 	bl	8002bb6 <HAL_GPIO_WritePin>

  /*Configure GPIO pin Output Level */
  HAL_GPIO_WritePin(SI4432_CE_GPIO_Port, SI4432_CE_Pin, GPIO_PIN_SET);
 80002e4:	2380      	movs	r3, #128	@ 0x80
 80002e6:	015b      	lsls	r3, r3, #5
 80002e8:	4853      	ldr	r0, [pc, #332]	@ (8000438 <MX_GPIO_Init+0x1cc>)
 80002ea:	2201      	movs	r2, #1
 80002ec:	0019      	movs	r1, r3
 80002ee:	f002 fc62 	bl	8002bb6 <HAL_GPIO_WritePin>

  /*Configure GPIO pin Output Level */
  HAL_GPIO_WritePin(LED1_GPIO_Port, LED1_Pin, GPIO_PIN_RESET);
 80002f2:	2380      	movs	r3, #128	@ 0x80
 80002f4:	0159      	lsls	r1, r3, #5
 80002f6:	2390      	movs	r3, #144	@ 0x90
 80002f8:	05db      	lsls	r3, r3, #23
 80002fa:	2200      	movs	r2, #0
 80002fc:	0018      	movs	r0, r3
 80002fe:	f002 fc5a 	bl	8002bb6 <HAL_GPIO_WritePin>

  /*Configure GPIO pin Output Level */
  HAL_GPIO_WritePin(LED0_GPIO_Port, LED0_Pin, GPIO_PIN_RESET);
 8000302:	4b4e      	ldr	r3, [pc, #312]	@ (800043c <MX_GPIO_Init+0x1d0>)
 8000304:	2200      	movs	r2, #0
 8000306:	2140      	movs	r1, #64	@ 0x40
 8000308:	0018      	movs	r0, r3
 800030a:	f002 fc54 	bl	8002bb6 <HAL_GPIO_WritePin>

  /*Configure GPIO pins : BUTTON_Pin SI4432_CCA_Pin */
  GPIO_InitStruct.Pin = BUTTON_Pin|SI4432_CCA_Pin;
 800030e:	193b      	adds	r3, r7, r4
 8000310:	2202      	movs	r2, #2
 8000312:	32ff      	adds	r2, #255	@ 0xff
 8000314:	601a      	str	r2, [r3, #0]
  GPIO_InitStruct.Mode = GPIO_MODE_INPUT;
 8000316:	193b      	adds	r3, r7, r4
 8000318:	2200      	movs	r2, #0
 800031a:	605a      	str	r2, [r3, #4]
  GPIO_InitStruct.Pull = GPIO_NOPULL;
 800031c:	193b      	adds	r3, r7, r4
 800031e:	2200      	movs	r2, #0
 8000320:	609a      	str	r2, [r3, #8]
  HAL_GPIO_Init(GPIOA, &GPIO_InitStruct);
 8000322:	193a      	adds	r2, r7, r4
 8000324:	2390      	movs	r3, #144	@ 0x90
 8000326:	05db      	lsls	r3, r3, #23
 8000328:	0011      	movs	r1, r2
 800032a:	0018      	movs	r0, r3
 800032c:	f002 fab6 	bl	800289c <HAL_GPIO_Init>

  /*Configure GPIO pins : PA2 PA3 */
  GPIO_InitStruct.Pin = GPIO_PIN_2|GPIO_PIN_3;
 8000330:	193b      	adds	r3, r7, r4
 8000332:	220c      	movs	r2, #12
 8000334:	601a      	str	r2, [r3, #0]
  GPIO_InitStruct.Mode = GPIO_MODE_AF_PP;
 8000336:	193b      	adds	r3, r7, r4
 8000338:	2202      	movs	r2, #2
 800033a:	605a      	str	r2, [r3, #4]
  GPIO_InitStruct.Pull = GPIO_NOPULL;
 800033c:	193b      	adds	r3, r7, r4
 800033e:	2200      	movs	r2, #0
 8000340:	609a      	str	r2, [r3, #8]
  GPIO_InitStruct.Speed = GPIO_SPEED_FREQ_HIGH;
 8000342:	193b      	adds	r3, r7, r4
 8000344:	2203      	movs	r2, #3
 8000346:	60da      	str	r2, [r3, #12]
  GPIO_InitStruct.Alternate = GPIO_AF1_USART2;
 8000348:	193b      	adds	r3, r7, r4
 800034a:	2201      	movs	r2, #1
 800034c:	611a      	str	r2, [r3, #16]
  HAL_GPIO_Init(GPIOA, &GPIO_InitStruct);
 800034e:	193a      	adds	r2, r7, r4
 8000350:	2390      	movs	r3, #144	@ 0x90
 8000352:	05db      	lsls	r3, r3, #23
 8000354:	0011      	movs	r1, r2
 8000356:	0018      	movs	r0, r3
 8000358:	f002 faa0 	bl	800289c <HAL_GPIO_Init>

  /*Configure GPIO pins : SI4432_SDN_Pin SI4432_CE_Pin */
  GPIO_InitStruct.Pin = SI4432_SDN_Pin|SI4432_CE_Pin;
 800035c:	0021      	movs	r1, r4
 800035e:	187b      	adds	r3, r7, r1
 8000360:	22a0      	movs	r2, #160	@ 0xa0
 8000362:	0152      	lsls	r2, r2, #5
 8000364:	601a      	str	r2, [r3, #0]
  GPIO_InitStruct.Mode = GPIO_MODE_OUTPUT_PP;
 8000366:	000c      	movs	r4, r1
 8000368:	193b      	adds	r3, r7, r4
 800036a:	2201      	movs	r2, #1
 800036c:	605a      	str	r2, [r3, #4]
  GPIO_InitStruct.Pull = GPIO_NOPULL;
 800036e:	193b      	adds	r3, r7, r4
 8000370:	2200      	movs	r2, #0
 8000372:	609a      	str	r2, [r3, #8]
  GPIO_InitStruct.Speed = GPIO_SPEED_FREQ_LOW;
 8000374:	193b      	adds	r3, r7, r4
 8000376:	2200      	movs	r2, #0
 8000378:	60da      	str	r2, [r3, #12]
  HAL_GPIO_Init(GPIOB, &GPIO_InitStruct);
 800037a:	193b      	adds	r3, r7, r4
 800037c:	4a2e      	ldr	r2, [pc, #184]	@ (8000438 <MX_GPIO_Init+0x1cc>)
 800037e:	0019      	movs	r1, r3
 8000380:	0010      	movs	r0, r2
 8000382:	f002 fa8b 	bl	800289c <HAL_GPIO_Init>

  /*Configure GPIO pin : SI4432_IRQ_Pin */
  GPIO_InitStruct.Pin = SI4432_IRQ_Pin;
 8000386:	0021      	movs	r1, r4
 8000388:	187b      	adds	r3, r7, r1
 800038a:	2280      	movs	r2, #128	@ 0x80
 800038c:	0112      	lsls	r2, r2, #4
 800038e:	601a      	str	r2, [r3, #0]
  GPIO_InitStruct.Mode = GPIO_MODE_IT_RISING_FALLING;
 8000390:	187b      	adds	r3, r7, r1
 8000392:	22c4      	movs	r2, #196	@ 0xc4
 8000394:	0392      	lsls	r2, r2, #14
 8000396:	605a      	str	r2, [r3, #4]
  GPIO_InitStruct.Pull = GPIO_PULLUP;
 8000398:	187b      	adds	r3, r7, r1
 800039a:	2201      	movs	r2, #1
 800039c:	609a      	str	r2, [r3, #8]
  HAL_GPIO_Init(SI4432_IRQ_GPIO_Port, &GPIO_InitStruct);
 800039e:	000c      	movs	r4, r1
 80003a0:	187b      	adds	r3, r7, r1
 80003a2:	4a25      	ldr	r2, [pc, #148]	@ (8000438 <MX_GPIO_Init+0x1cc>)
 80003a4:	0019      	movs	r1, r3
 80003a6:	0010      	movs	r0, r2
 80003a8:	f002 fa78 	bl	800289c <HAL_GPIO_Init>

  /*Configure GPIO pin : LED1_Pin */
  GPIO_InitStruct.Pin = LED1_Pin;
 80003ac:	0021      	movs	r1, r4
 80003ae:	187b      	adds	r3, r7, r1
 80003b0:	2280      	movs	r2, #128	@ 0x80
 80003b2:	0152      	lsls	r2, r2, #5
 80003b4:	601a      	str	r2, [r3, #0]
  GPIO_InitStruct.Mode = GPIO_MODE_OUTPUT_PP;
 80003b6:	000c      	movs	r4, r1
 80003b8:	193b      	adds	r3, r7, r4
 80003ba:	2201      	movs	r2, #1
 80003bc:	605a      	str	r2, [r3, #4]
  GPIO_InitStruct.Pull = GPIO_NOPULL;
 80003be:	193b      	adds	r3, r7, r4
 80003c0:	2200      	movs	r2, #0
 80003c2:	609a      	str	r2, [r3, #8]
  GPIO_InitStruct.Speed = GPIO_SPEED_FREQ_LOW;
 80003c4:	193b      	adds	r3, r7, r4
 80003c6:	2200      	movs	r2, #0
 80003c8:	60da      	str	r2, [r3, #12]
  HAL_GPIO_Init(LED1_GPIO_Port, &GPIO_InitStruct);
 80003ca:	193a      	adds	r2, r7, r4
 80003cc:	2390      	movs	r3, #144	@ 0x90
 80003ce:	05db      	lsls	r3, r3, #23
 80003d0:	0011      	movs	r1, r2
 80003d2:	0018      	movs	r0, r3
 80003d4:	f002 fa62 	bl	800289c <HAL_GPIO_Init>

  /*Configure GPIO pin : LED0_Pin */
  GPIO_InitStruct.Pin = LED0_Pin;
 80003d8:	193b      	adds	r3, r7, r4
 80003da:	2240      	movs	r2, #64	@ 0x40
 80003dc:	601a      	str	r2, [r3, #0]
  GPIO_InitStruct.Mode = GPIO_MODE_OUTPUT_PP;
 80003de:	193b      	adds	r3, r7, r4
 80003e0:	2201      	movs	r2, #1
 80003e2:	605a      	str	r2, [r3, #4]
  GPIO_InitStruct.Pull = GPIO_NOPULL;
 80003e4:	193b      	adds	r3, r7, r4
 80003e6:	2200      	movs	r2, #0
 80003e8:	609a      	str	r2, [r3, #8]
  GPIO_InitStruct.Speed = GPIO_SPEED_FREQ_LOW;
 80003ea:	193b      	adds	r3, r7, r4
 80003ec:	2200      	movs	r2, #0
 80003ee:	60da      	str	r2, [r3, #12]
  HAL_GPIO_Init(LED0_GPIO_Port, &GPIO_InitStruct);
 80003f0:	193b      	adds	r3, r7, r4
 80003f2:	4a12      	ldr	r2, [pc, #72]	@ (800043c <MX_GPIO_Init+0x1d0>)
 80003f4:	0019      	movs	r1, r3
 80003f6:	0010      	movs	r0, r2
 80003f8:	f002 fa50 	bl	800289c <HAL_GPIO_Init>

  /*Configure GPIO pin : DS18B20_Pin */
  GPIO_InitStruct.Pin = DS18B20_Pin;
 80003fc:	0021      	movs	r1, r4
 80003fe:	187b      	adds	r3, r7, r1
 8000400:	2280      	movs	r2, #128	@ 0x80
 8000402:	601a      	str	r2, [r3, #0]
  GPIO_InitStruct.Mode = GPIO_MODE_INPUT;
 8000404:	187b      	adds	r3, r7, r1
 8000406:	2200      	movs	r2, #0
 8000408:	605a      	str	r2, [r3, #4]
  GPIO_InitStruct.Pull = GPIO_PULLUP;
 800040a:	187b      	adds	r3, r7, r1
 800040c:	2201      	movs	r2, #1
 800040e:	609a      	str	r2, [r3, #8]
  HAL_GPIO_Init(DS18B20_GPIO_Port, &GPIO_InitStruct);
 8000410:	187b      	adds	r3, r7, r1
 8000412:	4a0a      	ldr	r2, [pc, #40]	@ (800043c <MX_GPIO_Init+0x1d0>)
 8000414:	0019      	movs	r1, r3
 8000416:	0010      	movs	r0, r2
 8000418:	f002 fa40 	bl	800289c <HAL_GPIO_Init>

  /* EXTI interrupt init*/
  HAL_NVIC_SetPriority(EXTI4_15_IRQn, 1, 0);
 800041c:	2200      	movs	r2, #0
 800041e:	2101      	movs	r1, #1
 8000420:	2007      	movs	r0, #7
 8000422:	f002 f885 	bl	8002530 <HAL_NVIC_SetPriority>
  HAL_NVIC_EnableIRQ(EXTI4_15_IRQn);
 8000426:	2007      	movs	r0, #7
 8000428:	f002 f897 	bl	800255a <HAL_NVIC_EnableIRQ>

}
 800042c:	46c0      	nop			@ (mov r8, r8)
 800042e:	46bd      	mov	sp, r7
 8000430:	b009      	add	sp, #36	@ 0x24
 8000432:	bd90      	pop	{r4, r7, pc}
 8000434:	40021000 	.word	0x40021000
 8000438:	48000400 	.word	0x48000400
 800043c:	48001400 	.word	0x48001400

08000440 <MX_IWDG_Init>:

IWDG_HandleTypeDef hiwdg;

/* IWDG init function */
void MX_IWDG_Init(void)
{
 8000440:	b580      	push	{r7, lr}
 8000442:	af00      	add	r7, sp, #0
  /* USER CODE END IWDG_Init 0 */

  /* USER CODE BEGIN IWDG_Init 1 */

  /* USER CODE END IWDG_Init 1 */
  hiwdg.Instance = IWDG;
 8000444:	4b0b      	ldr	r3, [pc, #44]	@ (8000474 <MX_IWDG_Init+0x34>)
 8000446:	4a0c      	ldr	r2, [pc, #48]	@ (8000478 <MX_IWDG_Init+0x38>)
 8000448:	601a      	str	r2, [r3, #0]
  hiwdg.Init.Prescaler = IWDG_PRESCALER_256;
 800044a:	4b0a      	ldr	r3, [pc, #40]	@ (8000474 <MX_IWDG_Init+0x34>)
 800044c:	2206      	movs	r2, #6
 800044e:	605a      	str	r2, [r3, #4]
  hiwdg.Init.Window = 4095;
 8000450:	4b08      	ldr	r3, [pc, #32]	@ (8000474 <MX_IWDG_Init+0x34>)
 8000452:	4a0a      	ldr	r2, [pc, #40]	@ (800047c <MX_IWDG_Init+0x3c>)
 8000454:	60da      	str	r2, [r3, #12]
  hiwdg.Init.Reload = 4095;
 8000456:	4b07      	ldr	r3, [pc, #28]	@ (8000474 <MX_IWDG_Init+0x34>)
 8000458:	4a08      	ldr	r2, [pc, #32]	@ (800047c <MX_IWDG_Init+0x3c>)
 800045a:	609a      	str	r2, [r3, #8]
  if (HAL_IWDG_Init(&hiwdg) != HAL_OK)
 800045c:	4b05      	ldr	r3, [pc, #20]	@ (8000474 <MX_IWDG_Init+0x34>)
 800045e:	0018      	movs	r0, r3
 8000460:	f002 fc08 	bl	8002c74 <HAL_IWDG_Init>
 8000464:	1e03      	subs	r3, r0, #0
 8000466:	d001      	beq.n	800046c <MX_IWDG_Init+0x2c>
  {
    Error_Handler();
 8000468:	f000 f8f1 	bl	800064e <Error_Handler>
  }
  /* USER CODE BEGIN IWDG_Init 2 */

  /* USER CODE END IWDG_Init 2 */

}
 800046c:	46c0      	nop			@ (mov r8, r8)
 800046e:	46bd      	mov	sp, r7
 8000470:	bd80      	pop	{r7, pc}
 8000472:	46c0      	nop			@ (mov r8, r8)
 8000474:	2000002c 	.word	0x2000002c
 8000478:	40003000 	.word	0x40003000
 800047c:	00000fff 	.word	0x00000fff

08000480 <main>:
void SystemClock_Config(void);

/* USER CODE BEGIN 0 */
/* USER CODE END 0 */

int main(void) {
 8000480:	b590      	push	{r4, r7, lr}
 8000482:	b083      	sub	sp, #12
 8000484:	af00      	add	r7, sp, #0
  /* HAL ve sistem saatini baslat */
  HAL_Init();
 8000486:	f001 ff1f 	bl	80022c8 <HAL_Init>
  SystemClock_Config(); // HSI x12 PLL = 48 MHz
 800048a:	f000 f893 	bl	80005b4 <SystemClock_Config>

  /* Cevresel birim (peripheral) baslatma */
  MX_GPIO_Init();       // LED, Si4432 CS/SDN/IRQ pinleri
 800048e:	f7ff feed 	bl	800026c <MX_GPIO_Init>
  MX_DMA_Init();        // DMA kanallari (UART DMA icin)
 8000492:	f7ff fecd 	bl	8000230 <MX_DMA_Init>
  MX_USART1_UART_Init(); // 115200 8N1 — PC ile haberlesme
 8000496:	f001 fe0f 	bl	80020b8 <MX_USART1_UART_Init>
  MX_SPI2_Init();       // Si4432 RF modulu SPI baglantisi
 800049a:	f001 fc7b 	bl	8001d94 <MX_SPI2_Init>
  MX_IWDG_Init();       // Watchdog — kilitlenmeye karsi koruma
 800049e:	f7ff ffcf 	bl	8000440 <MX_IWDG_Init>
  MX_TIM17_Init();      // Timer (kullanilmiyor — ileride rezerve)
 80004a2:	f001 fda3 	bl	8001fec <MX_TIM17_Init>
  MX_TIM16_Init();      // Timer (kullanilmiyor — ileride rezerve)
 80004a6:	f001 fd79 	bl	8001f9c <MX_TIM16_Init>

  /* Si4432 RF modul baslatma */
  SI4432_Init();
 80004aa:	f001 fa99 	bl	80019e0 <SI4432_Init>
  HAL_Delay(10);
 80004ae:	200a      	movs	r0, #10
 80004b0:	f001 ff6e 	bl	8002390 <HAL_Delay>

  /* Device Type Register (0x00) kontrol — 0x08 olmali
   * Bu deger Si4432 icin Silicon Labs'in belirtigi deger.
   * Diger deger: baglanti sorunu veya yanlis cihaz. */
  uint8_t dev = SI4432_ReadReg(0x00);
 80004b4:	1dfc      	adds	r4, r7, #7
 80004b6:	2000      	movs	r0, #0
 80004b8:	f001 fa36 	bl	8001928 <SI4432_ReadReg>
 80004bc:	0003      	movs	r3, r0
 80004be:	7023      	strb	r3, [r4, #0]
  if (dev != 0x08) {
 80004c0:	1dfb      	adds	r3, r7, #7
 80004c2:	781b      	ldrb	r3, [r3, #0]
 80004c4:	2b08      	cmp	r3, #8
 80004c6:	d011      	beq.n	80004ec <main+0x6c>
    Print("\r\n[HATA] Si4432 bulunamadi!\r\n");
 80004c8:	4b30      	ldr	r3, [pc, #192]	@ (800058c <main+0x10c>)
 80004ca:	0018      	movs	r0, r3
 80004cc:	f001 f980 	bl	80017d0 <Print>
    /* Si4432 bulunamadi — LED hizli yanip sonsun, sonsuz dongu */
    while (1) {
      HAL_GPIO_TogglePin(LED0_GPIO_Port, LED0_Pin);
 80004d0:	4b2f      	ldr	r3, [pc, #188]	@ (8000590 <main+0x110>)
 80004d2:	2140      	movs	r1, #64	@ 0x40
 80004d4:	0018      	movs	r0, r3
 80004d6:	f002 fb8b 	bl	8002bf0 <HAL_GPIO_TogglePin>
      HAL_Delay(100);
 80004da:	2064      	movs	r0, #100	@ 0x64
 80004dc:	f001 ff58 	bl	8002390 <HAL_Delay>
      HAL_IWDG_Refresh(&hiwdg);
 80004e0:	4b2c      	ldr	r3, [pc, #176]	@ (8000594 <main+0x114>)
 80004e2:	0018      	movs	r0, r3
 80004e4:	f002 fc18 	bl	8002d18 <HAL_IWDG_Refresh>
      HAL_GPIO_TogglePin(LED0_GPIO_Port, LED0_Pin);
 80004e8:	46c0      	nop			@ (mov r8, r8)
 80004ea:	e7f1      	b.n	80004d0 <main+0x50>
    }
  }

  /* Basarili baslama gostergesi: her iki LED 1 sn yansın */
  HAL_GPIO_WritePin(LED0_GPIO_Port, LED0_Pin, GPIO_PIN_SET);
 80004ec:	4b28      	ldr	r3, [pc, #160]	@ (8000590 <main+0x110>)
 80004ee:	2201      	movs	r2, #1
 80004f0:	2140      	movs	r1, #64	@ 0x40
 80004f2:	0018      	movs	r0, r3
 80004f4:	f002 fb5f 	bl	8002bb6 <HAL_GPIO_WritePin>
  HAL_GPIO_WritePin(LED1_GPIO_Port, LED1_Pin, GPIO_PIN_SET);
 80004f8:	2380      	movs	r3, #128	@ 0x80
 80004fa:	0159      	lsls	r1, r3, #5
 80004fc:	2390      	movs	r3, #144	@ 0x90
 80004fe:	05db      	lsls	r3, r3, #23
 8000500:	2201      	movs	r2, #1
 8000502:	0018      	movs	r0, r3
 8000504:	f002 fb57 	bl	8002bb6 <HAL_GPIO_WritePin>
  HAL_Delay(1000);
 8000508:	23fa      	movs	r3, #250	@ 0xfa
 800050a:	009b      	lsls	r3, r3, #2
 800050c:	0018      	movs	r0, r3
 800050e:	f001 ff3f 	bl	8002390 <HAL_Delay>
  HAL_GPIO_WritePin(LED0_GPIO_Port, LED0_Pin, GPIO_PIN_RESET);
 8000512:	4b1f      	ldr	r3, [pc, #124]	@ (8000590 <main+0x110>)
 8000514:	2200      	movs	r2, #0
 8000516:	2140      	movs	r1, #64	@ 0x40
 8000518:	0018      	movs	r0, r3
 800051a:	f002 fb4c 	bl	8002bb6 <HAL_GPIO_WritePin>
  HAL_GPIO_WritePin(LED1_GPIO_Port, LED1_Pin, GPIO_PIN_RESET);
 800051e:	2380      	movs	r3, #128	@ 0x80
 8000520:	0159      	lsls	r1, r3, #5
 8000522:	2390      	movs	r3, #144	@ 0x90
 8000524:	05db      	lsls	r3, r3, #23
 8000526:	2200      	movs	r2, #0
 8000528:	0018      	movs	r0, r3
 800052a:	f002 fb44 	bl	8002bb6 <HAL_GPIO_WritePin>

  /* Terminal karsilama mesaji */
  Print("\r\n========================================\r\n");
 800052e:	4b1a      	ldr	r3, [pc, #104]	@ (8000598 <main+0x118>)
 8000530:	0018      	movs	r0, r3
 8000532:	f001 f94d 	bl	80017d0 <Print>
  Print(" Si4432 RF Gonderici + FW Update Bridge\r\n");
 8000536:	4b19      	ldr	r3, [pc, #100]	@ (800059c <main+0x11c>)
 8000538:	0018      	movs	r0, r3
 800053a:	f001 f949 	bl	80017d0 <Print>
  Print("========================================\r\n");
 800053e:	4b18      	ldr	r3, [pc, #96]	@ (80005a0 <main+0x120>)
 8000540:	0018      	movs	r0, r3
 8000542:	f001 f945 	bl	80017d0 <Print>
  Print("DEV_TYPE: ");
 8000546:	4b17      	ldr	r3, [pc, #92]	@ (80005a4 <main+0x124>)
 8000548:	0018      	movs	r0, r3
 800054a:	f001 f941 	bl	80017d0 <Print>
  PrintHex(dev); // 0x08 olmali
 800054e:	1dfb      	adds	r3, r7, #7
 8000550:	781b      	ldrb	r3, [r3, #0]
 8000552:	0018      	movs	r0, r3
 8000554:	f001 f95a 	bl	800180c <PrintHex>
  Print("\r\nMesaj yaz + Enter (normal mod)\r\n");
 8000558:	4b13      	ldr	r3, [pc, #76]	@ (80005a8 <main+0x128>)
 800055a:	0018      	movs	r0, r3
 800055c:	f001 f938 	bl	80017d0 <Print>
  Print("'W' gondererek FW update modu baslatilir\r\n\r\n");
 8000560:	4b12      	ldr	r3, [pc, #72]	@ (80005ac <main+0x12c>)
 8000562:	0018      	movs	r0, r3
 8000564:	f001 f934 	bl	80017d0 <Print>

  /* Ana dongu */
  while (1) {
    HAL_IWDG_Refresh(&hiwdg); // Watchdog'u her donguде sifirla
 8000568:	4b0a      	ldr	r3, [pc, #40]	@ (8000594 <main+0x114>)
 800056a:	0018      	movs	r0, r3
 800056c:	f002 fbd4 	bl	8002d18 <HAL_IWDG_Refresh>

    /* 50 ms bekleme ile bir UART karakteri al.
     * Timeout ile dongu bloke olmaz — watchdog calismaya devam eder. */
    uint8_t ch;
    if (HAL_UART_Receive(&huart1, &ch, 1, 50) == HAL_OK) {
 8000570:	1db9      	adds	r1, r7, #6
 8000572:	480f      	ldr	r0, [pc, #60]	@ (80005b0 <main+0x130>)
 8000574:	2332      	movs	r3, #50	@ 0x32
 8000576:	2201      	movs	r2, #1
 8000578:	f004 fa4a 	bl	8004a10 <HAL_UART_Receive>
 800057c:	1e03      	subs	r3, r0, #0
 800057e:	d1f3      	bne.n	8000568 <main+0xe8>
      HandleNormalModeByte(ch); // sender_normal_mode.c — karakteri isle
 8000580:	1dbb      	adds	r3, r7, #6
 8000582:	781b      	ldrb	r3, [r3, #0]
 8000584:	0018      	movs	r0, r3
 8000586:	f000 fe6b 	bl	8001260 <HandleNormalModeByte>
  while (1) {
 800058a:	e7ed      	b.n	8000568 <main+0xe8>
 800058c:	08005984 	.word	0x08005984
 8000590:	48001400 	.word	0x48001400
 8000594:	2000002c 	.word	0x2000002c
 8000598:	080059a4 	.word	0x080059a4
 800059c:	080059d4 	.word	0x080059d4
 80005a0:	08005a00 	.word	0x08005a00
 80005a4:	08005a2c 	.word	0x08005a2c
 80005a8:	08005a38 	.word	0x08005a38
 80005ac:	08005a5c 	.word	0x08005a5c
 80005b0:	2000022c 	.word	0x2000022c

080005b4 <SystemClock_Config>:
 *
 * HSI (8 MHz dahili osilatör) → PLL x12 → SYSCLK = 48 MHz
 * HCLK = SYSCLK = 48 MHz, APB1 = HCLK / 1 = 48 MHz
 * LSI: IWDG icin kullanilir
 */
void SystemClock_Config(void) {
 80005b4:	b590      	push	{r4, r7, lr}
 80005b6:	b091      	sub	sp, #68	@ 0x44
 80005b8:	af00      	add	r7, sp, #0
  RCC_OscInitTypeDef RCC_OscInitStruct = {0};
 80005ba:	2410      	movs	r4, #16
 80005bc:	193b      	adds	r3, r7, r4
 80005be:	0018      	movs	r0, r3
 80005c0:	2330      	movs	r3, #48	@ 0x30
 80005c2:	001a      	movs	r2, r3
 80005c4:	2100      	movs	r1, #0
 80005c6:	f005 f99b 	bl	8005900 <memset>
  RCC_ClkInitTypeDef RCC_ClkInitStruct = {0};
 80005ca:	003b      	movs	r3, r7
 80005cc:	0018      	movs	r0, r3
 80005ce:	2310      	movs	r3, #16
 80005d0:	001a      	movs	r2, r3
 80005d2:	2100      	movs	r1, #0
 80005d4:	f005 f994 	bl	8005900 <memset>

  RCC_OscInitStruct.OscillatorType =
 80005d8:	0021      	movs	r1, r4
 80005da:	187b      	adds	r3, r7, r1
 80005dc:	220a      	movs	r2, #10
 80005de:	601a      	str	r2, [r3, #0]
      RCC_OSCILLATORTYPE_HSI | RCC_OSCILLATORTYPE_LSI;
  RCC_OscInitStruct.HSIState = RCC_HSI_ON;
 80005e0:	187b      	adds	r3, r7, r1
 80005e2:	2201      	movs	r2, #1
 80005e4:	60da      	str	r2, [r3, #12]
  RCC_OscInitStruct.HSICalibrationValue = RCC_HSICALIBRATION_DEFAULT;
 80005e6:	187b      	adds	r3, r7, r1
 80005e8:	2210      	movs	r2, #16
 80005ea:	611a      	str	r2, [r3, #16]
  RCC_OscInitStruct.LSIState = RCC_LSI_ON;
 80005ec:	187b      	adds	r3, r7, r1
 80005ee:	2201      	movs	r2, #1
 80005f0:	61da      	str	r2, [r3, #28]
  RCC_OscInitStruct.PLL.PLLState = RCC_PLL_ON;
 80005f2:	187b      	adds	r3, r7, r1
 80005f4:	2202      	movs	r2, #2
 80005f6:	621a      	str	r2, [r3, #32]
  RCC_OscInitStruct.PLL.PLLSource = RCC_PLLSOURCE_HSI;
 80005f8:	187b      	adds	r3, r7, r1
 80005fa:	2200      	movs	r2, #0
 80005fc:	625a      	str	r2, [r3, #36]	@ 0x24
  RCC_OscInitStruct.PLL.PLLMUL = RCC_PLL_MUL12;
 80005fe:	187b      	adds	r3, r7, r1
 8000600:	22a0      	movs	r2, #160	@ 0xa0
 8000602:	0392      	lsls	r2, r2, #14
 8000604:	629a      	str	r2, [r3, #40]	@ 0x28
  RCC_OscInitStruct.PLL.PREDIV = RCC_PREDIV_DIV1;
 8000606:	187b      	adds	r3, r7, r1
 8000608:	2200      	movs	r2, #0
 800060a:	62da      	str	r2, [r3, #44]	@ 0x2c
  if (HAL_RCC_OscConfig(&RCC_OscInitStruct) != HAL_OK)
 800060c:	187b      	adds	r3, r7, r1
 800060e:	0018      	movs	r0, r3
 8000610:	f002 fb92 	bl	8002d38 <HAL_RCC_OscConfig>
 8000614:	1e03      	subs	r3, r0, #0
 8000616:	d001      	beq.n	800061c <SystemClock_Config+0x68>
    Error_Handler();
 8000618:	f000 f819 	bl	800064e <Error_Handler>

  RCC_ClkInitStruct.ClockType =
 800061c:	003b      	movs	r3, r7
 800061e:	2207      	movs	r2, #7
 8000620:	601a      	str	r2, [r3, #0]
      RCC_CLOCKTYPE_HCLK | RCC_CLOCKTYPE_SYSCLK | RCC_CLOCKTYPE_PCLK1;
  RCC_ClkInitStruct.SYSCLKSource = RCC_SYSCLKSOURCE_PLLCLK;
 8000622:	003b      	movs	r3, r7
 8000624:	2202      	movs	r2, #2
 8000626:	605a      	str	r2, [r3, #4]
  RCC_ClkInitStruct.AHBCLKDivider = RCC_SYSCLK_DIV1;
 8000628:	003b      	movs	r3, r7
 800062a:	2200      	movs	r2, #0
 800062c:	609a      	str	r2, [r3, #8]
  RCC_ClkInitStruct.APB1CLKDivider = RCC_HCLK_DIV1;
 800062e:	003b      	movs	r3, r7
 8000630:	2200      	movs	r2, #0
 8000632:	60da      	str	r2, [r3, #12]
  if (HAL_RCC_ClockConfig(&RCC_ClkInitStruct, FLASH_LATENCY_1) != HAL_OK)
 8000634:	003b      	movs	r3, r7
 8000636:	2101      	movs	r1, #1
 8000638:	0018      	movs	r0, r3
 800063a:	f002 fe97 	bl	800336c <HAL_RCC_ClockConfig>
 800063e:	1e03      	subs	r3, r0, #0
 8000640:	d001      	beq.n	8000646 <SystemClock_Config+0x92>
    Error_Handler();
 8000642:	f000 f804 	bl	800064e <Error_Handler>
}
 8000646:	46c0      	nop			@ (mov r8, r8)
 8000648:	46bd      	mov	sp, r7
 800064a:	b011      	add	sp, #68	@ 0x44
 800064c:	bd90      	pop	{r4, r7, pc}

0800064e <Error_Handler>:

void Error_Handler(void) {
 800064e:	b580      	push	{r7, lr}
 8000650:	af00      	add	r7, sp, #0
  \details Disables IRQ interrupts by setting the I-bit in the CPSR.
           Can only be executed in Privileged modes.
 */
__STATIC_FORCEINLINE void __disable_irq(void)
{
  __ASM volatile ("cpsid i" : : : "memory");
 8000652:	b672      	cpsid	i
}
 8000654:	46c0      	nop			@ (mov r8, r8)
  __disable_irq();
  while (1) {
 8000656:	46c0      	nop			@ (mov r8, r8)
 8000658:	e7fd      	b.n	8000656 <Error_Handler+0x8>
	...

0800065c <FirmwareUpdate_Mode>:
#include "sender_state.h"
#include "sender_uart_debug.h"
#include "usart.h"
#include <string.h>

void FirmwareUpdate_Mode(void) {
 800065c:	b5f0      	push	{r4, r5, r6, r7, lr}
 800065e:	b0c5      	sub	sp, #276	@ 0x114
 8000660:	af02      	add	r7, sp, #8
  uint8_t ack = UART_ACK;   // PC'ye başarı bildirimi (0x06)
 8000662:	23bb      	movs	r3, #187	@ 0xbb
 8000664:	18fb      	adds	r3, r7, r3
 8000666:	2206      	movs	r2, #6
 8000668:	701a      	strb	r2, [r3, #0]
  uint8_t nack = UART_NACK; // PC'ye hata bildirimi (0x15)
 800066a:	23ba      	movs	r3, #186	@ 0xba
 800066c:	18fb      	adds	r3, r7, r3
 800066e:	2215      	movs	r2, #21
 8000670:	701a      	strb	r2, [r3, #0]
  uint8_t rx_type, rx_pld[RF_MAX_DATA];
  uint16_t rx_seq;
  uint8_t rx_pld_len;

  /* Kaldigi yerden devam noktasi: alici BOOT_ACK payload'inda bildirir. */
  uint32_t resume_start_packet = 0;
 8000672:	2300      	movs	r3, #0
 8000674:	1d7a      	adds	r2, r7, #5
 8000676:	32ff      	adds	r2, #255	@ 0xff
 8000678:	6013      	str	r3, [r2, #0]

  /* Toplam paket sayisi — metadata'dan okunduktan sonra doldurulur. */
  uint32_t total_fw_packets = 0;
 800067a:	2300      	movs	r3, #0
 800067c:	22d4      	movs	r2, #212	@ 0xd4
 800067e:	18ba      	adds	r2, r7, r2
 8000680:	6013      	str	r3, [r2, #0]

  /* FW update sırasında debug print'i kapat — UART meşgul olacak */
  SenderDebug_SetEnabled(0);
 8000682:	2000      	movs	r0, #0
 8000684:	f001 f894 	bl	80017b0 <SenderDebug_SetEnabled>

  HAL_GPIO_WritePin(LED0_GPIO_Port, LED0_Pin, GPIO_PIN_SET); // LED0 yak: FW update aktif
 8000688:	4bb8      	ldr	r3, [pc, #736]	@ (800096c <FirmwareUpdate_Mode+0x310>)
 800068a:	2201      	movs	r2, #1
 800068c:	2140      	movs	r1, #64	@ 0x40
 800068e:	0018      	movs	r0, r3
 8000690:	f002 fa91 	bl	8002bb6 <HAL_GPIO_WritePin>

  /* ===================================================================
   * ADIM 0: KİMLİK DOĞRULAMA (NONCE CHALLENGE-RESPONSE)
   * =================================================================== */
  Print("[FW] Auth baslatiliyor...\r\n");
 8000694:	4bb6      	ldr	r3, [pc, #728]	@ (8000970 <FirmwareUpdate_Mode+0x314>)
 8000696:	0018      	movs	r0, r3
 8000698:	f001 f89a 	bl	80017d0 <Print>

  {
    uint8_t  auth_pkt[52]; /* PC'den: IV(16)+Encrypted(32)+CRC32(4) */
    uint8_t  nonce_buf[4];
    uint8_t  challenge_got = 0;
 800069c:	1d3b      	adds	r3, r7, #4
 800069e:	33ff      	adds	r3, #255	@ 0xff
 80006a0:	2200      	movs	r2, #0
 80006a2:	701a      	strb	r2, [r3, #0]
    uint32_t auth_start = HAL_GetTick();
 80006a4:	f001 fe6a 	bl	800237c <HAL_GetTick>
 80006a8:	0003      	movs	r3, r0
 80006aa:	22d0      	movs	r2, #208	@ 0xd0
 80006ac:	18ba      	adds	r2, r7, r2
 80006ae:	6013      	str	r3, [r2, #0]

    /* AUTH_REQUEST gonder, AUTH_CHALLENGE (nonce) gelene kadar bekle */
    while (!challenge_got && (HAL_GetTick() - auth_start) < 15000) {
 80006b0:	e02c      	b.n	800070c <FirmwareUpdate_Mode+0xb0>
      HAL_IWDG_Refresh(&hiwdg);
 80006b2:	4bb0      	ldr	r3, [pc, #704]	@ (8000974 <FirmwareUpdate_Mode+0x318>)
 80006b4:	0018      	movs	r0, r3
 80006b6:	f002 fb2f 	bl	8002d18 <HAL_IWDG_Refresh>
      RF_SendPacket(RF_CMD_AUTH_REQUEST, rf_seq_counter, NULL, 0);
 80006ba:	4baf      	ldr	r3, [pc, #700]	@ (8000978 <FirmwareUpdate_Mode+0x31c>)
 80006bc:	8819      	ldrh	r1, [r3, #0]
 80006be:	2300      	movs	r3, #0
 80006c0:	2200      	movs	r2, #0
 80006c2:	2014      	movs	r0, #20
 80006c4:	f000 ff6e 	bl	80015a4 <RF_SendPacket>

      if (RF_WaitForPacket(&rx_type, &rx_seq, rx_pld, &rx_pld_len, 2000)) {
 80006c8:	2581      	movs	r5, #129	@ 0x81
 80006ca:	197c      	adds	r4, r7, r5
 80006cc:	2684      	movs	r6, #132	@ 0x84
 80006ce:	19ba      	adds	r2, r7, r6
 80006d0:	2382      	movs	r3, #130	@ 0x82
 80006d2:	18f9      	adds	r1, r7, r3
 80006d4:	23b9      	movs	r3, #185	@ 0xb9
 80006d6:	18f8      	adds	r0, r7, r3
 80006d8:	23fa      	movs	r3, #250	@ 0xfa
 80006da:	00db      	lsls	r3, r3, #3
 80006dc:	9300      	str	r3, [sp, #0]
 80006de:	0023      	movs	r3, r4
 80006e0:	f000 ffb2 	bl	8001648 <RF_WaitForPacket>
 80006e4:	1e03      	subs	r3, r0, #0
 80006e6:	d011      	beq.n	800070c <FirmwareUpdate_Mode+0xb0>
        if (rx_type == RF_CMD_AUTH_CHALLENGE && rx_pld_len >= 4) {
 80006e8:	23b9      	movs	r3, #185	@ 0xb9
 80006ea:	18fb      	adds	r3, r7, r3
 80006ec:	781b      	ldrb	r3, [r3, #0]
 80006ee:	2b15      	cmp	r3, #21
 80006f0:	d10c      	bne.n	800070c <FirmwareUpdate_Mode+0xb0>
 80006f2:	197b      	adds	r3, r7, r5
 80006f4:	781b      	ldrb	r3, [r3, #0]
 80006f6:	2b03      	cmp	r3, #3
 80006f8:	d908      	bls.n	800070c <FirmwareUpdate_Mode+0xb0>
          memcpy(nonce_buf, rx_pld, 4);
 80006fa:	2370      	movs	r3, #112	@ 0x70
 80006fc:	18fb      	adds	r3, r7, r3
 80006fe:	19ba      	adds	r2, r7, r6
 8000700:	6812      	ldr	r2, [r2, #0]
 8000702:	601a      	str	r2, [r3, #0]
          challenge_got = 1;
 8000704:	1d3b      	adds	r3, r7, #4
 8000706:	33ff      	adds	r3, #255	@ 0xff
 8000708:	2201      	movs	r2, #1
 800070a:	701a      	strb	r2, [r3, #0]
    while (!challenge_got && (HAL_GetTick() - auth_start) < 15000) {
 800070c:	1d3b      	adds	r3, r7, #4
 800070e:	33ff      	adds	r3, #255	@ 0xff
 8000710:	781b      	ldrb	r3, [r3, #0]
 8000712:	2b00      	cmp	r3, #0
 8000714:	d109      	bne.n	800072a <FirmwareUpdate_Mode+0xce>
 8000716:	f001 fe31 	bl	800237c <HAL_GetTick>
 800071a:	0002      	movs	r2, r0
 800071c:	23d0      	movs	r3, #208	@ 0xd0
 800071e:	18fb      	adds	r3, r7, r3
 8000720:	681b      	ldr	r3, [r3, #0]
 8000722:	1ad3      	subs	r3, r2, r3
 8000724:	4a95      	ldr	r2, [pc, #596]	@ (800097c <FirmwareUpdate_Mode+0x320>)
 8000726:	4293      	cmp	r3, r2
 8000728:	d9c3      	bls.n	80006b2 <FirmwareUpdate_Mode+0x56>
        }
      }
    }

    if (!challenge_got) {
 800072a:	1d3b      	adds	r3, r7, #4
 800072c:	33ff      	adds	r3, #255	@ 0xff
 800072e:	781b      	ldrb	r3, [r3, #0]
 8000730:	2b00      	cmp	r3, #0
 8000732:	d10c      	bne.n	800074e <FirmwareUpdate_Mode+0xf2>
      Print("[FW] HATA: Auth challenge alinamadi!\r\n");
 8000734:	4b92      	ldr	r3, [pc, #584]	@ (8000980 <FirmwareUpdate_Mode+0x324>)
 8000736:	0018      	movs	r0, r3
 8000738:	f001 f84a 	bl	80017d0 <Print>
      HAL_UART_Transmit(&huart1, &nack, 1, 100);
 800073c:	23ba      	movs	r3, #186	@ 0xba
 800073e:	18f9      	adds	r1, r7, r3
 8000740:	4890      	ldr	r0, [pc, #576]	@ (8000984 <FirmwareUpdate_Mode+0x328>)
 8000742:	2364      	movs	r3, #100	@ 0x64
 8000744:	2201      	movs	r2, #1
 8000746:	f004 f8c3 	bl	80048d0 <HAL_UART_Transmit>
      goto fw_update_cleanup;
 800074a:	f000 fd64 	bl	8001216 <FirmwareUpdate_Mode+0xbba>
    }

    /* PC'ye once ACK gonder ('W' komutuna cevap), sonra nonce'u gonder */
    HAL_UART_Transmit(&huart1, &ack, 1, 100);
 800074e:	23bb      	movs	r3, #187	@ 0xbb
 8000750:	18f9      	adds	r1, r7, r3
 8000752:	488c      	ldr	r0, [pc, #560]	@ (8000984 <FirmwareUpdate_Mode+0x328>)
 8000754:	2364      	movs	r3, #100	@ 0x64
 8000756:	2201      	movs	r2, #1
 8000758:	f004 f8ba 	bl	80048d0 <HAL_UART_Transmit>
    /* Nonce'u (4 byte) PC'ye gonder — PC auth paketini olusturacak */
    HAL_UART_Transmit(&huart1, nonce_buf, 4, 500);
 800075c:	23fa      	movs	r3, #250	@ 0xfa
 800075e:	005b      	lsls	r3, r3, #1
 8000760:	2270      	movs	r2, #112	@ 0x70
 8000762:	18b9      	adds	r1, r7, r2
 8000764:	4887      	ldr	r0, [pc, #540]	@ (8000984 <FirmwareUpdate_Mode+0x328>)
 8000766:	2204      	movs	r2, #4
 8000768:	f004 f8b2 	bl	80048d0 <HAL_UART_Transmit>

    /* PC'den 52-byte auth paketi bekle */
    if (HAL_UART_Receive(&huart1, auth_pkt, 52, 15000) != HAL_OK) {
 800076c:	4b86      	ldr	r3, [pc, #536]	@ (8000988 <FirmwareUpdate_Mode+0x32c>)
 800076e:	2228      	movs	r2, #40	@ 0x28
 8000770:	18b9      	adds	r1, r7, r2
 8000772:	4884      	ldr	r0, [pc, #528]	@ (8000984 <FirmwareUpdate_Mode+0x328>)
 8000774:	2234      	movs	r2, #52	@ 0x34
 8000776:	f004 f94b 	bl	8004a10 <HAL_UART_Receive>
 800077a:	1e03      	subs	r3, r0, #0
 800077c:	d00c      	beq.n	8000798 <FirmwareUpdate_Mode+0x13c>
      Print("[FW] HATA: Auth paketi alinamadi!\r\n");
 800077e:	4b83      	ldr	r3, [pc, #524]	@ (800098c <FirmwareUpdate_Mode+0x330>)
 8000780:	0018      	movs	r0, r3
 8000782:	f001 f825 	bl	80017d0 <Print>
      HAL_UART_Transmit(&huart1, &nack, 1, 100);
 8000786:	23ba      	movs	r3, #186	@ 0xba
 8000788:	18f9      	adds	r1, r7, r3
 800078a:	487e      	ldr	r0, [pc, #504]	@ (8000984 <FirmwareUpdate_Mode+0x328>)
 800078c:	2364      	movs	r3, #100	@ 0x64
 800078e:	2201      	movs	r2, #1
 8000790:	f004 f89e 	bl	80048d0 <HAL_UART_Transmit>
      goto fw_update_cleanup;
 8000794:	f000 fd3f 	bl	8001216 <FirmwareUpdate_Mode+0xbba>
    }

    /* CRC dogrula (CRC-32/ISO-HDLC: auth_pkt[0..47] icin) */
    uint32_t recv_crc, calc_crc;
    memcpy(&recv_crc, &auth_pkt[48], 4);
 8000798:	2328      	movs	r3, #40	@ 0x28
 800079a:	18fb      	adds	r3, r7, r3
 800079c:	3330      	adds	r3, #48	@ 0x30
 800079e:	0019      	movs	r1, r3
 80007a0:	236c      	movs	r3, #108	@ 0x6c
 80007a2:	18fb      	adds	r3, r7, r3
 80007a4:	2204      	movs	r2, #4
 80007a6:	0018      	movs	r0, r3
 80007a8:	f005 f8d6 	bl	8005958 <memcpy>
    calc_crc = 0xFFFFFFFF;
 80007ac:	2301      	movs	r3, #1
 80007ae:	425b      	negs	r3, r3
 80007b0:	22fc      	movs	r2, #252	@ 0xfc
 80007b2:	18ba      	adds	r2, r7, r2
 80007b4:	6013      	str	r3, [r2, #0]
    for (int ci = 0; ci < 48; ci++) {
 80007b6:	2300      	movs	r3, #0
 80007b8:	22f8      	movs	r2, #248	@ 0xf8
 80007ba:	18ba      	adds	r2, r7, r2
 80007bc:	6013      	str	r3, [r2, #0]
 80007be:	e037      	b.n	8000830 <FirmwareUpdate_Mode+0x1d4>
      calc_crc ^= (uint32_t)auth_pkt[ci];
 80007c0:	2328      	movs	r3, #40	@ 0x28
 80007c2:	18fa      	adds	r2, r7, r3
 80007c4:	23f8      	movs	r3, #248	@ 0xf8
 80007c6:	18fb      	adds	r3, r7, r3
 80007c8:	681b      	ldr	r3, [r3, #0]
 80007ca:	18d3      	adds	r3, r2, r3
 80007cc:	781b      	ldrb	r3, [r3, #0]
 80007ce:	001a      	movs	r2, r3
 80007d0:	21fc      	movs	r1, #252	@ 0xfc
 80007d2:	187b      	adds	r3, r7, r1
 80007d4:	681b      	ldr	r3, [r3, #0]
 80007d6:	4053      	eors	r3, r2
 80007d8:	187a      	adds	r2, r7, r1
 80007da:	6013      	str	r3, [r2, #0]
      for (int b = 0; b < 8; b++) {
 80007dc:	2300      	movs	r3, #0
 80007de:	22f4      	movs	r2, #244	@ 0xf4
 80007e0:	18ba      	adds	r2, r7, r2
 80007e2:	6013      	str	r3, [r2, #0]
 80007e4:	e019      	b.n	800081a <FirmwareUpdate_Mode+0x1be>
        if (calc_crc & 1) calc_crc = (calc_crc >> 1) ^ 0xEDB88320U;
 80007e6:	21fc      	movs	r1, #252	@ 0xfc
 80007e8:	187b      	adds	r3, r7, r1
 80007ea:	681b      	ldr	r3, [r3, #0]
 80007ec:	2201      	movs	r2, #1
 80007ee:	4013      	ands	r3, r2
 80007f0:	d007      	beq.n	8000802 <FirmwareUpdate_Mode+0x1a6>
 80007f2:	187b      	adds	r3, r7, r1
 80007f4:	681b      	ldr	r3, [r3, #0]
 80007f6:	085b      	lsrs	r3, r3, #1
 80007f8:	4a65      	ldr	r2, [pc, #404]	@ (8000990 <FirmwareUpdate_Mode+0x334>)
 80007fa:	4053      	eors	r3, r2
 80007fc:	187a      	adds	r2, r7, r1
 80007fe:	6013      	str	r3, [r2, #0]
 8000800:	e005      	b.n	800080e <FirmwareUpdate_Mode+0x1b2>
        else              calc_crc >>= 1;
 8000802:	22fc      	movs	r2, #252	@ 0xfc
 8000804:	18bb      	adds	r3, r7, r2
 8000806:	681b      	ldr	r3, [r3, #0]
 8000808:	085b      	lsrs	r3, r3, #1
 800080a:	18ba      	adds	r2, r7, r2
 800080c:	6013      	str	r3, [r2, #0]
      for (int b = 0; b < 8; b++) {
 800080e:	22f4      	movs	r2, #244	@ 0xf4
 8000810:	18bb      	adds	r3, r7, r2
 8000812:	681b      	ldr	r3, [r3, #0]
 8000814:	3301      	adds	r3, #1
 8000816:	18ba      	adds	r2, r7, r2
 8000818:	6013      	str	r3, [r2, #0]
 800081a:	23f4      	movs	r3, #244	@ 0xf4
 800081c:	18fb      	adds	r3, r7, r3
 800081e:	681b      	ldr	r3, [r3, #0]
 8000820:	2b07      	cmp	r3, #7
 8000822:	dde0      	ble.n	80007e6 <FirmwareUpdate_Mode+0x18a>
    for (int ci = 0; ci < 48; ci++) {
 8000824:	22f8      	movs	r2, #248	@ 0xf8
 8000826:	18bb      	adds	r3, r7, r2
 8000828:	681b      	ldr	r3, [r3, #0]
 800082a:	3301      	adds	r3, #1
 800082c:	18ba      	adds	r2, r7, r2
 800082e:	6013      	str	r3, [r2, #0]
 8000830:	23f8      	movs	r3, #248	@ 0xf8
 8000832:	18fb      	adds	r3, r7, r3
 8000834:	681b      	ldr	r3, [r3, #0]
 8000836:	2b2f      	cmp	r3, #47	@ 0x2f
 8000838:	ddc2      	ble.n	80007c0 <FirmwareUpdate_Mode+0x164>
      }
    }
    calc_crc ^= 0xFFFFFFFF;
 800083a:	22fc      	movs	r2, #252	@ 0xfc
 800083c:	18bb      	adds	r3, r7, r2
 800083e:	681b      	ldr	r3, [r3, #0]
 8000840:	43db      	mvns	r3, r3
 8000842:	18b9      	adds	r1, r7, r2
 8000844:	600b      	str	r3, [r1, #0]

    if (calc_crc != recv_crc) {
 8000846:	6efb      	ldr	r3, [r7, #108]	@ 0x6c
 8000848:	18ba      	adds	r2, r7, r2
 800084a:	6812      	ldr	r2, [r2, #0]
 800084c:	429a      	cmp	r2, r3
 800084e:	d00c      	beq.n	800086a <FirmwareUpdate_Mode+0x20e>
      Print("[FW] HATA: Auth CRC gecersiz!\r\n");
 8000850:	4b50      	ldr	r3, [pc, #320]	@ (8000994 <FirmwareUpdate_Mode+0x338>)
 8000852:	0018      	movs	r0, r3
 8000854:	f000 ffbc 	bl	80017d0 <Print>
      HAL_UART_Transmit(&huart1, &nack, 1, 100);
 8000858:	23ba      	movs	r3, #186	@ 0xba
 800085a:	18f9      	adds	r1, r7, r3
 800085c:	4849      	ldr	r0, [pc, #292]	@ (8000984 <FirmwareUpdate_Mode+0x328>)
 800085e:	2364      	movs	r3, #100	@ 0x64
 8000860:	2201      	movs	r2, #1
 8000862:	f004 f835 	bl	80048d0 <HAL_UART_Transmit>
      goto fw_update_cleanup;
 8000866:	f000 fcd6 	bl	8001216 <FirmwareUpdate_Mode+0xbba>
    }

    /* RF_CMD_AUTH gonder: IV(16)+Encrypted(32) = 48 byte */
    uint8_t auth_ok = 0;
 800086a:	23f3      	movs	r3, #243	@ 0xf3
 800086c:	18fb      	adds	r3, r7, r3
 800086e:	2200      	movs	r2, #0
 8000870:	701a      	strb	r2, [r3, #0]
    for (uint8_t retry = 0; retry < 5 && !auth_ok; retry++) {
 8000872:	23f2      	movs	r3, #242	@ 0xf2
 8000874:	18fb      	adds	r3, r7, r3
 8000876:	2200      	movs	r2, #0
 8000878:	701a      	strb	r2, [r3, #0]
 800087a:	e03a      	b.n	80008f2 <FirmwareUpdate_Mode+0x296>
      RF_SendPacket(RF_CMD_AUTH, rf_seq_counter, auth_pkt, 48);
 800087c:	4b3e      	ldr	r3, [pc, #248]	@ (8000978 <FirmwareUpdate_Mode+0x31c>)
 800087e:	8819      	ldrh	r1, [r3, #0]
 8000880:	2328      	movs	r3, #40	@ 0x28
 8000882:	18fa      	adds	r2, r7, r3
 8000884:	2330      	movs	r3, #48	@ 0x30
 8000886:	2016      	movs	r0, #22
 8000888:	f000 fe8c 	bl	80015a4 <RF_SendPacket>

      if (RF_WaitForPacket(&rx_type, &rx_seq, rx_pld, &rx_pld_len, 5000)) {
 800088c:	2381      	movs	r3, #129	@ 0x81
 800088e:	18fb      	adds	r3, r7, r3
 8000890:	2284      	movs	r2, #132	@ 0x84
 8000892:	18ba      	adds	r2, r7, r2
 8000894:	2182      	movs	r1, #130	@ 0x82
 8000896:	1879      	adds	r1, r7, r1
 8000898:	25b9      	movs	r5, #185	@ 0xb9
 800089a:	1978      	adds	r0, r7, r5
 800089c:	4c3e      	ldr	r4, [pc, #248]	@ (8000998 <FirmwareUpdate_Mode+0x33c>)
 800089e:	9400      	str	r4, [sp, #0]
 80008a0:	f000 fed2 	bl	8001648 <RF_WaitForPacket>
 80008a4:	1e03      	subs	r3, r0, #0
 80008a6:	d01a      	beq.n	80008de <FirmwareUpdate_Mode+0x282>
        if (rx_type == RF_CMD_AUTH_ACK) {
 80008a8:	197b      	adds	r3, r7, r5
 80008aa:	781b      	ldrb	r3, [r3, #0]
 80008ac:	2b17      	cmp	r3, #23
 80008ae:	d104      	bne.n	80008ba <FirmwareUpdate_Mode+0x25e>
          auth_ok = 1;
 80008b0:	23f3      	movs	r3, #243	@ 0xf3
 80008b2:	18fb      	adds	r3, r7, r3
 80008b4:	2201      	movs	r2, #1
 80008b6:	701a      	strb	r2, [r3, #0]
 80008b8:	e011      	b.n	80008de <FirmwareUpdate_Mode+0x282>
        } else if (rx_type == RF_CMD_AUTH_NACK) {
 80008ba:	23b9      	movs	r3, #185	@ 0xb9
 80008bc:	18fb      	adds	r3, r7, r3
 80008be:	781b      	ldrb	r3, [r3, #0]
 80008c0:	2b18      	cmp	r3, #24
 80008c2:	d10c      	bne.n	80008de <FirmwareUpdate_Mode+0x282>
          Print("[FW] HATA: Alici auth reddetti!\r\n");
 80008c4:	4b35      	ldr	r3, [pc, #212]	@ (800099c <FirmwareUpdate_Mode+0x340>)
 80008c6:	0018      	movs	r0, r3
 80008c8:	f000 ff82 	bl	80017d0 <Print>
          HAL_UART_Transmit(&huart1, &nack, 1, 100);
 80008cc:	23ba      	movs	r3, #186	@ 0xba
 80008ce:	18f9      	adds	r1, r7, r3
 80008d0:	482c      	ldr	r0, [pc, #176]	@ (8000984 <FirmwareUpdate_Mode+0x328>)
 80008d2:	2364      	movs	r3, #100	@ 0x64
 80008d4:	2201      	movs	r2, #1
 80008d6:	f003 fffb 	bl	80048d0 <HAL_UART_Transmit>
          goto fw_update_cleanup;
 80008da:	f000 fc9c 	bl	8001216 <FirmwareUpdate_Mode+0xbba>
        }
      }
      HAL_IWDG_Refresh(&hiwdg);
 80008de:	4b25      	ldr	r3, [pc, #148]	@ (8000974 <FirmwareUpdate_Mode+0x318>)
 80008e0:	0018      	movs	r0, r3
 80008e2:	f002 fa19 	bl	8002d18 <HAL_IWDG_Refresh>
    for (uint8_t retry = 0; retry < 5 && !auth_ok; retry++) {
 80008e6:	21f2      	movs	r1, #242	@ 0xf2
 80008e8:	187b      	adds	r3, r7, r1
 80008ea:	781a      	ldrb	r2, [r3, #0]
 80008ec:	187b      	adds	r3, r7, r1
 80008ee:	3201      	adds	r2, #1
 80008f0:	701a      	strb	r2, [r3, #0]
 80008f2:	23f2      	movs	r3, #242	@ 0xf2
 80008f4:	18fb      	adds	r3, r7, r3
 80008f6:	781b      	ldrb	r3, [r3, #0]
 80008f8:	2b04      	cmp	r3, #4
 80008fa:	d804      	bhi.n	8000906 <FirmwareUpdate_Mode+0x2aa>
 80008fc:	23f3      	movs	r3, #243	@ 0xf3
 80008fe:	18fb      	adds	r3, r7, r3
 8000900:	781b      	ldrb	r3, [r3, #0]
 8000902:	2b00      	cmp	r3, #0
 8000904:	d0ba      	beq.n	800087c <FirmwareUpdate_Mode+0x220>
    }
    rf_seq_counter++;
 8000906:	4b1c      	ldr	r3, [pc, #112]	@ (8000978 <FirmwareUpdate_Mode+0x31c>)
 8000908:	881b      	ldrh	r3, [r3, #0]
 800090a:	3301      	adds	r3, #1
 800090c:	b29a      	uxth	r2, r3
 800090e:	4b1a      	ldr	r3, [pc, #104]	@ (8000978 <FirmwareUpdate_Mode+0x31c>)
 8000910:	801a      	strh	r2, [r3, #0]

    if (!auth_ok) {
 8000912:	23f3      	movs	r3, #243	@ 0xf3
 8000914:	18fb      	adds	r3, r7, r3
 8000916:	781b      	ldrb	r3, [r3, #0]
 8000918:	2b00      	cmp	r3, #0
 800091a:	d10c      	bne.n	8000936 <FirmwareUpdate_Mode+0x2da>
      Print("[FW] HATA: Auth ACK alinamadi!\r\n");
 800091c:	4b20      	ldr	r3, [pc, #128]	@ (80009a0 <FirmwareUpdate_Mode+0x344>)
 800091e:	0018      	movs	r0, r3
 8000920:	f000 ff56 	bl	80017d0 <Print>
      HAL_UART_Transmit(&huart1, &nack, 1, 100);
 8000924:	23ba      	movs	r3, #186	@ 0xba
 8000926:	18f9      	adds	r1, r7, r3
 8000928:	4816      	ldr	r0, [pc, #88]	@ (8000984 <FirmwareUpdate_Mode+0x328>)
 800092a:	2364      	movs	r3, #100	@ 0x64
 800092c:	2201      	movs	r2, #1
 800092e:	f003 ffcf 	bl	80048d0 <HAL_UART_Transmit>
      goto fw_update_cleanup;
 8000932:	f000 fc70 	bl	8001216 <FirmwareUpdate_Mode+0xbba>
    }

    /* Auth basarili — PC'ye ACK ver */
    HAL_UART_Transmit(&huart1, &ack, 1, 100);
 8000936:	23bb      	movs	r3, #187	@ 0xbb
 8000938:	18f9      	adds	r1, r7, r3
 800093a:	4812      	ldr	r0, [pc, #72]	@ (8000984 <FirmwareUpdate_Mode+0x328>)
 800093c:	2364      	movs	r3, #100	@ 0x64
 800093e:	2201      	movs	r2, #1
 8000940:	f003 ffc6 	bl	80048d0 <HAL_UART_Transmit>
    Print("[FW] Auth basarili!\r\n");
 8000944:	4b17      	ldr	r3, [pc, #92]	@ (80009a4 <FirmwareUpdate_Mode+0x348>)
 8000946:	0018      	movs	r0, r3
 8000948:	f000 ff42 	bl	80017d0 <Print>
  }

  Print("[FW] Aliciya BOOT_REQUEST gonderiliyor...\r\n");
 800094c:	4b16      	ldr	r3, [pc, #88]	@ (80009a8 <FirmwareUpdate_Mode+0x34c>)
 800094e:	0018      	movs	r0, r3
 8000950:	f000 ff3e 	bl	80017d0 <Print>
   *
   * BOOT_ACK payload (4 byte, little-endian): resume_start_packet
   *   - 0  : ilk transfer, bastan basla
   *   - N>0: onceki transfer N. pakete kadar basariliydi, N'den devam et
   * =================================================================== */
  uint8_t boot_ack_received = 0;
 8000954:	23f1      	movs	r3, #241	@ 0xf1
 8000956:	18fb      	adds	r3, r7, r3
 8000958:	2200      	movs	r2, #0
 800095a:	701a      	strb	r2, [r3, #0]
  uint32_t boot_start = HAL_GetTick();
 800095c:	f001 fd0e 	bl	800237c <HAL_GetTick>
 8000960:	0003      	movs	r3, r0
 8000962:	22cc      	movs	r2, #204	@ 0xcc
 8000964:	18ba      	adds	r2, r7, r2
 8000966:	6013      	str	r3, [r2, #0]

  while (!boot_ack_received && (HAL_GetTick() - boot_start) < 30000) {
 8000968:	e080      	b.n	8000a6c <FirmwareUpdate_Mode+0x410>
 800096a:	46c0      	nop			@ (mov r8, r8)
 800096c:	48001400 	.word	0x48001400
 8000970:	08005a8c 	.word	0x08005a8c
 8000974:	2000002c 	.word	0x2000002c
 8000978:	20000134 	.word	0x20000134
 800097c:	00003a97 	.word	0x00003a97
 8000980:	08005aa8 	.word	0x08005aa8
 8000984:	2000022c 	.word	0x2000022c
 8000988:	00003a98 	.word	0x00003a98
 800098c:	08005ad0 	.word	0x08005ad0
 8000990:	edb88320 	.word	0xedb88320
 8000994:	08005af4 	.word	0x08005af4
 8000998:	00001388 	.word	0x00001388
 800099c:	08005b14 	.word	0x08005b14
 80009a0:	08005b38 	.word	0x08005b38
 80009a4:	08005b5c 	.word	0x08005b5c
 80009a8:	08005b74 	.word	0x08005b74
    HAL_IWDG_Refresh(&hiwdg); // Watchdog'u sifirla — loop uzun surebilir
 80009ac:	4bda      	ldr	r3, [pc, #872]	@ (8000d18 <FirmwareUpdate_Mode+0x6bc>)
 80009ae:	0018      	movs	r0, r3
 80009b0:	f002 f9b2 	bl	8002d18 <HAL_IWDG_Refresh>

    RF_SendPacket(RF_CMD_BOOT_REQUEST, rf_seq_counter, NULL, 0); // BOOT_REQUEST gonder
 80009b4:	4bd9      	ldr	r3, [pc, #868]	@ (8000d1c <FirmwareUpdate_Mode+0x6c0>)
 80009b6:	8819      	ldrh	r1, [r3, #0]
 80009b8:	2300      	movs	r3, #0
 80009ba:	2200      	movs	r2, #0
 80009bc:	2001      	movs	r0, #1
 80009be:	f000 fdf1 	bl	80015a4 <RF_SendPacket>

    /* 2 saniye BOOT_ACK bekle */
    if (RF_WaitForPacket(&rx_type, &rx_seq, rx_pld, &rx_pld_len, 2000)) {
 80009c2:	2681      	movs	r6, #129	@ 0x81
 80009c4:	19bc      	adds	r4, r7, r6
 80009c6:	2584      	movs	r5, #132	@ 0x84
 80009c8:	197a      	adds	r2, r7, r5
 80009ca:	2382      	movs	r3, #130	@ 0x82
 80009cc:	18f9      	adds	r1, r7, r3
 80009ce:	23b9      	movs	r3, #185	@ 0xb9
 80009d0:	18f8      	adds	r0, r7, r3
 80009d2:	23fa      	movs	r3, #250	@ 0xfa
 80009d4:	00db      	lsls	r3, r3, #3
 80009d6:	9300      	str	r3, [sp, #0]
 80009d8:	0023      	movs	r3, r4
 80009da:	f000 fe35 	bl	8001648 <RF_WaitForPacket>
 80009de:	1e03      	subs	r3, r0, #0
 80009e0:	d03f      	beq.n	8000a62 <FirmwareUpdate_Mode+0x406>
      if (rx_type == RF_CMD_BOOT_ACK) {
 80009e2:	23b9      	movs	r3, #185	@ 0xb9
 80009e4:	18fb      	adds	r3, r7, r3
 80009e6:	781b      	ldrb	r3, [r3, #0]
 80009e8:	2b02      	cmp	r3, #2
 80009ea:	d13a      	bne.n	8000a62 <FirmwareUpdate_Mode+0x406>
        boot_ack_received = 1;
 80009ec:	23f1      	movs	r3, #241	@ 0xf1
 80009ee:	18fb      	adds	r3, r7, r3
 80009f0:	2201      	movs	r2, #1
 80009f2:	701a      	strb	r2, [r3, #0]

        /* BOOT_ACK payload'indan resume noktasini oku (4 byte, little-endian) */
        if (rx_pld_len >= 4) {
 80009f4:	19bb      	adds	r3, r7, r6
 80009f6:	781b      	ldrb	r3, [r3, #0]
 80009f8:	2b03      	cmp	r3, #3
 80009fa:	d911      	bls.n	8000a20 <FirmwareUpdate_Mode+0x3c4>
          resume_start_packet = (uint32_t)rx_pld[0]
 80009fc:	197b      	adds	r3, r7, r5
 80009fe:	781b      	ldrb	r3, [r3, #0]
 8000a00:	001a      	movs	r2, r3
                              | ((uint32_t)rx_pld[1] << 8)
 8000a02:	197b      	adds	r3, r7, r5
 8000a04:	785b      	ldrb	r3, [r3, #1]
 8000a06:	021b      	lsls	r3, r3, #8
 8000a08:	431a      	orrs	r2, r3
                              | ((uint32_t)rx_pld[2] << 16)
 8000a0a:	197b      	adds	r3, r7, r5
 8000a0c:	789b      	ldrb	r3, [r3, #2]
 8000a0e:	041b      	lsls	r3, r3, #16
 8000a10:	431a      	orrs	r2, r3
                              | ((uint32_t)rx_pld[3] << 24);
 8000a12:	197b      	adds	r3, r7, r5
 8000a14:	78db      	ldrb	r3, [r3, #3]
 8000a16:	061b      	lsls	r3, r3, #24
          resume_start_packet = (uint32_t)rx_pld[0]
 8000a18:	4313      	orrs	r3, r2
 8000a1a:	1d7a      	adds	r2, r7, #5
 8000a1c:	32ff      	adds	r2, #255	@ 0xff
 8000a1e:	6013      	str	r3, [r2, #0]
        }

        if (resume_start_packet > 0) {
 8000a20:	1d7b      	adds	r3, r7, #5
 8000a22:	33ff      	adds	r3, #255	@ 0xff
 8000a24:	681b      	ldr	r3, [r3, #0]
 8000a26:	2b00      	cmp	r3, #0
 8000a28:	d017      	beq.n	8000a5a <FirmwareUpdate_Mode+0x3fe>
          Print("[FW] Resume: ");
 8000a2a:	4bbd      	ldr	r3, [pc, #756]	@ (8000d20 <FirmwareUpdate_Mode+0x6c4>)
 8000a2c:	0018      	movs	r0, r3
 8000a2e:	f000 fecf 	bl	80017d0 <Print>
          PrintHex((uint8_t)(resume_start_packet >> 8));
 8000a32:	1d7b      	adds	r3, r7, #5
 8000a34:	33ff      	adds	r3, #255	@ 0xff
 8000a36:	681b      	ldr	r3, [r3, #0]
 8000a38:	0a1b      	lsrs	r3, r3, #8
 8000a3a:	b2db      	uxtb	r3, r3
 8000a3c:	0018      	movs	r0, r3
 8000a3e:	f000 fee5 	bl	800180c <PrintHex>
          PrintHex((uint8_t)(resume_start_packet & 0xFF));
 8000a42:	1d7b      	adds	r3, r7, #5
 8000a44:	33ff      	adds	r3, #255	@ 0xff
 8000a46:	681b      	ldr	r3, [r3, #0]
 8000a48:	b2db      	uxtb	r3, r3
 8000a4a:	0018      	movs	r0, r3
 8000a4c:	f000 fede 	bl	800180c <PrintHex>
          Print(" paket zaten yazilmis, devam ediliyor\r\n");
 8000a50:	4bb4      	ldr	r3, [pc, #720]	@ (8000d24 <FirmwareUpdate_Mode+0x6c8>)
 8000a52:	0018      	movs	r0, r3
 8000a54:	f000 febc 	bl	80017d0 <Print>
 8000a58:	e003      	b.n	8000a62 <FirmwareUpdate_Mode+0x406>
        } else {
          Print("[FW] Alici bootloader'a gecti! (bastan baslaniyor)\r\n");
 8000a5a:	4bb3      	ldr	r3, [pc, #716]	@ (8000d28 <FirmwareUpdate_Mode+0x6cc>)
 8000a5c:	0018      	movs	r0, r3
 8000a5e:	f000 feb7 	bl	80017d0 <Print>
        }
      }
    }

    HAL_GPIO_TogglePin(LED0_GPIO_Port, LED0_Pin); // Beklerken LED yanip sonsun
 8000a62:	4bb2      	ldr	r3, [pc, #712]	@ (8000d2c <FirmwareUpdate_Mode+0x6d0>)
 8000a64:	2140      	movs	r1, #64	@ 0x40
 8000a66:	0018      	movs	r0, r3
 8000a68:	f002 f8c2 	bl	8002bf0 <HAL_GPIO_TogglePin>
  while (!boot_ack_received && (HAL_GetTick() - boot_start) < 30000) {
 8000a6c:	23f1      	movs	r3, #241	@ 0xf1
 8000a6e:	18fb      	adds	r3, r7, r3
 8000a70:	781b      	ldrb	r3, [r3, #0]
 8000a72:	2b00      	cmp	r3, #0
 8000a74:	d109      	bne.n	8000a8a <FirmwareUpdate_Mode+0x42e>
 8000a76:	f001 fc81 	bl	800237c <HAL_GetTick>
 8000a7a:	0002      	movs	r2, r0
 8000a7c:	23cc      	movs	r3, #204	@ 0xcc
 8000a7e:	18fb      	adds	r3, r7, r3
 8000a80:	681b      	ldr	r3, [r3, #0]
 8000a82:	1ad3      	subs	r3, r2, r3
 8000a84:	4aaa      	ldr	r2, [pc, #680]	@ (8000d30 <FirmwareUpdate_Mode+0x6d4>)
 8000a86:	4293      	cmp	r3, r2
 8000a88:	d990      	bls.n	80009ac <FirmwareUpdate_Mode+0x350>
  }

  if (!boot_ack_received) {
 8000a8a:	23f1      	movs	r3, #241	@ 0xf1
 8000a8c:	18fb      	adds	r3, r7, r3
 8000a8e:	781b      	ldrb	r3, [r3, #0]
 8000a90:	2b00      	cmp	r3, #0
 8000a92:	d10c      	bne.n	8000aae <FirmwareUpdate_Mode+0x452>
    /* 30 saniye icinde BOOT_ACK gelmedi — PC'ye NACK gonder ve cik */
    Print("[FW] HATA: Alici bootloader'a gecilemedi!\r\n");
 8000a94:	4ba7      	ldr	r3, [pc, #668]	@ (8000d34 <FirmwareUpdate_Mode+0x6d8>)
 8000a96:	0018      	movs	r0, r3
 8000a98:	f000 fe9a 	bl	80017d0 <Print>
    HAL_UART_Transmit(&huart1, &nack, 1, 100);
 8000a9c:	23ba      	movs	r3, #186	@ 0xba
 8000a9e:	18f9      	adds	r1, r7, r3
 8000aa0:	48a5      	ldr	r0, [pc, #660]	@ (8000d38 <FirmwareUpdate_Mode+0x6dc>)
 8000aa2:	2364      	movs	r3, #100	@ 0x64
 8000aa4:	2201      	movs	r2, #1
 8000aa6:	f003 ff13 	bl	80048d0 <HAL_UART_Transmit>
    goto fw_update_cleanup;
 8000aaa:	f000 fbb4 	bl	8001216 <FirmwareUpdate_Mode+0xbba>
  }

  /* Alici hazir — PC'ye ACK gonder, PC metadata gondermesini bekliyor */
  HAL_UART_Transmit(&huart1, &ack, 1, 100);
 8000aae:	23bb      	movs	r3, #187	@ 0xbb
 8000ab0:	18f9      	adds	r1, r7, r3
 8000ab2:	48a1      	ldr	r0, [pc, #644]	@ (8000d38 <FirmwareUpdate_Mode+0x6dc>)
 8000ab4:	2364      	movs	r3, #100	@ 0x64
 8000ab6:	2201      	movs	r2, #1
 8000ab8:	f003 ff0a 	bl	80048d0 <HAL_UART_Transmit>
   * PC'den 12 byte metadata bekle:
   *   [firmware_size:4][firmware_version:4][firmware_crc32:4]
   * Alininca RF uzerinden aliciya ilet, ACK bekle.
   * =================================================================== */
  uint8_t meta_buf[12];
  if (HAL_UART_Receive(&huart1, meta_buf, 12, 10000) != HAL_OK) {
 8000abc:	4b9f      	ldr	r3, [pc, #636]	@ (8000d3c <FirmwareUpdate_Mode+0x6e0>)
 8000abe:	2274      	movs	r2, #116	@ 0x74
 8000ac0:	18b9      	adds	r1, r7, r2
 8000ac2:	489d      	ldr	r0, [pc, #628]	@ (8000d38 <FirmwareUpdate_Mode+0x6dc>)
 8000ac4:	220c      	movs	r2, #12
 8000ac6:	f003 ffa3 	bl	8004a10 <HAL_UART_Receive>
 8000aca:	1e03      	subs	r3, r0, #0
 8000acc:	d00c      	beq.n	8000ae8 <FirmwareUpdate_Mode+0x48c>
    Print("[FW] HATA: Metadata alinamadi!\r\n");
 8000ace:	4b9c      	ldr	r3, [pc, #624]	@ (8000d40 <FirmwareUpdate_Mode+0x6e4>)
 8000ad0:	0018      	movs	r0, r3
 8000ad2:	f000 fe7d 	bl	80017d0 <Print>
    HAL_UART_Transmit(&huart1, &nack, 1, 100);
 8000ad6:	23ba      	movs	r3, #186	@ 0xba
 8000ad8:	18f9      	adds	r1, r7, r3
 8000ada:	4897      	ldr	r0, [pc, #604]	@ (8000d38 <FirmwareUpdate_Mode+0x6dc>)
 8000adc:	2364      	movs	r3, #100	@ 0x64
 8000ade:	2201      	movs	r2, #1
 8000ae0:	f003 fef6 	bl	80048d0 <HAL_UART_Transmit>
    goto fw_update_cleanup;
 8000ae4:	f000 fb97 	bl	8001216 <FirmwareUpdate_Mode+0xbba>
  }

  Print("[FW] Metadata alindi, RF ile gonderiliyor...\r\n");
 8000ae8:	4b96      	ldr	r3, [pc, #600]	@ (8000d44 <FirmwareUpdate_Mode+0x6e8>)
 8000aea:	0018      	movs	r0, r3
 8000aec:	f000 fe70 	bl	80017d0 <Print>

  uint8_t meta_sent = 0;
 8000af0:	23f0      	movs	r3, #240	@ 0xf0
 8000af2:	18fb      	adds	r3, r7, r3
 8000af4:	2200      	movs	r2, #0
 8000af6:	701a      	strb	r2, [r3, #0]
  uint32_t meta_start = HAL_GetTick();
 8000af8:	f001 fc40 	bl	800237c <HAL_GetTick>
 8000afc:	0003      	movs	r3, r0
 8000afe:	22c8      	movs	r2, #200	@ 0xc8
 8000b00:	18ba      	adds	r2, r7, r2
 8000b02:	6013      	str	r3, [r2, #0]
  /* Zaman bazli deneme: BOOT_ACK gibi alakasiz paketler retry'i tukettirmesin.
   * Alici bootloader henuz BOOT_ACK yayinliyor olabilir — biz metadata
   * gonderiyor, alici hazir oldugunda ACK donecek. 15 saniye sure ver. */
  while (!meta_sent && (HAL_GetTick() - meta_start) < 15000) {
 8000b04:	e021      	b.n	8000b4a <FirmwareUpdate_Mode+0x4ee>
    RF_SendPacket(RF_CMD_METADATA, rf_seq_counter, meta_buf, 12);
 8000b06:	4b85      	ldr	r3, [pc, #532]	@ (8000d1c <FirmwareUpdate_Mode+0x6c0>)
 8000b08:	8819      	ldrh	r1, [r3, #0]
 8000b0a:	2374      	movs	r3, #116	@ 0x74
 8000b0c:	18fa      	adds	r2, r7, r3
 8000b0e:	230c      	movs	r3, #12
 8000b10:	2003      	movs	r0, #3
 8000b12:	f000 fd47 	bl	80015a4 <RF_SendPacket>

    if (RF_WaitForPacket(&rx_type, &rx_seq, rx_pld, &rx_pld_len, 3000)) {
 8000b16:	2381      	movs	r3, #129	@ 0x81
 8000b18:	18fb      	adds	r3, r7, r3
 8000b1a:	2284      	movs	r2, #132	@ 0x84
 8000b1c:	18ba      	adds	r2, r7, r2
 8000b1e:	2182      	movs	r1, #130	@ 0x82
 8000b20:	1879      	adds	r1, r7, r1
 8000b22:	25b9      	movs	r5, #185	@ 0xb9
 8000b24:	1978      	adds	r0, r7, r5
 8000b26:	4c88      	ldr	r4, [pc, #544]	@ (8000d48 <FirmwareUpdate_Mode+0x6ec>)
 8000b28:	9400      	str	r4, [sp, #0]
 8000b2a:	f000 fd8d 	bl	8001648 <RF_WaitForPacket>
 8000b2e:	1e03      	subs	r3, r0, #0
 8000b30:	d007      	beq.n	8000b42 <FirmwareUpdate_Mode+0x4e6>
      if (rx_type == RF_CMD_ACK) {
 8000b32:	197b      	adds	r3, r7, r5
 8000b34:	781b      	ldrb	r3, [r3, #0]
 8000b36:	2b10      	cmp	r3, #16
 8000b38:	d103      	bne.n	8000b42 <FirmwareUpdate_Mode+0x4e6>
        meta_sent = 1;
 8000b3a:	23f0      	movs	r3, #240	@ 0xf0
 8000b3c:	18fb      	adds	r3, r7, r3
 8000b3e:	2201      	movs	r2, #1
 8000b40:	701a      	strb	r2, [r3, #0]
      }
      /* Baska paket turu (BOOT_ACK vb.) → yoksay, devam et */
    }
    HAL_IWDG_Refresh(&hiwdg);
 8000b42:	4b75      	ldr	r3, [pc, #468]	@ (8000d18 <FirmwareUpdate_Mode+0x6bc>)
 8000b44:	0018      	movs	r0, r3
 8000b46:	f002 f8e7 	bl	8002d18 <HAL_IWDG_Refresh>
  while (!meta_sent && (HAL_GetTick() - meta_start) < 15000) {
 8000b4a:	23f0      	movs	r3, #240	@ 0xf0
 8000b4c:	18fb      	adds	r3, r7, r3
 8000b4e:	781b      	ldrb	r3, [r3, #0]
 8000b50:	2b00      	cmp	r3, #0
 8000b52:	d109      	bne.n	8000b68 <FirmwareUpdate_Mode+0x50c>
 8000b54:	f001 fc12 	bl	800237c <HAL_GetTick>
 8000b58:	0002      	movs	r2, r0
 8000b5a:	23c8      	movs	r3, #200	@ 0xc8
 8000b5c:	18fb      	adds	r3, r7, r3
 8000b5e:	681b      	ldr	r3, [r3, #0]
 8000b60:	1ad3      	subs	r3, r2, r3
 8000b62:	4a7a      	ldr	r2, [pc, #488]	@ (8000d4c <FirmwareUpdate_Mode+0x6f0>)
 8000b64:	4293      	cmp	r3, r2
 8000b66:	d9ce      	bls.n	8000b06 <FirmwareUpdate_Mode+0x4aa>
  }
  rf_seq_counter++;
 8000b68:	4b6c      	ldr	r3, [pc, #432]	@ (8000d1c <FirmwareUpdate_Mode+0x6c0>)
 8000b6a:	881b      	ldrh	r3, [r3, #0]
 8000b6c:	3301      	adds	r3, #1
 8000b6e:	b29a      	uxth	r2, r3
 8000b70:	4b6a      	ldr	r3, [pc, #424]	@ (8000d1c <FirmwareUpdate_Mode+0x6c0>)
 8000b72:	801a      	strh	r2, [r3, #0]

  if (!meta_sent) {
 8000b74:	23f0      	movs	r3, #240	@ 0xf0
 8000b76:	18fb      	adds	r3, r7, r3
 8000b78:	781b      	ldrb	r3, [r3, #0]
 8000b7a:	2b00      	cmp	r3, #0
 8000b7c:	d10b      	bne.n	8000b96 <FirmwareUpdate_Mode+0x53a>
    Print("[FW] HATA: Metadata gonderilemedi!\r\n");
 8000b7e:	4b74      	ldr	r3, [pc, #464]	@ (8000d50 <FirmwareUpdate_Mode+0x6f4>)
 8000b80:	0018      	movs	r0, r3
 8000b82:	f000 fe25 	bl	80017d0 <Print>
    HAL_UART_Transmit(&huart1, &nack, 1, 100);
 8000b86:	23ba      	movs	r3, #186	@ 0xba
 8000b88:	18f9      	adds	r1, r7, r3
 8000b8a:	486b      	ldr	r0, [pc, #428]	@ (8000d38 <FirmwareUpdate_Mode+0x6dc>)
 8000b8c:	2364      	movs	r3, #100	@ 0x64
 8000b8e:	2201      	movs	r2, #1
 8000b90:	f003 fe9e 	bl	80048d0 <HAL_UART_Transmit>
    goto fw_update_cleanup;
 8000b94:	e33f      	b.n	8001216 <FirmwareUpdate_Mode+0xbba>
  }

  /* Metadata iletildi — PC'ye ACK */
  HAL_UART_Transmit(&huart1, &ack, 1, 100);
 8000b96:	23bb      	movs	r3, #187	@ 0xbb
 8000b98:	18f9      	adds	r1, r7, r3
 8000b9a:	4867      	ldr	r0, [pc, #412]	@ (8000d38 <FirmwareUpdate_Mode+0x6dc>)
 8000b9c:	2364      	movs	r3, #100	@ 0x64
 8000b9e:	2201      	movs	r2, #1
 8000ba0:	f003 fe96 	bl	80048d0 <HAL_UART_Transmit>

  /* firmware_size'tan toplam paket sayisini hesapla */
  {
    uint32_t fw_size;
    memcpy(&fw_size, meta_buf, 4);
 8000ba4:	2374      	movs	r3, #116	@ 0x74
 8000ba6:	18f9      	adds	r1, r7, r3
 8000ba8:	2368      	movs	r3, #104	@ 0x68
 8000baa:	18fb      	adds	r3, r7, r3
 8000bac:	2204      	movs	r2, #4
 8000bae:	0018      	movs	r0, r3
 8000bb0:	f004 fed2 	bl	8005958 <memcpy>
    total_fw_packets = (fw_size + FW_PACKET_SIZE - 1) / FW_PACKET_SIZE;
 8000bb4:	6ebb      	ldr	r3, [r7, #104]	@ 0x68
 8000bb6:	337f      	adds	r3, #127	@ 0x7f
 8000bb8:	09db      	lsrs	r3, r3, #7
 8000bba:	22d4      	movs	r2, #212	@ 0xd4
 8000bbc:	18ba      	adds	r2, r7, r2
 8000bbe:	6013      	str	r3, [r2, #0]
   * ADIM 3: ALICI HAZIR BİLDİRİMİ (FLASH_ERASE_DONE)
   * Onceki tasarimda burada alici tum Flash'i siliyordu (~555ms).
   * Artik alici Flash'i sayfa sayfa siliyor (her 128-byte yazimdan once),
   * bu yuzden FLASH_ERASE_DONE cok daha hizli geliyor.
   * =================================================================== */
  Print("[FW] Alicinin hazir olması bekleniyor...\r\n");
 8000bc0:	4b64      	ldr	r3, [pc, #400]	@ (8000d54 <FirmwareUpdate_Mode+0x6f8>)
 8000bc2:	0018      	movs	r0, r3
 8000bc4:	f000 fe04 	bl	80017d0 <Print>

  uint8_t erase_done = 0;
 8000bc8:	23ef      	movs	r3, #239	@ 0xef
 8000bca:	18fb      	adds	r3, r7, r3
 8000bcc:	2200      	movs	r2, #0
 8000bce:	701a      	strb	r2, [r3, #0]
  uint32_t erase_start = HAL_GetTick();
 8000bd0:	f001 fbd4 	bl	800237c <HAL_GetTick>
 8000bd4:	0003      	movs	r3, r0
 8000bd6:	22c4      	movs	r2, #196	@ 0xc4
 8000bd8:	18ba      	adds	r2, r7, r2
 8000bda:	6013      	str	r3, [r2, #0]

  while (!erase_done && (HAL_GetTick() - erase_start) < 60000) { // 60 sn timeout
 8000bdc:	e020      	b.n	8000c20 <FirmwareUpdate_Mode+0x5c4>
    HAL_IWDG_Refresh(&hiwdg);
 8000bde:	4b4e      	ldr	r3, [pc, #312]	@ (8000d18 <FirmwareUpdate_Mode+0x6bc>)
 8000be0:	0018      	movs	r0, r3
 8000be2:	f002 f899 	bl	8002d18 <HAL_IWDG_Refresh>

    if (RF_WaitForPacket(&rx_type, &rx_seq, rx_pld, &rx_pld_len, 5000)) {
 8000be6:	2381      	movs	r3, #129	@ 0x81
 8000be8:	18fb      	adds	r3, r7, r3
 8000bea:	2284      	movs	r2, #132	@ 0x84
 8000bec:	18ba      	adds	r2, r7, r2
 8000bee:	2582      	movs	r5, #130	@ 0x82
 8000bf0:	1979      	adds	r1, r7, r5
 8000bf2:	26b9      	movs	r6, #185	@ 0xb9
 8000bf4:	19b8      	adds	r0, r7, r6
 8000bf6:	4c58      	ldr	r4, [pc, #352]	@ (8000d58 <FirmwareUpdate_Mode+0x6fc>)
 8000bf8:	9400      	str	r4, [sp, #0]
 8000bfa:	f000 fd25 	bl	8001648 <RF_WaitForPacket>
 8000bfe:	1e03      	subs	r3, r0, #0
 8000c00:	d00e      	beq.n	8000c20 <FirmwareUpdate_Mode+0x5c4>
      if (rx_type == RF_CMD_FLASH_ERASE_DONE) {
 8000c02:	19bb      	adds	r3, r7, r6
 8000c04:	781b      	ldrb	r3, [r3, #0]
 8000c06:	2b05      	cmp	r3, #5
 8000c08:	d10a      	bne.n	8000c20 <FirmwareUpdate_Mode+0x5c4>
        erase_done = 1;
 8000c0a:	23ef      	movs	r3, #239	@ 0xef
 8000c0c:	18fb      	adds	r3, r7, r3
 8000c0e:	2201      	movs	r2, #1
 8000c10:	701a      	strb	r2, [r3, #0]
        RF_SendPacket(RF_CMD_ACK, rx_seq, NULL, 0); // Aliciya: flash silme onaylandi
 8000c12:	197b      	adds	r3, r7, r5
 8000c14:	8819      	ldrh	r1, [r3, #0]
 8000c16:	2300      	movs	r3, #0
 8000c18:	2200      	movs	r2, #0
 8000c1a:	2010      	movs	r0, #16
 8000c1c:	f000 fcc2 	bl	80015a4 <RF_SendPacket>
  while (!erase_done && (HAL_GetTick() - erase_start) < 60000) { // 60 sn timeout
 8000c20:	23ef      	movs	r3, #239	@ 0xef
 8000c22:	18fb      	adds	r3, r7, r3
 8000c24:	781b      	ldrb	r3, [r3, #0]
 8000c26:	2b00      	cmp	r3, #0
 8000c28:	d109      	bne.n	8000c3e <FirmwareUpdate_Mode+0x5e2>
 8000c2a:	f001 fba7 	bl	800237c <HAL_GetTick>
 8000c2e:	0002      	movs	r2, r0
 8000c30:	23c4      	movs	r3, #196	@ 0xc4
 8000c32:	18fb      	adds	r3, r7, r3
 8000c34:	681b      	ldr	r3, [r3, #0]
 8000c36:	1ad3      	subs	r3, r2, r3
 8000c38:	4a48      	ldr	r2, [pc, #288]	@ (8000d5c <FirmwareUpdate_Mode+0x700>)
 8000c3a:	4293      	cmp	r3, r2
 8000c3c:	d9cf      	bls.n	8000bde <FirmwareUpdate_Mode+0x582>
      }
    }
  }

  if (!erase_done) {
 8000c3e:	23ef      	movs	r3, #239	@ 0xef
 8000c40:	18fb      	adds	r3, r7, r3
 8000c42:	781b      	ldrb	r3, [r3, #0]
 8000c44:	2b00      	cmp	r3, #0
 8000c46:	d10b      	bne.n	8000c60 <FirmwareUpdate_Mode+0x604>
    Print("[FW] HATA: Flash silme zaman asimi!\r\n");
 8000c48:	4b45      	ldr	r3, [pc, #276]	@ (8000d60 <FirmwareUpdate_Mode+0x704>)
 8000c4a:	0018      	movs	r0, r3
 8000c4c:	f000 fdc0 	bl	80017d0 <Print>
    HAL_UART_Transmit(&huart1, &nack, 1, 100);
 8000c50:	23ba      	movs	r3, #186	@ 0xba
 8000c52:	18f9      	adds	r1, r7, r3
 8000c54:	4838      	ldr	r0, [pc, #224]	@ (8000d38 <FirmwareUpdate_Mode+0x6dc>)
 8000c56:	2364      	movs	r3, #100	@ 0x64
 8000c58:	2201      	movs	r2, #1
 8000c5a:	f003 fe39 	bl	80048d0 <HAL_UART_Transmit>
    goto fw_update_cleanup;
 8000c5e:	e2da      	b.n	8001216 <FirmwareUpdate_Mode+0xbba>
  }

  Print("[FW] Flash silindi!\r\n");
 8000c60:	4b40      	ldr	r3, [pc, #256]	@ (8000d64 <FirmwareUpdate_Mode+0x708>)
 8000c62:	0018      	movs	r0, r3
 8000c64:	f000 fdb4 	bl	80017d0 <Print>
  HAL_UART_Transmit(&huart1, &ack, 1, 100); // PC'ye: flash silindi, paket gondermeye basla
 8000c68:	23bb      	movs	r3, #187	@ 0xbb
 8000c6a:	18f9      	adds	r1, r7, r3
 8000c6c:	4832      	ldr	r0, [pc, #200]	@ (8000d38 <FirmwareUpdate_Mode+0x6dc>)
 8000c6e:	2364      	movs	r3, #100	@ 0x64
 8000c70:	2201      	movs	r2, #1
 8000c72:	f003 fe2d 	bl	80048d0 <HAL_UART_Transmit>
   * Sonraki paketler normal sekilde gonderiliyor:
   *   - 148 byte'i 4 RF DATA_CHUNK'a bol
   *   - Her chunk icin ACK alinmazsa RF_MAX_RETRIES kez dene
   *   - Tum chunk'lar basariliysa PC'ye ACK gonderilir
   * =================================================================== */
  if (resume_start_packet > 0) {
 8000c76:	1d7b      	adds	r3, r7, #5
 8000c78:	33ff      	adds	r3, #255	@ 0xff
 8000c7a:	681b      	ldr	r3, [r3, #0]
 8000c7c:	2b00      	cmp	r3, #0
 8000c7e:	d004      	beq.n	8000c8a <FirmwareUpdate_Mode+0x62e>
    Print("[FW] Resume: ilk paketler atlaniyor...\r\n");
 8000c80:	4b39      	ldr	r3, [pc, #228]	@ (8000d68 <FirmwareUpdate_Mode+0x70c>)
 8000c82:	0018      	movs	r0, r3
 8000c84:	f000 fda4 	bl	80017d0 <Print>
 8000c88:	e003      	b.n	8000c92 <FirmwareUpdate_Mode+0x636>
  } else {
    Print("[FW] Paket transferi basliyor...\r\n");
 8000c8a:	4b38      	ldr	r3, [pc, #224]	@ (8000d6c <FirmwareUpdate_Mode+0x710>)
 8000c8c:	0018      	movs	r0, r3
 8000c8e:	f000 fd9f 	bl	80017d0 <Print>
  }

  uint32_t packets_sent = 0; // Toplam islenen paket sayisi (atlananlar dahil)
 8000c92:	2300      	movs	r3, #0
 8000c94:	22e8      	movs	r2, #232	@ 0xe8
 8000c96:	18ba      	adds	r2, r7, r2
 8000c98:	6013      	str	r3, [r2, #0]

  while (packets_sent < total_fw_packets) {
 8000c9a:	e10d      	b.n	8000eb8 <FirmwareUpdate_Mode+0x85c>
    HAL_IWDG_Refresh(&hiwdg);
 8000c9c:	4b1e      	ldr	r3, [pc, #120]	@ (8000d18 <FirmwareUpdate_Mode+0x6bc>)
 8000c9e:	0018      	movs	r0, r3
 8000ca0:	f002 f83a 	bl	8002d18 <HAL_IWDG_Refresh>

    /* PC'den bir sonraki firmware paketini bekle (8 sn) */
    HAL_StatusTypeDef uart_status =
        HAL_UART_Receive(&huart1, fw_packet_buf, FW_FULL_PACKET_SIZE, 8000);
 8000ca4:	25bf      	movs	r5, #191	@ 0xbf
 8000ca6:	197c      	adds	r4, r7, r5
 8000ca8:	23fa      	movs	r3, #250	@ 0xfa
 8000caa:	015b      	lsls	r3, r3, #5
 8000cac:	4930      	ldr	r1, [pc, #192]	@ (8000d70 <FirmwareUpdate_Mode+0x714>)
 8000cae:	4822      	ldr	r0, [pc, #136]	@ (8000d38 <FirmwareUpdate_Mode+0x6dc>)
 8000cb0:	2294      	movs	r2, #148	@ 0x94
 8000cb2:	f003 fead 	bl	8004a10 <HAL_UART_Receive>
 8000cb6:	0003      	movs	r3, r0
 8000cb8:	7023      	strb	r3, [r4, #0]

    if (uart_status != HAL_OK) {
 8000cba:	197b      	adds	r3, r7, r5
 8000cbc:	781b      	ldrb	r3, [r3, #0]
 8000cbe:	2b00      	cmp	r3, #0
 8000cc0:	d00b      	beq.n	8000cda <FirmwareUpdate_Mode+0x67e>
      Print("[FW] HATA: UART alma hatasi!\r\n");
 8000cc2:	4b2c      	ldr	r3, [pc, #176]	@ (8000d74 <FirmwareUpdate_Mode+0x718>)
 8000cc4:	0018      	movs	r0, r3
 8000cc6:	f000 fd83 	bl	80017d0 <Print>
      HAL_UART_Transmit(&huart1, &nack, 1, 100);
 8000cca:	23ba      	movs	r3, #186	@ 0xba
 8000ccc:	18f9      	adds	r1, r7, r3
 8000cce:	481a      	ldr	r0, [pc, #104]	@ (8000d38 <FirmwareUpdate_Mode+0x6dc>)
 8000cd0:	2364      	movs	r3, #100	@ 0x64
 8000cd2:	2201      	movs	r2, #1
 8000cd4:	f003 fdfc 	bl	80048d0 <HAL_UART_Transmit>
      goto fw_update_cleanup;
 8000cd8:	e29d      	b.n	8001216 <FirmwareUpdate_Mode+0xbba>
    }

    /* Resume: bu paket alici tarafindan zaten yazilmissa RF'e gonderme.
     * PC'den okundu, ACK ver, sonraki pakete gec. */
    if (packets_sent < resume_start_packet) {
 8000cda:	21e8      	movs	r1, #232	@ 0xe8
 8000cdc:	187b      	adds	r3, r7, r1
 8000cde:	681a      	ldr	r2, [r3, #0]
 8000ce0:	1d7b      	adds	r3, r7, #5
 8000ce2:	33ff      	adds	r3, #255	@ 0xff
 8000ce4:	681b      	ldr	r3, [r3, #0]
 8000ce6:	429a      	cmp	r2, r3
 8000ce8:	d20c      	bcs.n	8000d04 <FirmwareUpdate_Mode+0x6a8>
      packets_sent++;
 8000cea:	187b      	adds	r3, r7, r1
 8000cec:	681b      	ldr	r3, [r3, #0]
 8000cee:	3301      	adds	r3, #1
 8000cf0:	187a      	adds	r2, r7, r1
 8000cf2:	6013      	str	r3, [r2, #0]
      HAL_UART_Transmit(&huart1, &ack, 1, 100); // PC'ye: paket alindi (atlanacak)
 8000cf4:	23bb      	movs	r3, #187	@ 0xbb
 8000cf6:	18f9      	adds	r1, r7, r3
 8000cf8:	480f      	ldr	r0, [pc, #60]	@ (8000d38 <FirmwareUpdate_Mode+0x6dc>)
 8000cfa:	2364      	movs	r3, #100	@ 0x64
 8000cfc:	2201      	movs	r2, #1
 8000cfe:	f003 fde7 	bl	80048d0 <HAL_UART_Transmit>
      continue; // RF gondermeden devam
 8000d02:	e0d9      	b.n	8000eb8 <FirmwareUpdate_Mode+0x85c>
    }

    /* 148 byte'i 4 RF chunk'a bol ve guvenilir gonder */
    uint8_t all_chunks_ok = 1;
 8000d04:	23e7      	movs	r3, #231	@ 0xe7
 8000d06:	18fb      	adds	r3, r7, r3
 8000d08:	2201      	movs	r2, #1
 8000d0a:	701a      	strb	r2, [r3, #0]

    for (uint8_t chunk = 0; chunk < RF_CHUNKS_PER_PACKET; chunk++) {
 8000d0c:	23e6      	movs	r3, #230	@ 0xe6
 8000d0e:	18fb      	adds	r3, r7, r3
 8000d10:	2200      	movs	r2, #0
 8000d12:	701a      	strb	r2, [r3, #0]
 8000d14:	e08c      	b.n	8000e30 <FirmwareUpdate_Mode+0x7d4>
 8000d16:	46c0      	nop			@ (mov r8, r8)
 8000d18:	2000002c 	.word	0x2000002c
 8000d1c:	20000134 	.word	0x20000134
 8000d20:	08005ba0 	.word	0x08005ba0
 8000d24:	08005bb0 	.word	0x08005bb0
 8000d28:	08005bd8 	.word	0x08005bd8
 8000d2c:	48001400 	.word	0x48001400
 8000d30:	0000752f 	.word	0x0000752f
 8000d34:	08005c10 	.word	0x08005c10
 8000d38:	2000022c 	.word	0x2000022c
 8000d3c:	00002710 	.word	0x00002710
 8000d40:	08005c3c 	.word	0x08005c3c
 8000d44:	08005c60 	.word	0x08005c60
 8000d48:	00000bb8 	.word	0x00000bb8
 8000d4c:	00003a97 	.word	0x00003a97
 8000d50:	08005c90 	.word	0x08005c90
 8000d54:	08005cb8 	.word	0x08005cb8
 8000d58:	00001388 	.word	0x00001388
 8000d5c:	0000ea5f 	.word	0x0000ea5f
 8000d60:	08005ce4 	.word	0x08005ce4
 8000d64:	08005d0c 	.word	0x08005d0c
 8000d68:	08005d24 	.word	0x08005d24
 8000d6c:	08005d50 	.word	0x08005d50
 8000d70:	200000a0 	.word	0x200000a0
 8000d74:	08005d74 	.word	0x08005d74
      uint8_t chunk_payload[RF_MAX_DATA];
      uint8_t data_offset = chunk * RF_CHUNK_DATA_SIZE; // Her chunk 48 byte ilerler
 8000d78:	23be      	movs	r3, #190	@ 0xbe
 8000d7a:	18fb      	adds	r3, r7, r3
 8000d7c:	20e6      	movs	r0, #230	@ 0xe6
 8000d7e:	183a      	adds	r2, r7, r0
 8000d80:	7812      	ldrb	r2, [r2, #0]
 8000d82:	2130      	movs	r1, #48	@ 0x30
 8000d84:	434a      	muls	r2, r1
 8000d86:	701a      	strb	r2, [r3, #0]
      uint8_t data_len;

      if (chunk < RF_CHUNKS_PER_PACKET - 1) {
 8000d88:	183b      	adds	r3, r7, r0
 8000d8a:	781b      	ldrb	r3, [r3, #0]
 8000d8c:	2b02      	cmp	r3, #2
 8000d8e:	d804      	bhi.n	8000d9a <FirmwareUpdate_Mode+0x73e>
        data_len = RF_CHUNK_DATA_SIZE; // Ilk 3 chunk tam 48 byte
 8000d90:	23e5      	movs	r3, #229	@ 0xe5
 8000d92:	18fb      	adds	r3, r7, r3
 8000d94:	2230      	movs	r2, #48	@ 0x30
 8000d96:	701a      	strb	r2, [r3, #0]
 8000d98:	e00f      	b.n	8000dba <FirmwareUpdate_Mode+0x75e>
      } else {
        /* Son chunk: kalan veri (148 - 3x48 = 4 byte) */
        data_len = FW_FULL_PACKET_SIZE - data_offset;
 8000d9a:	20e5      	movs	r0, #229	@ 0xe5
 8000d9c:	183b      	adds	r3, r7, r0
 8000d9e:	22be      	movs	r2, #190	@ 0xbe
 8000da0:	18ba      	adds	r2, r7, r2
 8000da2:	7812      	ldrb	r2, [r2, #0]
 8000da4:	216c      	movs	r1, #108	@ 0x6c
 8000da6:	4249      	negs	r1, r1
 8000da8:	1a8a      	subs	r2, r1, r2
 8000daa:	701a      	strb	r2, [r3, #0]
        if (data_len > RF_CHUNK_DATA_SIZE) {
 8000dac:	183b      	adds	r3, r7, r0
 8000dae:	781b      	ldrb	r3, [r3, #0]
 8000db0:	2b30      	cmp	r3, #48	@ 0x30
 8000db2:	d902      	bls.n	8000dba <FirmwareUpdate_Mode+0x75e>
          data_len = RF_CHUNK_DATA_SIZE;
 8000db4:	183b      	adds	r3, r7, r0
 8000db6:	2230      	movs	r2, #48	@ 0x30
 8000db8:	701a      	strb	r2, [r3, #0]
        }
      }

      /* Chunk payload yapisi: [chunk_index:1][chunk_toplam:1][veri:data_len] */
      chunk_payload[0] = chunk;                // Hangi parca? (0, 1, 2, 3)
 8000dba:	2428      	movs	r4, #40	@ 0x28
 8000dbc:	193b      	adds	r3, r7, r4
 8000dbe:	22e6      	movs	r2, #230	@ 0xe6
 8000dc0:	18ba      	adds	r2, r7, r2
 8000dc2:	7812      	ldrb	r2, [r2, #0]
 8000dc4:	701a      	strb	r2, [r3, #0]
      chunk_payload[1] = RF_CHUNKS_PER_PACKET; // Toplam parca sayisi (4)
 8000dc6:	193b      	adds	r3, r7, r4
 8000dc8:	2204      	movs	r2, #4
 8000dca:	705a      	strb	r2, [r3, #1]
      memcpy(&chunk_payload[2], &fw_packet_buf[data_offset], data_len); // Asil veri
 8000dcc:	23be      	movs	r3, #190	@ 0xbe
 8000dce:	18fb      	adds	r3, r7, r3
 8000dd0:	781a      	ldrb	r2, [r3, #0]
 8000dd2:	4bdc      	ldr	r3, [pc, #880]	@ (8001144 <FirmwareUpdate_Mode+0xae8>)
 8000dd4:	18d1      	adds	r1, r2, r3
 8000dd6:	25e5      	movs	r5, #229	@ 0xe5
 8000dd8:	197b      	adds	r3, r7, r5
 8000dda:	781a      	ldrb	r2, [r3, #0]
 8000ddc:	193b      	adds	r3, r7, r4
 8000dde:	3302      	adds	r3, #2
 8000de0:	0018      	movs	r0, r3
 8000de2:	f004 fdb9 	bl	8005958 <memcpy>

      uint16_t chunk_seq = rf_seq_counter++;
 8000de6:	4bd8      	ldr	r3, [pc, #864]	@ (8001148 <FirmwareUpdate_Mode+0xaec>)
 8000de8:	881b      	ldrh	r3, [r3, #0]
 8000dea:	1c5a      	adds	r2, r3, #1
 8000dec:	b291      	uxth	r1, r2
 8000dee:	4ad6      	ldr	r2, [pc, #856]	@ (8001148 <FirmwareUpdate_Mode+0xaec>)
 8000df0:	8011      	strh	r1, [r2, #0]
 8000df2:	21bc      	movs	r1, #188	@ 0xbc
 8000df4:	187a      	adds	r2, r7, r1
 8000df6:	8013      	strh	r3, [r2, #0]

      /* Guvenilir gonder: ACK gelene kadar RF_MAX_RETRIES kez dene */
      if (!RF_SendChunkReliable(RF_CMD_DATA_CHUNK, chunk_seq, chunk_payload,
 8000df8:	197b      	adds	r3, r7, r5
 8000dfa:	781b      	ldrb	r3, [r3, #0]
 8000dfc:	3302      	adds	r3, #2
 8000dfe:	b2d8      	uxtb	r0, r3
 8000e00:	193a      	adds	r2, r7, r4
 8000e02:	187b      	adds	r3, r7, r1
 8000e04:	8819      	ldrh	r1, [r3, #0]
 8000e06:	0003      	movs	r3, r0
 8000e08:	2004      	movs	r0, #4
 8000e0a:	f000 fc77 	bl	80016fc <RF_SendChunkReliable>
 8000e0e:	1e03      	subs	r3, r0, #0
 8000e10:	d108      	bne.n	8000e24 <FirmwareUpdate_Mode+0x7c8>
                                data_len + 2)) {
        Print("[FW] HATA: Chunk gonderilemedi!\r\n");
 8000e12:	4bce      	ldr	r3, [pc, #824]	@ (800114c <FirmwareUpdate_Mode+0xaf0>)
 8000e14:	0018      	movs	r0, r3
 8000e16:	f000 fcdb 	bl	80017d0 <Print>
        all_chunks_ok = 0;
 8000e1a:	23e7      	movs	r3, #231	@ 0xe7
 8000e1c:	18fb      	adds	r3, r7, r3
 8000e1e:	2200      	movs	r2, #0
 8000e20:	701a      	strb	r2, [r3, #0]
 8000e22:	e00a      	b.n	8000e3a <FirmwareUpdate_Mode+0x7de>
    for (uint8_t chunk = 0; chunk < RF_CHUNKS_PER_PACKET; chunk++) {
 8000e24:	21e6      	movs	r1, #230	@ 0xe6
 8000e26:	187b      	adds	r3, r7, r1
 8000e28:	781a      	ldrb	r2, [r3, #0]
 8000e2a:	187b      	adds	r3, r7, r1
 8000e2c:	3201      	adds	r2, #1
 8000e2e:	701a      	strb	r2, [r3, #0]
 8000e30:	23e6      	movs	r3, #230	@ 0xe6
 8000e32:	18fb      	adds	r3, r7, r3
 8000e34:	781b      	ldrb	r3, [r3, #0]
 8000e36:	2b03      	cmp	r3, #3
 8000e38:	d99e      	bls.n	8000d78 <FirmwareUpdate_Mode+0x71c>
        break;
      }
    }

    if (!all_chunks_ok) {
 8000e3a:	23e7      	movs	r3, #231	@ 0xe7
 8000e3c:	18fb      	adds	r3, r7, r3
 8000e3e:	781b      	ldrb	r3, [r3, #0]
 8000e40:	2b00      	cmp	r3, #0
 8000e42:	d107      	bne.n	8000e54 <FirmwareUpdate_Mode+0x7f8>
      /* Herhangi bir chunk basarisiz — PC'ye NACK */
      HAL_UART_Transmit(&huart1, &nack, 1, 100);
 8000e44:	23ba      	movs	r3, #186	@ 0xba
 8000e46:	18f9      	adds	r1, r7, r3
 8000e48:	48c1      	ldr	r0, [pc, #772]	@ (8001150 <FirmwareUpdate_Mode+0xaf4>)
 8000e4a:	2364      	movs	r3, #100	@ 0x64
 8000e4c:	2201      	movs	r2, #1
 8000e4e:	f003 fd3f 	bl	80048d0 <HAL_UART_Transmit>
      goto fw_update_cleanup;
 8000e52:	e1e0      	b.n	8001216 <FirmwareUpdate_Mode+0xbba>
    }

    packets_sent++;
 8000e54:	24e8      	movs	r4, #232	@ 0xe8
 8000e56:	193b      	adds	r3, r7, r4
 8000e58:	681b      	ldr	r3, [r3, #0]
 8000e5a:	3301      	adds	r3, #1
 8000e5c:	193a      	adds	r2, r7, r4
 8000e5e:	6013      	str	r3, [r2, #0]
    HAL_UART_Transmit(&huart1, &ack, 1, 100); // PC'ye: bu 148 byte teslim edildi
 8000e60:	23bb      	movs	r3, #187	@ 0xbb
 8000e62:	18f9      	adds	r1, r7, r3
 8000e64:	48ba      	ldr	r0, [pc, #744]	@ (8001150 <FirmwareUpdate_Mode+0xaf4>)
 8000e66:	2364      	movs	r3, #100	@ 0x64
 8000e68:	2201      	movs	r2, #1
 8000e6a:	f003 fd31 	bl	80048d0 <HAL_UART_Transmit>

    HAL_GPIO_TogglePin(LED1_GPIO_Port, LED1_Pin); // Her pakette LED yanip sonsun
 8000e6e:	2380      	movs	r3, #128	@ 0x80
 8000e70:	015a      	lsls	r2, r3, #5
 8000e72:	2390      	movs	r3, #144	@ 0x90
 8000e74:	05db      	lsls	r3, r3, #23
 8000e76:	0011      	movs	r1, r2
 8000e78:	0018      	movs	r0, r3
 8000e7a:	f001 feb9 	bl	8002bf0 <HAL_GPIO_TogglePin>

    /* Her 10 pakette bir UART'a ilerleme yaz (debug amacli) */
    if (packets_sent % 10 == 0) {
 8000e7e:	193b      	adds	r3, r7, r4
 8000e80:	681b      	ldr	r3, [r3, #0]
 8000e82:	210a      	movs	r1, #10
 8000e84:	0018      	movs	r0, r3
 8000e86:	f7ff f9cd 	bl	8000224 <__aeabi_uidivmod>
 8000e8a:	1e0b      	subs	r3, r1, #0
 8000e8c:	d114      	bne.n	8000eb8 <FirmwareUpdate_Mode+0x85c>
      Print("[FW] Paket: ");
 8000e8e:	4bb1      	ldr	r3, [pc, #708]	@ (8001154 <FirmwareUpdate_Mode+0xaf8>)
 8000e90:	0018      	movs	r0, r3
 8000e92:	f000 fc9d 	bl	80017d0 <Print>
      PrintHex((uint8_t)(packets_sent >> 8));
 8000e96:	193b      	adds	r3, r7, r4
 8000e98:	681b      	ldr	r3, [r3, #0]
 8000e9a:	0a1b      	lsrs	r3, r3, #8
 8000e9c:	b2db      	uxtb	r3, r3
 8000e9e:	0018      	movs	r0, r3
 8000ea0:	f000 fcb4 	bl	800180c <PrintHex>
      PrintHex((uint8_t)(packets_sent & 0xFF));
 8000ea4:	193b      	adds	r3, r7, r4
 8000ea6:	681b      	ldr	r3, [r3, #0]
 8000ea8:	b2db      	uxtb	r3, r3
 8000eaa:	0018      	movs	r0, r3
 8000eac:	f000 fcae 	bl	800180c <PrintHex>
      Print("\r\n");
 8000eb0:	4ba9      	ldr	r3, [pc, #676]	@ (8001158 <FirmwareUpdate_Mode+0xafc>)
 8000eb2:	0018      	movs	r0, r3
 8000eb4:	f000 fc8c 	bl	80017d0 <Print>
  while (packets_sent < total_fw_packets) {
 8000eb8:	23e8      	movs	r3, #232	@ 0xe8
 8000eba:	18fb      	adds	r3, r7, r3
 8000ebc:	681a      	ldr	r2, [r3, #0]
 8000ebe:	23d4      	movs	r3, #212	@ 0xd4
 8000ec0:	18fb      	adds	r3, r7, r3
 8000ec2:	681b      	ldr	r3, [r3, #0]
 8000ec4:	429a      	cmp	r2, r3
 8000ec6:	d200      	bcs.n	8000eca <FirmwareUpdate_Mode+0x86e>
 8000ec8:	e6e8      	b.n	8000c9c <FirmwareUpdate_Mode+0x640>
   * 2 RF_CMD_SIG_CHUNK paketiyle aliciya ilet:
   *   chunk 0: [0x00][imza[0..31]]  = 33 byte
   *   chunk 1: [0x01][imza[32..63]] = 33 byte
   * Her chunk icin ACK bekle, sonra PC'ye tek ACK ver.
   * =================================================================== */
  Print("[FW] Ed25519 imza bekleniyor...\r\n");
 8000eca:	4ba4      	ldr	r3, [pc, #656]	@ (800115c <FirmwareUpdate_Mode+0xb00>)
 8000ecc:	0018      	movs	r0, r3
 8000ece:	f000 fc7f 	bl	80017d0 <Print>
  {
    uint8_t sig_buf[64];  /* Ed25519 imzasi: R[32] || S[32] */

    /* PC'den 64-byte Ed25519 imzasini al */
    if (HAL_UART_Receive(&huart1, sig_buf, 64, 15000) != HAL_OK) {
 8000ed2:	4ba3      	ldr	r3, [pc, #652]	@ (8001160 <FirmwareUpdate_Mode+0xb04>)
 8000ed4:	2228      	movs	r2, #40	@ 0x28
 8000ed6:	18b9      	adds	r1, r7, r2
 8000ed8:	489d      	ldr	r0, [pc, #628]	@ (8001150 <FirmwareUpdate_Mode+0xaf4>)
 8000eda:	2240      	movs	r2, #64	@ 0x40
 8000edc:	f003 fd98 	bl	8004a10 <HAL_UART_Receive>
 8000ee0:	1e03      	subs	r3, r0, #0
 8000ee2:	d00b      	beq.n	8000efc <FirmwareUpdate_Mode+0x8a0>
      Print("[FW] HATA: Imza alinamadi!\r\n");
 8000ee4:	4b9f      	ldr	r3, [pc, #636]	@ (8001164 <FirmwareUpdate_Mode+0xb08>)
 8000ee6:	0018      	movs	r0, r3
 8000ee8:	f000 fc72 	bl	80017d0 <Print>
      HAL_UART_Transmit(&huart1, &nack, 1, 100);
 8000eec:	23ba      	movs	r3, #186	@ 0xba
 8000eee:	18f9      	adds	r1, r7, r3
 8000ef0:	4897      	ldr	r0, [pc, #604]	@ (8001150 <FirmwareUpdate_Mode+0xaf4>)
 8000ef2:	2364      	movs	r3, #100	@ 0x64
 8000ef4:	2201      	movs	r2, #1
 8000ef6:	f003 fceb 	bl	80048d0 <HAL_UART_Transmit>
      goto fw_update_cleanup;
 8000efa:	e18c      	b.n	8001216 <FirmwareUpdate_Mode+0xbba>
    }

    /* 2 SIG_CHUNK: her biri [idx:1][data:32] = 33 byte */
    for (uint8_t idx = 0; idx < 2; idx++) {
 8000efc:	23e4      	movs	r3, #228	@ 0xe4
 8000efe:	18fb      	adds	r3, r7, r3
 8000f00:	2200      	movs	r2, #0
 8000f02:	701a      	strb	r2, [r3, #0]
 8000f04:	e06b      	b.n	8000fde <FirmwareUpdate_Mode+0x982>
      uint8_t chunk[33];
      chunk[0] = idx;
 8000f06:	4b98      	ldr	r3, [pc, #608]	@ (8001168 <FirmwareUpdate_Mode+0xb0c>)
 8000f08:	2284      	movs	r2, #132	@ 0x84
 8000f0a:	0052      	lsls	r2, r2, #1
 8000f0c:	189b      	adds	r3, r3, r2
 8000f0e:	19db      	adds	r3, r3, r7
 8000f10:	21e4      	movs	r1, #228	@ 0xe4
 8000f12:	187a      	adds	r2, r7, r1
 8000f14:	7812      	ldrb	r2, [r2, #0]
 8000f16:	701a      	strb	r2, [r3, #0]
      memcpy(&chunk[1], &sig_buf[idx * 32], 32);
 8000f18:	187b      	adds	r3, r7, r1
 8000f1a:	781b      	ldrb	r3, [r3, #0]
 8000f1c:	015b      	lsls	r3, r3, #5
 8000f1e:	2228      	movs	r2, #40	@ 0x28
 8000f20:	18ba      	adds	r2, r7, r2
 8000f22:	18d1      	adds	r1, r2, r3
 8000f24:	1d3b      	adds	r3, r7, #4
 8000f26:	3301      	adds	r3, #1
 8000f28:	2220      	movs	r2, #32
 8000f2a:	0018      	movs	r0, r3
 8000f2c:	f004 fd14 	bl	8005958 <memcpy>

      uint8_t chunk_ok = 0;
 8000f30:	23e3      	movs	r3, #227	@ 0xe3
 8000f32:	18fb      	adds	r3, r7, r3
 8000f34:	2200      	movs	r2, #0
 8000f36:	701a      	strb	r2, [r3, #0]
      for (uint8_t retry = 0; retry < RF_MAX_RETRIES && !chunk_ok; retry++) {
 8000f38:	23e2      	movs	r3, #226	@ 0xe2
 8000f3a:	18fb      	adds	r3, r7, r3
 8000f3c:	2200      	movs	r2, #0
 8000f3e:	701a      	strb	r2, [r3, #0]
 8000f40:	e026      	b.n	8000f90 <FirmwareUpdate_Mode+0x934>
        RF_SendPacket(RF_CMD_SIG_CHUNK, rf_seq_counter, chunk, 33);
 8000f42:	4b81      	ldr	r3, [pc, #516]	@ (8001148 <FirmwareUpdate_Mode+0xaec>)
 8000f44:	8819      	ldrh	r1, [r3, #0]
 8000f46:	1d3a      	adds	r2, r7, #4
 8000f48:	2321      	movs	r3, #33	@ 0x21
 8000f4a:	2019      	movs	r0, #25
 8000f4c:	f000 fb2a 	bl	80015a4 <RF_SendPacket>
        HAL_IWDG_Refresh(&hiwdg);
 8000f50:	4b86      	ldr	r3, [pc, #536]	@ (800116c <FirmwareUpdate_Mode+0xb10>)
 8000f52:	0018      	movs	r0, r3
 8000f54:	f001 fee0 	bl	8002d18 <HAL_IWDG_Refresh>
        if (RF_WaitForPacket(&rx_type, &rx_seq, rx_pld, &rx_pld_len, 3000)) {
 8000f58:	2381      	movs	r3, #129	@ 0x81
 8000f5a:	18fb      	adds	r3, r7, r3
 8000f5c:	2284      	movs	r2, #132	@ 0x84
 8000f5e:	18ba      	adds	r2, r7, r2
 8000f60:	2182      	movs	r1, #130	@ 0x82
 8000f62:	1879      	adds	r1, r7, r1
 8000f64:	25b9      	movs	r5, #185	@ 0xb9
 8000f66:	1978      	adds	r0, r7, r5
 8000f68:	4c81      	ldr	r4, [pc, #516]	@ (8001170 <FirmwareUpdate_Mode+0xb14>)
 8000f6a:	9400      	str	r4, [sp, #0]
 8000f6c:	f000 fb6c 	bl	8001648 <RF_WaitForPacket>
 8000f70:	1e03      	subs	r3, r0, #0
 8000f72:	d007      	beq.n	8000f84 <FirmwareUpdate_Mode+0x928>
          if (rx_type == RF_CMD_ACK) chunk_ok = 1;
 8000f74:	197b      	adds	r3, r7, r5
 8000f76:	781b      	ldrb	r3, [r3, #0]
 8000f78:	2b10      	cmp	r3, #16
 8000f7a:	d103      	bne.n	8000f84 <FirmwareUpdate_Mode+0x928>
 8000f7c:	23e3      	movs	r3, #227	@ 0xe3
 8000f7e:	18fb      	adds	r3, r7, r3
 8000f80:	2201      	movs	r2, #1
 8000f82:	701a      	strb	r2, [r3, #0]
      for (uint8_t retry = 0; retry < RF_MAX_RETRIES && !chunk_ok; retry++) {
 8000f84:	21e2      	movs	r1, #226	@ 0xe2
 8000f86:	187b      	adds	r3, r7, r1
 8000f88:	781a      	ldrb	r2, [r3, #0]
 8000f8a:	187b      	adds	r3, r7, r1
 8000f8c:	3201      	adds	r2, #1
 8000f8e:	701a      	strb	r2, [r3, #0]
 8000f90:	23e2      	movs	r3, #226	@ 0xe2
 8000f92:	18fb      	adds	r3, r7, r3
 8000f94:	781b      	ldrb	r3, [r3, #0]
 8000f96:	2b04      	cmp	r3, #4
 8000f98:	d804      	bhi.n	8000fa4 <FirmwareUpdate_Mode+0x948>
 8000f9a:	23e3      	movs	r3, #227	@ 0xe3
 8000f9c:	18fb      	adds	r3, r7, r3
 8000f9e:	781b      	ldrb	r3, [r3, #0]
 8000fa0:	2b00      	cmp	r3, #0
 8000fa2:	d0ce      	beq.n	8000f42 <FirmwareUpdate_Mode+0x8e6>
        }
      }
      rf_seq_counter++;
 8000fa4:	4b68      	ldr	r3, [pc, #416]	@ (8001148 <FirmwareUpdate_Mode+0xaec>)
 8000fa6:	881b      	ldrh	r3, [r3, #0]
 8000fa8:	3301      	adds	r3, #1
 8000faa:	b29a      	uxth	r2, r3
 8000fac:	4b66      	ldr	r3, [pc, #408]	@ (8001148 <FirmwareUpdate_Mode+0xaec>)
 8000fae:	801a      	strh	r2, [r3, #0]

      if (!chunk_ok) {
 8000fb0:	23e3      	movs	r3, #227	@ 0xe3
 8000fb2:	18fb      	adds	r3, r7, r3
 8000fb4:	781b      	ldrb	r3, [r3, #0]
 8000fb6:	2b00      	cmp	r3, #0
 8000fb8:	d10b      	bne.n	8000fd2 <FirmwareUpdate_Mode+0x976>
        Print("[FW] HATA: Imza chunk gonderilemedi!\r\n");
 8000fba:	4b6e      	ldr	r3, [pc, #440]	@ (8001174 <FirmwareUpdate_Mode+0xb18>)
 8000fbc:	0018      	movs	r0, r3
 8000fbe:	f000 fc07 	bl	80017d0 <Print>
        HAL_UART_Transmit(&huart1, &nack, 1, 100);
 8000fc2:	23ba      	movs	r3, #186	@ 0xba
 8000fc4:	18f9      	adds	r1, r7, r3
 8000fc6:	4862      	ldr	r0, [pc, #392]	@ (8001150 <FirmwareUpdate_Mode+0xaf4>)
 8000fc8:	2364      	movs	r3, #100	@ 0x64
 8000fca:	2201      	movs	r2, #1
 8000fcc:	f003 fc80 	bl	80048d0 <HAL_UART_Transmit>
      goto fw_update_cleanup;
 8000fd0:	e121      	b.n	8001216 <FirmwareUpdate_Mode+0xbba>
    for (uint8_t idx = 0; idx < 2; idx++) {
 8000fd2:	21e4      	movs	r1, #228	@ 0xe4
 8000fd4:	187b      	adds	r3, r7, r1
 8000fd6:	781a      	ldrb	r2, [r3, #0]
 8000fd8:	187b      	adds	r3, r7, r1
 8000fda:	3201      	adds	r2, #1
 8000fdc:	701a      	strb	r2, [r3, #0]
 8000fde:	23e4      	movs	r3, #228	@ 0xe4
 8000fe0:	18fb      	adds	r3, r7, r3
 8000fe2:	781b      	ldrb	r3, [r3, #0]
 8000fe4:	2b01      	cmp	r3, #1
 8000fe6:	d98e      	bls.n	8000f06 <FirmwareUpdate_Mode+0x8aa>
        goto fw_update_cleanup;
      }
    }

    /* Imza aliciya ulasti — PC'ye ACK ver */
    HAL_UART_Transmit(&huart1, &ack, 1, 100);
 8000fe8:	23bb      	movs	r3, #187	@ 0xbb
 8000fea:	18f9      	adds	r1, r7, r3
 8000fec:	4858      	ldr	r0, [pc, #352]	@ (8001150 <FirmwareUpdate_Mode+0xaf4>)
 8000fee:	2364      	movs	r3, #100	@ 0x64
 8000ff0:	2201      	movs	r2, #1
 8000ff2:	f003 fc6d 	bl	80048d0 <HAL_UART_Transmit>
    Print("[FW] Imza gonderildi\r\n");
 8000ff6:	4b60      	ldr	r3, [pc, #384]	@ (8001178 <FirmwareUpdate_Mode+0xb1c>)
 8000ff8:	0018      	movs	r0, r3
 8000ffa:	f000 fbe9 	bl	80017d0 <Print>
  /* ===================================================================
   * ADIM 5: FINAL DOGRULAMA SONUCU
   * Alici tum veriyi flash'a yazdiktan sonra CRC-32 dogrulamasi yapar.
   * UPDATE_COMPLETE → basari | UPDATE_FAILED → hata kodu ile basarisiz
   * =================================================================== */
  Print("[FW] Final sonucu bekleniyor...\r\n");
 8000ffe:	4b5f      	ldr	r3, [pc, #380]	@ (800117c <FirmwareUpdate_Mode+0xb20>)
 8001000:	0018      	movs	r0, r3
 8001002:	f000 fbe5 	bl	80017d0 <Print>

  uint8_t final_received = 0;
 8001006:	23e1      	movs	r3, #225	@ 0xe1
 8001008:	18fb      	adds	r3, r7, r3
 800100a:	2200      	movs	r2, #0
 800100c:	701a      	strb	r2, [r3, #0]
  uint32_t final_start = HAL_GetTick();
 800100e:	f001 f9b5 	bl	800237c <HAL_GetTick>
 8001012:	0003      	movs	r3, r0
 8001014:	22c0      	movs	r2, #192	@ 0xc0
 8001016:	18ba      	adds	r2, r7, r2
 8001018:	6013      	str	r3, [r2, #0]

  while (!final_received && (HAL_GetTick() - final_start) < 45000) { // 45 sn timeout
 800101a:	e0da      	b.n	80011d2 <FirmwareUpdate_Mode+0xb76>
    HAL_IWDG_Refresh(&hiwdg);
 800101c:	4b53      	ldr	r3, [pc, #332]	@ (800116c <FirmwareUpdate_Mode+0xb10>)
 800101e:	0018      	movs	r0, r3
 8001020:	f001 fe7a 	bl	8002d18 <HAL_IWDG_Refresh>

    if (RF_WaitForPacket(&rx_type, &rx_seq, rx_pld, &rx_pld_len, 5000)) {
 8001024:	2381      	movs	r3, #129	@ 0x81
 8001026:	18fb      	adds	r3, r7, r3
 8001028:	2284      	movs	r2, #132	@ 0x84
 800102a:	18ba      	adds	r2, r7, r2
 800102c:	2582      	movs	r5, #130	@ 0x82
 800102e:	1979      	adds	r1, r7, r5
 8001030:	26b9      	movs	r6, #185	@ 0xb9
 8001032:	19b8      	adds	r0, r7, r6
 8001034:	4c52      	ldr	r4, [pc, #328]	@ (8001180 <FirmwareUpdate_Mode+0xb24>)
 8001036:	9400      	str	r4, [sp, #0]
 8001038:	f000 fb06 	bl	8001648 <RF_WaitForPacket>
 800103c:	1e03      	subs	r3, r0, #0
 800103e:	d100      	bne.n	8001042 <FirmwareUpdate_Mode+0x9e6>
 8001040:	e0c7      	b.n	80011d2 <FirmwareUpdate_Mode+0xb76>
      if (rx_type == RF_CMD_UPDATE_COMPLETE) {
 8001042:	19bb      	adds	r3, r7, r6
 8001044:	781b      	ldrb	r3, [r3, #0]
 8001046:	2b06      	cmp	r3, #6
 8001048:	d14c      	bne.n	80010e4 <FirmwareUpdate_Mode+0xa88>
        /* Guncelleme basarili */
        final_received = 1;
 800104a:	23e1      	movs	r3, #225	@ 0xe1
 800104c:	18fb      	adds	r3, r7, r3
 800104e:	2201      	movs	r2, #1
 8001050:	701a      	strb	r2, [r3, #0]
        Print("[FW] *** GUNCELLEME BASARILI! ***\r\n");
 8001052:	4b4c      	ldr	r3, [pc, #304]	@ (8001184 <FirmwareUpdate_Mode+0xb28>)
 8001054:	0018      	movs	r0, r3
 8001056:	f000 fbbb 	bl	80017d0 <Print>
        RF_SendPacket(RF_CMD_ACK, rx_seq, NULL, 0); // Aliciya: tebrik alindi
 800105a:	197b      	adds	r3, r7, r5
 800105c:	8819      	ldrh	r1, [r3, #0]
 800105e:	2300      	movs	r3, #0
 8001060:	2200      	movs	r2, #0
 8001062:	2010      	movs	r0, #16
 8001064:	f000 fa9e 	bl	80015a4 <RF_SendPacket>
        HAL_UART_Transmit(&huart1, &ack, 1, 100);   // PC'ye: basari
 8001068:	23bb      	movs	r3, #187	@ 0xbb
 800106a:	18f9      	adds	r1, r7, r3
 800106c:	4838      	ldr	r0, [pc, #224]	@ (8001150 <FirmwareUpdate_Mode+0xaf4>)
 800106e:	2364      	movs	r3, #100	@ 0x64
 8001070:	2201      	movs	r2, #1
 8001072:	f003 fc2d 	bl	80048d0 <HAL_UART_Transmit>

        /* Her iki LED 5 kez yanip sonsun — gorsel basari gostergesi */
        for (int i = 0; i < 5; i++) {
 8001076:	2300      	movs	r3, #0
 8001078:	22dc      	movs	r2, #220	@ 0xdc
 800107a:	18ba      	adds	r2, r7, r2
 800107c:	6013      	str	r3, [r2, #0]
 800107e:	e02b      	b.n	80010d8 <FirmwareUpdate_Mode+0xa7c>
          HAL_GPIO_WritePin(LED0_GPIO_Port, LED0_Pin, GPIO_PIN_SET);
 8001080:	4b41      	ldr	r3, [pc, #260]	@ (8001188 <FirmwareUpdate_Mode+0xb2c>)
 8001082:	2201      	movs	r2, #1
 8001084:	2140      	movs	r1, #64	@ 0x40
 8001086:	0018      	movs	r0, r3
 8001088:	f001 fd95 	bl	8002bb6 <HAL_GPIO_WritePin>
          HAL_GPIO_WritePin(LED1_GPIO_Port, LED1_Pin, GPIO_PIN_SET);
 800108c:	2380      	movs	r3, #128	@ 0x80
 800108e:	0159      	lsls	r1, r3, #5
 8001090:	2390      	movs	r3, #144	@ 0x90
 8001092:	05db      	lsls	r3, r3, #23
 8001094:	2201      	movs	r2, #1
 8001096:	0018      	movs	r0, r3
 8001098:	f001 fd8d 	bl	8002bb6 <HAL_GPIO_WritePin>
          HAL_Delay(200);
 800109c:	20c8      	movs	r0, #200	@ 0xc8
 800109e:	f001 f977 	bl	8002390 <HAL_Delay>
          HAL_GPIO_WritePin(LED0_GPIO_Port, LED0_Pin, GPIO_PIN_RESET);
 80010a2:	4b39      	ldr	r3, [pc, #228]	@ (8001188 <FirmwareUpdate_Mode+0xb2c>)
 80010a4:	2200      	movs	r2, #0
 80010a6:	2140      	movs	r1, #64	@ 0x40
 80010a8:	0018      	movs	r0, r3
 80010aa:	f001 fd84 	bl	8002bb6 <HAL_GPIO_WritePin>
          HAL_GPIO_WritePin(LED1_GPIO_Port, LED1_Pin, GPIO_PIN_RESET);
 80010ae:	2380      	movs	r3, #128	@ 0x80
 80010b0:	0159      	lsls	r1, r3, #5
 80010b2:	2390      	movs	r3, #144	@ 0x90
 80010b4:	05db      	lsls	r3, r3, #23
 80010b6:	2200      	movs	r2, #0
 80010b8:	0018      	movs	r0, r3
 80010ba:	f001 fd7c 	bl	8002bb6 <HAL_GPIO_WritePin>
          HAL_Delay(200);
 80010be:	20c8      	movs	r0, #200	@ 0xc8
 80010c0:	f001 f966 	bl	8002390 <HAL_Delay>
          HAL_IWDG_Refresh(&hiwdg);
 80010c4:	4b29      	ldr	r3, [pc, #164]	@ (800116c <FirmwareUpdate_Mode+0xb10>)
 80010c6:	0018      	movs	r0, r3
 80010c8:	f001 fe26 	bl	8002d18 <HAL_IWDG_Refresh>
        for (int i = 0; i < 5; i++) {
 80010cc:	22dc      	movs	r2, #220	@ 0xdc
 80010ce:	18bb      	adds	r3, r7, r2
 80010d0:	681b      	ldr	r3, [r3, #0]
 80010d2:	3301      	adds	r3, #1
 80010d4:	18ba      	adds	r2, r7, r2
 80010d6:	6013      	str	r3, [r2, #0]
 80010d8:	23dc      	movs	r3, #220	@ 0xdc
 80010da:	18fb      	adds	r3, r7, r3
 80010dc:	681b      	ldr	r3, [r3, #0]
 80010de:	2b04      	cmp	r3, #4
 80010e0:	ddce      	ble.n	8001080 <FirmwareUpdate_Mode+0xa24>
 80010e2:	e076      	b.n	80011d2 <FirmwareUpdate_Mode+0xb76>
        }
      } else if (rx_type == RF_CMD_UPDATE_FAILED) {
 80010e4:	23b9      	movs	r3, #185	@ 0xb9
 80010e6:	18fb      	adds	r3, r7, r3
 80010e8:	781b      	ldrb	r3, [r3, #0]
 80010ea:	2b07      	cmp	r3, #7
 80010ec:	d171      	bne.n	80011d2 <FirmwareUpdate_Mode+0xb76>
        /* Guncelleme basarisiz — alici hata kodu gonderdi */
        final_received = 1;
 80010ee:	23e1      	movs	r3, #225	@ 0xe1
 80010f0:	18fb      	adds	r3, r7, r3
 80010f2:	2201      	movs	r2, #1
 80010f4:	701a      	strb	r2, [r3, #0]
        Print("[FW] HATA: Guncelleme basarisiz! Hata kodu: ");
 80010f6:	4b25      	ldr	r3, [pc, #148]	@ (800118c <FirmwareUpdate_Mode+0xb30>)
 80010f8:	0018      	movs	r0, r3
 80010fa:	f000 fb69 	bl	80017d0 <Print>
        if (rx_pld_len > 0) {
 80010fe:	2381      	movs	r3, #129	@ 0x81
 8001100:	18fb      	adds	r3, r7, r3
 8001102:	781b      	ldrb	r3, [r3, #0]
 8001104:	2b00      	cmp	r3, #0
 8001106:	d005      	beq.n	8001114 <FirmwareUpdate_Mode+0xab8>
          PrintHex(rx_pld[0]); // RF_ERR_xxx kodu (rf_bootloader.h'e bak)
 8001108:	2384      	movs	r3, #132	@ 0x84
 800110a:	18fb      	adds	r3, r7, r3
 800110c:	781b      	ldrb	r3, [r3, #0]
 800110e:	0018      	movs	r0, r3
 8001110:	f000 fb7c 	bl	800180c <PrintHex>
        }
        Print("\r\n");
 8001114:	4b10      	ldr	r3, [pc, #64]	@ (8001158 <FirmwareUpdate_Mode+0xafc>)
 8001116:	0018      	movs	r0, r3
 8001118:	f000 fb5a 	bl	80017d0 <Print>
        RF_SendPacket(RF_CMD_ACK, rx_seq, NULL, 0); // Aliciya: mesaj alindi
 800111c:	2382      	movs	r3, #130	@ 0x82
 800111e:	18fb      	adds	r3, r7, r3
 8001120:	8819      	ldrh	r1, [r3, #0]
 8001122:	2300      	movs	r3, #0
 8001124:	2200      	movs	r2, #0
 8001126:	2010      	movs	r0, #16
 8001128:	f000 fa3c 	bl	80015a4 <RF_SendPacket>
        HAL_UART_Transmit(&huart1, &nack, 1, 100);  // PC'ye: basarisiz
 800112c:	23ba      	movs	r3, #186	@ 0xba
 800112e:	18f9      	adds	r1, r7, r3
 8001130:	4807      	ldr	r0, [pc, #28]	@ (8001150 <FirmwareUpdate_Mode+0xaf4>)
 8001132:	2364      	movs	r3, #100	@ 0x64
 8001134:	2201      	movs	r2, #1
 8001136:	f003 fbcb 	bl	80048d0 <HAL_UART_Transmit>

        /* LED0 10 kez hizli yanip sonsun — hata gostergesi */
        for (int i = 0; i < 10; i++) {
 800113a:	2300      	movs	r3, #0
 800113c:	22d8      	movs	r2, #216	@ 0xd8
 800113e:	18ba      	adds	r2, r7, r2
 8001140:	6013      	str	r3, [r2, #0]
 8001142:	e041      	b.n	80011c8 <FirmwareUpdate_Mode+0xb6c>
 8001144:	200000a0 	.word	0x200000a0
 8001148:	20000134 	.word	0x20000134
 800114c:	08005d94 	.word	0x08005d94
 8001150:	2000022c 	.word	0x2000022c
 8001154:	08005db8 	.word	0x08005db8
 8001158:	08005dc8 	.word	0x08005dc8
 800115c:	08005dcc 	.word	0x08005dcc
 8001160:	00003a98 	.word	0x00003a98
 8001164:	08005df0 	.word	0x08005df0
 8001168:	fffffefc 	.word	0xfffffefc
 800116c:	2000002c 	.word	0x2000002c
 8001170:	00000bb8 	.word	0x00000bb8
 8001174:	08005e10 	.word	0x08005e10
 8001178:	08005e38 	.word	0x08005e38
 800117c:	08005e50 	.word	0x08005e50
 8001180:	00001388 	.word	0x00001388
 8001184:	08005e74 	.word	0x08005e74
 8001188:	48001400 	.word	0x48001400
 800118c:	08005e98 	.word	0x08005e98
          HAL_GPIO_WritePin(LED0_GPIO_Port, LED0_Pin, GPIO_PIN_SET);
 8001190:	4b2d      	ldr	r3, [pc, #180]	@ (8001248 <FirmwareUpdate_Mode+0xbec>)
 8001192:	2201      	movs	r2, #1
 8001194:	2140      	movs	r1, #64	@ 0x40
 8001196:	0018      	movs	r0, r3
 8001198:	f001 fd0d 	bl	8002bb6 <HAL_GPIO_WritePin>
          HAL_Delay(100);
 800119c:	2064      	movs	r0, #100	@ 0x64
 800119e:	f001 f8f7 	bl	8002390 <HAL_Delay>
          HAL_GPIO_WritePin(LED0_GPIO_Port, LED0_Pin, GPIO_PIN_RESET);
 80011a2:	4b29      	ldr	r3, [pc, #164]	@ (8001248 <FirmwareUpdate_Mode+0xbec>)
 80011a4:	2200      	movs	r2, #0
 80011a6:	2140      	movs	r1, #64	@ 0x40
 80011a8:	0018      	movs	r0, r3
 80011aa:	f001 fd04 	bl	8002bb6 <HAL_GPIO_WritePin>
          HAL_Delay(100);
 80011ae:	2064      	movs	r0, #100	@ 0x64
 80011b0:	f001 f8ee 	bl	8002390 <HAL_Delay>
          HAL_IWDG_Refresh(&hiwdg);
 80011b4:	4b25      	ldr	r3, [pc, #148]	@ (800124c <FirmwareUpdate_Mode+0xbf0>)
 80011b6:	0018      	movs	r0, r3
 80011b8:	f001 fdae 	bl	8002d18 <HAL_IWDG_Refresh>
        for (int i = 0; i < 10; i++) {
 80011bc:	22d8      	movs	r2, #216	@ 0xd8
 80011be:	18bb      	adds	r3, r7, r2
 80011c0:	681b      	ldr	r3, [r3, #0]
 80011c2:	3301      	adds	r3, #1
 80011c4:	18ba      	adds	r2, r7, r2
 80011c6:	6013      	str	r3, [r2, #0]
 80011c8:	23d8      	movs	r3, #216	@ 0xd8
 80011ca:	18fb      	adds	r3, r7, r3
 80011cc:	681b      	ldr	r3, [r3, #0]
 80011ce:	2b09      	cmp	r3, #9
 80011d0:	ddde      	ble.n	8001190 <FirmwareUpdate_Mode+0xb34>
  while (!final_received && (HAL_GetTick() - final_start) < 45000) { // 45 sn timeout
 80011d2:	23e1      	movs	r3, #225	@ 0xe1
 80011d4:	18fb      	adds	r3, r7, r3
 80011d6:	781b      	ldrb	r3, [r3, #0]
 80011d8:	2b00      	cmp	r3, #0
 80011da:	d10a      	bne.n	80011f2 <FirmwareUpdate_Mode+0xb96>
 80011dc:	f001 f8ce 	bl	800237c <HAL_GetTick>
 80011e0:	0002      	movs	r2, r0
 80011e2:	23c0      	movs	r3, #192	@ 0xc0
 80011e4:	18fb      	adds	r3, r7, r3
 80011e6:	681b      	ldr	r3, [r3, #0]
 80011e8:	1ad3      	subs	r3, r2, r3
 80011ea:	4a19      	ldr	r2, [pc, #100]	@ (8001250 <FirmwareUpdate_Mode+0xbf4>)
 80011ec:	4293      	cmp	r3, r2
 80011ee:	d800      	bhi.n	80011f2 <FirmwareUpdate_Mode+0xb96>
 80011f0:	e714      	b.n	800101c <FirmwareUpdate_Mode+0x9c0>
        }
      }
    }
  }

  if (!final_received) {
 80011f2:	23e1      	movs	r3, #225	@ 0xe1
 80011f4:	18fb      	adds	r3, r7, r3
 80011f6:	781b      	ldrb	r3, [r3, #0]
 80011f8:	2b00      	cmp	r3, #0
 80011fa:	d10b      	bne.n	8001214 <FirmwareUpdate_Mode+0xbb8>
    /* 45 saniye icinde sonuc gelmedi */
    Print("[FW] Uyari: Final sonucu alinamadi (timeout)\r\n");
 80011fc:	4b15      	ldr	r3, [pc, #84]	@ (8001254 <FirmwareUpdate_Mode+0xbf8>)
 80011fe:	0018      	movs	r0, r3
 8001200:	f000 fae6 	bl	80017d0 <Print>
    HAL_UART_Transmit(&huart1, &nack, 1, 100);
 8001204:	23ba      	movs	r3, #186	@ 0xba
 8001206:	18f9      	adds	r1, r7, r3
 8001208:	4813      	ldr	r0, [pc, #76]	@ (8001258 <FirmwareUpdate_Mode+0xbfc>)
 800120a:	2364      	movs	r3, #100	@ 0x64
 800120c:	2201      	movs	r2, #1
 800120e:	f003 fb5f 	bl	80048d0 <HAL_UART_Transmit>
 8001212:	e000      	b.n	8001216 <FirmwareUpdate_Mode+0xbba>
  }

fw_update_cleanup:
 8001214:	46c0      	nop			@ (mov r8, r8)
  /* Temizlik: LED'leri sondur, debug print'i tekrar ac */
  HAL_GPIO_WritePin(LED0_GPIO_Port, LED0_Pin, GPIO_PIN_RESET);
 8001216:	4b0c      	ldr	r3, [pc, #48]	@ (8001248 <FirmwareUpdate_Mode+0xbec>)
 8001218:	2200      	movs	r2, #0
 800121a:	2140      	movs	r1, #64	@ 0x40
 800121c:	0018      	movs	r0, r3
 800121e:	f001 fcca 	bl	8002bb6 <HAL_GPIO_WritePin>
  HAL_GPIO_WritePin(LED1_GPIO_Port, LED1_Pin, GPIO_PIN_RESET);
 8001222:	2380      	movs	r3, #128	@ 0x80
 8001224:	0159      	lsls	r1, r3, #5
 8001226:	2390      	movs	r3, #144	@ 0x90
 8001228:	05db      	lsls	r3, r3, #23
 800122a:	2200      	movs	r2, #0
 800122c:	0018      	movs	r0, r3
 800122e:	f001 fcc2 	bl	8002bb6 <HAL_GPIO_WritePin>

  SenderDebug_SetEnabled(1); // Normal mod debug print'ini tekrar etkinlestir
 8001232:	2001      	movs	r0, #1
 8001234:	f000 fabc 	bl	80017b0 <SenderDebug_SetEnabled>

  Print("[FW] Firmware update modu sona erdi\r\n");
 8001238:	4b08      	ldr	r3, [pc, #32]	@ (800125c <FirmwareUpdate_Mode+0xc00>)
 800123a:	0018      	movs	r0, r3
 800123c:	f000 fac8 	bl	80017d0 <Print>
}
 8001240:	46c0      	nop			@ (mov r8, r8)
 8001242:	46bd      	mov	sp, r7
 8001244:	b043      	add	sp, #268	@ 0x10c
 8001246:	bdf0      	pop	{r4, r5, r6, r7, pc}
 8001248:	48001400 	.word	0x48001400
 800124c:	2000002c 	.word	0x2000002c
 8001250:	0000afc7 	.word	0x0000afc7
 8001254:	08005ec8 	.word	0x08005ec8
 8001258:	2000022c 	.word	0x2000022c
 800125c:	08005ef8 	.word	0x08005ef8

08001260 <HandleNormalModeByte>:
 *
 * 'W'/'w'   → Firmware update moduna gec (geri donunce normal moda devam)
 * '\r'/'\n' → Tamponu gonder, echo bekle
 * Diger     → Tampona ekle, echo karakteri UART'a yansit (terminal goruntuleme)
 */
void HandleNormalModeByte(uint8_t ch) {
 8001260:	b5b0      	push	{r4, r5, r7, lr}
 8001262:	b0a2      	sub	sp, #136	@ 0x88
 8001264:	af00      	add	r7, sp, #0
 8001266:	0002      	movs	r2, r0
 8001268:	1dfb      	adds	r3, r7, #7
 800126a:	701a      	strb	r2, [r3, #0]
  if (ch == 'W' || ch == 'w') {
 800126c:	1dfb      	adds	r3, r7, #7
 800126e:	781b      	ldrb	r3, [r3, #0]
 8001270:	2b57      	cmp	r3, #87	@ 0x57
 8001272:	d003      	beq.n	800127c <HandleNormalModeByte+0x1c>
 8001274:	1dfb      	adds	r3, r7, #7
 8001276:	781b      	ldrb	r3, [r3, #0]
 8001278:	2b77      	cmp	r3, #119	@ 0x77
 800127a:	d10b      	bne.n	8001294 <HandleNormalModeByte+0x34>
    /* Firmware update moduna gec — bitince normal moda doner */
    FirmwareUpdate_Mode();
 800127c:	f7ff f9ee 	bl	800065c <FirmwareUpdate_Mode>
    uart_idx = 0;                   // Tamponu sifirla
 8001280:	4bb7      	ldr	r3, [pc, #732]	@ (8001560 <HandleNormalModeByte+0x300>)
 8001282:	2200      	movs	r2, #0
 8001284:	701a      	strb	r2, [r3, #0]
    memset(uart_buf, 0, MAX_MSG);
 8001286:	4bb7      	ldr	r3, [pc, #732]	@ (8001564 <HandleNormalModeByte+0x304>)
 8001288:	2220      	movs	r2, #32
 800128a:	2100      	movs	r1, #0
 800128c:	0018      	movs	r0, r3
 800128e:	f004 fb37 	bl	8005900 <memset>
    return;
 8001292:	e161      	b.n	8001558 <HandleNormalModeByte+0x2f8>
  }

  if (ch == '\r' || ch == '\n') {
 8001294:	1dfb      	adds	r3, r7, #7
 8001296:	781b      	ldrb	r3, [r3, #0]
 8001298:	2b0d      	cmp	r3, #13
 800129a:	d004      	beq.n	80012a6 <HandleNormalModeByte+0x46>
 800129c:	1dfb      	adds	r3, r7, #7
 800129e:	781b      	ldrb	r3, [r3, #0]
 80012a0:	2b0a      	cmp	r3, #10
 80012a2:	d000      	beq.n	80012a6 <HandleNormalModeByte+0x46>
 80012a4:	e141      	b.n	800152a <HandleNormalModeByte+0x2ca>
    /* Enter'a basildi — tampon doluysa gonder */
    if (uart_idx > 0) {
 80012a6:	4bae      	ldr	r3, [pc, #696]	@ (8001560 <HandleNormalModeByte+0x300>)
 80012a8:	781b      	ldrb	r3, [r3, #0]
 80012aa:	2b00      	cmp	r3, #0
 80012ac:	d100      	bne.n	80012b0 <HandleNormalModeByte+0x50>
 80012ae:	e152      	b.n	8001556 <HandleNormalModeByte+0x2f6>
      HAL_GPIO_WritePin(LED0_GPIO_Port, LED0_Pin, GPIO_PIN_SET); // TX LED yak
 80012b0:	4bad      	ldr	r3, [pc, #692]	@ (8001568 <HandleNormalModeByte+0x308>)
 80012b2:	2201      	movs	r2, #1
 80012b4:	2140      	movs	r1, #64	@ 0x40
 80012b6:	0018      	movs	r0, r3
 80012b8:	f001 fc7d 	bl	8002bb6 <HAL_GPIO_WritePin>

      /* Gondermeden once UART debug ciktisi */
      Print("\r\n[TX] Veri: ");
 80012bc:	4bab      	ldr	r3, [pc, #684]	@ (800156c <HandleNormalModeByte+0x30c>)
 80012be:	0018      	movs	r0, r3
 80012c0:	f000 fa86 	bl	80017d0 <Print>
      PrintBuf(uart_buf, uart_idx);
 80012c4:	4ba6      	ldr	r3, [pc, #664]	@ (8001560 <HandleNormalModeByte+0x300>)
 80012c6:	781b      	ldrb	r3, [r3, #0]
 80012c8:	001a      	movs	r2, r3
 80012ca:	4ba6      	ldr	r3, [pc, #664]	@ (8001564 <HandleNormalModeByte+0x304>)
 80012cc:	0011      	movs	r1, r2
 80012ce:	0018      	movs	r0, r3
 80012d0:	f000 fad8 	bl	8001884 <PrintBuf>
      Print("\r\n[TX] Hex : ");
 80012d4:	4ba6      	ldr	r3, [pc, #664]	@ (8001570 <HandleNormalModeByte+0x310>)
 80012d6:	0018      	movs	r0, r3
 80012d8:	f000 fa7a 	bl	80017d0 <Print>
      for (uint8_t i = 0; i < uart_idx; i++) {
 80012dc:	2387      	movs	r3, #135	@ 0x87
 80012de:	18fb      	adds	r3, r7, r3
 80012e0:	2200      	movs	r2, #0
 80012e2:	701a      	strb	r2, [r3, #0]
 80012e4:	e00c      	b.n	8001300 <HandleNormalModeByte+0xa0>
        PrintHex(uart_buf[i]);
 80012e6:	2487      	movs	r4, #135	@ 0x87
 80012e8:	193b      	adds	r3, r7, r4
 80012ea:	781b      	ldrb	r3, [r3, #0]
 80012ec:	4a9d      	ldr	r2, [pc, #628]	@ (8001564 <HandleNormalModeByte+0x304>)
 80012ee:	5cd3      	ldrb	r3, [r2, r3]
 80012f0:	0018      	movs	r0, r3
 80012f2:	f000 fa8b 	bl	800180c <PrintHex>
      for (uint8_t i = 0; i < uart_idx; i++) {
 80012f6:	193b      	adds	r3, r7, r4
 80012f8:	781a      	ldrb	r2, [r3, #0]
 80012fa:	193b      	adds	r3, r7, r4
 80012fc:	3201      	adds	r2, #1
 80012fe:	701a      	strb	r2, [r3, #0]
 8001300:	4b97      	ldr	r3, [pc, #604]	@ (8001560 <HandleNormalModeByte+0x300>)
 8001302:	781b      	ldrb	r3, [r3, #0]
 8001304:	2287      	movs	r2, #135	@ 0x87
 8001306:	18ba      	adds	r2, r7, r2
 8001308:	7812      	ldrb	r2, [r2, #0]
 800130a:	429a      	cmp	r2, r3
 800130c:	d3eb      	bcc.n	80012e6 <HandleNormalModeByte+0x86>
      }
      Print("\r\n[TX] Gonderiliyor...\r\n");
 800130e:	4b99      	ldr	r3, [pc, #612]	@ (8001574 <HandleNormalModeByte+0x314>)
 8001310:	0018      	movs	r0, r3
 8001312:	f000 fa5d 	bl	80017d0 <Print>

      /* Ham veriyi RF ile gonder (normal modda protokol yok) */
      SI4432_SendPacket(uart_buf, uart_idx);
 8001316:	4b92      	ldr	r3, [pc, #584]	@ (8001560 <HandleNormalModeByte+0x300>)
 8001318:	781a      	ldrb	r2, [r3, #0]
 800131a:	4b92      	ldr	r3, [pc, #584]	@ (8001564 <HandleNormalModeByte+0x304>)
 800131c:	0011      	movs	r1, r2
 800131e:	0018      	movs	r0, r3
 8001320:	f000 fc3c 	bl	8001b9c <SI4432_SendPacket>

      Print("[TX] Gonderildi! Echo bekleniyor...\r\n");
 8001324:	4b94      	ldr	r3, [pc, #592]	@ (8001578 <HandleNormalModeByte+0x318>)
 8001326:	0018      	movs	r0, r3
 8001328:	f000 fa52 	bl	80017d0 <Print>
      HAL_GPIO_WritePin(LED0_GPIO_Port, LED0_Pin, GPIO_PIN_RESET);
 800132c:	4b8e      	ldr	r3, [pc, #568]	@ (8001568 <HandleNormalModeByte+0x308>)
 800132e:	2200      	movs	r2, #0
 8001330:	2140      	movs	r1, #64	@ 0x40
 8001332:	0018      	movs	r0, r3
 8001334:	f001 fc3f 	bl	8002bb6 <HAL_GPIO_WritePin>

      /* Gonderilen veriyi kaydet (echo karsilastirmasi icin) */
      uint8_t sent_len = uart_idx;
 8001338:	2377      	movs	r3, #119	@ 0x77
 800133a:	18fb      	adds	r3, r7, r3
 800133c:	4a88      	ldr	r2, [pc, #544]	@ (8001560 <HandleNormalModeByte+0x300>)
 800133e:	7812      	ldrb	r2, [r2, #0]
 8001340:	701a      	strb	r2, [r3, #0]
      uint8_t sent[MAX_MSG];
      memcpy(sent, uart_buf, uart_idx);
 8001342:	4b87      	ldr	r3, [pc, #540]	@ (8001560 <HandleNormalModeByte+0x300>)
 8001344:	781b      	ldrb	r3, [r3, #0]
 8001346:	001a      	movs	r2, r3
 8001348:	4986      	ldr	r1, [pc, #536]	@ (8001564 <HandleNormalModeByte+0x304>)
 800134a:	230c      	movs	r3, #12
 800134c:	18fb      	adds	r3, r7, r3
 800134e:	0018      	movs	r0, r3
 8001350:	f004 fb02 	bl	8005958 <memcpy>

      /* Tamponu temizle — yeni mesaj icin hazir */
      uart_idx = 0;
 8001354:	4b82      	ldr	r3, [pc, #520]	@ (8001560 <HandleNormalModeByte+0x300>)
 8001356:	2200      	movs	r2, #0
 8001358:	701a      	strb	r2, [r3, #0]
      memset(uart_buf, 0, MAX_MSG);
 800135a:	4b82      	ldr	r3, [pc, #520]	@ (8001564 <HandleNormalModeByte+0x304>)
 800135c:	2220      	movs	r2, #32
 800135e:	2100      	movs	r1, #0
 8001360:	0018      	movs	r0, r3
 8001362:	f004 facd 	bl	8005900 <memset>

      /* Alici moda gec ve echo bekle */
      SI4432_StartRx();
 8001366:	f000 fc85 	bl	8001c74 <SI4432_StartRx>
      HAL_GPIO_WritePin(LED1_GPIO_Port, LED1_Pin, GPIO_PIN_SET); // RX LED yak
 800136a:	2380      	movs	r3, #128	@ 0x80
 800136c:	0159      	lsls	r1, r3, #5
 800136e:	2390      	movs	r3, #144	@ 0x90
 8001370:	05db      	lsls	r3, r3, #23
 8001372:	2201      	movs	r2, #1
 8001374:	0018      	movs	r0, r3
 8001376:	f001 fc1e 	bl	8002bb6 <HAL_GPIO_WritePin>

      uint8_t got_echo = 0;
 800137a:	2386      	movs	r3, #134	@ 0x86
 800137c:	18fb      	adds	r3, r7, r3
 800137e:	2200      	movs	r2, #0
 8001380:	701a      	strb	r2, [r3, #0]
      uint32_t t0 = HAL_GetTick();
 8001382:	f000 fffb 	bl	800237c <HAL_GetTick>
 8001386:	0003      	movs	r3, r0
 8001388:	673b      	str	r3, [r7, #112]	@ 0x70

      while ((HAL_GetTick() - t0) < 10000) { // 10 saniye echo bekle
 800138a:	e098      	b.n	80014be <HandleNormalModeByte+0x25e>
        HAL_IWDG_Refresh(&hiwdg);
 800138c:	4b7b      	ldr	r3, [pc, #492]	@ (800157c <HandleNormalModeByte+0x31c>)
 800138e:	0018      	movs	r0, r3
 8001390:	f001 fcc2 	bl	8002d18 <HAL_IWDG_Refresh>

        uint8_t rx[64];
        uint8_t rx_len = SI4432_CheckRx(rx); // Paket geldi mi kontrol et
 8001394:	256f      	movs	r5, #111	@ 0x6f
 8001396:	197c      	adds	r4, r7, r5
 8001398:	232c      	movs	r3, #44	@ 0x2c
 800139a:	18fb      	adds	r3, r7, r3
 800139c:	0018      	movs	r0, r3
 800139e:	f000 fc87 	bl	8001cb0 <SI4432_CheckRx>
 80013a2:	0003      	movs	r3, r0
 80013a4:	7023      	strb	r3, [r4, #0]

        if (rx_len > 0) {
 80013a6:	197b      	adds	r3, r7, r5
 80013a8:	781b      	ldrb	r3, [r3, #0]
 80013aa:	2b00      	cmp	r3, #0
 80013ac:	d100      	bne.n	80013b0 <HandleNormalModeByte+0x150>
 80013ae:	e086      	b.n	80014be <HandleNormalModeByte+0x25e>
          got_echo = 1;
 80013b0:	2386      	movs	r3, #134	@ 0x86
 80013b2:	18fb      	adds	r3, r7, r3
 80013b4:	2201      	movs	r2, #1
 80013b6:	701a      	strb	r2, [r3, #0]

          /* Echo alindi — her iki LED 3 kez yanip sonsun */
          for (int b = 0; b < 3; b++) {
 80013b8:	2300      	movs	r3, #0
 80013ba:	2280      	movs	r2, #128	@ 0x80
 80013bc:	18ba      	adds	r2, r7, r2
 80013be:	6013      	str	r3, [r2, #0]
 80013c0:	e027      	b.n	8001412 <HandleNormalModeByte+0x1b2>
            HAL_GPIO_WritePin(LED0_GPIO_Port, LED0_Pin, GPIO_PIN_SET);
 80013c2:	4b69      	ldr	r3, [pc, #420]	@ (8001568 <HandleNormalModeByte+0x308>)
 80013c4:	2201      	movs	r2, #1
 80013c6:	2140      	movs	r1, #64	@ 0x40
 80013c8:	0018      	movs	r0, r3
 80013ca:	f001 fbf4 	bl	8002bb6 <HAL_GPIO_WritePin>
            HAL_GPIO_WritePin(LED1_GPIO_Port, LED1_Pin, GPIO_PIN_SET);
 80013ce:	2380      	movs	r3, #128	@ 0x80
 80013d0:	0159      	lsls	r1, r3, #5
 80013d2:	2390      	movs	r3, #144	@ 0x90
 80013d4:	05db      	lsls	r3, r3, #23
 80013d6:	2201      	movs	r2, #1
 80013d8:	0018      	movs	r0, r3
 80013da:	f001 fbec 	bl	8002bb6 <HAL_GPIO_WritePin>
            HAL_Delay(100);
 80013de:	2064      	movs	r0, #100	@ 0x64
 80013e0:	f000 ffd6 	bl	8002390 <HAL_Delay>
            HAL_GPIO_WritePin(LED0_GPIO_Port, LED0_Pin, GPIO_PIN_RESET);
 80013e4:	4b60      	ldr	r3, [pc, #384]	@ (8001568 <HandleNormalModeByte+0x308>)
 80013e6:	2200      	movs	r2, #0
 80013e8:	2140      	movs	r1, #64	@ 0x40
 80013ea:	0018      	movs	r0, r3
 80013ec:	f001 fbe3 	bl	8002bb6 <HAL_GPIO_WritePin>
            HAL_GPIO_WritePin(LED1_GPIO_Port, LED1_Pin, GPIO_PIN_RESET);
 80013f0:	2380      	movs	r3, #128	@ 0x80
 80013f2:	0159      	lsls	r1, r3, #5
 80013f4:	2390      	movs	r3, #144	@ 0x90
 80013f6:	05db      	lsls	r3, r3, #23
 80013f8:	2200      	movs	r2, #0
 80013fa:	0018      	movs	r0, r3
 80013fc:	f001 fbdb 	bl	8002bb6 <HAL_GPIO_WritePin>
            HAL_Delay(100);
 8001400:	2064      	movs	r0, #100	@ 0x64
 8001402:	f000 ffc5 	bl	8002390 <HAL_Delay>
          for (int b = 0; b < 3; b++) {
 8001406:	2280      	movs	r2, #128	@ 0x80
 8001408:	18bb      	adds	r3, r7, r2
 800140a:	681b      	ldr	r3, [r3, #0]
 800140c:	3301      	adds	r3, #1
 800140e:	18ba      	adds	r2, r7, r2
 8001410:	6013      	str	r3, [r2, #0]
 8001412:	2380      	movs	r3, #128	@ 0x80
 8001414:	18fb      	adds	r3, r7, r3
 8001416:	681b      	ldr	r3, [r3, #0]
 8001418:	2b02      	cmp	r3, #2
 800141a:	ddd2      	ble.n	80013c2 <HandleNormalModeByte+0x162>
          }

          /* Alinan veriyi UART'a yaz */
          Print("\r\n[RX] Veri: ");
 800141c:	4b58      	ldr	r3, [pc, #352]	@ (8001580 <HandleNormalModeByte+0x320>)
 800141e:	0018      	movs	r0, r3
 8001420:	f000 f9d6 	bl	80017d0 <Print>
          PrintBuf(rx, rx_len);
 8001424:	236f      	movs	r3, #111	@ 0x6f
 8001426:	18fb      	adds	r3, r7, r3
 8001428:	781b      	ldrb	r3, [r3, #0]
 800142a:	b29a      	uxth	r2, r3
 800142c:	232c      	movs	r3, #44	@ 0x2c
 800142e:	18fb      	adds	r3, r7, r3
 8001430:	0011      	movs	r1, r2
 8001432:	0018      	movs	r0, r3
 8001434:	f000 fa26 	bl	8001884 <PrintBuf>
          Print("\r\n[RX] Hex : ");
 8001438:	4b52      	ldr	r3, [pc, #328]	@ (8001584 <HandleNormalModeByte+0x324>)
 800143a:	0018      	movs	r0, r3
 800143c:	f000 f9c8 	bl	80017d0 <Print>
          for (uint8_t i = 0; i < rx_len; i++) {
 8001440:	237f      	movs	r3, #127	@ 0x7f
 8001442:	18fb      	adds	r3, r7, r3
 8001444:	2200      	movs	r2, #0
 8001446:	701a      	strb	r2, [r3, #0]
 8001448:	e00d      	b.n	8001466 <HandleNormalModeByte+0x206>
            PrintHex(rx[i]);
 800144a:	247f      	movs	r4, #127	@ 0x7f
 800144c:	193b      	adds	r3, r7, r4
 800144e:	781b      	ldrb	r3, [r3, #0]
 8001450:	222c      	movs	r2, #44	@ 0x2c
 8001452:	18ba      	adds	r2, r7, r2
 8001454:	5cd3      	ldrb	r3, [r2, r3]
 8001456:	0018      	movs	r0, r3
 8001458:	f000 f9d8 	bl	800180c <PrintHex>
          for (uint8_t i = 0; i < rx_len; i++) {
 800145c:	193b      	adds	r3, r7, r4
 800145e:	781a      	ldrb	r2, [r3, #0]
 8001460:	193b      	adds	r3, r7, r4
 8001462:	3201      	adds	r2, #1
 8001464:	701a      	strb	r2, [r3, #0]
 8001466:	237f      	movs	r3, #127	@ 0x7f
 8001468:	18fa      	adds	r2, r7, r3
 800146a:	246f      	movs	r4, #111	@ 0x6f
 800146c:	193b      	adds	r3, r7, r4
 800146e:	7812      	ldrb	r2, [r2, #0]
 8001470:	781b      	ldrb	r3, [r3, #0]
 8001472:	429a      	cmp	r2, r3
 8001474:	d3e9      	bcc.n	800144a <HandleNormalModeByte+0x1ea>
          }
          Print("\r\n");
 8001476:	4b44      	ldr	r3, [pc, #272]	@ (8001588 <HandleNormalModeByte+0x328>)
 8001478:	0018      	movs	r0, r3
 800147a:	f000 f9a9 	bl	80017d0 <Print>

          /* Gonderilen ile alinan ayni mi? */
          if (rx_len == sent_len && memcmp(sent, rx, sent_len) == 0) {
 800147e:	193a      	adds	r2, r7, r4
 8001480:	2177      	movs	r1, #119	@ 0x77
 8001482:	187b      	adds	r3, r7, r1
 8001484:	7812      	ldrb	r2, [r2, #0]
 8001486:	781b      	ldrb	r3, [r3, #0]
 8001488:	429a      	cmp	r2, r3
 800148a:	d10f      	bne.n	80014ac <HandleNormalModeByte+0x24c>
 800148c:	187b      	adds	r3, r7, r1
 800148e:	781a      	ldrb	r2, [r3, #0]
 8001490:	232c      	movs	r3, #44	@ 0x2c
 8001492:	18f9      	adds	r1, r7, r3
 8001494:	230c      	movs	r3, #12
 8001496:	18fb      	adds	r3, r7, r3
 8001498:	0018      	movs	r0, r3
 800149a:	f004 fa23 	bl	80058e4 <memcmp>
 800149e:	1e03      	subs	r3, r0, #0
 80014a0:	d104      	bne.n	80014ac <HandleNormalModeByte+0x24c>
            Print("[SONUC] BASARILI!\r\n"); // Birebir eslesme
 80014a2:	4b3a      	ldr	r3, [pc, #232]	@ (800158c <HandleNormalModeByte+0x32c>)
 80014a4:	0018      	movs	r0, r3
 80014a6:	f000 f993 	bl	80017d0 <Print>
 80014aa:	e003      	b.n	80014b4 <HandleNormalModeByte+0x254>
          } else {
            Print("[SONUC] FARKLI!\r\n"); // Uzunluk veya icerik farki var
 80014ac:	4b38      	ldr	r3, [pc, #224]	@ (8001590 <HandleNormalModeByte+0x330>)
 80014ae:	0018      	movs	r0, r3
 80014b0:	f000 f98e 	bl	80017d0 <Print>
          }
          Print("---\r\n\r\n");
 80014b4:	4b37      	ldr	r3, [pc, #220]	@ (8001594 <HandleNormalModeByte+0x334>)
 80014b6:	0018      	movs	r0, r3
 80014b8:	f000 f98a 	bl	80017d0 <Print>
 80014bc:	e008      	b.n	80014d0 <HandleNormalModeByte+0x270>
      while ((HAL_GetTick() - t0) < 10000) { // 10 saniye echo bekle
 80014be:	f000 ff5d 	bl	800237c <HAL_GetTick>
 80014c2:	0002      	movs	r2, r0
 80014c4:	6f3b      	ldr	r3, [r7, #112]	@ 0x70
 80014c6:	1ad3      	subs	r3, r2, r3
 80014c8:	4a33      	ldr	r2, [pc, #204]	@ (8001598 <HandleNormalModeByte+0x338>)
 80014ca:	4293      	cmp	r3, r2
 80014cc:	d800      	bhi.n	80014d0 <HandleNormalModeByte+0x270>
 80014ce:	e75d      	b.n	800138c <HandleNormalModeByte+0x12c>
          break;
        }
      }

      HAL_GPIO_WritePin(LED1_GPIO_Port, LED1_Pin, GPIO_PIN_RESET); // RX LED sondur
 80014d0:	2380      	movs	r3, #128	@ 0x80
 80014d2:	0159      	lsls	r1, r3, #5
 80014d4:	2390      	movs	r3, #144	@ 0x90
 80014d6:	05db      	lsls	r3, r3, #23
 80014d8:	2200      	movs	r2, #0
 80014da:	0018      	movs	r0, r3
 80014dc:	f001 fb6b 	bl	8002bb6 <HAL_GPIO_WritePin>
      if (!got_echo) {
 80014e0:	2386      	movs	r3, #134	@ 0x86
 80014e2:	18fb      	adds	r3, r7, r3
 80014e4:	781b      	ldrb	r3, [r3, #0]
 80014e6:	2b00      	cmp	r3, #0
 80014e8:	d135      	bne.n	8001556 <HandleNormalModeByte+0x2f6>
        /* 10 saniye icerisinde echo gelmedi — LED0 5 kez yanip sonsun */
        for (int b = 0; b < 5; b++) {
 80014ea:	2300      	movs	r3, #0
 80014ec:	67bb      	str	r3, [r7, #120]	@ 0x78
 80014ee:	e014      	b.n	800151a <HandleNormalModeByte+0x2ba>
          HAL_GPIO_WritePin(LED0_GPIO_Port, LED0_Pin, GPIO_PIN_SET);
 80014f0:	4b1d      	ldr	r3, [pc, #116]	@ (8001568 <HandleNormalModeByte+0x308>)
 80014f2:	2201      	movs	r2, #1
 80014f4:	2140      	movs	r1, #64	@ 0x40
 80014f6:	0018      	movs	r0, r3
 80014f8:	f001 fb5d 	bl	8002bb6 <HAL_GPIO_WritePin>
          HAL_Delay(50);
 80014fc:	2032      	movs	r0, #50	@ 0x32
 80014fe:	f000 ff47 	bl	8002390 <HAL_Delay>
          HAL_GPIO_WritePin(LED0_GPIO_Port, LED0_Pin, GPIO_PIN_RESET);
 8001502:	4b19      	ldr	r3, [pc, #100]	@ (8001568 <HandleNormalModeByte+0x308>)
 8001504:	2200      	movs	r2, #0
 8001506:	2140      	movs	r1, #64	@ 0x40
 8001508:	0018      	movs	r0, r3
 800150a:	f001 fb54 	bl	8002bb6 <HAL_GPIO_WritePin>
          HAL_Delay(50);
 800150e:	2032      	movs	r0, #50	@ 0x32
 8001510:	f000 ff3e 	bl	8002390 <HAL_Delay>
        for (int b = 0; b < 5; b++) {
 8001514:	6fbb      	ldr	r3, [r7, #120]	@ 0x78
 8001516:	3301      	adds	r3, #1
 8001518:	67bb      	str	r3, [r7, #120]	@ 0x78
 800151a:	6fbb      	ldr	r3, [r7, #120]	@ 0x78
 800151c:	2b04      	cmp	r3, #4
 800151e:	dde7      	ble.n	80014f0 <HandleNormalModeByte+0x290>
        }
        Print("[RX] TIMEOUT!\r\n---\r\n\r\n");
 8001520:	4b1e      	ldr	r3, [pc, #120]	@ (800159c <HandleNormalModeByte+0x33c>)
 8001522:	0018      	movs	r0, r3
 8001524:	f000 f954 	bl	80017d0 <Print>
    if (uart_idx > 0) {
 8001528:	e015      	b.n	8001556 <HandleNormalModeByte+0x2f6>
      }
    }
  } else {
    /* Normal karakter — tampona ekle, terminale yanit */
    if (uart_idx < MAX_MSG) {
 800152a:	4b0d      	ldr	r3, [pc, #52]	@ (8001560 <HandleNormalModeByte+0x300>)
 800152c:	781b      	ldrb	r3, [r3, #0]
 800152e:	2b1f      	cmp	r3, #31
 8001530:	d812      	bhi.n	8001558 <HandleNormalModeByte+0x2f8>
      uart_buf[uart_idx++] = ch;
 8001532:	4b0b      	ldr	r3, [pc, #44]	@ (8001560 <HandleNormalModeByte+0x300>)
 8001534:	781b      	ldrb	r3, [r3, #0]
 8001536:	1c5a      	adds	r2, r3, #1
 8001538:	b2d1      	uxtb	r1, r2
 800153a:	4a09      	ldr	r2, [pc, #36]	@ (8001560 <HandleNormalModeByte+0x300>)
 800153c:	7011      	strb	r1, [r2, #0]
 800153e:	001a      	movs	r2, r3
 8001540:	1dfb      	adds	r3, r7, #7
 8001542:	7819      	ldrb	r1, [r3, #0]
 8001544:	4b07      	ldr	r3, [pc, #28]	@ (8001564 <HandleNormalModeByte+0x304>)
 8001546:	5499      	strb	r1, [r3, r2]
      HAL_UART_Transmit(&huart1, &ch, 1, 10); // Karakteri terminale geri gonder (echo)
 8001548:	1df9      	adds	r1, r7, #7
 800154a:	4815      	ldr	r0, [pc, #84]	@ (80015a0 <HandleNormalModeByte+0x340>)
 800154c:	230a      	movs	r3, #10
 800154e:	2201      	movs	r2, #1
 8001550:	f003 f9be 	bl	80048d0 <HAL_UART_Transmit>
 8001554:	e000      	b.n	8001558 <HandleNormalModeByte+0x2f8>
    if (uart_idx > 0) {
 8001556:	46c0      	nop			@ (mov r8, r8)
    }
    /* uart_idx >= MAX_MSG ise tampon dolu, karakter siliniyor */
  }
}
 8001558:	46bd      	mov	sp, r7
 800155a:	b022      	add	sp, #136	@ 0x88
 800155c:	bdb0      	pop	{r4, r5, r7, pc}
 800155e:	46c0      	nop			@ (mov r8, r8)
 8001560:	2000009c 	.word	0x2000009c
 8001564:	2000007c 	.word	0x2000007c
 8001568:	48001400 	.word	0x48001400
 800156c:	08005f20 	.word	0x08005f20
 8001570:	08005f30 	.word	0x08005f30
 8001574:	08005f40 	.word	0x08005f40
 8001578:	08005f5c 	.word	0x08005f5c
 800157c:	2000002c 	.word	0x2000002c
 8001580:	08005f84 	.word	0x08005f84
 8001584:	08005f94 	.word	0x08005f94
 8001588:	08005fa4 	.word	0x08005fa4
 800158c:	08005fa8 	.word	0x08005fa8
 8001590:	08005fbc 	.word	0x08005fbc
 8001594:	08005fd0 	.word	0x08005fd0
 8001598:	0000270f 	.word	0x0000270f
 800159c:	08005fd8 	.word	0x08005fd8
 80015a0:	2000022c 	.word	0x2000022c

080015a4 <RF_SendPacket>:
 *
 * payload NULL veya payload_len 0 ise sadece 3 byte baslik gonderilir.
 * payload_len RF_MAX_DATA'yi (50) asarsa otomatik kisaltilir.
 */
void RF_SendPacket(uint8_t type, uint16_t seq, const uint8_t *payload,
                   uint8_t payload_len) {
 80015a4:	b590      	push	{r4, r7, lr}
 80015a6:	b091      	sub	sp, #68	@ 0x44
 80015a8:	af00      	add	r7, sp, #0
 80015aa:	0004      	movs	r4, r0
 80015ac:	0008      	movs	r0, r1
 80015ae:	603a      	str	r2, [r7, #0]
 80015b0:	0019      	movs	r1, r3
 80015b2:	1dfb      	adds	r3, r7, #7
 80015b4:	1c22      	adds	r2, r4, #0
 80015b6:	701a      	strb	r2, [r3, #0]
 80015b8:	1d3b      	adds	r3, r7, #4
 80015ba:	1c02      	adds	r2, r0, #0
 80015bc:	801a      	strh	r2, [r3, #0]
 80015be:	1dbb      	adds	r3, r7, #6
 80015c0:	1c0a      	adds	r2, r1, #0
 80015c2:	701a      	strb	r2, [r3, #0]
  uint8_t pkt[RF_MAX_PACKET];
  uint8_t total_len = RF_HEADER_LEN; // Baslangicta sadece baslik (3 byte)
 80015c4:	233f      	movs	r3, #63	@ 0x3f
 80015c6:	18fb      	adds	r3, r7, r3
 80015c8:	2203      	movs	r2, #3
 80015ca:	701a      	strb	r2, [r3, #0]

  pkt[0] = type;                   // Paket tipi (RF_CMD_xxx)
 80015cc:	2108      	movs	r1, #8
 80015ce:	187b      	adds	r3, r7, r1
 80015d0:	1dfa      	adds	r2, r7, #7
 80015d2:	7812      	ldrb	r2, [r2, #0]
 80015d4:	701a      	strb	r2, [r3, #0]
  pkt[1] = (uint8_t)(seq >> 8);    // Sequence number — yuksek byte
 80015d6:	1d3b      	adds	r3, r7, #4
 80015d8:	881b      	ldrh	r3, [r3, #0]
 80015da:	0a1b      	lsrs	r3, r3, #8
 80015dc:	b29b      	uxth	r3, r3
 80015de:	b2da      	uxtb	r2, r3
 80015e0:	187b      	adds	r3, r7, r1
 80015e2:	705a      	strb	r2, [r3, #1]
  pkt[2] = (uint8_t)(seq & 0xFF);  // Sequence number — dusuk byte
 80015e4:	1d3b      	adds	r3, r7, #4
 80015e6:	881b      	ldrh	r3, [r3, #0]
 80015e8:	b2da      	uxtb	r2, r3
 80015ea:	187b      	adds	r3, r7, r1
 80015ec:	709a      	strb	r2, [r3, #2]

  if (payload && payload_len > 0) {
 80015ee:	683b      	ldr	r3, [r7, #0]
 80015f0:	2b00      	cmp	r3, #0
 80015f2:	d01b      	beq.n	800162c <RF_SendPacket+0x88>
 80015f4:	1dbb      	adds	r3, r7, #6
 80015f6:	781b      	ldrb	r3, [r3, #0]
 80015f8:	2b00      	cmp	r3, #0
 80015fa:	d017      	beq.n	800162c <RF_SendPacket+0x88>
    if (payload_len > RF_MAX_DATA) {
 80015fc:	1dbb      	adds	r3, r7, #6
 80015fe:	781b      	ldrb	r3, [r3, #0]
 8001600:	2b32      	cmp	r3, #50	@ 0x32
 8001602:	d902      	bls.n	800160a <RF_SendPacket+0x66>
      payload_len = RF_MAX_DATA; // Si4432 FIFO sinirini asma
 8001604:	1dbb      	adds	r3, r7, #6
 8001606:	2232      	movs	r2, #50	@ 0x32
 8001608:	701a      	strb	r2, [r3, #0]
    }

    memcpy(&pkt[3], payload, payload_len); // Payload'u basligin ardina kopyala
 800160a:	1dbb      	adds	r3, r7, #6
 800160c:	781a      	ldrb	r2, [r3, #0]
 800160e:	6839      	ldr	r1, [r7, #0]
 8001610:	2308      	movs	r3, #8
 8001612:	18fb      	adds	r3, r7, r3
 8001614:	3303      	adds	r3, #3
 8001616:	0018      	movs	r0, r3
 8001618:	f004 f99e 	bl	8005958 <memcpy>
    total_len += payload_len;
 800161c:	223f      	movs	r2, #63	@ 0x3f
 800161e:	18bb      	adds	r3, r7, r2
 8001620:	18b9      	adds	r1, r7, r2
 8001622:	1dba      	adds	r2, r7, #6
 8001624:	7809      	ldrb	r1, [r1, #0]
 8001626:	7812      	ldrb	r2, [r2, #0]
 8001628:	188a      	adds	r2, r1, r2
 800162a:	701a      	strb	r2, [r3, #0]
  }

  SI4432_SendPacket(pkt, total_len); // Fiziksel gonderim (si4432.c)
 800162c:	233f      	movs	r3, #63	@ 0x3f
 800162e:	18fb      	adds	r3, r7, r3
 8001630:	781a      	ldrb	r2, [r3, #0]
 8001632:	2308      	movs	r3, #8
 8001634:	18fb      	adds	r3, r7, r3
 8001636:	0011      	movs	r1, r2
 8001638:	0018      	movs	r0, r3
 800163a:	f000 faaf 	bl	8001b9c <SI4432_SendPacket>
}
 800163e:	46c0      	nop			@ (mov r8, r8)
 8001640:	46bd      	mov	sp, r7
 8001642:	b011      	add	sp, #68	@ 0x44
 8001644:	bd90      	pop	{r4, r7, pc}
	...

08001648 <RF_WaitForPacket>:
 *
 * NOT: Her cagrida SI4432_StartRx() ile alici moda gecer.
 *      Onceki RX durumu sifirlanir.
 */
uint8_t RF_WaitForPacket(uint8_t *type, uint16_t *seq, uint8_t *payload,
                         uint8_t *payload_len, uint32_t timeout_ms) {
 8001648:	b5b0      	push	{r4, r5, r7, lr}
 800164a:	b086      	sub	sp, #24
 800164c:	af00      	add	r7, sp, #0
 800164e:	60f8      	str	r0, [r7, #12]
 8001650:	60b9      	str	r1, [r7, #8]
 8001652:	607a      	str	r2, [r7, #4]
 8001654:	603b      	str	r3, [r7, #0]
  uint32_t start = HAL_GetTick();
 8001656:	f000 fe91 	bl	800237c <HAL_GetTick>
 800165a:	0003      	movs	r3, r0
 800165c:	617b      	str	r3, [r7, #20]

  SI4432_StartRx(); // Si4432'yi alici moduna al, RX FIFO'yu temizle
 800165e:	f000 fb09 	bl	8001c74 <SI4432_StartRx>

  while ((HAL_GetTick() - start) < timeout_ms) {
 8001662:	e038      	b.n	80016d6 <RF_WaitForPacket+0x8e>
    HAL_IWDG_Refresh(&hiwdg); // Watchdog — bekleme suresi uzun olabilir
 8001664:	4b22      	ldr	r3, [pc, #136]	@ (80016f0 <RF_WaitForPacket+0xa8>)
 8001666:	0018      	movs	r0, r3
 8001668:	f001 fb56 	bl	8002d18 <HAL_IWDG_Refresh>

    uint8_t len = SI4432_CheckRx(rf_rx_buf); // nIRQ'yu kontrol et, paket varsa oku
 800166c:	2513      	movs	r5, #19
 800166e:	197c      	adds	r4, r7, r5
 8001670:	4b20      	ldr	r3, [pc, #128]	@ (80016f4 <RF_WaitForPacket+0xac>)
 8001672:	0018      	movs	r0, r3
 8001674:	f000 fb1c 	bl	8001cb0 <SI4432_CheckRx>
 8001678:	0003      	movs	r3, r0
 800167a:	7023      	strb	r3, [r4, #0]
    if (len >= RF_HEADER_LEN) {              // En az baslik kadar veri = gecerli paket
 800167c:	0029      	movs	r1, r5
 800167e:	187b      	adds	r3, r7, r1
 8001680:	781b      	ldrb	r3, [r3, #0]
 8001682:	2b02      	cmp	r3, #2
 8001684:	d927      	bls.n	80016d6 <RF_WaitForPacket+0x8e>
      *type        = rf_rx_buf[0];                                   // Paket tipi
 8001686:	4b1b      	ldr	r3, [pc, #108]	@ (80016f4 <RF_WaitForPacket+0xac>)
 8001688:	781a      	ldrb	r2, [r3, #0]
 800168a:	68fb      	ldr	r3, [r7, #12]
 800168c:	701a      	strb	r2, [r3, #0]
      *seq         = ((uint16_t)rf_rx_buf[1] << 8) | rf_rx_buf[2];  // Sequence number
 800168e:	4b19      	ldr	r3, [pc, #100]	@ (80016f4 <RF_WaitForPacket+0xac>)
 8001690:	785b      	ldrb	r3, [r3, #1]
 8001692:	b21b      	sxth	r3, r3
 8001694:	021b      	lsls	r3, r3, #8
 8001696:	b21a      	sxth	r2, r3
 8001698:	4b16      	ldr	r3, [pc, #88]	@ (80016f4 <RF_WaitForPacket+0xac>)
 800169a:	789b      	ldrb	r3, [r3, #2]
 800169c:	b21b      	sxth	r3, r3
 800169e:	4313      	orrs	r3, r2
 80016a0:	b21b      	sxth	r3, r3
 80016a2:	b29a      	uxth	r2, r3
 80016a4:	68bb      	ldr	r3, [r7, #8]
 80016a6:	801a      	strh	r2, [r3, #0]
      *payload_len = len - RF_HEADER_LEN;                            // Payload uzunlugu
 80016a8:	187b      	adds	r3, r7, r1
 80016aa:	781b      	ldrb	r3, [r3, #0]
 80016ac:	3b03      	subs	r3, #3
 80016ae:	b2da      	uxtb	r2, r3
 80016b0:	683b      	ldr	r3, [r7, #0]
 80016b2:	701a      	strb	r2, [r3, #0]
      if (*payload_len > 0 && payload) {
 80016b4:	683b      	ldr	r3, [r7, #0]
 80016b6:	781b      	ldrb	r3, [r3, #0]
 80016b8:	2b00      	cmp	r3, #0
 80016ba:	d00a      	beq.n	80016d2 <RF_WaitForPacket+0x8a>
 80016bc:	687b      	ldr	r3, [r7, #4]
 80016be:	2b00      	cmp	r3, #0
 80016c0:	d007      	beq.n	80016d2 <RF_WaitForPacket+0x8a>
        memcpy(payload, &rf_rx_buf[3], *payload_len); // Payload'u ciktiya kopyala
 80016c2:	683b      	ldr	r3, [r7, #0]
 80016c4:	781b      	ldrb	r3, [r3, #0]
 80016c6:	001a      	movs	r2, r3
 80016c8:	490b      	ldr	r1, [pc, #44]	@ (80016f8 <RF_WaitForPacket+0xb0>)
 80016ca:	687b      	ldr	r3, [r7, #4]
 80016cc:	0018      	movs	r0, r3
 80016ce:	f004 f943 	bl	8005958 <memcpy>
      }
      return 1; // Basarili
 80016d2:	2301      	movs	r3, #1
 80016d4:	e008      	b.n	80016e8 <RF_WaitForPacket+0xa0>
  while ((HAL_GetTick() - start) < timeout_ms) {
 80016d6:	f000 fe51 	bl	800237c <HAL_GetTick>
 80016da:	0002      	movs	r2, r0
 80016dc:	697b      	ldr	r3, [r7, #20]
 80016de:	1ad3      	subs	r3, r2, r3
 80016e0:	6aba      	ldr	r2, [r7, #40]	@ 0x28
 80016e2:	429a      	cmp	r2, r3
 80016e4:	d8be      	bhi.n	8001664 <RF_WaitForPacket+0x1c>
    }
  }

  return 0; // Zaman asimi — paket gelmedi
 80016e6:	2300      	movs	r3, #0
}
 80016e8:	0018      	movs	r0, r3
 80016ea:	46bd      	mov	sp, r7
 80016ec:	b006      	add	sp, #24
 80016ee:	bdb0      	pop	{r4, r5, r7, pc}
 80016f0:	2000002c 	.word	0x2000002c
 80016f4:	2000003c 	.word	0x2000003c
 80016f8:	2000003f 	.word	0x2000003f

080016fc <RF_SendChunkReliable>:
 * Donus: 1 = basarili, 0 = tum denemeler tukendi
 *
 * Kullanim: Her DATA_CHUNK RF paketi bu fonksiyon ile gonderilir.
 */
uint8_t RF_SendChunkReliable(uint8_t type, uint16_t seq, const uint8_t *payload,
                             uint8_t payload_len) {
 80016fc:	b5f0      	push	{r4, r5, r6, r7, lr}
 80016fe:	b093      	sub	sp, #76	@ 0x4c
 8001700:	af02      	add	r7, sp, #8
 8001702:	0004      	movs	r4, r0
 8001704:	0008      	movs	r0, r1
 8001706:	603a      	str	r2, [r7, #0]
 8001708:	0019      	movs	r1, r3
 800170a:	1dfb      	adds	r3, r7, #7
 800170c:	1c22      	adds	r2, r4, #0
 800170e:	701a      	strb	r2, [r3, #0]
 8001710:	1d3b      	adds	r3, r7, #4
 8001712:	1c02      	adds	r2, r0, #0
 8001714:	801a      	strh	r2, [r3, #0]
 8001716:	1dbb      	adds	r3, r7, #6
 8001718:	1c0a      	adds	r2, r1, #0
 800171a:	701a      	strb	r2, [r3, #0]
  uint8_t rx_type, rx_pld[RF_MAX_DATA];
  uint16_t rx_seq;
  uint8_t rx_pld_len;

  for (uint8_t attempt = 0; attempt < RF_MAX_RETRIES; attempt++) {
 800171c:	233f      	movs	r3, #63	@ 0x3f
 800171e:	18fb      	adds	r3, r7, r3
 8001720:	2200      	movs	r2, #0
 8001722:	701a      	strb	r2, [r3, #0]
 8001724:	e037      	b.n	8001796 <RF_SendChunkReliable+0x9a>
    RF_SendPacket(type, seq, payload, payload_len); // Gonder
 8001726:	1dbb      	adds	r3, r7, #6
 8001728:	781c      	ldrb	r4, [r3, #0]
 800172a:	683a      	ldr	r2, [r7, #0]
 800172c:	1d3b      	adds	r3, r7, #4
 800172e:	8819      	ldrh	r1, [r3, #0]
 8001730:	1dfb      	adds	r3, r7, #7
 8001732:	7818      	ldrb	r0, [r3, #0]
 8001734:	0023      	movs	r3, r4
 8001736:	f7ff ff35 	bl	80015a4 <RF_SendPacket>

    /* ACK veya NACK bekle */
    if (RF_WaitForPacket(&rx_type, &rx_seq, rx_pld, &rx_pld_len,
 800173a:	2309      	movs	r3, #9
 800173c:	18fc      	adds	r4, r7, r3
 800173e:	230c      	movs	r3, #12
 8001740:	18fa      	adds	r2, r7, r3
 8001742:	250a      	movs	r5, #10
 8001744:	1979      	adds	r1, r7, r5
 8001746:	263e      	movs	r6, #62	@ 0x3e
 8001748:	19b8      	adds	r0, r7, r6
 800174a:	23fa      	movs	r3, #250	@ 0xfa
 800174c:	00db      	lsls	r3, r3, #3
 800174e:	9300      	str	r3, [sp, #0]
 8001750:	0023      	movs	r3, r4
 8001752:	f7ff ff79 	bl	8001648 <RF_WaitForPacket>
 8001756:	1e03      	subs	r3, r0, #0
 8001758:	d013      	beq.n	8001782 <RF_SendChunkReliable+0x86>
                         RF_ACK_TIMEOUT_MS)) {
      if (rx_type == RF_CMD_ACK && rx_seq == seq) {
 800175a:	19bb      	adds	r3, r7, r6
 800175c:	781b      	ldrb	r3, [r3, #0]
 800175e:	2b10      	cmp	r3, #16
 8001760:	d107      	bne.n	8001772 <RF_SendChunkReliable+0x76>
 8001762:	197b      	adds	r3, r7, r5
 8001764:	881b      	ldrh	r3, [r3, #0]
 8001766:	1d3a      	adds	r2, r7, #4
 8001768:	8812      	ldrh	r2, [r2, #0]
 800176a:	429a      	cmp	r2, r3
 800176c:	d101      	bne.n	8001772 <RF_SendChunkReliable+0x76>
        return 1; // Dogru seq ile ACK alindi — basarili
 800176e:	2301      	movs	r3, #1
 8001770:	e017      	b.n	80017a2 <RF_SendChunkReliable+0xa6>
      }

      if (rx_type == RF_CMD_NACK) {
 8001772:	233e      	movs	r3, #62	@ 0x3e
 8001774:	18fb      	adds	r3, r7, r3
 8001776:	781b      	ldrb	r3, [r3, #0]
 8001778:	2b11      	cmp	r3, #17
 800177a:	d102      	bne.n	8001782 <RF_SendChunkReliable+0x86>
        HAL_Delay(50); // Alici mesgul — kisa bekle, sonra tekrar dene
 800177c:	2032      	movs	r0, #50	@ 0x32
 800177e:	f000 fe07 	bl	8002390 <HAL_Delay>
      }
      /* Yanlis tip veya seq → bir sonraki denemede tekrar gonder */
    }
    /* Cevap gelmedi (timeout) → tekrar dene */
    HAL_IWDG_Refresh(&hiwdg);
 8001782:	4b0a      	ldr	r3, [pc, #40]	@ (80017ac <RF_SendChunkReliable+0xb0>)
 8001784:	0018      	movs	r0, r3
 8001786:	f001 fac7 	bl	8002d18 <HAL_IWDG_Refresh>
  for (uint8_t attempt = 0; attempt < RF_MAX_RETRIES; attempt++) {
 800178a:	213f      	movs	r1, #63	@ 0x3f
 800178c:	187b      	adds	r3, r7, r1
 800178e:	781a      	ldrb	r2, [r3, #0]
 8001790:	187b      	adds	r3, r7, r1
 8001792:	3201      	adds	r2, #1
 8001794:	701a      	strb	r2, [r3, #0]
 8001796:	233f      	movs	r3, #63	@ 0x3f
 8001798:	18fb      	adds	r3, r7, r3
 800179a:	781b      	ldrb	r3, [r3, #0]
 800179c:	2b04      	cmp	r3, #4
 800179e:	d9c2      	bls.n	8001726 <RF_SendChunkReliable+0x2a>
  }

  return 0; // Tum denemeler tukendi — basarisiz
 80017a0:	2300      	movs	r3, #0
}
 80017a2:	0018      	movs	r0, r3
 80017a4:	46bd      	mov	sp, r7
 80017a6:	b011      	add	sp, #68	@ 0x44
 80017a8:	bdf0      	pop	{r4, r5, r6, r7, pc}
 80017aa:	46c0      	nop			@ (mov r8, r8)
 80017ac:	2000002c 	.word	0x2000002c

080017b0 <SenderDebug_SetEnabled>:

/* 1 = debug ciktisi aktif, 0 = tum Print/PrintHex/PrintBuf cagrılari sessiz */
static uint8_t fw_debug_en = 1;

/* Debug ciktisini etkinlestir (1) veya devre disi birak (0) */
void SenderDebug_SetEnabled(uint8_t enabled) { fw_debug_en = enabled; }
 80017b0:	b580      	push	{r7, lr}
 80017b2:	b082      	sub	sp, #8
 80017b4:	af00      	add	r7, sp, #0
 80017b6:	0002      	movs	r2, r0
 80017b8:	1dfb      	adds	r3, r7, #7
 80017ba:	701a      	strb	r2, [r3, #0]
 80017bc:	4b03      	ldr	r3, [pc, #12]	@ (80017cc <SenderDebug_SetEnabled+0x1c>)
 80017be:	1dfa      	adds	r2, r7, #7
 80017c0:	7812      	ldrb	r2, [r2, #0]
 80017c2:	701a      	strb	r2, [r3, #0]
 80017c4:	46c0      	nop			@ (mov r8, r8)
 80017c6:	46bd      	mov	sp, r7
 80017c8:	b002      	add	sp, #8
 80017ca:	bd80      	pop	{r7, pc}
 80017cc:	20000000 	.word	0x20000000

080017d0 <Print>:

/* Null-terminated string'i UART'a gonder */
void Print(const char *s) {
 80017d0:	b580      	push	{r7, lr}
 80017d2:	b082      	sub	sp, #8
 80017d4:	af00      	add	r7, sp, #0
 80017d6:	6078      	str	r0, [r7, #4]
  if (!fw_debug_en) {
 80017d8:	4b0a      	ldr	r3, [pc, #40]	@ (8001804 <Print+0x34>)
 80017da:	781b      	ldrb	r3, [r3, #0]
 80017dc:	2b00      	cmp	r3, #0
 80017de:	d00c      	beq.n	80017fa <Print+0x2a>
    return; // FW update modunda ses yok
  }
  HAL_UART_Transmit(&huart1, (uint8_t *)s, (uint16_t)strlen(s), 500);
 80017e0:	687b      	ldr	r3, [r7, #4]
 80017e2:	0018      	movs	r0, r3
 80017e4:	f7fe fc90 	bl	8000108 <strlen>
 80017e8:	0003      	movs	r3, r0
 80017ea:	b29a      	uxth	r2, r3
 80017ec:	23fa      	movs	r3, #250	@ 0xfa
 80017ee:	005b      	lsls	r3, r3, #1
 80017f0:	6879      	ldr	r1, [r7, #4]
 80017f2:	4805      	ldr	r0, [pc, #20]	@ (8001808 <Print+0x38>)
 80017f4:	f003 f86c 	bl	80048d0 <HAL_UART_Transmit>
 80017f8:	e000      	b.n	80017fc <Print+0x2c>
    return; // FW update modunda ses yok
 80017fa:	46c0      	nop			@ (mov r8, r8)
}
 80017fc:	46bd      	mov	sp, r7
 80017fe:	b002      	add	sp, #8
 8001800:	bd80      	pop	{r7, pc}
 8001802:	46c0      	nop			@ (mov r8, r8)
 8001804:	20000000 	.word	0x20000000
 8001808:	2000022c 	.word	0x2000022c

0800180c <PrintHex>:

/* Bir byte'i "HH " formatinda (iki hex basamak + bosluk) gonder
 * Ornek: 0x4F → "4F " */
void PrintHex(uint8_t v) {
 800180c:	b5b0      	push	{r4, r5, r7, lr}
 800180e:	b088      	sub	sp, #32
 8001810:	af00      	add	r7, sp, #0
 8001812:	0002      	movs	r2, r0
 8001814:	1dfb      	adds	r3, r7, #7
 8001816:	701a      	strb	r2, [r3, #0]
  if (!fw_debug_en) {
 8001818:	4b17      	ldr	r3, [pc, #92]	@ (8001878 <PrintHex+0x6c>)
 800181a:	781b      	ldrb	r3, [r3, #0]
 800181c:	2b00      	cmp	r3, #0
 800181e:	d026      	beq.n	800186e <PrintHex+0x62>
    return;
  }

  const char h[] = "0123456789ABCDEF";
 8001820:	250c      	movs	r5, #12
 8001822:	197b      	adds	r3, r7, r5
 8001824:	4a15      	ldr	r2, [pc, #84]	@ (800187c <PrintHex+0x70>)
 8001826:	ca13      	ldmia	r2!, {r0, r1, r4}
 8001828:	c313      	stmia	r3!, {r0, r1, r4}
 800182a:	6811      	ldr	r1, [r2, #0]
 800182c:	6019      	str	r1, [r3, #0]
 800182e:	7912      	ldrb	r2, [r2, #4]
 8001830:	711a      	strb	r2, [r3, #4]
  char o[3] = {h[(v >> 4) & 0xF], h[v & 0xF], ' '}; // Ust nibble, alt nibble, bosluk
 8001832:	1dfb      	adds	r3, r7, #7
 8001834:	781b      	ldrb	r3, [r3, #0]
 8001836:	091b      	lsrs	r3, r3, #4
 8001838:	b2db      	uxtb	r3, r3
 800183a:	001a      	movs	r2, r3
 800183c:	230f      	movs	r3, #15
 800183e:	4013      	ands	r3, r2
 8001840:	197a      	adds	r2, r7, r5
 8001842:	5cd2      	ldrb	r2, [r2, r3]
 8001844:	2108      	movs	r1, #8
 8001846:	187b      	adds	r3, r7, r1
 8001848:	701a      	strb	r2, [r3, #0]
 800184a:	1dfb      	adds	r3, r7, #7
 800184c:	781b      	ldrb	r3, [r3, #0]
 800184e:	220f      	movs	r2, #15
 8001850:	4013      	ands	r3, r2
 8001852:	197a      	adds	r2, r7, r5
 8001854:	5cd2      	ldrb	r2, [r2, r3]
 8001856:	187b      	adds	r3, r7, r1
 8001858:	705a      	strb	r2, [r3, #1]
 800185a:	187b      	adds	r3, r7, r1
 800185c:	2220      	movs	r2, #32
 800185e:	709a      	strb	r2, [r3, #2]
  HAL_UART_Transmit(&huart1, (uint8_t *)o, 3, 100);
 8001860:	1879      	adds	r1, r7, r1
 8001862:	4807      	ldr	r0, [pc, #28]	@ (8001880 <PrintHex+0x74>)
 8001864:	2364      	movs	r3, #100	@ 0x64
 8001866:	2203      	movs	r2, #3
 8001868:	f003 f832 	bl	80048d0 <HAL_UART_Transmit>
 800186c:	e000      	b.n	8001870 <PrintHex+0x64>
    return;
 800186e:	46c0      	nop			@ (mov r8, r8)
}
 8001870:	46bd      	mov	sp, r7
 8001872:	b008      	add	sp, #32
 8001874:	bdb0      	pop	{r4, r5, r7, pc}
 8001876:	46c0      	nop			@ (mov r8, r8)
 8001878:	20000000 	.word	0x20000000
 800187c:	08005ff0 	.word	0x08005ff0
 8001880:	2000022c 	.word	0x2000022c

08001884 <PrintBuf>:

/* Ham byte dizisini oldugu gibi UART'a gonder (metin veya ikili veri icin) */
void PrintBuf(const uint8_t *b, uint16_t n) {
 8001884:	b590      	push	{r4, r7, lr}
 8001886:	b083      	sub	sp, #12
 8001888:	af00      	add	r7, sp, #0
 800188a:	6078      	str	r0, [r7, #4]
 800188c:	000a      	movs	r2, r1
 800188e:	1cbb      	adds	r3, r7, #2
 8001890:	801a      	strh	r2, [r3, #0]
  if (!fw_debug_en) {
 8001892:	4b09      	ldr	r3, [pc, #36]	@ (80018b8 <PrintBuf+0x34>)
 8001894:	781b      	ldrb	r3, [r3, #0]
 8001896:	2b00      	cmp	r3, #0
 8001898:	d009      	beq.n	80018ae <PrintBuf+0x2a>
    return;
  }
  HAL_UART_Transmit(&huart1, (uint8_t *)b, n, 500);
 800189a:	23fa      	movs	r3, #250	@ 0xfa
 800189c:	005c      	lsls	r4, r3, #1
 800189e:	1cbb      	adds	r3, r7, #2
 80018a0:	881a      	ldrh	r2, [r3, #0]
 80018a2:	6879      	ldr	r1, [r7, #4]
 80018a4:	4805      	ldr	r0, [pc, #20]	@ (80018bc <PrintBuf+0x38>)
 80018a6:	0023      	movs	r3, r4
 80018a8:	f003 f812 	bl	80048d0 <HAL_UART_Transmit>
 80018ac:	e000      	b.n	80018b0 <PrintBuf+0x2c>
    return;
 80018ae:	46c0      	nop			@ (mov r8, r8)
}
 80018b0:	46bd      	mov	sp, r7
 80018b2:	b003      	add	sp, #12
 80018b4:	bd90      	pop	{r4, r7, pc}
 80018b6:	46c0      	nop			@ (mov r8, r8)
 80018b8:	20000000 	.word	0x20000000
 80018bc:	2000022c 	.word	0x2000022c

080018c0 <SI4432_WriteReg>:
/* nIRQ pin okuma — LOW ise interrupt var */
#define NIRQ_IS_LOW() \
  (HAL_GPIO_ReadPin(SI4432_IRQ_GPIO_Port, SI4432_IRQ_Pin) == GPIO_PIN_RESET)

/* SPI register yazma: [addr|0x80][value] */
void SI4432_WriteReg(uint8_t reg, uint8_t value) {
 80018c0:	b580      	push	{r7, lr}
 80018c2:	b084      	sub	sp, #16
 80018c4:	af00      	add	r7, sp, #0
 80018c6:	0002      	movs	r2, r0
 80018c8:	1dfb      	adds	r3, r7, #7
 80018ca:	701a      	strb	r2, [r3, #0]
 80018cc:	1dbb      	adds	r3, r7, #6
 80018ce:	1c0a      	adds	r2, r1, #0
 80018d0:	701a      	strb	r2, [r3, #0]
  CS_LOW();
 80018d2:	2380      	movs	r3, #128	@ 0x80
 80018d4:	015b      	lsls	r3, r3, #5
 80018d6:	4812      	ldr	r0, [pc, #72]	@ (8001920 <SI4432_WriteReg+0x60>)
 80018d8:	2200      	movs	r2, #0
 80018da:	0019      	movs	r1, r3
 80018dc:	f001 f96b 	bl	8002bb6 <HAL_GPIO_WritePin>
  uint8_t addr = reg | 0x80; // MSB=1 → yazma islemi
 80018e0:	1dfb      	adds	r3, r7, #7
 80018e2:	781b      	ldrb	r3, [r3, #0]
 80018e4:	2280      	movs	r2, #128	@ 0x80
 80018e6:	4252      	negs	r2, r2
 80018e8:	4313      	orrs	r3, r2
 80018ea:	b2da      	uxtb	r2, r3
 80018ec:	210f      	movs	r1, #15
 80018ee:	187b      	adds	r3, r7, r1
 80018f0:	701a      	strb	r2, [r3, #0]
  HAL_SPI_Transmit(&hspi2, &addr, 1, 10);
 80018f2:	1879      	adds	r1, r7, r1
 80018f4:	480b      	ldr	r0, [pc, #44]	@ (8001924 <SI4432_WriteReg+0x64>)
 80018f6:	230a      	movs	r3, #10
 80018f8:	2201      	movs	r2, #1
 80018fa:	f001 ff33 	bl	8003764 <HAL_SPI_Transmit>
  HAL_SPI_Transmit(&hspi2, &value, 1, 10);
 80018fe:	1db9      	adds	r1, r7, #6
 8001900:	4808      	ldr	r0, [pc, #32]	@ (8001924 <SI4432_WriteReg+0x64>)
 8001902:	230a      	movs	r3, #10
 8001904:	2201      	movs	r2, #1
 8001906:	f001 ff2d 	bl	8003764 <HAL_SPI_Transmit>
  CS_HIGH();
 800190a:	2380      	movs	r3, #128	@ 0x80
 800190c:	015b      	lsls	r3, r3, #5
 800190e:	4804      	ldr	r0, [pc, #16]	@ (8001920 <SI4432_WriteReg+0x60>)
 8001910:	2201      	movs	r2, #1
 8001912:	0019      	movs	r1, r3
 8001914:	f001 f94f 	bl	8002bb6 <HAL_GPIO_WritePin>
}
 8001918:	46c0      	nop			@ (mov r8, r8)
 800191a:	46bd      	mov	sp, r7
 800191c:	b004      	add	sp, #16
 800191e:	bd80      	pop	{r7, pc}
 8001920:	48000400 	.word	0x48000400
 8001924:	20000138 	.word	0x20000138

08001928 <SI4432_ReadReg>:

/* SPI register okuma: [addr&0x7F] → [value] */
uint8_t SI4432_ReadReg(uint8_t reg) {
 8001928:	b590      	push	{r4, r7, lr}
 800192a:	b085      	sub	sp, #20
 800192c:	af00      	add	r7, sp, #0
 800192e:	0002      	movs	r2, r0
 8001930:	1dfb      	adds	r3, r7, #7
 8001932:	701a      	strb	r2, [r3, #0]
  uint8_t val = 0;
 8001934:	240f      	movs	r4, #15
 8001936:	193b      	adds	r3, r7, r4
 8001938:	2200      	movs	r2, #0
 800193a:	701a      	strb	r2, [r3, #0]
  CS_LOW();
 800193c:	2380      	movs	r3, #128	@ 0x80
 800193e:	015b      	lsls	r3, r3, #5
 8001940:	4812      	ldr	r0, [pc, #72]	@ (800198c <SI4432_ReadReg+0x64>)
 8001942:	2200      	movs	r2, #0
 8001944:	0019      	movs	r1, r3
 8001946:	f001 f936 	bl	8002bb6 <HAL_GPIO_WritePin>
  uint8_t addr = reg & 0x7F; // MSB=0 → okuma islemi
 800194a:	1dfb      	adds	r3, r7, #7
 800194c:	781b      	ldrb	r3, [r3, #0]
 800194e:	227f      	movs	r2, #127	@ 0x7f
 8001950:	4013      	ands	r3, r2
 8001952:	b2da      	uxtb	r2, r3
 8001954:	210e      	movs	r1, #14
 8001956:	187b      	adds	r3, r7, r1
 8001958:	701a      	strb	r2, [r3, #0]
  HAL_SPI_Transmit(&hspi2, &addr, 1, 10);
 800195a:	1879      	adds	r1, r7, r1
 800195c:	480c      	ldr	r0, [pc, #48]	@ (8001990 <SI4432_ReadReg+0x68>)
 800195e:	230a      	movs	r3, #10
 8001960:	2201      	movs	r2, #1
 8001962:	f001 feff 	bl	8003764 <HAL_SPI_Transmit>
  HAL_SPI_Receive(&hspi2, &val, 1, 10);
 8001966:	1939      	adds	r1, r7, r4
 8001968:	4809      	ldr	r0, [pc, #36]	@ (8001990 <SI4432_ReadReg+0x68>)
 800196a:	230a      	movs	r3, #10
 800196c:	2201      	movs	r2, #1
 800196e:	f002 f859 	bl	8003a24 <HAL_SPI_Receive>
  CS_HIGH();
 8001972:	2380      	movs	r3, #128	@ 0x80
 8001974:	015b      	lsls	r3, r3, #5
 8001976:	4805      	ldr	r0, [pc, #20]	@ (800198c <SI4432_ReadReg+0x64>)
 8001978:	2201      	movs	r2, #1
 800197a:	0019      	movs	r1, r3
 800197c:	f001 f91b 	bl	8002bb6 <HAL_GPIO_WritePin>
  return val;
 8001980:	193b      	adds	r3, r7, r4
 8001982:	781b      	ldrb	r3, [r3, #0]
}
 8001984:	0018      	movs	r0, r3
 8001986:	46bd      	mov	sp, r7
 8001988:	b005      	add	sp, #20
 800198a:	bd90      	pop	{r4, r7, pc}
 800198c:	48000400 	.word	0x48000400
 8001990:	20000138 	.word	0x20000138

08001994 <SI4432_ClearIRQ>:

/* Interrupt flag'lerini temizle — nIRQ pinini serbest birakir */
static void SI4432_ClearIRQ(void) {
 8001994:	b580      	push	{r7, lr}
 8001996:	af00      	add	r7, sp, #0
  (void)SI4432_ReadReg(0x03); // Interrupt Status 1 — okumak temizler
 8001998:	2003      	movs	r0, #3
 800199a:	f7ff ffc5 	bl	8001928 <SI4432_ReadReg>
  (void)SI4432_ReadReg(0x04); // Interrupt Status 2
 800199e:	2004      	movs	r0, #4
 80019a0:	f7ff ffc2 	bl	8001928 <SI4432_ReadReg>
}
 80019a4:	46c0      	nop			@ (mov r8, r8)
 80019a6:	46bd      	mov	sp, r7
 80019a8:	bd80      	pop	{r7, pc}

080019aa <SI4432_ResetRxFIFO>:

/* RX FIFO'yu sifirla (0x08 reg bit1) */
static void SI4432_ResetRxFIFO(void) {
 80019aa:	b580      	push	{r7, lr}
 80019ac:	af00      	add	r7, sp, #0
  SI4432_WriteReg(0x08, 0x02); // FFCLRRX=1
 80019ae:	2102      	movs	r1, #2
 80019b0:	2008      	movs	r0, #8
 80019b2:	f7ff ff85 	bl	80018c0 <SI4432_WriteReg>
  SI4432_WriteReg(0x08, 0x00); // FFCLRRX=0 (tek pulse yeterli)
 80019b6:	2100      	movs	r1, #0
 80019b8:	2008      	movs	r0, #8
 80019ba:	f7ff ff81 	bl	80018c0 <SI4432_WriteReg>
}
 80019be:	46c0      	nop			@ (mov r8, r8)
 80019c0:	46bd      	mov	sp, r7
 80019c2:	bd80      	pop	{r7, pc}

080019c4 <SI4432_ResetTxFIFO>:

/* TX FIFO'yu sifirla (0x08 reg bit0) */
static void SI4432_ResetTxFIFO(void) {
 80019c4:	b580      	push	{r7, lr}
 80019c6:	af00      	add	r7, sp, #0
  SI4432_WriteReg(0x08, 0x01); // FFCLRTX=1
 80019c8:	2101      	movs	r1, #1
 80019ca:	2008      	movs	r0, #8
 80019cc:	f7ff ff78 	bl	80018c0 <SI4432_WriteReg>
  SI4432_WriteReg(0x08, 0x00); // FFCLRTX=0
 80019d0:	2100      	movs	r1, #0
 80019d2:	2008      	movs	r0, #8
 80019d4:	f7ff ff74 	bl	80018c0 <SI4432_WriteReg>
}
 80019d8:	46c0      	nop			@ (mov r8, r8)
 80019da:	46bd      	mov	sp, r7
 80019dc:	bd80      	pop	{r7, pc}
	...

080019e0 <SI4432_Init>:
 *   2. Software reset (0x07 = 0x80)
 *   3. POR interrupt bekle (nIRQ LOW)
 *   4. Frekans, veri hizi, paket yapilandirmasi, RX modem ayarla
 *   5. FIFO ve interrupt'lari temizle
 */
void SI4432_Init(void) {
 80019e0:	b580      	push	{r7, lr}
 80019e2:	b082      	sub	sp, #8
 80019e4:	af00      	add	r7, sp, #0
  CS_HIGH(); // SPI bos
 80019e6:	2380      	movs	r3, #128	@ 0x80
 80019e8:	015b      	lsls	r3, r3, #5
 80019ea:	486b      	ldr	r0, [pc, #428]	@ (8001b98 <SI4432_Init+0x1b8>)
 80019ec:	2201      	movs	r2, #1
 80019ee:	0019      	movs	r1, r3
 80019f0:	f001 f8e1 	bl	8002bb6 <HAL_GPIO_WritePin>

  /* Hardware reset: SDN=HIGH bekle SDN=LOW */
  HAL_GPIO_WritePin(SI4432_SDN_GPIO_Port, SI4432_SDN_Pin, GPIO_PIN_SET);
 80019f4:	2380      	movs	r3, #128	@ 0x80
 80019f6:	00db      	lsls	r3, r3, #3
 80019f8:	4867      	ldr	r0, [pc, #412]	@ (8001b98 <SI4432_Init+0x1b8>)
 80019fa:	2201      	movs	r2, #1
 80019fc:	0019      	movs	r1, r3
 80019fe:	f001 f8da 	bl	8002bb6 <HAL_GPIO_WritePin>
  HAL_Delay(10);
 8001a02:	200a      	movs	r0, #10
 8001a04:	f000 fcc4 	bl	8002390 <HAL_Delay>
  HAL_GPIO_WritePin(SI4432_SDN_GPIO_Port, SI4432_SDN_Pin, GPIO_PIN_RESET);
 8001a08:	2380      	movs	r3, #128	@ 0x80
 8001a0a:	00db      	lsls	r3, r3, #3
 8001a0c:	4862      	ldr	r0, [pc, #392]	@ (8001b98 <SI4432_Init+0x1b8>)
 8001a0e:	2200      	movs	r2, #0
 8001a10:	0019      	movs	r1, r3
 8001a12:	f001 f8d0 	bl	8002bb6 <HAL_GPIO_WritePin>
  HAL_Delay(30);
 8001a16:	201e      	movs	r0, #30
 8001a18:	f000 fcba 	bl	8002390 <HAL_Delay>

  SI4432_ClearIRQ();
 8001a1c:	f7ff ffba 	bl	8001994 <SI4432_ClearIRQ>
  SI4432_WriteReg(0x07, 0x80); // Software reset
 8001a20:	2180      	movs	r1, #128	@ 0x80
 8001a22:	2007      	movs	r0, #7
 8001a24:	f7ff ff4c 	bl	80018c0 <SI4432_WriteReg>

  /* POR interrupt bekle */
  uint32_t t = HAL_GetTick();
 8001a28:	f000 fca8 	bl	800237c <HAL_GetTick>
 8001a2c:	0003      	movs	r3, r0
 8001a2e:	607b      	str	r3, [r7, #4]
  while (!NIRQ_IS_LOW() && (HAL_GetTick() - t) < 500) {}
 8001a30:	46c0      	nop			@ (mov r8, r8)
 8001a32:	2380      	movs	r3, #128	@ 0x80
 8001a34:	011b      	lsls	r3, r3, #4
 8001a36:	4a58      	ldr	r2, [pc, #352]	@ (8001b98 <SI4432_Init+0x1b8>)
 8001a38:	0019      	movs	r1, r3
 8001a3a:	0010      	movs	r0, r2
 8001a3c:	f001 f89e 	bl	8002b7c <HAL_GPIO_ReadPin>
 8001a40:	1e03      	subs	r3, r0, #0
 8001a42:	d008      	beq.n	8001a56 <SI4432_Init+0x76>
 8001a44:	f000 fc9a 	bl	800237c <HAL_GetTick>
 8001a48:	0002      	movs	r2, r0
 8001a4a:	687b      	ldr	r3, [r7, #4]
 8001a4c:	1ad2      	subs	r2, r2, r3
 8001a4e:	23fa      	movs	r3, #250	@ 0xfa
 8001a50:	005b      	lsls	r3, r3, #1
 8001a52:	429a      	cmp	r2, r3
 8001a54:	d3ed      	bcc.n	8001a32 <SI4432_Init+0x52>
  SI4432_ClearIRQ();
 8001a56:	f7ff ff9d 	bl	8001994 <SI4432_ClearIRQ>

  /* Chip ready interrupt bekle */
  t = HAL_GetTick();
 8001a5a:	f000 fc8f 	bl	800237c <HAL_GetTick>
 8001a5e:	0003      	movs	r3, r0
 8001a60:	607b      	str	r3, [r7, #4]
  while (!NIRQ_IS_LOW() && (HAL_GetTick() - t) < 500) {}
 8001a62:	46c0      	nop			@ (mov r8, r8)
 8001a64:	2380      	movs	r3, #128	@ 0x80
 8001a66:	011b      	lsls	r3, r3, #4
 8001a68:	4a4b      	ldr	r2, [pc, #300]	@ (8001b98 <SI4432_Init+0x1b8>)
 8001a6a:	0019      	movs	r1, r3
 8001a6c:	0010      	movs	r0, r2
 8001a6e:	f001 f885 	bl	8002b7c <HAL_GPIO_ReadPin>
 8001a72:	1e03      	subs	r3, r0, #0
 8001a74:	d008      	beq.n	8001a88 <SI4432_Init+0xa8>
 8001a76:	f000 fc81 	bl	800237c <HAL_GetTick>
 8001a7a:	0002      	movs	r2, r0
 8001a7c:	687b      	ldr	r3, [r7, #4]
 8001a7e:	1ad2      	subs	r2, r2, r3
 8001a80:	23fa      	movs	r3, #250	@ 0xfa
 8001a82:	005b      	lsls	r3, r3, #1
 8001a84:	429a      	cmp	r2, r3
 8001a86:	d3ed      	bcc.n	8001a64 <SI4432_Init+0x84>
  SI4432_ClearIRQ();
 8001a88:	f7ff ff84 	bl	8001994 <SI4432_ClearIRQ>

  /* Frekans: 433.0 MHz
   * fb=0x53 (band 19, sbsel=1), fc=0x6400 */
  SI4432_WriteReg(0x75, 0x53); // Frequency Band Select
 8001a8c:	2153      	movs	r1, #83	@ 0x53
 8001a8e:	2075      	movs	r0, #117	@ 0x75
 8001a90:	f7ff ff16 	bl	80018c0 <SI4432_WriteReg>
  SI4432_WriteReg(0x76, 0x64); // Nominal Carrier Frequency 1
 8001a94:	2164      	movs	r1, #100	@ 0x64
 8001a96:	2076      	movs	r0, #118	@ 0x76
 8001a98:	f7ff ff12 	bl	80018c0 <SI4432_WriteReg>
  SI4432_WriteReg(0x77, 0x00); // Nominal Carrier Frequency 0
 8001a9c:	2100      	movs	r1, #0
 8001a9e:	2077      	movs	r0, #119	@ 0x77
 8001aa0:	f7ff ff0e 	bl	80018c0 <SI4432_WriteReg>

  /* TX Data Rate: 9.6 kbps (resmi ornekten) */
  SI4432_WriteReg(0x6E, 0x4E); // TX Data Rate 1
 8001aa4:	214e      	movs	r1, #78	@ 0x4e
 8001aa6:	206e      	movs	r0, #110	@ 0x6e
 8001aa8:	f7ff ff0a 	bl	80018c0 <SI4432_WriteReg>
  SI4432_WriteReg(0x6F, 0xA5); // TX Data Rate 0
 8001aac:	21a5      	movs	r1, #165	@ 0xa5
 8001aae:	206f      	movs	r0, #111	@ 0x6f
 8001ab0:	f7ff ff06 	bl	80018c0 <SI4432_WriteReg>
  SI4432_WriteReg(0x70, 0x2C); // Modulation Mode Control 1
 8001ab4:	212c      	movs	r1, #44	@ 0x2c
 8001ab6:	2070      	movs	r0, #112	@ 0x70
 8001ab8:	f7ff ff02 	bl	80018c0 <SI4432_WriteReg>
  SI4432_WriteReg(0x72, 0x48); // Frequency Deviation: +/-45 kHz
 8001abc:	2148      	movs	r1, #72	@ 0x48
 8001abe:	2072      	movs	r0, #114	@ 0x72
 8001ac0:	f7ff fefe 	bl	80018c0 <SI4432_WriteReg>

  /* Paket yapilandirmasi (resmi ornekten) */
  SI4432_WriteReg(0x34, 0x0A); // Preamble Length: 5 byte (10 nibble)
 8001ac4:	210a      	movs	r1, #10
 8001ac6:	2034      	movs	r0, #52	@ 0x34
 8001ac8:	f7ff fefa 	bl	80018c0 <SI4432_WriteReg>
  SI4432_WriteReg(0x33, 0x02); // Header Control 2: variable len, sync 3&2
 8001acc:	2102      	movs	r1, #2
 8001ace:	2033      	movs	r0, #51	@ 0x33
 8001ad0:	f7ff fef6 	bl	80018c0 <SI4432_WriteReg>
  SI4432_WriteReg(0x36, 0x2D); // Sync Word 3
 8001ad4:	212d      	movs	r1, #45	@ 0x2d
 8001ad6:	2036      	movs	r0, #54	@ 0x36
 8001ad8:	f7ff fef2 	bl	80018c0 <SI4432_WriteReg>
  SI4432_WriteReg(0x37, 0xD4); // Sync Word 2
 8001adc:	21d4      	movs	r1, #212	@ 0xd4
 8001ade:	2037      	movs	r0, #55	@ 0x37
 8001ae0:	f7ff feee 	bl	80018c0 <SI4432_WriteReg>
  SI4432_WriteReg(0x32, 0x00); // Header Control 1: header filtresiz
 8001ae4:	2100      	movs	r1, #0
 8001ae6:	2032      	movs	r0, #50	@ 0x32
 8001ae8:	f7ff feea 	bl	80018c0 <SI4432_WriteReg>
  SI4432_WriteReg(0x35, 0x28); // Preamble Detection: 20 bit esik
 8001aec:	2128      	movs	r1, #40	@ 0x28
 8001aee:	2035      	movs	r0, #53	@ 0x35
 8001af0:	f7ff fee6 	bl	80018c0 <SI4432_WriteReg>
  SI4432_WriteReg(0x30, 0x0D); // Data Access Control (TX): CRC-IBM + paket isleme
 8001af4:	210d      	movs	r1, #13
 8001af6:	2030      	movs	r0, #48	@ 0x30
 8001af8:	f7ff fee2 	bl	80018c0 <SI4432_WriteReg>
  SI4432_WriteReg(0x71, 0x63); // Modulation Mode Control 2: FIFO + GFSK
 8001afc:	2163      	movs	r1, #99	@ 0x63
 8001afe:	2071      	movs	r0, #113	@ 0x71
 8001b00:	f7ff fede 	bl	80018c0 <SI4432_WriteReg>

  /* RX Modem: 9.6 kbps, 45 kHz sapma, 112.1 kHz kanal filtresi */
  SI4432_WriteReg(0x1C, 0x05); // IF Filter Bandwidth
 8001b04:	2105      	movs	r1, #5
 8001b06:	201c      	movs	r0, #28
 8001b08:	f7ff feda 	bl	80018c0 <SI4432_WriteReg>
  SI4432_WriteReg(0x20, 0xA1); // Clock Recovery Oversampling Ratio
 8001b0c:	21a1      	movs	r1, #161	@ 0xa1
 8001b0e:	2020      	movs	r0, #32
 8001b10:	f7ff fed6 	bl	80018c0 <SI4432_WriteReg>
  SI4432_WriteReg(0x21, 0x20); // Clock Recovery Offset 2
 8001b14:	2120      	movs	r1, #32
 8001b16:	2021      	movs	r0, #33	@ 0x21
 8001b18:	f7ff fed2 	bl	80018c0 <SI4432_WriteReg>
  SI4432_WriteReg(0x22, 0x4E); // Clock Recovery Offset 1
 8001b1c:	214e      	movs	r1, #78	@ 0x4e
 8001b1e:	2022      	movs	r0, #34	@ 0x22
 8001b20:	f7ff fece 	bl	80018c0 <SI4432_WriteReg>
  SI4432_WriteReg(0x23, 0xA5); // Clock Recovery Offset 0
 8001b24:	21a5      	movs	r1, #165	@ 0xa5
 8001b26:	2023      	movs	r0, #35	@ 0x23
 8001b28:	f7ff feca 	bl	80018c0 <SI4432_WriteReg>
  SI4432_WriteReg(0x24, 0x00); // Clock Recovery Timing Loop Gain 1
 8001b2c:	2100      	movs	r1, #0
 8001b2e:	2024      	movs	r0, #36	@ 0x24
 8001b30:	f7ff fec6 	bl	80018c0 <SI4432_WriteReg>
  SI4432_WriteReg(0x25, 0x13); // Clock Recovery Timing Loop Gain 0
 8001b34:	2113      	movs	r1, #19
 8001b36:	2025      	movs	r0, #37	@ 0x25
 8001b38:	f7ff fec2 	bl	80018c0 <SI4432_WriteReg>
  SI4432_WriteReg(0x1D, 0x40); // AFC Loop Gearshift Override
 8001b3c:	2140      	movs	r1, #64	@ 0x40
 8001b3e:	201d      	movs	r0, #29
 8001b40:	f7ff febe 	bl	80018c0 <SI4432_WriteReg>
  SI4432_WriteReg(0x1F, 0x03); // Clock Recovery Gearshift Override
 8001b44:	2103      	movs	r1, #3
 8001b46:	201f      	movs	r0, #31
 8001b48:	f7ff feba 	bl	80018c0 <SI4432_WriteReg>

  /* Si4432 non-default register'lari (resmi ornekten — degistirme!) */
  SI4432_WriteReg(0x5A, 0x7F); // VCO Current Trimming
 8001b4c:	217f      	movs	r1, #127	@ 0x7f
 8001b4e:	205a      	movs	r0, #90	@ 0x5a
 8001b50:	f7ff feb6 	bl	80018c0 <SI4432_WriteReg>
  SI4432_WriteReg(0x58, 0x80); // Chargepump Current Trimming Override
 8001b54:	2180      	movs	r1, #128	@ 0x80
 8001b56:	2058      	movs	r0, #88	@ 0x58
 8001b58:	f7ff feb2 	bl	80018c0 <SI4432_WriteReg>
  SI4432_WriteReg(0x59, 0x40); // Divider Current Trimming
 8001b5c:	2140      	movs	r1, #64	@ 0x40
 8001b5e:	2059      	movs	r0, #89	@ 0x59
 8001b60:	f7ff feae 	bl	80018c0 <SI4432_WriteReg>
  SI4432_WriteReg(0x6A, 0x0B); // AGC Override 2
 8001b64:	210b      	movs	r1, #11
 8001b66:	206a      	movs	r0, #106	@ 0x6a
 8001b68:	f7ff feaa 	bl	80018c0 <SI4432_WriteReg>
  SI4432_WriteReg(0x68, 0x04); // Deltasigma ADC Tuning 2
 8001b6c:	2104      	movs	r1, #4
 8001b6e:	2068      	movs	r0, #104	@ 0x68
 8001b70:	f7ff fea6 	bl	80018c0 <SI4432_WriteReg>
  SI4432_WriteReg(0x09, 0xD7); // Crystal Oscillator Load Capacitance
 8001b74:	21d7      	movs	r1, #215	@ 0xd7
 8001b76:	2009      	movs	r0, #9
 8001b78:	f7ff fea2 	bl	80018c0 <SI4432_WriteReg>
  SI4432_WriteReg(0x6D, 0x07); // TX Power: maksimum (+20 dBm)
 8001b7c:	2107      	movs	r1, #7
 8001b7e:	206d      	movs	r0, #109	@ 0x6d
 8001b80:	f7ff fe9e 	bl	80018c0 <SI4432_WriteReg>

  /* Baslangicta FIFO ve interrupt'lari temizle */
  SI4432_ResetTxFIFO();
 8001b84:	f7ff ff1e 	bl	80019c4 <SI4432_ResetTxFIFO>
  SI4432_ResetRxFIFO();
 8001b88:	f7ff ff0f 	bl	80019aa <SI4432_ResetRxFIFO>
  SI4432_ClearIRQ();
 8001b8c:	f7ff ff02 	bl	8001994 <SI4432_ClearIRQ>
}
 8001b90:	46c0      	nop			@ (mov r8, r8)
 8001b92:	46bd      	mov	sp, r7
 8001b94:	b002      	add	sp, #8
 8001b96:	bd80      	pop	{r7, pc}
 8001b98:	48000400 	.word	0x48000400

08001b9c <SI4432_SendPacket>:
 *   5. nIRQ LOW olana kadar bekle (paket gönderildi)
 *   6. Interrupt temizle, idle'a don
 *
 * Maks gonderim suresi: len×8 / 9600bps + baslik/kuyruk ≈ ~50 ms icin 53 byte
 */
void SI4432_SendPacket(const uint8_t *data, uint8_t len) {
 8001b9c:	b590      	push	{r4, r7, lr}
 8001b9e:	b085      	sub	sp, #20
 8001ba0:	af00      	add	r7, sp, #0
 8001ba2:	6078      	str	r0, [r7, #4]
 8001ba4:	000a      	movs	r2, r1
 8001ba6:	1cfb      	adds	r3, r7, #3
 8001ba8:	701a      	strb	r2, [r3, #0]
  if (len == 0 || len > 64)
 8001baa:	1cfb      	adds	r3, r7, #3
 8001bac:	781b      	ldrb	r3, [r3, #0]
 8001bae:	2b00      	cmp	r3, #0
 8001bb0:	d05a      	beq.n	8001c68 <SI4432_SendPacket+0xcc>
 8001bb2:	1cfb      	adds	r3, r7, #3
 8001bb4:	781b      	ldrb	r3, [r3, #0]
 8001bb6:	2b40      	cmp	r3, #64	@ 0x40
 8001bb8:	d856      	bhi.n	8001c68 <SI4432_SendPacket+0xcc>
    return; // Gecersiz uzunluk — Si4432 FIFO 64 byte

  SI4432_WriteReg(0x07, 0x01); // Idle moda gec
 8001bba:	2101      	movs	r1, #1
 8001bbc:	2007      	movs	r0, #7
 8001bbe:	f7ff fe7f 	bl	80018c0 <SI4432_WriteReg>
  SI4432_WriteReg(0x30, 0x0D); // TX packet handler + CRC-IBM etkinlestir
 8001bc2:	210d      	movs	r1, #13
 8001bc4:	2030      	movs	r0, #48	@ 0x30
 8001bc6:	f7ff fe7b 	bl	80018c0 <SI4432_WriteReg>
  SI4432_ResetTxFIFO();        // Onceki veriyi temizle
 8001bca:	f7ff fefb 	bl	80019c4 <SI4432_ResetTxFIFO>

  SI4432_WriteReg(0x3E, len);  // Paket uzunlugunu yaz (Transmit Packet Length reg)
 8001bce:	1cfb      	adds	r3, r7, #3
 8001bd0:	781b      	ldrb	r3, [r3, #0]
 8001bd2:	0019      	movs	r1, r3
 8001bd4:	203e      	movs	r0, #62	@ 0x3e
 8001bd6:	f7ff fe73 	bl	80018c0 <SI4432_WriteReg>

  /* Veriyi TX FIFO'ya yaz (0x7F = FIFO Access reg) */
  for (uint8_t i = 0; i < len; i++)
 8001bda:	230f      	movs	r3, #15
 8001bdc:	18fb      	adds	r3, r7, r3
 8001bde:	2200      	movs	r2, #0
 8001be0:	701a      	strb	r2, [r3, #0]
 8001be2:	e00e      	b.n	8001c02 <SI4432_SendPacket+0x66>
    SI4432_WriteReg(0x7F, data[i]);
 8001be4:	240f      	movs	r4, #15
 8001be6:	193b      	adds	r3, r7, r4
 8001be8:	781b      	ldrb	r3, [r3, #0]
 8001bea:	687a      	ldr	r2, [r7, #4]
 8001bec:	18d3      	adds	r3, r2, r3
 8001bee:	781b      	ldrb	r3, [r3, #0]
 8001bf0:	0019      	movs	r1, r3
 8001bf2:	207f      	movs	r0, #127	@ 0x7f
 8001bf4:	f7ff fe64 	bl	80018c0 <SI4432_WriteReg>
  for (uint8_t i = 0; i < len; i++)
 8001bf8:	193b      	adds	r3, r7, r4
 8001bfa:	781a      	ldrb	r2, [r3, #0]
 8001bfc:	193b      	adds	r3, r7, r4
 8001bfe:	3201      	adds	r2, #1
 8001c00:	701a      	strb	r2, [r3, #0]
 8001c02:	230f      	movs	r3, #15
 8001c04:	18fa      	adds	r2, r7, r3
 8001c06:	1cfb      	adds	r3, r7, #3
 8001c08:	7812      	ldrb	r2, [r2, #0]
 8001c0a:	781b      	ldrb	r3, [r3, #0]
 8001c0c:	429a      	cmp	r2, r3
 8001c0e:	d3e9      	bcc.n	8001be4 <SI4432_SendPacket+0x48>

  SI4432_WriteReg(0x05, 0x04); // Interrupt Enable 1: sadece "packet sent" (ipksent)
 8001c10:	2104      	movs	r1, #4
 8001c12:	2005      	movs	r0, #5
 8001c14:	f7ff fe54 	bl	80018c0 <SI4432_WriteReg>
  SI4432_WriteReg(0x06, 0x00); // Interrupt Enable 2: hepsi kapali
 8001c18:	2100      	movs	r1, #0
 8001c1a:	2006      	movs	r0, #6
 8001c1c:	f7ff fe50 	bl	80018c0 <SI4432_WriteReg>
  SI4432_ClearIRQ();           // Onceki interrupt'lari temizle
 8001c20:	f7ff feb8 	bl	8001994 <SI4432_ClearIRQ>

  SI4432_WriteReg(0x07, 0x09); // TX + Ready moduna gec (gonderim baslıyor)
 8001c24:	2109      	movs	r1, #9
 8001c26:	2007      	movs	r0, #7
 8001c28:	f7ff fe4a 	bl	80018c0 <SI4432_WriteReg>

  /* nIRQ LOW olana kadar bekle — paket gönderildi sinyali */
  uint32_t start = HAL_GetTick();
 8001c2c:	f000 fba6 	bl	800237c <HAL_GetTick>
 8001c30:	0003      	movs	r3, r0
 8001c32:	60bb      	str	r3, [r7, #8]
  while (!NIRQ_IS_LOW() && (HAL_GetTick() - start) < 1000) {
 8001c34:	46c0      	nop			@ (mov r8, r8)
 8001c36:	2380      	movs	r3, #128	@ 0x80
 8001c38:	011b      	lsls	r3, r3, #4
 8001c3a:	4a0d      	ldr	r2, [pc, #52]	@ (8001c70 <SI4432_SendPacket+0xd4>)
 8001c3c:	0019      	movs	r1, r3
 8001c3e:	0010      	movs	r0, r2
 8001c40:	f000 ff9c 	bl	8002b7c <HAL_GPIO_ReadPin>
 8001c44:	1e03      	subs	r3, r0, #0
 8001c46:	d008      	beq.n	8001c5a <SI4432_SendPacket+0xbe>
 8001c48:	f000 fb98 	bl	800237c <HAL_GetTick>
 8001c4c:	0002      	movs	r2, r0
 8001c4e:	68bb      	ldr	r3, [r7, #8]
 8001c50:	1ad2      	subs	r2, r2, r3
 8001c52:	23fa      	movs	r3, #250	@ 0xfa
 8001c54:	009b      	lsls	r3, r3, #2
 8001c56:	429a      	cmp	r2, r3
 8001c58:	d3ed      	bcc.n	8001c36 <SI4432_SendPacket+0x9a>
    /* 1 sn timeout — donanimsal sorun olursa takilmaz */
  }

  SI4432_ClearIRQ();           // "Packet sent" interrupt'ini temizle
 8001c5a:	f7ff fe9b 	bl	8001994 <SI4432_ClearIRQ>
  SI4432_WriteReg(0x07, 0x01); // Idle'a don
 8001c5e:	2101      	movs	r1, #1
 8001c60:	2007      	movs	r0, #7
 8001c62:	f7ff fe2d 	bl	80018c0 <SI4432_WriteReg>
 8001c66:	e000      	b.n	8001c6a <SI4432_SendPacket+0xce>
    return; // Gecersiz uzunluk — Si4432 FIFO 64 byte
 8001c68:	46c0      	nop			@ (mov r8, r8)
}
 8001c6a:	46bd      	mov	sp, r7
 8001c6c:	b005      	add	sp, #20
 8001c6e:	bd90      	pop	{r4, r7, pc}
 8001c70:	48000400 	.word	0x48000400

08001c74 <SI4432_StartRx>:
 *
 * RX FIFO'yu temizler, "packet valid" ve "CRC error" interrupt'larini
 * etkinlestirir, RX moduna gecer.
 * Bu fonksiyon cagrilinca Si4432 gelen paketi bekler.
 */
void SI4432_StartRx(void) {
 8001c74:	b580      	push	{r7, lr}
 8001c76:	af00      	add	r7, sp, #0
  SI4432_WriteReg(0x07, 0x01); // Once idle'a gec
 8001c78:	2101      	movs	r1, #1
 8001c7a:	2007      	movs	r0, #7
 8001c7c:	f7ff fe20 	bl	80018c0 <SI4432_WriteReg>
  SI4432_WriteReg(0x30, 0x85); // RX packet handler + CRC etkinlestir
 8001c80:	2185      	movs	r1, #133	@ 0x85
 8001c82:	2030      	movs	r0, #48	@ 0x30
 8001c84:	f7ff fe1c 	bl	80018c0 <SI4432_WriteReg>
  SI4432_ResetRxFIFO();        // Eski veriyi temizle
 8001c88:	f7ff fe8f 	bl	80019aa <SI4432_ResetRxFIFO>

  SI4432_WriteReg(0x05, 0x03); // Interrupt Enable 1: ipkvalid (bit1) + icrcerror (bit0)
 8001c8c:	2103      	movs	r1, #3
 8001c8e:	2005      	movs	r0, #5
 8001c90:	f7ff fe16 	bl	80018c0 <SI4432_WriteReg>
  SI4432_WriteReg(0x06, 0x00); // Interrupt Enable 2: kapali
 8001c94:	2100      	movs	r1, #0
 8001c96:	2006      	movs	r0, #6
 8001c98:	f7ff fe12 	bl	80018c0 <SI4432_WriteReg>
  SI4432_ClearIRQ();           // Onceki interrupt'lari temizle
 8001c9c:	f7ff fe7a 	bl	8001994 <SI4432_ClearIRQ>

  SI4432_WriteReg(0x07, 0x05); // RX + Ready moduna gec (alim basliyor)
 8001ca0:	2105      	movs	r1, #5
 8001ca2:	2007      	movs	r0, #7
 8001ca4:	f7ff fe0c 	bl	80018c0 <SI4432_WriteReg>
}
 8001ca8:	46c0      	nop			@ (mov r8, r8)
 8001caa:	46bd      	mov	sp, r7
 8001cac:	bd80      	pop	{r7, pc}
	...

08001cb0 <SI4432_CheckRx>:
 *   - Gecerli paket (bit1)    → FIFO'dan oku, RX'e don, uzunlugu dondur
 *   - Diger interrupt         → Temizle, RX'e don, 0 dondur
 *
 * Donus: 0 = paket yok, >0 = okunan paket uzunlugu
 */
uint8_t SI4432_CheckRx(uint8_t *data) {
 8001cb0:	b5b0      	push	{r4, r5, r7, lr}
 8001cb2:	b084      	sub	sp, #16
 8001cb4:	af00      	add	r7, sp, #0
 8001cb6:	6078      	str	r0, [r7, #4]
  if (!NIRQ_IS_LOW())
 8001cb8:	2380      	movs	r3, #128	@ 0x80
 8001cba:	011b      	lsls	r3, r3, #4
 8001cbc:	4a34      	ldr	r2, [pc, #208]	@ (8001d90 <SI4432_CheckRx+0xe0>)
 8001cbe:	0019      	movs	r1, r3
 8001cc0:	0010      	movs	r0, r2
 8001cc2:	f000 ff5b 	bl	8002b7c <HAL_GPIO_ReadPin>
 8001cc6:	1e03      	subs	r3, r0, #0
 8001cc8:	d001      	beq.n	8001cce <SI4432_CheckRx+0x1e>
    return 0; // nIRQ HIGH → interrupt yok, paket yok
 8001cca:	2300      	movs	r3, #0
 8001ccc:	e05b      	b.n	8001d86 <SI4432_CheckRx+0xd6>

  SI4432_WriteReg(0x07, 0x01); // Aliciyi durdur (idle)
 8001cce:	2101      	movs	r1, #1
 8001cd0:	2007      	movs	r0, #7
 8001cd2:	f7ff fdf5 	bl	80018c0 <SI4432_WriteReg>

  uint8_t st1 = SI4432_ReadReg(0x03); // Interrupt Status 1 oku
 8001cd6:	250d      	movs	r5, #13
 8001cd8:	197c      	adds	r4, r7, r5
 8001cda:	2003      	movs	r0, #3
 8001cdc:	f7ff fe24 	bl	8001928 <SI4432_ReadReg>
 8001ce0:	0003      	movs	r3, r0
 8001ce2:	7023      	strb	r3, [r4, #0]
  (void)SI4432_ReadReg(0x04);         // Interrupt Status 2 oku (temizlemek icin)
 8001ce4:	2004      	movs	r0, #4
 8001ce6:	f7ff fe1f 	bl	8001928 <SI4432_ReadReg>

  /* CRC hatasi? (bit0 = icrcerror) */
  if (st1 & 0x01) {
 8001cea:	197b      	adds	r3, r7, r5
 8001cec:	781b      	ldrb	r3, [r3, #0]
 8001cee:	2201      	movs	r2, #1
 8001cf0:	4013      	ands	r3, r2
 8001cf2:	d005      	beq.n	8001d00 <SI4432_CheckRx+0x50>
    SI4432_ResetRxFIFO(); // Bozuk veriyi at
 8001cf4:	f7ff fe59 	bl	80019aa <SI4432_ResetRxFIFO>
    SI4432_StartRx();     // Tekrar dinlemeye gec
 8001cf8:	f7ff ffbc 	bl	8001c74 <SI4432_StartRx>
    return 0;
 8001cfc:	2300      	movs	r3, #0
 8001cfe:	e042      	b.n	8001d86 <SI4432_CheckRx+0xd6>
  }

  /* Gecerli paket? (bit1 = ipkvalid) */
  if (st1 & 0x02) {
 8001d00:	230d      	movs	r3, #13
 8001d02:	18fb      	adds	r3, r7, r3
 8001d04:	781b      	ldrb	r3, [r3, #0]
 8001d06:	2202      	movs	r2, #2
 8001d08:	4013      	ands	r3, r2
 8001d0a:	d037      	beq.n	8001d7c <SI4432_CheckRx+0xcc>
    uint8_t len = SI4432_ReadReg(0x4B); // Received Packet Length reg
 8001d0c:	250f      	movs	r5, #15
 8001d0e:	197c      	adds	r4, r7, r5
 8001d10:	204b      	movs	r0, #75	@ 0x4b
 8001d12:	f7ff fe09 	bl	8001928 <SI4432_ReadReg>
 8001d16:	0003      	movs	r3, r0
 8001d18:	7023      	strb	r3, [r4, #0]

    if (len > 0 && len <= 64) {
 8001d1a:	197b      	adds	r3, r7, r5
 8001d1c:	781b      	ldrb	r3, [r3, #0]
 8001d1e:	2b00      	cmp	r3, #0
 8001d20:	d020      	beq.n	8001d64 <SI4432_CheckRx+0xb4>
 8001d22:	197b      	adds	r3, r7, r5
 8001d24:	781b      	ldrb	r3, [r3, #0]
 8001d26:	2b40      	cmp	r3, #64	@ 0x40
 8001d28:	d81c      	bhi.n	8001d64 <SI4432_CheckRx+0xb4>
      /* FIFO'dan byte byte oku (0x7F = FIFO Access reg) */
      for (uint8_t i = 0; i < len; i++)
 8001d2a:	230e      	movs	r3, #14
 8001d2c:	18fb      	adds	r3, r7, r3
 8001d2e:	2200      	movs	r2, #0
 8001d30:	701a      	strb	r2, [r3, #0]
 8001d32:	e00e      	b.n	8001d52 <SI4432_CheckRx+0xa2>
        data[i] = SI4432_ReadReg(0x7F);
 8001d34:	250e      	movs	r5, #14
 8001d36:	197b      	adds	r3, r7, r5
 8001d38:	781b      	ldrb	r3, [r3, #0]
 8001d3a:	687a      	ldr	r2, [r7, #4]
 8001d3c:	18d4      	adds	r4, r2, r3
 8001d3e:	207f      	movs	r0, #127	@ 0x7f
 8001d40:	f7ff fdf2 	bl	8001928 <SI4432_ReadReg>
 8001d44:	0003      	movs	r3, r0
 8001d46:	7023      	strb	r3, [r4, #0]
      for (uint8_t i = 0; i < len; i++)
 8001d48:	197b      	adds	r3, r7, r5
 8001d4a:	781a      	ldrb	r2, [r3, #0]
 8001d4c:	197b      	adds	r3, r7, r5
 8001d4e:	3201      	adds	r2, #1
 8001d50:	701a      	strb	r2, [r3, #0]
 8001d52:	230e      	movs	r3, #14
 8001d54:	18fa      	adds	r2, r7, r3
 8001d56:	230f      	movs	r3, #15
 8001d58:	18fb      	adds	r3, r7, r3
 8001d5a:	7812      	ldrb	r2, [r2, #0]
 8001d5c:	781b      	ldrb	r3, [r3, #0]
 8001d5e:	429a      	cmp	r2, r3
 8001d60:	d3e8      	bcc.n	8001d34 <SI4432_CheckRx+0x84>
 8001d62:	e003      	b.n	8001d6c <SI4432_CheckRx+0xbc>
    } else {
      len = 0; // Gecersiz uzunluk — yoksay
 8001d64:	230f      	movs	r3, #15
 8001d66:	18fb      	adds	r3, r7, r3
 8001d68:	2200      	movs	r2, #0
 8001d6a:	701a      	strb	r2, [r3, #0]
    }

    SI4432_ResetRxFIFO();
 8001d6c:	f7ff fe1d 	bl	80019aa <SI4432_ResetRxFIFO>
    SI4432_StartRx(); // Sonraki paket icin hemen RX'e don
 8001d70:	f7ff ff80 	bl	8001c74 <SI4432_StartRx>
    return len;
 8001d74:	230f      	movs	r3, #15
 8001d76:	18fb      	adds	r3, r7, r3
 8001d78:	781b      	ldrb	r3, [r3, #0]
 8001d7a:	e004      	b.n	8001d86 <SI4432_CheckRx+0xd6>
  }

  /* Bilinmeyen interrupt — temizle ve devam et */
  SI4432_ResetRxFIFO();
 8001d7c:	f7ff fe15 	bl	80019aa <SI4432_ResetRxFIFO>
  SI4432_StartRx();
 8001d80:	f7ff ff78 	bl	8001c74 <SI4432_StartRx>
  return 0;
 8001d84:	2300      	movs	r3, #0
}
 8001d86:	0018      	movs	r0, r3
 8001d88:	46bd      	mov	sp, r7
 8001d8a:	b004      	add	sp, #16
 8001d8c:	bdb0      	pop	{r4, r5, r7, pc}
 8001d8e:	46c0      	nop			@ (mov r8, r8)
 8001d90:	48000400 	.word	0x48000400

08001d94 <MX_SPI2_Init>:

SPI_HandleTypeDef hspi2;

/* SPI2 init function */
void MX_SPI2_Init(void)
{
 8001d94:	b580      	push	{r7, lr}
 8001d96:	af00      	add	r7, sp, #0
  /* USER CODE END SPI2_Init 0 */

  /* USER CODE BEGIN SPI2_Init 1 */

  /* USER CODE END SPI2_Init 1 */
  hspi2.Instance = SPI2;
 8001d98:	4b1b      	ldr	r3, [pc, #108]	@ (8001e08 <MX_SPI2_Init+0x74>)
 8001d9a:	4a1c      	ldr	r2, [pc, #112]	@ (8001e0c <MX_SPI2_Init+0x78>)
 8001d9c:	601a      	str	r2, [r3, #0]
  hspi2.Init.Mode = SPI_MODE_MASTER;
 8001d9e:	4b1a      	ldr	r3, [pc, #104]	@ (8001e08 <MX_SPI2_Init+0x74>)
 8001da0:	2282      	movs	r2, #130	@ 0x82
 8001da2:	0052      	lsls	r2, r2, #1
 8001da4:	605a      	str	r2, [r3, #4]
  hspi2.Init.Direction = SPI_DIRECTION_2LINES;
 8001da6:	4b18      	ldr	r3, [pc, #96]	@ (8001e08 <MX_SPI2_Init+0x74>)
 8001da8:	2200      	movs	r2, #0
 8001daa:	609a      	str	r2, [r3, #8]
  hspi2.Init.DataSize = SPI_DATASIZE_8BIT;
 8001dac:	4b16      	ldr	r3, [pc, #88]	@ (8001e08 <MX_SPI2_Init+0x74>)
 8001dae:	22e0      	movs	r2, #224	@ 0xe0
 8001db0:	00d2      	lsls	r2, r2, #3
 8001db2:	60da      	str	r2, [r3, #12]
  hspi2.Init.CLKPolarity = SPI_POLARITY_LOW;
 8001db4:	4b14      	ldr	r3, [pc, #80]	@ (8001e08 <MX_SPI2_Init+0x74>)
 8001db6:	2200      	movs	r2, #0
 8001db8:	611a      	str	r2, [r3, #16]
  hspi2.Init.CLKPhase = SPI_PHASE_1EDGE;
 8001dba:	4b13      	ldr	r3, [pc, #76]	@ (8001e08 <MX_SPI2_Init+0x74>)
 8001dbc:	2200      	movs	r2, #0
 8001dbe:	615a      	str	r2, [r3, #20]
  hspi2.Init.NSS = SPI_NSS_SOFT;
 8001dc0:	4b11      	ldr	r3, [pc, #68]	@ (8001e08 <MX_SPI2_Init+0x74>)
 8001dc2:	2280      	movs	r2, #128	@ 0x80
 8001dc4:	0092      	lsls	r2, r2, #2
 8001dc6:	619a      	str	r2, [r3, #24]
  hspi2.Init.BaudRatePrescaler = SPI_BAUDRATEPRESCALER_8;
 8001dc8:	4b0f      	ldr	r3, [pc, #60]	@ (8001e08 <MX_SPI2_Init+0x74>)
 8001dca:	2210      	movs	r2, #16
 8001dcc:	61da      	str	r2, [r3, #28]
  hspi2.Init.FirstBit = SPI_FIRSTBIT_MSB;
 8001dce:	4b0e      	ldr	r3, [pc, #56]	@ (8001e08 <MX_SPI2_Init+0x74>)
 8001dd0:	2200      	movs	r2, #0
 8001dd2:	621a      	str	r2, [r3, #32]
  hspi2.Init.TIMode = SPI_TIMODE_DISABLE;
 8001dd4:	4b0c      	ldr	r3, [pc, #48]	@ (8001e08 <MX_SPI2_Init+0x74>)
 8001dd6:	2200      	movs	r2, #0
 8001dd8:	625a      	str	r2, [r3, #36]	@ 0x24
  hspi2.Init.CRCCalculation = SPI_CRCCALCULATION_DISABLE;
 8001dda:	4b0b      	ldr	r3, [pc, #44]	@ (8001e08 <MX_SPI2_Init+0x74>)
 8001ddc:	2200      	movs	r2, #0
 8001dde:	629a      	str	r2, [r3, #40]	@ 0x28
  hspi2.Init.CRCPolynomial = 7;
 8001de0:	4b09      	ldr	r3, [pc, #36]	@ (8001e08 <MX_SPI2_Init+0x74>)
 8001de2:	2207      	movs	r2, #7
 8001de4:	62da      	str	r2, [r3, #44]	@ 0x2c
  hspi2.Init.CRCLength = SPI_CRC_LENGTH_DATASIZE;
 8001de6:	4b08      	ldr	r3, [pc, #32]	@ (8001e08 <MX_SPI2_Init+0x74>)
 8001de8:	2200      	movs	r2, #0
 8001dea:	631a      	str	r2, [r3, #48]	@ 0x30
  hspi2.Init.NSSPMode = SPI_NSS_PULSE_DISABLE;
 8001dec:	4b06      	ldr	r3, [pc, #24]	@ (8001e08 <MX_SPI2_Init+0x74>)
 8001dee:	2200      	movs	r2, #0
 8001df0:	635a      	str	r2, [r3, #52]	@ 0x34
  if (HAL_SPI_Init(&hspi2) != HAL_OK)
 8001df2:	4b05      	ldr	r3, [pc, #20]	@ (8001e08 <MX_SPI2_Init+0x74>)
 8001df4:	0018      	movs	r0, r3
 8001df6:	f001 fbfd 	bl	80035f4 <HAL_SPI_Init>
 8001dfa:	1e03      	subs	r3, r0, #0
 8001dfc:	d001      	beq.n	8001e02 <MX_SPI2_Init+0x6e>
  {
    Error_Handler();
 8001dfe:	f7fe fc26 	bl	800064e <Error_Handler>
  }
  /* USER CODE BEGIN SPI2_Init 2 */

  /* USER CODE END SPI2_Init 2 */

}
 8001e02:	46c0      	nop			@ (mov r8, r8)
 8001e04:	46bd      	mov	sp, r7
 8001e06:	bd80      	pop	{r7, pc}
 8001e08:	20000138 	.word	0x20000138
 8001e0c:	40003800 	.word	0x40003800

08001e10 <HAL_SPI_MspInit>:

void HAL_SPI_MspInit(SPI_HandleTypeDef* spiHandle)
{
 8001e10:	b590      	push	{r4, r7, lr}
 8001e12:	b08b      	sub	sp, #44	@ 0x2c
 8001e14:	af00      	add	r7, sp, #0
 8001e16:	6078      	str	r0, [r7, #4]

  GPIO_InitTypeDef GPIO_InitStruct = {0};
 8001e18:	2414      	movs	r4, #20
 8001e1a:	193b      	adds	r3, r7, r4
 8001e1c:	0018      	movs	r0, r3
 8001e1e:	2314      	movs	r3, #20
 8001e20:	001a      	movs	r2, r3
 8001e22:	2100      	movs	r1, #0
 8001e24:	f003 fd6c 	bl	8005900 <memset>
  if(spiHandle->Instance==SPI2)
 8001e28:	687b      	ldr	r3, [r7, #4]
 8001e2a:	681b      	ldr	r3, [r3, #0]
 8001e2c:	4a1c      	ldr	r2, [pc, #112]	@ (8001ea0 <HAL_SPI_MspInit+0x90>)
 8001e2e:	4293      	cmp	r3, r2
 8001e30:	d132      	bne.n	8001e98 <HAL_SPI_MspInit+0x88>
  {
  /* USER CODE BEGIN SPI2_MspInit 0 */

  /* USER CODE END SPI2_MspInit 0 */
    /* SPI2 clock enable */
    __HAL_RCC_SPI2_CLK_ENABLE();
 8001e32:	4b1c      	ldr	r3, [pc, #112]	@ (8001ea4 <HAL_SPI_MspInit+0x94>)
 8001e34:	69da      	ldr	r2, [r3, #28]
 8001e36:	4b1b      	ldr	r3, [pc, #108]	@ (8001ea4 <HAL_SPI_MspInit+0x94>)
 8001e38:	2180      	movs	r1, #128	@ 0x80
 8001e3a:	01c9      	lsls	r1, r1, #7
 8001e3c:	430a      	orrs	r2, r1
 8001e3e:	61da      	str	r2, [r3, #28]
 8001e40:	4b18      	ldr	r3, [pc, #96]	@ (8001ea4 <HAL_SPI_MspInit+0x94>)
 8001e42:	69da      	ldr	r2, [r3, #28]
 8001e44:	2380      	movs	r3, #128	@ 0x80
 8001e46:	01db      	lsls	r3, r3, #7
 8001e48:	4013      	ands	r3, r2
 8001e4a:	613b      	str	r3, [r7, #16]
 8001e4c:	693b      	ldr	r3, [r7, #16]

    __HAL_RCC_GPIOB_CLK_ENABLE();
 8001e4e:	4b15      	ldr	r3, [pc, #84]	@ (8001ea4 <HAL_SPI_MspInit+0x94>)
 8001e50:	695a      	ldr	r2, [r3, #20]
 8001e52:	4b14      	ldr	r3, [pc, #80]	@ (8001ea4 <HAL_SPI_MspInit+0x94>)
 8001e54:	2180      	movs	r1, #128	@ 0x80
 8001e56:	02c9      	lsls	r1, r1, #11
 8001e58:	430a      	orrs	r2, r1
 8001e5a:	615a      	str	r2, [r3, #20]
 8001e5c:	4b11      	ldr	r3, [pc, #68]	@ (8001ea4 <HAL_SPI_MspInit+0x94>)
 8001e5e:	695a      	ldr	r2, [r3, #20]
 8001e60:	2380      	movs	r3, #128	@ 0x80
 8001e62:	02db      	lsls	r3, r3, #11
 8001e64:	4013      	ands	r3, r2
 8001e66:	60fb      	str	r3, [r7, #12]
 8001e68:	68fb      	ldr	r3, [r7, #12]
    /**SPI2 GPIO Configuration
    PB13     ------> SPI2_SCK
    PB14     ------> SPI2_MISO
    PB15     ------> SPI2_MOSI
    */
    GPIO_InitStruct.Pin = SI4432_CLK_Pin|SI4432_MISO_Pin|SI4432_MOSI_Pin;
 8001e6a:	193b      	adds	r3, r7, r4
 8001e6c:	22e0      	movs	r2, #224	@ 0xe0
 8001e6e:	0212      	lsls	r2, r2, #8
 8001e70:	601a      	str	r2, [r3, #0]
    GPIO_InitStruct.Mode = GPIO_MODE_AF_PP;
 8001e72:	0021      	movs	r1, r4
 8001e74:	187b      	adds	r3, r7, r1
 8001e76:	2202      	movs	r2, #2
 8001e78:	605a      	str	r2, [r3, #4]
    GPIO_InitStruct.Pull = GPIO_NOPULL;
 8001e7a:	187b      	adds	r3, r7, r1
 8001e7c:	2200      	movs	r2, #0
 8001e7e:	609a      	str	r2, [r3, #8]
    GPIO_InitStruct.Speed = GPIO_SPEED_FREQ_HIGH;
 8001e80:	187b      	adds	r3, r7, r1
 8001e82:	2203      	movs	r2, #3
 8001e84:	60da      	str	r2, [r3, #12]
    GPIO_InitStruct.Alternate = GPIO_AF0_SPI2;
 8001e86:	187b      	adds	r3, r7, r1
 8001e88:	2200      	movs	r2, #0
 8001e8a:	611a      	str	r2, [r3, #16]
    HAL_GPIO_Init(GPIOB, &GPIO_InitStruct);
 8001e8c:	187b      	adds	r3, r7, r1
 8001e8e:	4a06      	ldr	r2, [pc, #24]	@ (8001ea8 <HAL_SPI_MspInit+0x98>)
 8001e90:	0019      	movs	r1, r3
 8001e92:	0010      	movs	r0, r2
 8001e94:	f000 fd02 	bl	800289c <HAL_GPIO_Init>

  /* USER CODE BEGIN SPI2_MspInit 1 */

  /* USER CODE END SPI2_MspInit 1 */
  }
}
 8001e98:	46c0      	nop			@ (mov r8, r8)
 8001e9a:	46bd      	mov	sp, r7
 8001e9c:	b00b      	add	sp, #44	@ 0x2c
 8001e9e:	bd90      	pop	{r4, r7, pc}
 8001ea0:	40003800 	.word	0x40003800
 8001ea4:	40021000 	.word	0x40021000
 8001ea8:	48000400 	.word	0x48000400

08001eac <HAL_MspInit>:
/* USER CODE END 0 */
/**
  * Initializes the Global MSP.
  */
void HAL_MspInit(void)
{
 8001eac:	b580      	push	{r7, lr}
 8001eae:	b082      	sub	sp, #8
 8001eb0:	af00      	add	r7, sp, #0

  /* USER CODE BEGIN MspInit 0 */

  /* USER CODE END MspInit 0 */

  __HAL_RCC_SYSCFG_CLK_ENABLE();
 8001eb2:	4b0f      	ldr	r3, [pc, #60]	@ (8001ef0 <HAL_MspInit+0x44>)
 8001eb4:	699a      	ldr	r2, [r3, #24]
 8001eb6:	4b0e      	ldr	r3, [pc, #56]	@ (8001ef0 <HAL_MspInit+0x44>)
 8001eb8:	2101      	movs	r1, #1
 8001eba:	430a      	orrs	r2, r1
 8001ebc:	619a      	str	r2, [r3, #24]
 8001ebe:	4b0c      	ldr	r3, [pc, #48]	@ (8001ef0 <HAL_MspInit+0x44>)
 8001ec0:	699b      	ldr	r3, [r3, #24]
 8001ec2:	2201      	movs	r2, #1
 8001ec4:	4013      	ands	r3, r2
 8001ec6:	607b      	str	r3, [r7, #4]
 8001ec8:	687b      	ldr	r3, [r7, #4]
  __HAL_RCC_PWR_CLK_ENABLE();
 8001eca:	4b09      	ldr	r3, [pc, #36]	@ (8001ef0 <HAL_MspInit+0x44>)
 8001ecc:	69da      	ldr	r2, [r3, #28]
 8001ece:	4b08      	ldr	r3, [pc, #32]	@ (8001ef0 <HAL_MspInit+0x44>)
 8001ed0:	2180      	movs	r1, #128	@ 0x80
 8001ed2:	0549      	lsls	r1, r1, #21
 8001ed4:	430a      	orrs	r2, r1
 8001ed6:	61da      	str	r2, [r3, #28]
 8001ed8:	4b05      	ldr	r3, [pc, #20]	@ (8001ef0 <HAL_MspInit+0x44>)
 8001eda:	69da      	ldr	r2, [r3, #28]
 8001edc:	2380      	movs	r3, #128	@ 0x80
 8001ede:	055b      	lsls	r3, r3, #21
 8001ee0:	4013      	ands	r3, r2
 8001ee2:	603b      	str	r3, [r7, #0]
 8001ee4:	683b      	ldr	r3, [r7, #0]
  /* System interrupt init*/

  /* USER CODE BEGIN MspInit 1 */

  /* USER CODE END MspInit 1 */
}
 8001ee6:	46c0      	nop			@ (mov r8, r8)
 8001ee8:	46bd      	mov	sp, r7
 8001eea:	b002      	add	sp, #8
 8001eec:	bd80      	pop	{r7, pc}
 8001eee:	46c0      	nop			@ (mov r8, r8)
 8001ef0:	40021000 	.word	0x40021000

08001ef4 <NMI_Handler>:
/******************************************************************************/
/**
  * @brief This function handles Non maskable interrupt.
  */
void NMI_Handler(void)
{
 8001ef4:	b580      	push	{r7, lr}
 8001ef6:	af00      	add	r7, sp, #0
  /* USER CODE BEGIN NonMaskableInt_IRQn 0 */

  /* USER CODE END NonMaskableInt_IRQn 0 */
  /* USER CODE BEGIN NonMaskableInt_IRQn 1 */
   while (1)
 8001ef8:	46c0      	nop			@ (mov r8, r8)
 8001efa:	e7fd      	b.n	8001ef8 <NMI_Handler+0x4>

08001efc <HardFault_Handler>:

/**
  * @brief This function handles Hard fault interrupt.
  */
void HardFault_Handler(void)
{
 8001efc:	b580      	push	{r7, lr}
 8001efe:	af00      	add	r7, sp, #0
  /* USER CODE BEGIN HardFault_IRQn 0 */

  /* USER CODE END HardFault_IRQn 0 */
  while (1)
 8001f00:	46c0      	nop			@ (mov r8, r8)
 8001f02:	e7fd      	b.n	8001f00 <HardFault_Handler+0x4>

08001f04 <SVC_Handler>:

/**
  * @brief This function handles System service call via SWI instruction.
  */
void SVC_Handler(void)
{
 8001f04:	b580      	push	{r7, lr}
 8001f06:	af00      	add	r7, sp, #0

  /* USER CODE END SVC_IRQn 0 */
  /* USER CODE BEGIN SVC_IRQn 1 */

  /* USER CODE END SVC_IRQn 1 */
}
 8001f08:	46c0      	nop			@ (mov r8, r8)
 8001f0a:	46bd      	mov	sp, r7
 8001f0c:	bd80      	pop	{r7, pc}

08001f0e <PendSV_Handler>:

/**
  * @brief This function handles Pendable request for system service.
  */
void PendSV_Handler(void)
{
 8001f0e:	b580      	push	{r7, lr}
 8001f10:	af00      	add	r7, sp, #0

  /* USER CODE END PendSV_IRQn 0 */
  /* USER CODE BEGIN PendSV_IRQn 1 */

  /* USER CODE END PendSV_IRQn 1 */
}
 8001f12:	46c0      	nop			@ (mov r8, r8)
 8001f14:	46bd      	mov	sp, r7
 8001f16:	bd80      	pop	{r7, pc}

08001f18 <SysTick_Handler>:

/**
  * @brief This function handles System tick timer.
  */
void SysTick_Handler(void)
{
 8001f18:	b580      	push	{r7, lr}
 8001f1a:	af00      	add	r7, sp, #0
  /* USER CODE BEGIN SysTick_IRQn 0 */

  /* USER CODE END SysTick_IRQn 0 */
  HAL_IncTick();
 8001f1c:	f000 fa1c 	bl	8002358 <HAL_IncTick>
  /* USER CODE BEGIN SysTick_IRQn 1 */

  /* USER CODE END SysTick_IRQn 1 */
}
 8001f20:	46c0      	nop			@ (mov r8, r8)
 8001f22:	46bd      	mov	sp, r7
 8001f24:	bd80      	pop	{r7, pc}

08001f26 <EXTI4_15_IRQHandler>:

/**
  * @brief This function handles EXTI line 4 to 15 interrupts.
  */
void EXTI4_15_IRQHandler(void)
{
 8001f26:	b580      	push	{r7, lr}
 8001f28:	af00      	add	r7, sp, #0
  /* USER CODE BEGIN EXTI4_15_IRQn 0 */

  /* USER CODE END EXTI4_15_IRQn 0 */
  HAL_GPIO_EXTI_IRQHandler(SI4432_IRQ_Pin);
 8001f2a:	2380      	movs	r3, #128	@ 0x80
 8001f2c:	011b      	lsls	r3, r3, #4
 8001f2e:	0018      	movs	r0, r3
 8001f30:	f000 fe7a 	bl	8002c28 <HAL_GPIO_EXTI_IRQHandler>
  /* USER CODE BEGIN EXTI4_15_IRQn 1 */

  /* USER CODE END EXTI4_15_IRQn 1 */
}
 8001f34:	46c0      	nop			@ (mov r8, r8)
 8001f36:	46bd      	mov	sp, r7
 8001f38:	bd80      	pop	{r7, pc}
	...

08001f3c <DMA1_Channel2_3_IRQHandler>:

/**
  * @brief This function handles DMA1 channel 2 and 3 interrupts.
  */
void DMA1_Channel2_3_IRQHandler(void)
{
 8001f3c:	b580      	push	{r7, lr}
 8001f3e:	af00      	add	r7, sp, #0
  /* USER CODE BEGIN DMA1_Channel2_3_IRQn 0 */

  /* USER CODE END DMA1_Channel2_3_IRQn 0 */
  HAL_DMA_IRQHandler(&hdma_usart1_tx);
 8001f40:	4b05      	ldr	r3, [pc, #20]	@ (8001f58 <DMA1_Channel2_3_IRQHandler+0x1c>)
 8001f42:	0018      	movs	r0, r3
 8001f44:	f000 fbeb 	bl	800271e <HAL_DMA_IRQHandler>
  HAL_DMA_IRQHandler(&hdma_usart1_rx);
 8001f48:	4b04      	ldr	r3, [pc, #16]	@ (8001f5c <DMA1_Channel2_3_IRQHandler+0x20>)
 8001f4a:	0018      	movs	r0, r3
 8001f4c:	f000 fbe7 	bl	800271e <HAL_DMA_IRQHandler>
  /* USER CODE BEGIN DMA1_Channel2_3_IRQn 1 */

  /* USER CODE END DMA1_Channel2_3_IRQn 1 */
}
 8001f50:	46c0      	nop			@ (mov r8, r8)
 8001f52:	46bd      	mov	sp, r7
 8001f54:	bd80      	pop	{r7, pc}
 8001f56:	46c0      	nop			@ (mov r8, r8)
 8001f58:	200002f8 	.word	0x200002f8
 8001f5c:	200002b4 	.word	0x200002b4

08001f60 <TIM17_IRQHandler>:

/**
  * @brief This function handles TIM17 global interrupt.
  */
void TIM17_IRQHandler(void)
{
 8001f60:	b580      	push	{r7, lr}
 8001f62:	af00      	add	r7, sp, #0
  /* USER CODE BEGIN TIM17_IRQn 0 */

  /* USER CODE END TIM17_IRQn 0 */
  HAL_TIM_IRQHandler(&htim17);
 8001f64:	4b03      	ldr	r3, [pc, #12]	@ (8001f74 <TIM17_IRQHandler+0x14>)
 8001f66:	0018      	movs	r0, r3
 8001f68:	f002 fab4 	bl	80044d4 <HAL_TIM_IRQHandler>
  /* USER CODE BEGIN TIM17_IRQn 1 */

  /* USER CODE END TIM17_IRQn 1 */
}
 8001f6c:	46c0      	nop			@ (mov r8, r8)
 8001f6e:	46bd      	mov	sp, r7
 8001f70:	bd80      	pop	{r7, pc}
 8001f72:	46c0      	nop			@ (mov r8, r8)
 8001f74:	200001e4 	.word	0x200001e4

08001f78 <USART1_IRQHandler>:

/**
  * @brief This function handles USART1 global interrupt.
  */
void USART1_IRQHandler(void)
{
 8001f78:	b580      	push	{r7, lr}
 8001f7a:	af00      	add	r7, sp, #0
  /* USER CODE BEGIN USART1_IRQn 0 */

  /* USER CODE END USART1_IRQn 0 */
  HAL_UART_IRQHandler(&huart1);
 8001f7c:	4b03      	ldr	r3, [pc, #12]	@ (8001f8c <USART1_IRQHandler+0x14>)
 8001f7e:	0018      	movs	r0, r3
 8001f80:	f002 fe1a 	bl	8004bb8 <HAL_UART_IRQHandler>
  /* USER CODE BEGIN USART1_IRQn 1 */

  /* USER CODE END USART1_IRQn 1 */
}
 8001f84:	46c0      	nop			@ (mov r8, r8)
 8001f86:	46bd      	mov	sp, r7
 8001f88:	bd80      	pop	{r7, pc}
 8001f8a:	46c0      	nop			@ (mov r8, r8)
 8001f8c:	2000022c 	.word	0x2000022c

08001f90 <SystemInit>:
  * @brief  Setup the microcontroller system
  * @param  None
  * @retval None
  */
void SystemInit(void)
{
 8001f90:	b580      	push	{r7, lr}
 8001f92:	af00      	add	r7, sp, #0
                         before branch to main program. This call is made inside
                         the "startup_stm32f0xx.s" file.
                         User can setups the default system clock (System clock source, PLL Multiplier
                         and Divider factors, AHB/APBx prescalers and Flash settings).
   */
}
 8001f94:	46c0      	nop			@ (mov r8, r8)
 8001f96:	46bd      	mov	sp, r7
 8001f98:	bd80      	pop	{r7, pc}
	...

08001f9c <MX_TIM16_Init>:
TIM_HandleTypeDef htim16;
TIM_HandleTypeDef htim17;

/* TIM16 init function */
void MX_TIM16_Init(void)
{
 8001f9c:	b580      	push	{r7, lr}
 8001f9e:	af00      	add	r7, sp, #0
  /* USER CODE END TIM16_Init 0 */

  /* USER CODE BEGIN TIM16_Init 1 */

  /* USER CODE END TIM16_Init 1 */
  htim16.Instance = TIM16;
 8001fa0:	4b0f      	ldr	r3, [pc, #60]	@ (8001fe0 <MX_TIM16_Init+0x44>)
 8001fa2:	4a10      	ldr	r2, [pc, #64]	@ (8001fe4 <MX_TIM16_Init+0x48>)
 8001fa4:	601a      	str	r2, [r3, #0]
  htim16.Init.Prescaler = 47;
 8001fa6:	4b0e      	ldr	r3, [pc, #56]	@ (8001fe0 <MX_TIM16_Init+0x44>)
 8001fa8:	222f      	movs	r2, #47	@ 0x2f
 8001faa:	605a      	str	r2, [r3, #4]
  htim16.Init.CounterMode = TIM_COUNTERMODE_UP;
 8001fac:	4b0c      	ldr	r3, [pc, #48]	@ (8001fe0 <MX_TIM16_Init+0x44>)
 8001fae:	2200      	movs	r2, #0
 8001fb0:	609a      	str	r2, [r3, #8]
  htim16.Init.Period = 65535;
 8001fb2:	4b0b      	ldr	r3, [pc, #44]	@ (8001fe0 <MX_TIM16_Init+0x44>)
 8001fb4:	4a0c      	ldr	r2, [pc, #48]	@ (8001fe8 <MX_TIM16_Init+0x4c>)
 8001fb6:	60da      	str	r2, [r3, #12]
  htim16.Init.ClockDivision = TIM_CLOCKDIVISION_DIV1;
 8001fb8:	4b09      	ldr	r3, [pc, #36]	@ (8001fe0 <MX_TIM16_Init+0x44>)
 8001fba:	2200      	movs	r2, #0
 8001fbc:	611a      	str	r2, [r3, #16]
  htim16.Init.RepetitionCounter = 0;
 8001fbe:	4b08      	ldr	r3, [pc, #32]	@ (8001fe0 <MX_TIM16_Init+0x44>)
 8001fc0:	2200      	movs	r2, #0
 8001fc2:	615a      	str	r2, [r3, #20]
  htim16.Init.AutoReloadPreload = TIM_AUTORELOAD_PRELOAD_DISABLE;
 8001fc4:	4b06      	ldr	r3, [pc, #24]	@ (8001fe0 <MX_TIM16_Init+0x44>)
 8001fc6:	2200      	movs	r2, #0
 8001fc8:	619a      	str	r2, [r3, #24]
  if (HAL_TIM_Base_Init(&htim16) != HAL_OK)
 8001fca:	4b05      	ldr	r3, [pc, #20]	@ (8001fe0 <MX_TIM16_Init+0x44>)
 8001fcc:	0018      	movs	r0, r3
 8001fce:	f002 fa31 	bl	8004434 <HAL_TIM_Base_Init>
 8001fd2:	1e03      	subs	r3, r0, #0
 8001fd4:	d001      	beq.n	8001fda <MX_TIM16_Init+0x3e>
  {
    Error_Handler();
 8001fd6:	f7fe fb3a 	bl	800064e <Error_Handler>
  }
  /* USER CODE BEGIN TIM16_Init 2 */

  /* USER CODE END TIM16_Init 2 */

}
 8001fda:	46c0      	nop			@ (mov r8, r8)
 8001fdc:	46bd      	mov	sp, r7
 8001fde:	bd80      	pop	{r7, pc}
 8001fe0:	2000019c 	.word	0x2000019c
 8001fe4:	40014400 	.word	0x40014400
 8001fe8:	0000ffff 	.word	0x0000ffff

08001fec <MX_TIM17_Init>:
/* TIM17 init function */
void MX_TIM17_Init(void)
{
 8001fec:	b580      	push	{r7, lr}
 8001fee:	af00      	add	r7, sp, #0
  /* USER CODE END TIM17_Init 0 */

  /* USER CODE BEGIN TIM17_Init 1 */

  /* USER CODE END TIM17_Init 1 */
  htim17.Instance = TIM17;
 8001ff0:	4b0f      	ldr	r3, [pc, #60]	@ (8002030 <MX_TIM17_Init+0x44>)
 8001ff2:	4a10      	ldr	r2, [pc, #64]	@ (8002034 <MX_TIM17_Init+0x48>)
 8001ff4:	601a      	str	r2, [r3, #0]
  htim17.Init.Prescaler = 47;
 8001ff6:	4b0e      	ldr	r3, [pc, #56]	@ (8002030 <MX_TIM17_Init+0x44>)
 8001ff8:	222f      	movs	r2, #47	@ 0x2f
 8001ffa:	605a      	str	r2, [r3, #4]
  htim17.Init.CounterMode = TIM_COUNTERMODE_UP;
 8001ffc:	4b0c      	ldr	r3, [pc, #48]	@ (8002030 <MX_TIM17_Init+0x44>)
 8001ffe:	2200      	movs	r2, #0
 8002000:	609a      	str	r2, [r3, #8]
  htim17.Init.Period = 999;
 8002002:	4b0b      	ldr	r3, [pc, #44]	@ (8002030 <MX_TIM17_Init+0x44>)
 8002004:	4a0c      	ldr	r2, [pc, #48]	@ (8002038 <MX_TIM17_Init+0x4c>)
 8002006:	60da      	str	r2, [r3, #12]
  htim17.Init.ClockDivision = TIM_CLOCKDIVISION_DIV1;
 8002008:	4b09      	ldr	r3, [pc, #36]	@ (8002030 <MX_TIM17_Init+0x44>)
 800200a:	2200      	movs	r2, #0
 800200c:	611a      	str	r2, [r3, #16]
  htim17.Init.RepetitionCounter = 0;
 800200e:	4b08      	ldr	r3, [pc, #32]	@ (8002030 <MX_TIM17_Init+0x44>)
 8002010:	2200      	movs	r2, #0
 8002012:	615a      	str	r2, [r3, #20]
  htim17.Init.AutoReloadPreload = TIM_AUTORELOAD_PRELOAD_DISABLE;
 8002014:	4b06      	ldr	r3, [pc, #24]	@ (8002030 <MX_TIM17_Init+0x44>)
 8002016:	2200      	movs	r2, #0
 8002018:	619a      	str	r2, [r3, #24]
  if (HAL_TIM_Base_Init(&htim17) != HAL_OK)
 800201a:	4b05      	ldr	r3, [pc, #20]	@ (8002030 <MX_TIM17_Init+0x44>)
 800201c:	0018      	movs	r0, r3
 800201e:	f002 fa09 	bl	8004434 <HAL_TIM_Base_Init>
 8002022:	1e03      	subs	r3, r0, #0
 8002024:	d001      	beq.n	800202a <MX_TIM17_Init+0x3e>
  {
    Error_Handler();
 8002026:	f7fe fb12 	bl	800064e <Error_Handler>
  }
  /* USER CODE BEGIN TIM17_Init 2 */

  /* USER CODE END TIM17_Init 2 */

}
 800202a:	46c0      	nop			@ (mov r8, r8)
 800202c:	46bd      	mov	sp, r7
 800202e:	bd80      	pop	{r7, pc}
 8002030:	200001e4 	.word	0x200001e4
 8002034:	40014800 	.word	0x40014800
 8002038:	000003e7 	.word	0x000003e7

0800203c <HAL_TIM_Base_MspInit>:

void HAL_TIM_Base_MspInit(TIM_HandleTypeDef* tim_baseHandle)
{
 800203c:	b580      	push	{r7, lr}
 800203e:	b084      	sub	sp, #16
 8002040:	af00      	add	r7, sp, #0
 8002042:	6078      	str	r0, [r7, #4]

  if(tim_baseHandle->Instance==TIM16)
 8002044:	687b      	ldr	r3, [r7, #4]
 8002046:	681b      	ldr	r3, [r3, #0]
 8002048:	4a18      	ldr	r2, [pc, #96]	@ (80020ac <HAL_TIM_Base_MspInit+0x70>)
 800204a:	4293      	cmp	r3, r2
 800204c:	d10e      	bne.n	800206c <HAL_TIM_Base_MspInit+0x30>
  {
  /* USER CODE BEGIN TIM16_MspInit 0 */

  /* USER CODE END TIM16_MspInit 0 */
    /* TIM16 clock enable */
    __HAL_RCC_TIM16_CLK_ENABLE();
 800204e:	4b18      	ldr	r3, [pc, #96]	@ (80020b0 <HAL_TIM_Base_MspInit+0x74>)
 8002050:	699a      	ldr	r2, [r3, #24]
 8002052:	4b17      	ldr	r3, [pc, #92]	@ (80020b0 <HAL_TIM_Base_MspInit+0x74>)
 8002054:	2180      	movs	r1, #128	@ 0x80
 8002056:	0289      	lsls	r1, r1, #10
 8002058:	430a      	orrs	r2, r1
 800205a:	619a      	str	r2, [r3, #24]
 800205c:	4b14      	ldr	r3, [pc, #80]	@ (80020b0 <HAL_TIM_Base_MspInit+0x74>)
 800205e:	699a      	ldr	r2, [r3, #24]
 8002060:	2380      	movs	r3, #128	@ 0x80
 8002062:	029b      	lsls	r3, r3, #10
 8002064:	4013      	ands	r3, r2
 8002066:	60fb      	str	r3, [r7, #12]
 8002068:	68fb      	ldr	r3, [r7, #12]
    HAL_NVIC_EnableIRQ(TIM17_IRQn);
  /* USER CODE BEGIN TIM17_MspInit 1 */

  /* USER CODE END TIM17_MspInit 1 */
  }
}
 800206a:	e01a      	b.n	80020a2 <HAL_TIM_Base_MspInit+0x66>
  else if(tim_baseHandle->Instance==TIM17)
 800206c:	687b      	ldr	r3, [r7, #4]
 800206e:	681b      	ldr	r3, [r3, #0]
 8002070:	4a10      	ldr	r2, [pc, #64]	@ (80020b4 <HAL_TIM_Base_MspInit+0x78>)
 8002072:	4293      	cmp	r3, r2
 8002074:	d115      	bne.n	80020a2 <HAL_TIM_Base_MspInit+0x66>
    __HAL_RCC_TIM17_CLK_ENABLE();
 8002076:	4b0e      	ldr	r3, [pc, #56]	@ (80020b0 <HAL_TIM_Base_MspInit+0x74>)
 8002078:	699a      	ldr	r2, [r3, #24]
 800207a:	4b0d      	ldr	r3, [pc, #52]	@ (80020b0 <HAL_TIM_Base_MspInit+0x74>)
 800207c:	2180      	movs	r1, #128	@ 0x80
 800207e:	02c9      	lsls	r1, r1, #11
 8002080:	430a      	orrs	r2, r1
 8002082:	619a      	str	r2, [r3, #24]
 8002084:	4b0a      	ldr	r3, [pc, #40]	@ (80020b0 <HAL_TIM_Base_MspInit+0x74>)
 8002086:	699a      	ldr	r2, [r3, #24]
 8002088:	2380      	movs	r3, #128	@ 0x80
 800208a:	02db      	lsls	r3, r3, #11
 800208c:	4013      	ands	r3, r2
 800208e:	60bb      	str	r3, [r7, #8]
 8002090:	68bb      	ldr	r3, [r7, #8]
    HAL_NVIC_SetPriority(TIM17_IRQn, 2, 0);
 8002092:	2200      	movs	r2, #0
 8002094:	2102      	movs	r1, #2
 8002096:	2016      	movs	r0, #22
 8002098:	f000 fa4a 	bl	8002530 <HAL_NVIC_SetPriority>
    HAL_NVIC_EnableIRQ(TIM17_IRQn);
 800209c:	2016      	movs	r0, #22
 800209e:	f000 fa5c 	bl	800255a <HAL_NVIC_EnableIRQ>
}
 80020a2:	46c0      	nop			@ (mov r8, r8)
 80020a4:	46bd      	mov	sp, r7
 80020a6:	b004      	add	sp, #16
 80020a8:	bd80      	pop	{r7, pc}
 80020aa:	46c0      	nop			@ (mov r8, r8)
 80020ac:	40014400 	.word	0x40014400
 80020b0:	40021000 	.word	0x40021000
 80020b4:	40014800 	.word	0x40014800

080020b8 <MX_USART1_UART_Init>:
DMA_HandleTypeDef hdma_usart1_tx;

/* USART1 init function */

void MX_USART1_UART_Init(void)
{
 80020b8:	b580      	push	{r7, lr}
 80020ba:	af00      	add	r7, sp, #0
  /* USER CODE END USART1_Init 0 */

  /* USER CODE BEGIN USART1_Init 1 */

  /* USER CODE END USART1_Init 1 */
  huart1.Instance = USART1;
 80020bc:	4b16      	ldr	r3, [pc, #88]	@ (8002118 <MX_USART1_UART_Init+0x60>)
 80020be:	4a17      	ldr	r2, [pc, #92]	@ (800211c <MX_USART1_UART_Init+0x64>)
 80020c0:	601a      	str	r2, [r3, #0]
  huart1.Init.BaudRate = 115200;
 80020c2:	4b15      	ldr	r3, [pc, #84]	@ (8002118 <MX_USART1_UART_Init+0x60>)
 80020c4:	22e1      	movs	r2, #225	@ 0xe1
 80020c6:	0252      	lsls	r2, r2, #9
 80020c8:	605a      	str	r2, [r3, #4]
  huart1.Init.WordLength = UART_WORDLENGTH_8B;
 80020ca:	4b13      	ldr	r3, [pc, #76]	@ (8002118 <MX_USART1_UART_Init+0x60>)
 80020cc:	2200      	movs	r2, #0
 80020ce:	609a      	str	r2, [r3, #8]
  huart1.Init.StopBits = UART_STOPBITS_1;
 80020d0:	4b11      	ldr	r3, [pc, #68]	@ (8002118 <MX_USART1_UART_Init+0x60>)
 80020d2:	2200      	movs	r2, #0
 80020d4:	60da      	str	r2, [r3, #12]
  huart1.Init.Parity = UART_PARITY_NONE;
 80020d6:	4b10      	ldr	r3, [pc, #64]	@ (8002118 <MX_USART1_UART_Init+0x60>)
 80020d8:	2200      	movs	r2, #0
 80020da:	611a      	str	r2, [r3, #16]
  huart1.Init.Mode = UART_MODE_TX_RX;
 80020dc:	4b0e      	ldr	r3, [pc, #56]	@ (8002118 <MX_USART1_UART_Init+0x60>)
 80020de:	220c      	movs	r2, #12
 80020e0:	615a      	str	r2, [r3, #20]
  huart1.Init.HwFlowCtl = UART_HWCONTROL_NONE;
 80020e2:	4b0d      	ldr	r3, [pc, #52]	@ (8002118 <MX_USART1_UART_Init+0x60>)
 80020e4:	2200      	movs	r2, #0
 80020e6:	619a      	str	r2, [r3, #24]
  huart1.Init.OverSampling = UART_OVERSAMPLING_16;
 80020e8:	4b0b      	ldr	r3, [pc, #44]	@ (8002118 <MX_USART1_UART_Init+0x60>)
 80020ea:	2200      	movs	r2, #0
 80020ec:	61da      	str	r2, [r3, #28]
  huart1.Init.OneBitSampling = UART_ONE_BIT_SAMPLE_DISABLE;
 80020ee:	4b0a      	ldr	r3, [pc, #40]	@ (8002118 <MX_USART1_UART_Init+0x60>)
 80020f0:	2200      	movs	r2, #0
 80020f2:	621a      	str	r2, [r3, #32]
  huart1.AdvancedInit.AdvFeatureInit = UART_ADVFEATURE_DMADISABLEONERROR_INIT;
 80020f4:	4b08      	ldr	r3, [pc, #32]	@ (8002118 <MX_USART1_UART_Init+0x60>)
 80020f6:	2220      	movs	r2, #32
 80020f8:	625a      	str	r2, [r3, #36]	@ 0x24
  huart1.AdvancedInit.DMADisableonRxError = UART_ADVFEATURE_DMA_DISABLEONRXERROR;
 80020fa:	4b07      	ldr	r3, [pc, #28]	@ (8002118 <MX_USART1_UART_Init+0x60>)
 80020fc:	2280      	movs	r2, #128	@ 0x80
 80020fe:	0192      	lsls	r2, r2, #6
 8002100:	63da      	str	r2, [r3, #60]	@ 0x3c
  if (HAL_UART_Init(&huart1) != HAL_OK)
 8002102:	4b05      	ldr	r3, [pc, #20]	@ (8002118 <MX_USART1_UART_Init+0x60>)
 8002104:	0018      	movs	r0, r3
 8002106:	f002 fb8f 	bl	8004828 <HAL_UART_Init>
 800210a:	1e03      	subs	r3, r0, #0
 800210c:	d001      	beq.n	8002112 <MX_USART1_UART_Init+0x5a>
  {
    Error_Handler();
 800210e:	f7fe fa9e 	bl	800064e <Error_Handler>
  }
  /* USER CODE BEGIN USART1_Init 2 */

  /* USER CODE END USART1_Init 2 */

}
 8002112:	46c0      	nop			@ (mov r8, r8)
 8002114:	46bd      	mov	sp, r7
 8002116:	bd80      	pop	{r7, pc}
 8002118:	2000022c 	.word	0x2000022c
 800211c:	40013800 	.word	0x40013800

08002120 <HAL_UART_MspInit>:

void HAL_UART_MspInit(UART_HandleTypeDef* uartHandle)
{
 8002120:	b590      	push	{r4, r7, lr}
 8002122:	b08b      	sub	sp, #44	@ 0x2c
 8002124:	af00      	add	r7, sp, #0
 8002126:	6078      	str	r0, [r7, #4]

  GPIO_InitTypeDef GPIO_InitStruct = {0};
 8002128:	2414      	movs	r4, #20
 800212a:	193b      	adds	r3, r7, r4
 800212c:	0018      	movs	r0, r3
 800212e:	2314      	movs	r3, #20
 8002130:	001a      	movs	r2, r3
 8002132:	2100      	movs	r1, #0
 8002134:	f003 fbe4 	bl	8005900 <memset>
  if(uartHandle->Instance==USART1)
 8002138:	687b      	ldr	r3, [r7, #4]
 800213a:	681b      	ldr	r3, [r3, #0]
 800213c:	4a46      	ldr	r2, [pc, #280]	@ (8002258 <HAL_UART_MspInit+0x138>)
 800213e:	4293      	cmp	r3, r2
 8002140:	d000      	beq.n	8002144 <HAL_UART_MspInit+0x24>
 8002142:	e085      	b.n	8002250 <HAL_UART_MspInit+0x130>
  {
  /* USER CODE BEGIN USART1_MspInit 0 */

  /* USER CODE END USART1_MspInit 0 */
    /* USART1 clock enable */
    __HAL_RCC_USART1_CLK_ENABLE();
 8002144:	4b45      	ldr	r3, [pc, #276]	@ (800225c <HAL_UART_MspInit+0x13c>)
 8002146:	699a      	ldr	r2, [r3, #24]
 8002148:	4b44      	ldr	r3, [pc, #272]	@ (800225c <HAL_UART_MspInit+0x13c>)
 800214a:	2180      	movs	r1, #128	@ 0x80
 800214c:	01c9      	lsls	r1, r1, #7
 800214e:	430a      	orrs	r2, r1
 8002150:	619a      	str	r2, [r3, #24]
 8002152:	4b42      	ldr	r3, [pc, #264]	@ (800225c <HAL_UART_MspInit+0x13c>)
 8002154:	699a      	ldr	r2, [r3, #24]
 8002156:	2380      	movs	r3, #128	@ 0x80
 8002158:	01db      	lsls	r3, r3, #7
 800215a:	4013      	ands	r3, r2
 800215c:	613b      	str	r3, [r7, #16]
 800215e:	693b      	ldr	r3, [r7, #16]

    __HAL_RCC_GPIOB_CLK_ENABLE();
 8002160:	4b3e      	ldr	r3, [pc, #248]	@ (800225c <HAL_UART_MspInit+0x13c>)
 8002162:	695a      	ldr	r2, [r3, #20]
 8002164:	4b3d      	ldr	r3, [pc, #244]	@ (800225c <HAL_UART_MspInit+0x13c>)
 8002166:	2180      	movs	r1, #128	@ 0x80
 8002168:	02c9      	lsls	r1, r1, #11
 800216a:	430a      	orrs	r2, r1
 800216c:	615a      	str	r2, [r3, #20]
 800216e:	4b3b      	ldr	r3, [pc, #236]	@ (800225c <HAL_UART_MspInit+0x13c>)
 8002170:	695a      	ldr	r2, [r3, #20]
 8002172:	2380      	movs	r3, #128	@ 0x80
 8002174:	02db      	lsls	r3, r3, #11
 8002176:	4013      	ands	r3, r2
 8002178:	60fb      	str	r3, [r7, #12]
 800217a:	68fb      	ldr	r3, [r7, #12]
    /**USART1 GPIO Configuration
    PB6     ------> USART1_TX
    PB7     ------> USART1_RX
    */
    GPIO_InitStruct.Pin = GPIO_PIN_6|GPIO_PIN_7;
 800217c:	0021      	movs	r1, r4
 800217e:	187b      	adds	r3, r7, r1
 8002180:	22c0      	movs	r2, #192	@ 0xc0
 8002182:	601a      	str	r2, [r3, #0]
    GPIO_InitStruct.Mode = GPIO_MODE_AF_PP;
 8002184:	187b      	adds	r3, r7, r1
 8002186:	2202      	movs	r2, #2
 8002188:	605a      	str	r2, [r3, #4]
    GPIO_InitStruct.Pull = GPIO_PULLUP;
 800218a:	187b      	adds	r3, r7, r1
 800218c:	2201      	movs	r2, #1
 800218e:	609a      	str	r2, [r3, #8]
    GPIO_InitStruct.Speed = GPIO_SPEED_FREQ_HIGH;
 8002190:	187b      	adds	r3, r7, r1
 8002192:	2203      	movs	r2, #3
 8002194:	60da      	str	r2, [r3, #12]
    GPIO_InitStruct.Alternate = GPIO_AF0_USART1;
 8002196:	187b      	adds	r3, r7, r1
 8002198:	2200      	movs	r2, #0
 800219a:	611a      	str	r2, [r3, #16]
    HAL_GPIO_Init(GPIOB, &GPIO_InitStruct);
 800219c:	187b      	adds	r3, r7, r1
 800219e:	4a30      	ldr	r2, [pc, #192]	@ (8002260 <HAL_UART_MspInit+0x140>)
 80021a0:	0019      	movs	r1, r3
 80021a2:	0010      	movs	r0, r2
 80021a4:	f000 fb7a 	bl	800289c <HAL_GPIO_Init>

    /* USART1 DMA Init */
    /* USART1_RX Init */
    hdma_usart1_rx.Instance = DMA1_Channel3;
 80021a8:	4b2e      	ldr	r3, [pc, #184]	@ (8002264 <HAL_UART_MspInit+0x144>)
 80021aa:	4a2f      	ldr	r2, [pc, #188]	@ (8002268 <HAL_UART_MspInit+0x148>)
 80021ac:	601a      	str	r2, [r3, #0]
    hdma_usart1_rx.Init.Direction = DMA_PERIPH_TO_MEMORY;
 80021ae:	4b2d      	ldr	r3, [pc, #180]	@ (8002264 <HAL_UART_MspInit+0x144>)
 80021b0:	2200      	movs	r2, #0
 80021b2:	605a      	str	r2, [r3, #4]
    hdma_usart1_rx.Init.PeriphInc = DMA_PINC_DISABLE;
 80021b4:	4b2b      	ldr	r3, [pc, #172]	@ (8002264 <HAL_UART_MspInit+0x144>)
 80021b6:	2200      	movs	r2, #0
 80021b8:	609a      	str	r2, [r3, #8]
    hdma_usart1_rx.Init.MemInc = DMA_MINC_ENABLE;
 80021ba:	4b2a      	ldr	r3, [pc, #168]	@ (8002264 <HAL_UART_MspInit+0x144>)
 80021bc:	2280      	movs	r2, #128	@ 0x80
 80021be:	60da      	str	r2, [r3, #12]
    hdma_usart1_rx.Init.PeriphDataAlignment = DMA_PDATAALIGN_BYTE;
 80021c0:	4b28      	ldr	r3, [pc, #160]	@ (8002264 <HAL_UART_MspInit+0x144>)
 80021c2:	2200      	movs	r2, #0
 80021c4:	611a      	str	r2, [r3, #16]
    hdma_usart1_rx.Init.MemDataAlignment = DMA_MDATAALIGN_BYTE;
 80021c6:	4b27      	ldr	r3, [pc, #156]	@ (8002264 <HAL_UART_MspInit+0x144>)
 80021c8:	2200      	movs	r2, #0
 80021ca:	615a      	str	r2, [r3, #20]
    hdma_usart1_rx.Init.Mode = DMA_CIRCULAR;
 80021cc:	4b25      	ldr	r3, [pc, #148]	@ (8002264 <HAL_UART_MspInit+0x144>)
 80021ce:	2220      	movs	r2, #32
 80021d0:	619a      	str	r2, [r3, #24]
    hdma_usart1_rx.Init.Priority = DMA_PRIORITY_LOW;
 80021d2:	4b24      	ldr	r3, [pc, #144]	@ (8002264 <HAL_UART_MspInit+0x144>)
 80021d4:	2200      	movs	r2, #0
 80021d6:	61da      	str	r2, [r3, #28]
    if (HAL_DMA_Init(&hdma_usart1_rx) != HAL_OK)
 80021d8:	4b22      	ldr	r3, [pc, #136]	@ (8002264 <HAL_UART_MspInit+0x144>)
 80021da:	0018      	movs	r0, r3
 80021dc:	f000 f9da 	bl	8002594 <HAL_DMA_Init>
 80021e0:	1e03      	subs	r3, r0, #0
 80021e2:	d001      	beq.n	80021e8 <HAL_UART_MspInit+0xc8>
    {
      Error_Handler();
 80021e4:	f7fe fa33 	bl	800064e <Error_Handler>
    }

    __HAL_LINKDMA(uartHandle,hdmarx,hdma_usart1_rx);
 80021e8:	687b      	ldr	r3, [r7, #4]
 80021ea:	4a1e      	ldr	r2, [pc, #120]	@ (8002264 <HAL_UART_MspInit+0x144>)
 80021ec:	675a      	str	r2, [r3, #116]	@ 0x74
 80021ee:	4b1d      	ldr	r3, [pc, #116]	@ (8002264 <HAL_UART_MspInit+0x144>)
 80021f0:	687a      	ldr	r2, [r7, #4]
 80021f2:	625a      	str	r2, [r3, #36]	@ 0x24

    /* USART1_TX Init */
    hdma_usart1_tx.Instance = DMA1_Channel2;
 80021f4:	4b1d      	ldr	r3, [pc, #116]	@ (800226c <HAL_UART_MspInit+0x14c>)
 80021f6:	4a1e      	ldr	r2, [pc, #120]	@ (8002270 <HAL_UART_MspInit+0x150>)
 80021f8:	601a      	str	r2, [r3, #0]
    hdma_usart1_tx.Init.Direction = DMA_MEMORY_TO_PERIPH;
 80021fa:	4b1c      	ldr	r3, [pc, #112]	@ (800226c <HAL_UART_MspInit+0x14c>)
 80021fc:	2210      	movs	r2, #16
 80021fe:	605a      	str	r2, [r3, #4]
    hdma_usart1_tx.Init.PeriphInc = DMA_PINC_DISABLE;
 8002200:	4b1a      	ldr	r3, [pc, #104]	@ (800226c <HAL_UART_MspInit+0x14c>)
 8002202:	2200      	movs	r2, #0
 8002204:	609a      	str	r2, [r3, #8]
    hdma_usart1_tx.Init.MemInc = DMA_MINC_ENABLE;
 8002206:	4b19      	ldr	r3, [pc, #100]	@ (800226c <HAL_UART_MspInit+0x14c>)
 8002208:	2280      	movs	r2, #128	@ 0x80
 800220a:	60da      	str	r2, [r3, #12]
    hdma_usart1_tx.Init.PeriphDataAlignment = DMA_PDATAALIGN_BYTE;
 800220c:	4b17      	ldr	r3, [pc, #92]	@ (800226c <HAL_UART_MspInit+0x14c>)
 800220e:	2200      	movs	r2, #0
 8002210:	611a      	str	r2, [r3, #16]
    hdma_usart1_tx.Init.MemDataAlignment = DMA_MDATAALIGN_BYTE;
 8002212:	4b16      	ldr	r3, [pc, #88]	@ (800226c <HAL_UART_MspInit+0x14c>)
 8002214:	2200      	movs	r2, #0
 8002216:	615a      	str	r2, [r3, #20]
    hdma_usart1_tx.Init.Mode = DMA_NORMAL;
 8002218:	4b14      	ldr	r3, [pc, #80]	@ (800226c <HAL_UART_MspInit+0x14c>)
 800221a:	2200      	movs	r2, #0
 800221c:	619a      	str	r2, [r3, #24]
    hdma_usart1_tx.Init.Priority = DMA_PRIORITY_LOW;
 800221e:	4b13      	ldr	r3, [pc, #76]	@ (800226c <HAL_UART_MspInit+0x14c>)
 8002220:	2200      	movs	r2, #0
 8002222:	61da      	str	r2, [r3, #28]
    if (HAL_DMA_Init(&hdma_usart1_tx) != HAL_OK)
 8002224:	4b11      	ldr	r3, [pc, #68]	@ (800226c <HAL_UART_MspInit+0x14c>)
 8002226:	0018      	movs	r0, r3
 8002228:	f000 f9b4 	bl	8002594 <HAL_DMA_Init>
 800222c:	1e03      	subs	r3, r0, #0
 800222e:	d001      	beq.n	8002234 <HAL_UART_MspInit+0x114>
    {
      Error_Handler();
 8002230:	f7fe fa0d 	bl	800064e <Error_Handler>
    }

    __HAL_LINKDMA(uartHandle,hdmatx,hdma_usart1_tx);
 8002234:	687b      	ldr	r3, [r7, #4]
 8002236:	4a0d      	ldr	r2, [pc, #52]	@ (800226c <HAL_UART_MspInit+0x14c>)
 8002238:	671a      	str	r2, [r3, #112]	@ 0x70
 800223a:	4b0c      	ldr	r3, [pc, #48]	@ (800226c <HAL_UART_MspInit+0x14c>)
 800223c:	687a      	ldr	r2, [r7, #4]
 800223e:	625a      	str	r2, [r3, #36]	@ 0x24

    /* USART1 interrupt Init */
    HAL_NVIC_SetPriority(USART1_IRQn, 3, 0);
 8002240:	2200      	movs	r2, #0
 8002242:	2103      	movs	r1, #3
 8002244:	201b      	movs	r0, #27
 8002246:	f000 f973 	bl	8002530 <HAL_NVIC_SetPriority>
    HAL_NVIC_EnableIRQ(USART1_IRQn);
 800224a:	201b      	movs	r0, #27
 800224c:	f000 f985 	bl	800255a <HAL_NVIC_EnableIRQ>
  /* USER CODE BEGIN USART1_MspInit 1 */

  /* USER CODE END USART1_MspInit 1 */
  }
}
 8002250:	46c0      	nop			@ (mov r8, r8)
 8002252:	46bd      	mov	sp, r7
 8002254:	b00b      	add	sp, #44	@ 0x2c
 8002256:	bd90      	pop	{r4, r7, pc}
 8002258:	40013800 	.word	0x40013800
 800225c:	40021000 	.word	0x40021000
 8002260:	48000400 	.word	0x48000400
 8002264:	200002b4 	.word	0x200002b4
 8002268:	40020030 	.word	0x40020030
 800226c:	200002f8 	.word	0x200002f8
 8002270:	4002001c 	.word	0x4002001c

08002274 <Reset_Handler>:
 8002274:	480d      	ldr	r0, [pc, #52]	@ (80022ac <LoopForever+0x2>)
 8002276:	4685      	mov	sp, r0
 8002278:	f7ff fe8a 	bl	8001f90 <SystemInit>
 800227c:	480c      	ldr	r0, [pc, #48]	@ (80022b0 <LoopForever+0x6>)
 800227e:	490d      	ldr	r1, [pc, #52]	@ (80022b4 <LoopForever+0xa>)
 8002280:	4a0d      	ldr	r2, [pc, #52]	@ (80022b8 <LoopForever+0xe>)
 8002282:	2300      	movs	r3, #0
 8002284:	e002      	b.n	800228c <LoopCopyDataInit>

08002286 <CopyDataInit>:
 8002286:	58d4      	ldr	r4, [r2, r3]
 8002288:	50c4      	str	r4, [r0, r3]
 800228a:	3304      	adds	r3, #4

0800228c <LoopCopyDataInit>:
 800228c:	18c4      	adds	r4, r0, r3
 800228e:	428c      	cmp	r4, r1
 8002290:	d3f9      	bcc.n	8002286 <CopyDataInit>
 8002292:	4a0a      	ldr	r2, [pc, #40]	@ (80022bc <LoopForever+0x12>)
 8002294:	4c0a      	ldr	r4, [pc, #40]	@ (80022c0 <LoopForever+0x16>)
 8002296:	2300      	movs	r3, #0
 8002298:	e001      	b.n	800229e <LoopFillZerobss>

0800229a <FillZerobss>:
 800229a:	6013      	str	r3, [r2, #0]
 800229c:	3204      	adds	r2, #4

0800229e <LoopFillZerobss>:
 800229e:	42a2      	cmp	r2, r4
 80022a0:	d3fb      	bcc.n	800229a <FillZerobss>
 80022a2:	f003 fb35 	bl	8005910 <__libc_init_array>
 80022a6:	f7fe f8eb 	bl	8000480 <main>

080022aa <LoopForever>:
 80022aa:	e7fe      	b.n	80022aa <LoopForever>
 80022ac:	20002000 	.word	0x20002000
 80022b0:	20000000 	.word	0x20000000
 80022b4:	20000010 	.word	0x20000010
 80022b8:	08006044 	.word	0x08006044
 80022bc:	20000010 	.word	0x20000010
 80022c0:	20000340 	.word	0x20000340

080022c4 <ADC1_IRQHandler>:
 80022c4:	e7fe      	b.n	80022c4 <ADC1_IRQHandler>
	...

080022c8 <HAL_Init>:
  *       In the default implementation,Systick is used as source of time base.
  *       The tick variable is incremented each 1ms in its ISR.
  * @retval HAL status
  */
HAL_StatusTypeDef HAL_Init(void)
{
 80022c8:	b580      	push	{r7, lr}
 80022ca:	af00      	add	r7, sp, #0
  /* Configure Flash prefetch */ 
#if (PREFETCH_ENABLE != 0)
  __HAL_FLASH_PREFETCH_BUFFER_ENABLE();
 80022cc:	4b07      	ldr	r3, [pc, #28]	@ (80022ec <HAL_Init+0x24>)
 80022ce:	681a      	ldr	r2, [r3, #0]
 80022d0:	4b06      	ldr	r3, [pc, #24]	@ (80022ec <HAL_Init+0x24>)
 80022d2:	2110      	movs	r1, #16
 80022d4:	430a      	orrs	r2, r1
 80022d6:	601a      	str	r2, [r3, #0]
#endif /* PREFETCH_ENABLE */

  /* Use systick as time base source and configure 1ms tick (default clock after Reset is HSI) */

  HAL_InitTick(TICK_INT_PRIORITY);
 80022d8:	2000      	movs	r0, #0
 80022da:	f000 f809 	bl	80022f0 <HAL_InitTick>

  /* Init the low level hardware */
  HAL_MspInit();
 80022de:	f7ff fde5 	bl	8001eac <HAL_MspInit>

  /* Return function status */
  return HAL_OK;
 80022e2:	2300      	movs	r3, #0
}
 80022e4:	0018      	movs	r0, r3
 80022e6:	46bd      	mov	sp, r7
 80022e8:	bd80      	pop	{r7, pc}
 80022ea:	46c0      	nop			@ (mov r8, r8)
 80022ec:	40022000 	.word	0x40022000

080022f0 <HAL_InitTick>:
  *       implementation  in user file.
  * @param TickPriority Tick interrupt priority.
  * @retval HAL status
  */
__weak HAL_StatusTypeDef HAL_InitTick(uint32_t TickPriority)
{
 80022f0:	b590      	push	{r4, r7, lr}
 80022f2:	b083      	sub	sp, #12
 80022f4:	af00      	add	r7, sp, #0
 80022f6:	6078      	str	r0, [r7, #4]
  /*Configure the SysTick to have interrupt in 1ms time basis*/
  if (HAL_SYSTICK_Config(SystemCoreClock / (1000U / uwTickFreq)) > 0U)
 80022f8:	4b14      	ldr	r3, [pc, #80]	@ (800234c <HAL_InitTick+0x5c>)
 80022fa:	681c      	ldr	r4, [r3, #0]
 80022fc:	4b14      	ldr	r3, [pc, #80]	@ (8002350 <HAL_InitTick+0x60>)
 80022fe:	781b      	ldrb	r3, [r3, #0]
 8002300:	0019      	movs	r1, r3
 8002302:	23fa      	movs	r3, #250	@ 0xfa
 8002304:	0098      	lsls	r0, r3, #2
 8002306:	f7fd ff07 	bl	8000118 <__udivsi3>
 800230a:	0003      	movs	r3, r0
 800230c:	0019      	movs	r1, r3
 800230e:	0020      	movs	r0, r4
 8002310:	f7fd ff02 	bl	8000118 <__udivsi3>
 8002314:	0003      	movs	r3, r0
 8002316:	0018      	movs	r0, r3
 8002318:	f000 f92f 	bl	800257a <HAL_SYSTICK_Config>
 800231c:	1e03      	subs	r3, r0, #0
 800231e:	d001      	beq.n	8002324 <HAL_InitTick+0x34>
  {
    return HAL_ERROR;
 8002320:	2301      	movs	r3, #1
 8002322:	e00f      	b.n	8002344 <HAL_InitTick+0x54>
  }

  /* Configure the SysTick IRQ priority */
  if (TickPriority < (1UL << __NVIC_PRIO_BITS))
 8002324:	687b      	ldr	r3, [r7, #4]
 8002326:	2b03      	cmp	r3, #3
 8002328:	d80b      	bhi.n	8002342 <HAL_InitTick+0x52>
  {
    HAL_NVIC_SetPriority(SysTick_IRQn, TickPriority, 0U);
 800232a:	6879      	ldr	r1, [r7, #4]
 800232c:	2301      	movs	r3, #1
 800232e:	425b      	negs	r3, r3
 8002330:	2200      	movs	r2, #0
 8002332:	0018      	movs	r0, r3
 8002334:	f000 f8fc 	bl	8002530 <HAL_NVIC_SetPriority>
    uwTickPrio = TickPriority;
 8002338:	4b06      	ldr	r3, [pc, #24]	@ (8002354 <HAL_InitTick+0x64>)
 800233a:	687a      	ldr	r2, [r7, #4]
 800233c:	601a      	str	r2, [r3, #0]
  {
    return HAL_ERROR;
  }

   /* Return function status */
  return HAL_OK;
 800233e:	2300      	movs	r3, #0
 8002340:	e000      	b.n	8002344 <HAL_InitTick+0x54>
    return HAL_ERROR;
 8002342:	2301      	movs	r3, #1
}
 8002344:	0018      	movs	r0, r3
 8002346:	46bd      	mov	sp, r7
 8002348:	b003      	add	sp, #12
 800234a:	bd90      	pop	{r4, r7, pc}
 800234c:	20000004 	.word	0x20000004
 8002350:	2000000c 	.word	0x2000000c
 8002354:	20000008 	.word	0x20000008

08002358 <HAL_IncTick>:
  * @note This function is declared as __weak to be overwritten in case of other 
  *       implementations in user file.
  * @retval None
  */
__weak void HAL_IncTick(void)
{
 8002358:	b580      	push	{r7, lr}
 800235a:	af00      	add	r7, sp, #0
  uwTick += uwTickFreq;
 800235c:	4b05      	ldr	r3, [pc, #20]	@ (8002374 <HAL_IncTick+0x1c>)
 800235e:	781b      	ldrb	r3, [r3, #0]
 8002360:	001a      	movs	r2, r3
 8002362:	4b05      	ldr	r3, [pc, #20]	@ (8002378 <HAL_IncTick+0x20>)
 8002364:	681b      	ldr	r3, [r3, #0]
 8002366:	18d2      	adds	r2, r2, r3
 8002368:	4b03      	ldr	r3, [pc, #12]	@ (8002378 <HAL_IncTick+0x20>)
 800236a:	601a      	str	r2, [r3, #0]
}
 800236c:	46c0      	nop			@ (mov r8, r8)
 800236e:	46bd      	mov	sp, r7
 8002370:	bd80      	pop	{r7, pc}
 8002372:	46c0      	nop			@ (mov r8, r8)
 8002374:	2000000c 	.word	0x2000000c
 8002378:	2000033c 	.word	0x2000033c

0800237c <HAL_GetTick>:
  * @note   This function is declared as __weak  to be overwritten  in case of other 
  *       implementations in user file.
  * @retval tick value
  */
__weak uint32_t HAL_GetTick(void)
{
 800237c:	b580      	push	{r7, lr}
 800237e:	af00      	add	r7, sp, #0
  return uwTick;
 8002380:	4b02      	ldr	r3, [pc, #8]	@ (800238c <HAL_GetTick+0x10>)
 8002382:	681b      	ldr	r3, [r3, #0]
}
 8002384:	0018      	movs	r0, r3
 8002386:	46bd      	mov	sp, r7
 8002388:	bd80      	pop	{r7, pc}
 800238a:	46c0      	nop			@ (mov r8, r8)
 800238c:	2000033c 	.word	0x2000033c

08002390 <HAL_Delay>:
  *       implementations in user file.
  * @param Delay specifies the delay time length, in milliseconds.
  * @retval None
  */
__weak void HAL_Delay(uint32_t Delay)
{
 8002390:	b580      	push	{r7, lr}
 8002392:	b084      	sub	sp, #16
 8002394:	af00      	add	r7, sp, #0
 8002396:	6078      	str	r0, [r7, #4]
  uint32_t tickstart = HAL_GetTick();
 8002398:	f7ff fff0 	bl	800237c <HAL_GetTick>
 800239c:	0003      	movs	r3, r0
 800239e:	60bb      	str	r3, [r7, #8]
  uint32_t wait = Delay;
 80023a0:	687b      	ldr	r3, [r7, #4]
 80023a2:	60fb      	str	r3, [r7, #12]
  
  /* Add a freq to guarantee minimum wait */
  if (wait < HAL_MAX_DELAY)
 80023a4:	68fb      	ldr	r3, [r7, #12]
 80023a6:	3301      	adds	r3, #1
 80023a8:	d005      	beq.n	80023b6 <HAL_Delay+0x26>
  {
    wait += (uint32_t)(uwTickFreq);
 80023aa:	4b0a      	ldr	r3, [pc, #40]	@ (80023d4 <HAL_Delay+0x44>)
 80023ac:	781b      	ldrb	r3, [r3, #0]
 80023ae:	001a      	movs	r2, r3
 80023b0:	68fb      	ldr	r3, [r7, #12]
 80023b2:	189b      	adds	r3, r3, r2
 80023b4:	60fb      	str	r3, [r7, #12]
  }
  
  while((HAL_GetTick() - tickstart) < wait)
 80023b6:	46c0      	nop			@ (mov r8, r8)
 80023b8:	f7ff ffe0 	bl	800237c <HAL_GetTick>
 80023bc:	0002      	movs	r2, r0
 80023be:	68bb      	ldr	r3, [r7, #8]
 80023c0:	1ad3      	subs	r3, r2, r3
 80023c2:	68fa      	ldr	r2, [r7, #12]
 80023c4:	429a      	cmp	r2, r3
 80023c6:	d8f7      	bhi.n	80023b8 <HAL_Delay+0x28>
  {
  }
}
 80023c8:	46c0      	nop			@ (mov r8, r8)
 80023ca:	46c0      	nop			@ (mov r8, r8)
 80023cc:	46bd      	mov	sp, r7
 80023ce:	b004      	add	sp, #16
 80023d0:	bd80      	pop	{r7, pc}
 80023d2:	46c0      	nop			@ (mov r8, r8)
 80023d4:	2000000c 	.word	0x2000000c

080023d8 <__NVIC_EnableIRQ>:
  \details Enables a device specific interrupt in the NVIC interrupt controller.
  \param [in]      IRQn  Device specific interrupt number.
  \note    IRQn must not be negative.
 */
__STATIC_INLINE void __NVIC_EnableIRQ(IRQn_Type IRQn)
{
 80023d8:	b580      	push	{r7, lr}
 80023da:	b082      	sub	sp, #8
 80023dc:	af00      	add	r7, sp, #0
 80023de:	0002      	movs	r2, r0
 80023e0:	1dfb      	adds	r3, r7, #7
 80023e2:	701a      	strb	r2, [r3, #0]
  if ((int32_t)(IRQn) >= 0)
 80023e4:	1dfb      	adds	r3, r7, #7
 80023e6:	781b      	ldrb	r3, [r3, #0]
 80023e8:	2b7f      	cmp	r3, #127	@ 0x7f
 80023ea:	d809      	bhi.n	8002400 <__NVIC_EnableIRQ+0x28>
  {
    NVIC->ISER[0U] = (uint32_t)(1UL << (((uint32_t)IRQn) & 0x1FUL));
 80023ec:	1dfb      	adds	r3, r7, #7
 80023ee:	781b      	ldrb	r3, [r3, #0]
 80023f0:	001a      	movs	r2, r3
 80023f2:	231f      	movs	r3, #31
 80023f4:	401a      	ands	r2, r3
 80023f6:	4b04      	ldr	r3, [pc, #16]	@ (8002408 <__NVIC_EnableIRQ+0x30>)
 80023f8:	2101      	movs	r1, #1
 80023fa:	4091      	lsls	r1, r2
 80023fc:	000a      	movs	r2, r1
 80023fe:	601a      	str	r2, [r3, #0]
  }
}
 8002400:	46c0      	nop			@ (mov r8, r8)
 8002402:	46bd      	mov	sp, r7
 8002404:	b002      	add	sp, #8
 8002406:	bd80      	pop	{r7, pc}
 8002408:	e000e100 	.word	0xe000e100

0800240c <__NVIC_SetPriority>:
  \param [in]      IRQn  Interrupt number.
  \param [in]  priority  Priority to set.
  \note    The priority cannot be set for every processor exception.
 */
__STATIC_INLINE void __NVIC_SetPriority(IRQn_Type IRQn, uint32_t priority)
{
 800240c:	b590      	push	{r4, r7, lr}
 800240e:	b083      	sub	sp, #12
 8002410:	af00      	add	r7, sp, #0
 8002412:	0002      	movs	r2, r0
 8002414:	6039      	str	r1, [r7, #0]
 8002416:	1dfb      	adds	r3, r7, #7
 8002418:	701a      	strb	r2, [r3, #0]
  if ((int32_t)(IRQn) >= 0)
 800241a:	1dfb      	adds	r3, r7, #7
 800241c:	781b      	ldrb	r3, [r3, #0]
 800241e:	2b7f      	cmp	r3, #127	@ 0x7f
 8002420:	d828      	bhi.n	8002474 <__NVIC_SetPriority+0x68>
  {
    NVIC->IP[_IP_IDX(IRQn)]  = ((uint32_t)(NVIC->IP[_IP_IDX(IRQn)]  & ~(0xFFUL << _BIT_SHIFT(IRQn))) |
 8002422:	4a2f      	ldr	r2, [pc, #188]	@ (80024e0 <__NVIC_SetPriority+0xd4>)
 8002424:	1dfb      	adds	r3, r7, #7
 8002426:	781b      	ldrb	r3, [r3, #0]
 8002428:	b25b      	sxtb	r3, r3
 800242a:	089b      	lsrs	r3, r3, #2
 800242c:	33c0      	adds	r3, #192	@ 0xc0
 800242e:	009b      	lsls	r3, r3, #2
 8002430:	589b      	ldr	r3, [r3, r2]
 8002432:	1dfa      	adds	r2, r7, #7
 8002434:	7812      	ldrb	r2, [r2, #0]
 8002436:	0011      	movs	r1, r2
 8002438:	2203      	movs	r2, #3
 800243a:	400a      	ands	r2, r1
 800243c:	00d2      	lsls	r2, r2, #3
 800243e:	21ff      	movs	r1, #255	@ 0xff
 8002440:	4091      	lsls	r1, r2
 8002442:	000a      	movs	r2, r1
 8002444:	43d2      	mvns	r2, r2
 8002446:	401a      	ands	r2, r3
 8002448:	0011      	movs	r1, r2
       (((priority << (8U - __NVIC_PRIO_BITS)) & (uint32_t)0xFFUL) << _BIT_SHIFT(IRQn)));
 800244a:	683b      	ldr	r3, [r7, #0]
 800244c:	019b      	lsls	r3, r3, #6
 800244e:	22ff      	movs	r2, #255	@ 0xff
 8002450:	401a      	ands	r2, r3
 8002452:	1dfb      	adds	r3, r7, #7
 8002454:	781b      	ldrb	r3, [r3, #0]
 8002456:	0018      	movs	r0, r3
 8002458:	2303      	movs	r3, #3
 800245a:	4003      	ands	r3, r0
 800245c:	00db      	lsls	r3, r3, #3
 800245e:	409a      	lsls	r2, r3
    NVIC->IP[_IP_IDX(IRQn)]  = ((uint32_t)(NVIC->IP[_IP_IDX(IRQn)]  & ~(0xFFUL << _BIT_SHIFT(IRQn))) |
 8002460:	481f      	ldr	r0, [pc, #124]	@ (80024e0 <__NVIC_SetPriority+0xd4>)
 8002462:	1dfb      	adds	r3, r7, #7
 8002464:	781b      	ldrb	r3, [r3, #0]
 8002466:	b25b      	sxtb	r3, r3
 8002468:	089b      	lsrs	r3, r3, #2
 800246a:	430a      	orrs	r2, r1
 800246c:	33c0      	adds	r3, #192	@ 0xc0
 800246e:	009b      	lsls	r3, r3, #2
 8002470:	501a      	str	r2, [r3, r0]
  else
  {
    SCB->SHP[_SHP_IDX(IRQn)] = ((uint32_t)(SCB->SHP[_SHP_IDX(IRQn)] & ~(0xFFUL << _BIT_SHIFT(IRQn))) |
       (((priority << (8U - __NVIC_PRIO_BITS)) & (uint32_t)0xFFUL) << _BIT_SHIFT(IRQn)));
  }
}
 8002472:	e031      	b.n	80024d8 <__NVIC_SetPriority+0xcc>
    SCB->SHP[_SHP_IDX(IRQn)] = ((uint32_t)(SCB->SHP[_SHP_IDX(IRQn)] & ~(0xFFUL << _BIT_SHIFT(IRQn))) |
 8002474:	4a1b      	ldr	r2, [pc, #108]	@ (80024e4 <__NVIC_SetPriority+0xd8>)
 8002476:	1dfb      	adds	r3, r7, #7
 8002478:	781b      	ldrb	r3, [r3, #0]
 800247a:	0019      	movs	r1, r3
 800247c:	230f      	movs	r3, #15
 800247e:	400b      	ands	r3, r1
 8002480:	3b08      	subs	r3, #8
 8002482:	089b      	lsrs	r3, r3, #2
 8002484:	3306      	adds	r3, #6
 8002486:	009b      	lsls	r3, r3, #2
 8002488:	18d3      	adds	r3, r2, r3
 800248a:	3304      	adds	r3, #4
 800248c:	681b      	ldr	r3, [r3, #0]
 800248e:	1dfa      	adds	r2, r7, #7
 8002490:	7812      	ldrb	r2, [r2, #0]
 8002492:	0011      	movs	r1, r2
 8002494:	2203      	movs	r2, #3
 8002496:	400a      	ands	r2, r1
 8002498:	00d2      	lsls	r2, r2, #3
 800249a:	21ff      	movs	r1, #255	@ 0xff
 800249c:	4091      	lsls	r1, r2
 800249e:	000a      	movs	r2, r1
 80024a0:	43d2      	mvns	r2, r2
 80024a2:	401a      	ands	r2, r3
 80024a4:	0011      	movs	r1, r2
       (((priority << (8U - __NVIC_PRIO_BITS)) & (uint32_t)0xFFUL) << _BIT_SHIFT(IRQn)));
 80024a6:	683b      	ldr	r3, [r7, #0]
 80024a8:	019b      	lsls	r3, r3, #6
 80024aa:	22ff      	movs	r2, #255	@ 0xff
 80024ac:	401a      	ands	r2, r3
 80024ae:	1dfb      	adds	r3, r7, #7
 80024b0:	781b      	ldrb	r3, [r3, #0]
 80024b2:	0018      	movs	r0, r3
 80024b4:	2303      	movs	r3, #3
 80024b6:	4003      	ands	r3, r0
 80024b8:	00db      	lsls	r3, r3, #3
 80024ba:	409a      	lsls	r2, r3
    SCB->SHP[_SHP_IDX(IRQn)] = ((uint32_t)(SCB->SHP[_SHP_IDX(IRQn)] & ~(0xFFUL << _BIT_SHIFT(IRQn))) |
 80024bc:	4809      	ldr	r0, [pc, #36]	@ (80024e4 <__NVIC_SetPriority+0xd8>)
 80024be:	1dfb      	adds	r3, r7, #7
 80024c0:	781b      	ldrb	r3, [r3, #0]
 80024c2:	001c      	movs	r4, r3
 80024c4:	230f      	movs	r3, #15
 80024c6:	4023      	ands	r3, r4
 80024c8:	3b08      	subs	r3, #8
 80024ca:	089b      	lsrs	r3, r3, #2
 80024cc:	430a      	orrs	r2, r1
 80024ce:	3306      	adds	r3, #6
 80024d0:	009b      	lsls	r3, r3, #2
 80024d2:	18c3      	adds	r3, r0, r3
 80024d4:	3304      	adds	r3, #4
 80024d6:	601a      	str	r2, [r3, #0]
}
 80024d8:	46c0      	nop			@ (mov r8, r8)
 80024da:	46bd      	mov	sp, r7
 80024dc:	b003      	add	sp, #12
 80024de:	bd90      	pop	{r4, r7, pc}
 80024e0:	e000e100 	.word	0xe000e100
 80024e4:	e000ed00 	.word	0xe000ed00

080024e8 <SysTick_Config>:
  \note    When the variable <b>__Vendor_SysTickConfig</b> is set to 1, then the
           function <b>SysTick_Config</b> is not included. In this case, the file <b><i>device</i>.h</b>
           must contain a vendor-specific implementation of this function.
 */
__STATIC_INLINE uint32_t SysTick_Config(uint32_t ticks)
{
 80024e8:	b580      	push	{r7, lr}
 80024ea:	b082      	sub	sp, #8
 80024ec:	af00      	add	r7, sp, #0
 80024ee:	6078      	str	r0, [r7, #4]
  if ((ticks - 1UL) > SysTick_LOAD_RELOAD_Msk)
 80024f0:	687b      	ldr	r3, [r7, #4]
 80024f2:	1e5a      	subs	r2, r3, #1
 80024f4:	2380      	movs	r3, #128	@ 0x80
 80024f6:	045b      	lsls	r3, r3, #17
 80024f8:	429a      	cmp	r2, r3
 80024fa:	d301      	bcc.n	8002500 <SysTick_Config+0x18>
  {
    return (1UL);                                                   /* Reload value impossible */
 80024fc:	2301      	movs	r3, #1
 80024fe:	e010      	b.n	8002522 <SysTick_Config+0x3a>
  }

  SysTick->LOAD  = (uint32_t)(ticks - 1UL);                         /* set reload register */
 8002500:	4b0a      	ldr	r3, [pc, #40]	@ (800252c <SysTick_Config+0x44>)
 8002502:	687a      	ldr	r2, [r7, #4]
 8002504:	3a01      	subs	r2, #1
 8002506:	605a      	str	r2, [r3, #4]
  NVIC_SetPriority (SysTick_IRQn, (1UL << __NVIC_PRIO_BITS) - 1UL); /* set Priority for Systick Interrupt */
 8002508:	2301      	movs	r3, #1
 800250a:	425b      	negs	r3, r3
 800250c:	2103      	movs	r1, #3
 800250e:	0018      	movs	r0, r3
 8002510:	f7ff ff7c 	bl	800240c <__NVIC_SetPriority>
  SysTick->VAL   = 0UL;                                             /* Load the SysTick Counter Value */
 8002514:	4b05      	ldr	r3, [pc, #20]	@ (800252c <SysTick_Config+0x44>)
 8002516:	2200      	movs	r2, #0
 8002518:	609a      	str	r2, [r3, #8]
  SysTick->CTRL  = SysTick_CTRL_CLKSOURCE_Msk |
 800251a:	4b04      	ldr	r3, [pc, #16]	@ (800252c <SysTick_Config+0x44>)
 800251c:	2207      	movs	r2, #7
 800251e:	601a      	str	r2, [r3, #0]
                   SysTick_CTRL_TICKINT_Msk   |
                   SysTick_CTRL_ENABLE_Msk;                         /* Enable SysTick IRQ and SysTick Timer */
  return (0UL);                                                     /* Function successful */
 8002520:	2300      	movs	r3, #0
}
 8002522:	0018      	movs	r0, r3
 8002524:	46bd      	mov	sp, r7
 8002526:	b002      	add	sp, #8
 8002528:	bd80      	pop	{r7, pc}
 800252a:	46c0      	nop			@ (mov r8, r8)
 800252c:	e000e010 	.word	0xe000e010

08002530 <HAL_NVIC_SetPriority>:
  *         with stm32f0xx devices, this parameter is a dummy value and it is ignored, because 
  *         no subpriority supported in Cortex M0 based products.   
  * @retval None
  */
void HAL_NVIC_SetPriority(IRQn_Type IRQn, uint32_t PreemptPriority, uint32_t SubPriority)
{
 8002530:	b580      	push	{r7, lr}
 8002532:	b084      	sub	sp, #16
 8002534:	af00      	add	r7, sp, #0
 8002536:	60b9      	str	r1, [r7, #8]
 8002538:	607a      	str	r2, [r7, #4]
 800253a:	210f      	movs	r1, #15
 800253c:	187b      	adds	r3, r7, r1
 800253e:	1c02      	adds	r2, r0, #0
 8002540:	701a      	strb	r2, [r3, #0]
  /* Check the parameters */
  assert_param(IS_NVIC_PREEMPTION_PRIORITY(PreemptPriority));
  NVIC_SetPriority(IRQn,PreemptPriority);
 8002542:	68ba      	ldr	r2, [r7, #8]
 8002544:	187b      	adds	r3, r7, r1
 8002546:	781b      	ldrb	r3, [r3, #0]
 8002548:	b25b      	sxtb	r3, r3
 800254a:	0011      	movs	r1, r2
 800254c:	0018      	movs	r0, r3
 800254e:	f7ff ff5d 	bl	800240c <__NVIC_SetPriority>

  /* Prevent unused argument(s) compilation warning */
  UNUSED(SubPriority);
}
 8002552:	46c0      	nop			@ (mov r8, r8)
 8002554:	46bd      	mov	sp, r7
 8002556:	b004      	add	sp, #16
 8002558:	bd80      	pop	{r7, pc}

0800255a <HAL_NVIC_EnableIRQ>:
  *         This parameter can be an enumerator of IRQn_Type enumeration
  *         (For the complete STM32 Devices IRQ Channels list, please refer to the appropriate CMSIS device file (stm32f0xxxx.h))
  * @retval None
  */
void HAL_NVIC_EnableIRQ(IRQn_Type IRQn)
{
 800255a:	b580      	push	{r7, lr}
 800255c:	b082      	sub	sp, #8
 800255e:	af00      	add	r7, sp, #0
 8002560:	0002      	movs	r2, r0
 8002562:	1dfb      	adds	r3, r7, #7
 8002564:	701a      	strb	r2, [r3, #0]
  /* Check the parameters */
  assert_param(IS_NVIC_DEVICE_IRQ(IRQn));
  
  /* Enable interrupt */
  NVIC_EnableIRQ(IRQn);
 8002566:	1dfb      	adds	r3, r7, #7
 8002568:	781b      	ldrb	r3, [r3, #0]
 800256a:	b25b      	sxtb	r3, r3
 800256c:	0018      	movs	r0, r3
 800256e:	f7ff ff33 	bl	80023d8 <__NVIC_EnableIRQ>
}
 8002572:	46c0      	nop			@ (mov r8, r8)
 8002574:	46bd      	mov	sp, r7
 8002576:	b002      	add	sp, #8
 8002578:	bd80      	pop	{r7, pc}

0800257a <HAL_SYSTICK_Config>:
  * @param  TicksNumb Specifies the ticks Number of ticks between two interrupts.
  * @retval status:  - 0  Function succeeded.
  *                  - 1  Function failed.
  */
uint32_t HAL_SYSTICK_Config(uint32_t TicksNumb)
{
 800257a:	b580      	push	{r7, lr}
 800257c:	b082      	sub	sp, #8
 800257e:	af00      	add	r7, sp, #0
 8002580:	6078      	str	r0, [r7, #4]
   return SysTick_Config(TicksNumb);
 8002582:	687b      	ldr	r3, [r7, #4]
 8002584:	0018      	movs	r0, r3
 8002586:	f7ff ffaf 	bl	80024e8 <SysTick_Config>
 800258a:	0003      	movs	r3, r0
}
 800258c:	0018      	movs	r0, r3
 800258e:	46bd      	mov	sp, r7
 8002590:	b002      	add	sp, #8
 8002592:	bd80      	pop	{r7, pc}

08002594 <HAL_DMA_Init>:
  * @param  hdma Pointer to a DMA_HandleTypeDef structure that contains
  *               the configuration information for the specified DMA Channel.
  * @retval HAL status
  */
HAL_StatusTypeDef HAL_DMA_Init(DMA_HandleTypeDef *hdma)
{
 8002594:	b580      	push	{r7, lr}
 8002596:	b084      	sub	sp, #16
 8002598:	af00      	add	r7, sp, #0
 800259a:	6078      	str	r0, [r7, #4]
  uint32_t tmp = 0U;
 800259c:	2300      	movs	r3, #0
 800259e:	60fb      	str	r3, [r7, #12]

  /* Check the DMA handle allocation */
  if (NULL == hdma)
 80025a0:	687b      	ldr	r3, [r7, #4]
 80025a2:	2b00      	cmp	r3, #0
 80025a4:	d101      	bne.n	80025aa <HAL_DMA_Init+0x16>
  {
    return HAL_ERROR;
 80025a6:	2301      	movs	r3, #1
 80025a8:	e036      	b.n	8002618 <HAL_DMA_Init+0x84>
  assert_param(IS_DMA_MEMORY_DATA_SIZE(hdma->Init.MemDataAlignment));
  assert_param(IS_DMA_MODE(hdma->Init.Mode));
  assert_param(IS_DMA_PRIORITY(hdma->Init.Priority));

  /* Change DMA peripheral state */
  hdma->State = HAL_DMA_STATE_BUSY;
 80025aa:	687b      	ldr	r3, [r7, #4]
 80025ac:	2221      	movs	r2, #33	@ 0x21
 80025ae:	2102      	movs	r1, #2
 80025b0:	5499      	strb	r1, [r3, r2]

  /* Get the CR register value */
  tmp = hdma->Instance->CCR;
 80025b2:	687b      	ldr	r3, [r7, #4]
 80025b4:	681b      	ldr	r3, [r3, #0]
 80025b6:	681b      	ldr	r3, [r3, #0]
 80025b8:	60fb      	str	r3, [r7, #12]

  /* Clear PL, MSIZE, PSIZE, MINC, PINC, CIRC, DIR bits */
  tmp &= ((uint32_t)~(DMA_CCR_PL    | DMA_CCR_MSIZE  | DMA_CCR_PSIZE  | \
 80025ba:	68fb      	ldr	r3, [r7, #12]
 80025bc:	4a18      	ldr	r2, [pc, #96]	@ (8002620 <HAL_DMA_Init+0x8c>)
 80025be:	4013      	ands	r3, r2
 80025c0:	60fb      	str	r3, [r7, #12]
                      DMA_CCR_MINC  | DMA_CCR_PINC   | DMA_CCR_CIRC   | \
                      DMA_CCR_DIR));

  /* Prepare the DMA Channel configuration */
  tmp |=  hdma->Init.Direction        |
 80025c2:	687b      	ldr	r3, [r7, #4]
 80025c4:	685a      	ldr	r2, [r3, #4]
          hdma->Init.PeriphInc           | hdma->Init.MemInc           |
 80025c6:	687b      	ldr	r3, [r7, #4]
 80025c8:	689b      	ldr	r3, [r3, #8]
  tmp |=  hdma->Init.Direction        |
 80025ca:	431a      	orrs	r2, r3
          hdma->Init.PeriphInc           | hdma->Init.MemInc           |
 80025cc:	687b      	ldr	r3, [r7, #4]
 80025ce:	68db      	ldr	r3, [r3, #12]
 80025d0:	431a      	orrs	r2, r3
          hdma->Init.PeriphDataAlignment | hdma->Init.MemDataAlignment |
 80025d2:	687b      	ldr	r3, [r7, #4]
 80025d4:	691b      	ldr	r3, [r3, #16]
          hdma->Init.PeriphInc           | hdma->Init.MemInc           |
 80025d6:	431a      	orrs	r2, r3
          hdma->Init.PeriphDataAlignment | hdma->Init.MemDataAlignment |
 80025d8:	687b      	ldr	r3, [r7, #4]
 80025da:	695b      	ldr	r3, [r3, #20]
 80025dc:	431a      	orrs	r2, r3
          hdma->Init.Mode                | hdma->Init.Priority;
 80025de:	687b      	ldr	r3, [r7, #4]
 80025e0:	699b      	ldr	r3, [r3, #24]
          hdma->Init.PeriphDataAlignment | hdma->Init.MemDataAlignment |
 80025e2:	431a      	orrs	r2, r3
          hdma->Init.Mode                | hdma->Init.Priority;
 80025e4:	687b      	ldr	r3, [r7, #4]
 80025e6:	69db      	ldr	r3, [r3, #28]
 80025e8:	4313      	orrs	r3, r2
  tmp |=  hdma->Init.Direction        |
 80025ea:	68fa      	ldr	r2, [r7, #12]
 80025ec:	4313      	orrs	r3, r2
 80025ee:	60fb      	str	r3, [r7, #12]

  /* Write to DMA Channel CR register */
  hdma->Instance->CCR = tmp;
 80025f0:	687b      	ldr	r3, [r7, #4]
 80025f2:	681b      	ldr	r3, [r3, #0]
 80025f4:	68fa      	ldr	r2, [r7, #12]
 80025f6:	601a      	str	r2, [r3, #0]

  /* Initialize DmaBaseAddress and ChannelIndex parameters used
     by HAL_DMA_IRQHandler() and HAL_DMA_PollForTransfer() */
  DMA_CalcBaseAndBitshift(hdma);
 80025f8:	687b      	ldr	r3, [r7, #4]
 80025fa:	0018      	movs	r0, r3
 80025fc:	f000 f932 	bl	8002864 <DMA_CalcBaseAndBitshift>

  /* Initialise the error code */
  hdma->ErrorCode = HAL_DMA_ERROR_NONE;
 8002600:	687b      	ldr	r3, [r7, #4]
 8002602:	2200      	movs	r2, #0
 8002604:	639a      	str	r2, [r3, #56]	@ 0x38

  /* Initialize the DMA state*/
  hdma->State = HAL_DMA_STATE_READY;
 8002606:	687b      	ldr	r3, [r7, #4]
 8002608:	2221      	movs	r2, #33	@ 0x21
 800260a:	2101      	movs	r1, #1
 800260c:	5499      	strb	r1, [r3, r2]

  /* Allocate lock resource and initialize it */
  hdma->Lock = HAL_UNLOCKED;
 800260e:	687b      	ldr	r3, [r7, #4]
 8002610:	2220      	movs	r2, #32
 8002612:	2100      	movs	r1, #0
 8002614:	5499      	strb	r1, [r3, r2]

  return HAL_OK;
 8002616:	2300      	movs	r3, #0
}
 8002618:	0018      	movs	r0, r3
 800261a:	46bd      	mov	sp, r7
 800261c:	b004      	add	sp, #16
 800261e:	bd80      	pop	{r7, pc}
 8002620:	ffffc00f 	.word	0xffffc00f

08002624 <HAL_DMA_Abort>:
  * @param  hdma  pointer to a DMA_HandleTypeDef structure that contains
  *               the configuration information for the specified DMA Channel.
  * @retval HAL status
  */
HAL_StatusTypeDef HAL_DMA_Abort(DMA_HandleTypeDef *hdma)
{
 8002624:	b580      	push	{r7, lr}
 8002626:	b082      	sub	sp, #8
 8002628:	af00      	add	r7, sp, #0
 800262a:	6078      	str	r0, [r7, #4]
  if (hdma->State != HAL_DMA_STATE_BUSY)
 800262c:	687b      	ldr	r3, [r7, #4]
 800262e:	2221      	movs	r2, #33	@ 0x21
 8002630:	5c9b      	ldrb	r3, [r3, r2]
 8002632:	b2db      	uxtb	r3, r3
 8002634:	2b02      	cmp	r3, #2
 8002636:	d008      	beq.n	800264a <HAL_DMA_Abort+0x26>
  {
    /* no transfer ongoing */
    hdma->ErrorCode = HAL_DMA_ERROR_NO_XFER;
 8002638:	687b      	ldr	r3, [r7, #4]
 800263a:	2204      	movs	r2, #4
 800263c:	639a      	str	r2, [r3, #56]	@ 0x38

    /* Process Unlocked */
    __HAL_UNLOCK(hdma);
 800263e:	687b      	ldr	r3, [r7, #4]
 8002640:	2220      	movs	r2, #32
 8002642:	2100      	movs	r1, #0
 8002644:	5499      	strb	r1, [r3, r2]

    return HAL_ERROR;
 8002646:	2301      	movs	r3, #1
 8002648:	e020      	b.n	800268c <HAL_DMA_Abort+0x68>
  }
  else
  {
    /* Disable DMA IT */
    hdma->Instance->CCR &= ~(DMA_IT_TC | DMA_IT_HT | DMA_IT_TE);
 800264a:	687b      	ldr	r3, [r7, #4]
 800264c:	681b      	ldr	r3, [r3, #0]
 800264e:	681a      	ldr	r2, [r3, #0]
 8002650:	687b      	ldr	r3, [r7, #4]
 8002652:	681b      	ldr	r3, [r3, #0]
 8002654:	210e      	movs	r1, #14
 8002656:	438a      	bics	r2, r1
 8002658:	601a      	str	r2, [r3, #0]

    /* Disable the channel */
    hdma->Instance->CCR &= ~DMA_CCR_EN;
 800265a:	687b      	ldr	r3, [r7, #4]
 800265c:	681b      	ldr	r3, [r3, #0]
 800265e:	681a      	ldr	r2, [r3, #0]
 8002660:	687b      	ldr	r3, [r7, #4]
 8002662:	681b      	ldr	r3, [r3, #0]
 8002664:	2101      	movs	r1, #1
 8002666:	438a      	bics	r2, r1
 8002668:	601a      	str	r2, [r3, #0]

    /* Clear all flags */
    hdma->DmaBaseAddress->IFCR = (DMA_FLAG_GL1 << hdma->ChannelIndex);
 800266a:	687b      	ldr	r3, [r7, #4]
 800266c:	6c1a      	ldr	r2, [r3, #64]	@ 0x40
 800266e:	687b      	ldr	r3, [r7, #4]
 8002670:	6bdb      	ldr	r3, [r3, #60]	@ 0x3c
 8002672:	2101      	movs	r1, #1
 8002674:	4091      	lsls	r1, r2
 8002676:	000a      	movs	r2, r1
 8002678:	605a      	str	r2, [r3, #4]
  }
  /* Change the DMA state*/
  hdma->State = HAL_DMA_STATE_READY;
 800267a:	687b      	ldr	r3, [r7, #4]
 800267c:	2221      	movs	r2, #33	@ 0x21
 800267e:	2101      	movs	r1, #1
 8002680:	5499      	strb	r1, [r3, r2]

  /* Process Unlocked */
  __HAL_UNLOCK(hdma);
 8002682:	687b      	ldr	r3, [r7, #4]
 8002684:	2220      	movs	r2, #32
 8002686:	2100      	movs	r1, #0
 8002688:	5499      	strb	r1, [r3, r2]

  return HAL_OK;
 800268a:	2300      	movs	r3, #0
}
 800268c:	0018      	movs	r0, r3
 800268e:	46bd      	mov	sp, r7
 8002690:	b002      	add	sp, #8
 8002692:	bd80      	pop	{r7, pc}

08002694 <HAL_DMA_Abort_IT>:
  * @param  hdma  pointer to a DMA_HandleTypeDef structure that contains
  *               the configuration information for the specified DMA Stream.
  * @retval HAL status
  */
HAL_StatusTypeDef HAL_DMA_Abort_IT(DMA_HandleTypeDef *hdma)
{
 8002694:	b580      	push	{r7, lr}
 8002696:	b084      	sub	sp, #16
 8002698:	af00      	add	r7, sp, #0
 800269a:	6078      	str	r0, [r7, #4]
  HAL_StatusTypeDef status = HAL_OK;
 800269c:	210f      	movs	r1, #15
 800269e:	187b      	adds	r3, r7, r1
 80026a0:	2200      	movs	r2, #0
 80026a2:	701a      	strb	r2, [r3, #0]

  if (HAL_DMA_STATE_BUSY != hdma->State)
 80026a4:	687b      	ldr	r3, [r7, #4]
 80026a6:	2221      	movs	r2, #33	@ 0x21
 80026a8:	5c9b      	ldrb	r3, [r3, r2]
 80026aa:	b2db      	uxtb	r3, r3
 80026ac:	2b02      	cmp	r3, #2
 80026ae:	d006      	beq.n	80026be <HAL_DMA_Abort_IT+0x2a>
  {
    /* no transfer ongoing */
    hdma->ErrorCode = HAL_DMA_ERROR_NO_XFER;
 80026b0:	687b      	ldr	r3, [r7, #4]
 80026b2:	2204      	movs	r2, #4
 80026b4:	639a      	str	r2, [r3, #56]	@ 0x38

    status = HAL_ERROR;
 80026b6:	187b      	adds	r3, r7, r1
 80026b8:	2201      	movs	r2, #1
 80026ba:	701a      	strb	r2, [r3, #0]
 80026bc:	e028      	b.n	8002710 <HAL_DMA_Abort_IT+0x7c>
  }
  else
  {

    /* Disable DMA IT */
    hdma->Instance->CCR &= ~(DMA_IT_TC | DMA_IT_HT | DMA_IT_TE);
 80026be:	687b      	ldr	r3, [r7, #4]
 80026c0:	681b      	ldr	r3, [r3, #0]
 80026c2:	681a      	ldr	r2, [r3, #0]
 80026c4:	687b      	ldr	r3, [r7, #4]
 80026c6:	681b      	ldr	r3, [r3, #0]
 80026c8:	210e      	movs	r1, #14
 80026ca:	438a      	bics	r2, r1
 80026cc:	601a      	str	r2, [r3, #0]

    /* Disable the channel */
    hdma->Instance->CCR &= ~DMA_CCR_EN;
 80026ce:	687b      	ldr	r3, [r7, #4]
 80026d0:	681b      	ldr	r3, [r3, #0]
 80026d2:	681a      	ldr	r2, [r3, #0]
 80026d4:	687b      	ldr	r3, [r7, #4]
 80026d6:	681b      	ldr	r3, [r3, #0]
 80026d8:	2101      	movs	r1, #1
 80026da:	438a      	bics	r2, r1
 80026dc:	601a      	str	r2, [r3, #0]

    /* Clear all flags */
    hdma->DmaBaseAddress->IFCR = DMA_FLAG_GL1 << hdma->ChannelIndex;
 80026de:	687b      	ldr	r3, [r7, #4]
 80026e0:	6c1a      	ldr	r2, [r3, #64]	@ 0x40
 80026e2:	687b      	ldr	r3, [r7, #4]
 80026e4:	6bdb      	ldr	r3, [r3, #60]	@ 0x3c
 80026e6:	2101      	movs	r1, #1
 80026e8:	4091      	lsls	r1, r2
 80026ea:	000a      	movs	r2, r1
 80026ec:	605a      	str	r2, [r3, #4]

    /* Change the DMA state */
    hdma->State = HAL_DMA_STATE_READY;
 80026ee:	687b      	ldr	r3, [r7, #4]
 80026f0:	2221      	movs	r2, #33	@ 0x21
 80026f2:	2101      	movs	r1, #1
 80026f4:	5499      	strb	r1, [r3, r2]

    /* Process Unlocked */
    __HAL_UNLOCK(hdma);
 80026f6:	687b      	ldr	r3, [r7, #4]
 80026f8:	2220      	movs	r2, #32
 80026fa:	2100      	movs	r1, #0
 80026fc:	5499      	strb	r1, [r3, r2]

    /* Call User Abort callback */
    if (hdma->XferAbortCallback != NULL)
 80026fe:	687b      	ldr	r3, [r7, #4]
 8002700:	6b5b      	ldr	r3, [r3, #52]	@ 0x34
 8002702:	2b00      	cmp	r3, #0
 8002704:	d004      	beq.n	8002710 <HAL_DMA_Abort_IT+0x7c>
    {
      hdma->XferAbortCallback(hdma);
 8002706:	687b      	ldr	r3, [r7, #4]
 8002708:	6b5b      	ldr	r3, [r3, #52]	@ 0x34
 800270a:	687a      	ldr	r2, [r7, #4]
 800270c:	0010      	movs	r0, r2
 800270e:	4798      	blx	r3
    }
  }
  return status;
 8002710:	230f      	movs	r3, #15
 8002712:	18fb      	adds	r3, r7, r3
 8002714:	781b      	ldrb	r3, [r3, #0]
}
 8002716:	0018      	movs	r0, r3
 8002718:	46bd      	mov	sp, r7
 800271a:	b004      	add	sp, #16
 800271c:	bd80      	pop	{r7, pc}

0800271e <HAL_DMA_IRQHandler>:
  * @param  hdma pointer to a DMA_HandleTypeDef structure that contains
  *               the configuration information for the specified DMA Channel.
  * @retval None
  */
void HAL_DMA_IRQHandler(DMA_HandleTypeDef *hdma)
{
 800271e:	b580      	push	{r7, lr}
 8002720:	b084      	sub	sp, #16
 8002722:	af00      	add	r7, sp, #0
 8002724:	6078      	str	r0, [r7, #4]
  uint32_t flag_it = hdma->DmaBaseAddress->ISR;
 8002726:	687b      	ldr	r3, [r7, #4]
 8002728:	6bdb      	ldr	r3, [r3, #60]	@ 0x3c
 800272a:	681b      	ldr	r3, [r3, #0]
 800272c:	60fb      	str	r3, [r7, #12]
  uint32_t source_it = hdma->Instance->CCR;
 800272e:	687b      	ldr	r3, [r7, #4]
 8002730:	681b      	ldr	r3, [r3, #0]
 8002732:	681b      	ldr	r3, [r3, #0]
 8002734:	60bb      	str	r3, [r7, #8]

  /* Half Transfer Complete Interrupt management ******************************/
  if ((RESET != (flag_it & (DMA_FLAG_HT1 << hdma->ChannelIndex))) && (RESET != (source_it & DMA_IT_HT)))
 8002736:	687b      	ldr	r3, [r7, #4]
 8002738:	6c1b      	ldr	r3, [r3, #64]	@ 0x40
 800273a:	2204      	movs	r2, #4
 800273c:	409a      	lsls	r2, r3
 800273e:	0013      	movs	r3, r2
 8002740:	68fa      	ldr	r2, [r7, #12]
 8002742:	4013      	ands	r3, r2
 8002744:	d024      	beq.n	8002790 <HAL_DMA_IRQHandler+0x72>
 8002746:	68bb      	ldr	r3, [r7, #8]
 8002748:	2204      	movs	r2, #4
 800274a:	4013      	ands	r3, r2
 800274c:	d020      	beq.n	8002790 <HAL_DMA_IRQHandler+0x72>
  {
    /* Disable the half transfer interrupt if the DMA mode is not CIRCULAR */
    if ((hdma->Instance->CCR & DMA_CCR_CIRC) == 0U)
 800274e:	687b      	ldr	r3, [r7, #4]
 8002750:	681b      	ldr	r3, [r3, #0]
 8002752:	681b      	ldr	r3, [r3, #0]
 8002754:	2220      	movs	r2, #32
 8002756:	4013      	ands	r3, r2
 8002758:	d107      	bne.n	800276a <HAL_DMA_IRQHandler+0x4c>
    {
      /* Disable the half transfer interrupt */
      hdma->Instance->CCR &= ~DMA_IT_HT;
 800275a:	687b      	ldr	r3, [r7, #4]
 800275c:	681b      	ldr	r3, [r3, #0]
 800275e:	681a      	ldr	r2, [r3, #0]
 8002760:	687b      	ldr	r3, [r7, #4]
 8002762:	681b      	ldr	r3, [r3, #0]
 8002764:	2104      	movs	r1, #4
 8002766:	438a      	bics	r2, r1
 8002768:	601a      	str	r2, [r3, #0]
    }

    /* Clear the half transfer complete flag */
    hdma->DmaBaseAddress->IFCR = DMA_FLAG_HT1 << hdma->ChannelIndex;
 800276a:	687b      	ldr	r3, [r7, #4]
 800276c:	6c1a      	ldr	r2, [r3, #64]	@ 0x40
 800276e:	687b      	ldr	r3, [r7, #4]
 8002770:	6bdb      	ldr	r3, [r3, #60]	@ 0x3c
 8002772:	2104      	movs	r1, #4
 8002774:	4091      	lsls	r1, r2
 8002776:	000a      	movs	r2, r1
 8002778:	605a      	str	r2, [r3, #4]

    /* DMA peripheral state is not updated in Half Transfer */
    /* State is updated only in Transfer Complete case */

    if (hdma->XferHalfCpltCallback != NULL)
 800277a:	687b      	ldr	r3, [r7, #4]
 800277c:	6adb      	ldr	r3, [r3, #44]	@ 0x2c
 800277e:	2b00      	cmp	r3, #0
 8002780:	d100      	bne.n	8002784 <HAL_DMA_IRQHandler+0x66>
 8002782:	e06a      	b.n	800285a <HAL_DMA_IRQHandler+0x13c>
    {
      /* Half transfer callback */
      hdma->XferHalfCpltCallback(hdma);
 8002784:	687b      	ldr	r3, [r7, #4]
 8002786:	6adb      	ldr	r3, [r3, #44]	@ 0x2c
 8002788:	687a      	ldr	r2, [r7, #4]
 800278a:	0010      	movs	r0, r2
 800278c:	4798      	blx	r3
    if (hdma->XferHalfCpltCallback != NULL)
 800278e:	e064      	b.n	800285a <HAL_DMA_IRQHandler+0x13c>
    }
  }

  /* Transfer Complete Interrupt management ***********************************/
  else if ((RESET != (flag_it & (DMA_FLAG_TC1 << hdma->ChannelIndex))) && (RESET != (source_it & DMA_IT_TC)))
 8002790:	687b      	ldr	r3, [r7, #4]
 8002792:	6c1b      	ldr	r3, [r3, #64]	@ 0x40
 8002794:	2202      	movs	r2, #2
 8002796:	409a      	lsls	r2, r3
 8002798:	0013      	movs	r3, r2
 800279a:	68fa      	ldr	r2, [r7, #12]
 800279c:	4013      	ands	r3, r2
 800279e:	d02b      	beq.n	80027f8 <HAL_DMA_IRQHandler+0xda>
 80027a0:	68bb      	ldr	r3, [r7, #8]
 80027a2:	2202      	movs	r2, #2
 80027a4:	4013      	ands	r3, r2
 80027a6:	d027      	beq.n	80027f8 <HAL_DMA_IRQHandler+0xda>
  {
    if ((hdma->Instance->CCR & DMA_CCR_CIRC) == 0U)
 80027a8:	687b      	ldr	r3, [r7, #4]
 80027aa:	681b      	ldr	r3, [r3, #0]
 80027ac:	681b      	ldr	r3, [r3, #0]
 80027ae:	2220      	movs	r2, #32
 80027b0:	4013      	ands	r3, r2
 80027b2:	d10b      	bne.n	80027cc <HAL_DMA_IRQHandler+0xae>
    {
      /* Disable the transfer complete  & transfer error interrupts */
      /* if the DMA mode is not CIRCULAR */
      hdma->Instance->CCR &= ~(DMA_IT_TC | DMA_IT_TE);
 80027b4:	687b      	ldr	r3, [r7, #4]
 80027b6:	681b      	ldr	r3, [r3, #0]
 80027b8:	681a      	ldr	r2, [r3, #0]
 80027ba:	687b      	ldr	r3, [r7, #4]
 80027bc:	681b      	ldr	r3, [r3, #0]
 80027be:	210a      	movs	r1, #10
 80027c0:	438a      	bics	r2, r1
 80027c2:	601a      	str	r2, [r3, #0]

      /* Change the DMA state */
      hdma->State = HAL_DMA_STATE_READY;
 80027c4:	687b      	ldr	r3, [r7, #4]
 80027c6:	2221      	movs	r2, #33	@ 0x21
 80027c8:	2101      	movs	r1, #1
 80027ca:	5499      	strb	r1, [r3, r2]
    }

    /* Clear the transfer complete flag */
    hdma->DmaBaseAddress->IFCR = DMA_FLAG_TC1 << hdma->ChannelIndex;
 80027cc:	687b      	ldr	r3, [r7, #4]
 80027ce:	6c1a      	ldr	r2, [r3, #64]	@ 0x40
 80027d0:	687b      	ldr	r3, [r7, #4]
 80027d2:	6bdb      	ldr	r3, [r3, #60]	@ 0x3c
 80027d4:	2102      	movs	r1, #2
 80027d6:	4091      	lsls	r1, r2
 80027d8:	000a      	movs	r2, r1
 80027da:	605a      	str	r2, [r3, #4]

    /* Process Unlocked */
    __HAL_UNLOCK(hdma);
 80027dc:	687b      	ldr	r3, [r7, #4]
 80027de:	2220      	movs	r2, #32
 80027e0:	2100      	movs	r1, #0
 80027e2:	5499      	strb	r1, [r3, r2]

    if (hdma->XferCpltCallback != NULL)
 80027e4:	687b      	ldr	r3, [r7, #4]
 80027e6:	6a9b      	ldr	r3, [r3, #40]	@ 0x28
 80027e8:	2b00      	cmp	r3, #0
 80027ea:	d036      	beq.n	800285a <HAL_DMA_IRQHandler+0x13c>
    {
      /* Transfer complete callback */
      hdma->XferCpltCallback(hdma);
 80027ec:	687b      	ldr	r3, [r7, #4]
 80027ee:	6a9b      	ldr	r3, [r3, #40]	@ 0x28
 80027f0:	687a      	ldr	r2, [r7, #4]
 80027f2:	0010      	movs	r0, r2
 80027f4:	4798      	blx	r3
    if (hdma->XferCpltCallback != NULL)
 80027f6:	e030      	b.n	800285a <HAL_DMA_IRQHandler+0x13c>
    }
  }

  /* Transfer Error Interrupt management ***************************************/
  else if ((RESET != (flag_it & (DMA_FLAG_TE1 << hdma->ChannelIndex))) && (RESET != (source_it & DMA_IT_TE)))
 80027f8:	687b      	ldr	r3, [r7, #4]
 80027fa:	6c1b      	ldr	r3, [r3, #64]	@ 0x40
 80027fc:	2208      	movs	r2, #8
 80027fe:	409a      	lsls	r2, r3
 8002800:	0013      	movs	r3, r2
 8002802:	68fa      	ldr	r2, [r7, #12]
 8002804:	4013      	ands	r3, r2
 8002806:	d028      	beq.n	800285a <HAL_DMA_IRQHandler+0x13c>
 8002808:	68bb      	ldr	r3, [r7, #8]
 800280a:	2208      	movs	r2, #8
 800280c:	4013      	ands	r3, r2
 800280e:	d024      	beq.n	800285a <HAL_DMA_IRQHandler+0x13c>
  {
    /* When a DMA transfer error occurs */
    /* A hardware clear of its EN bits is performed */
    /* Then, disable all DMA interrupts */
    hdma->Instance->CCR &= ~(DMA_IT_TC | DMA_IT_HT | DMA_IT_TE);
 8002810:	687b      	ldr	r3, [r7, #4]
 8002812:	681b      	ldr	r3, [r3, #0]
 8002814:	681a      	ldr	r2, [r3, #0]
 8002816:	687b      	ldr	r3, [r7, #4]
 8002818:	681b      	ldr	r3, [r3, #0]
 800281a:	210e      	movs	r1, #14
 800281c:	438a      	bics	r2, r1
 800281e:	601a      	str	r2, [r3, #0]

    /* Clear all flags */
    hdma->DmaBaseAddress->IFCR = DMA_FLAG_GL1 << hdma->ChannelIndex;
 8002820:	687b      	ldr	r3, [r7, #4]
 8002822:	6c1a      	ldr	r2, [r3, #64]	@ 0x40
 8002824:	687b      	ldr	r3, [r7, #4]
 8002826:	6bdb      	ldr	r3, [r3, #60]	@ 0x3c
 8002828:	2101      	movs	r1, #1
 800282a:	4091      	lsls	r1, r2
 800282c:	000a      	movs	r2, r1
 800282e:	605a      	str	r2, [r3, #4]

    /* Update error code */
    hdma->ErrorCode = HAL_DMA_ERROR_TE;
 8002830:	687b      	ldr	r3, [r7, #4]
 8002832:	2201      	movs	r2, #1
 8002834:	639a      	str	r2, [r3, #56]	@ 0x38

    /* Change the DMA state */
    hdma->State = HAL_DMA_STATE_READY;
 8002836:	687b      	ldr	r3, [r7, #4]
 8002838:	2221      	movs	r2, #33	@ 0x21
 800283a:	2101      	movs	r1, #1
 800283c:	5499      	strb	r1, [r3, r2]

    /* Process Unlocked */
    __HAL_UNLOCK(hdma);
 800283e:	687b      	ldr	r3, [r7, #4]
 8002840:	2220      	movs	r2, #32
 8002842:	2100      	movs	r1, #0
 8002844:	5499      	strb	r1, [r3, r2]

    if (hdma->XferErrorCallback != NULL)
 8002846:	687b      	ldr	r3, [r7, #4]
 8002848:	6b1b      	ldr	r3, [r3, #48]	@ 0x30
 800284a:	2b00      	cmp	r3, #0
 800284c:	d005      	beq.n	800285a <HAL_DMA_IRQHandler+0x13c>
    {
      /* Transfer error callback */
      hdma->XferErrorCallback(hdma);
 800284e:	687b      	ldr	r3, [r7, #4]
 8002850:	6b1b      	ldr	r3, [r3, #48]	@ 0x30
 8002852:	687a      	ldr	r2, [r7, #4]
 8002854:	0010      	movs	r0, r2
 8002856:	4798      	blx	r3
    }
  }
}
 8002858:	e7ff      	b.n	800285a <HAL_DMA_IRQHandler+0x13c>
 800285a:	46c0      	nop			@ (mov r8, r8)
 800285c:	46bd      	mov	sp, r7
 800285e:	b004      	add	sp, #16
 8002860:	bd80      	pop	{r7, pc}
	...

08002864 <DMA_CalcBaseAndBitshift>:
  * @param  hdma       pointer to a DMA_HandleTypeDef structure that contains
  *                     the configuration information for the specified DMA Stream.
  * @retval None
  */
static void DMA_CalcBaseAndBitshift(DMA_HandleTypeDef *hdma)
{
 8002864:	b580      	push	{r7, lr}
 8002866:	b082      	sub	sp, #8
 8002868:	af00      	add	r7, sp, #0
 800286a:	6078      	str	r0, [r7, #4]
    hdma->DmaBaseAddress = DMA2;
  }
#else
  /* calculation of the channel index */
  /* DMA1 */
  hdma->ChannelIndex = (((uint32_t)hdma->Instance - (uint32_t)DMA1_Channel1) / ((uint32_t)DMA1_Channel2 - (uint32_t)DMA1_Channel1)) << 2U;
 800286c:	687b      	ldr	r3, [r7, #4]
 800286e:	681b      	ldr	r3, [r3, #0]
 8002870:	4a08      	ldr	r2, [pc, #32]	@ (8002894 <DMA_CalcBaseAndBitshift+0x30>)
 8002872:	4694      	mov	ip, r2
 8002874:	4463      	add	r3, ip
 8002876:	2114      	movs	r1, #20
 8002878:	0018      	movs	r0, r3
 800287a:	f7fd fc4d 	bl	8000118 <__udivsi3>
 800287e:	0003      	movs	r3, r0
 8002880:	009a      	lsls	r2, r3, #2
 8002882:	687b      	ldr	r3, [r7, #4]
 8002884:	641a      	str	r2, [r3, #64]	@ 0x40
  hdma->DmaBaseAddress = DMA1;
 8002886:	687b      	ldr	r3, [r7, #4]
 8002888:	4a03      	ldr	r2, [pc, #12]	@ (8002898 <DMA_CalcBaseAndBitshift+0x34>)
 800288a:	63da      	str	r2, [r3, #60]	@ 0x3c
#endif
}
 800288c:	46c0      	nop			@ (mov r8, r8)
 800288e:	46bd      	mov	sp, r7
 8002890:	b002      	add	sp, #8
 8002892:	bd80      	pop	{r7, pc}
 8002894:	bffdfff8 	.word	0xbffdfff8
 8002898:	40020000 	.word	0x40020000

0800289c <HAL_GPIO_Init>:
  * @param  GPIO_Init pointer to a GPIO_InitTypeDef structure that contains
  *         the configuration information for the specified GPIO peripheral.
  * @retval None
  */
void HAL_GPIO_Init(GPIO_TypeDef  *GPIOx, GPIO_InitTypeDef *GPIO_Init)
{
 800289c:	b580      	push	{r7, lr}
 800289e:	b086      	sub	sp, #24
 80028a0:	af00      	add	r7, sp, #0
 80028a2:	6078      	str	r0, [r7, #4]
 80028a4:	6039      	str	r1, [r7, #0]
  uint32_t position = 0x00u;
 80028a6:	2300      	movs	r3, #0
 80028a8:	617b      	str	r3, [r7, #20]
  assert_param(IS_GPIO_ALL_INSTANCE(GPIOx));
  assert_param(IS_GPIO_PIN(GPIO_Init->Pin));
  assert_param(IS_GPIO_MODE(GPIO_Init->Mode));

  /* Configure the port pins */
  while (((GPIO_Init->Pin) >> position) != 0x00u)
 80028aa:	e14f      	b.n	8002b4c <HAL_GPIO_Init+0x2b0>
  {
    /* Get current io position */
    iocurrent = (GPIO_Init->Pin) & (1uL << position);
 80028ac:	683b      	ldr	r3, [r7, #0]
 80028ae:	681b      	ldr	r3, [r3, #0]
 80028b0:	2101      	movs	r1, #1
 80028b2:	697a      	ldr	r2, [r7, #20]
 80028b4:	4091      	lsls	r1, r2
 80028b6:	000a      	movs	r2, r1
 80028b8:	4013      	ands	r3, r2
 80028ba:	60fb      	str	r3, [r7, #12]

    if (iocurrent != 0x00u)
 80028bc:	68fb      	ldr	r3, [r7, #12]
 80028be:	2b00      	cmp	r3, #0
 80028c0:	d100      	bne.n	80028c4 <HAL_GPIO_Init+0x28>
 80028c2:	e140      	b.n	8002b46 <HAL_GPIO_Init+0x2aa>
    {
      /*--------------------- GPIO Mode Configuration ------------------------*/
      /* In case of Output or Alternate function mode selection */
      if(((GPIO_Init->Mode & GPIO_MODE) == MODE_OUTPUT) ||
 80028c4:	683b      	ldr	r3, [r7, #0]
 80028c6:	685b      	ldr	r3, [r3, #4]
 80028c8:	2203      	movs	r2, #3
 80028ca:	4013      	ands	r3, r2
 80028cc:	2b01      	cmp	r3, #1
 80028ce:	d005      	beq.n	80028dc <HAL_GPIO_Init+0x40>
         ((GPIO_Init->Mode & GPIO_MODE) == MODE_AF))
 80028d0:	683b      	ldr	r3, [r7, #0]
 80028d2:	685b      	ldr	r3, [r3, #4]
 80028d4:	2203      	movs	r2, #3
 80028d6:	4013      	ands	r3, r2
      if(((GPIO_Init->Mode & GPIO_MODE) == MODE_OUTPUT) ||
 80028d8:	2b02      	cmp	r3, #2
 80028da:	d130      	bne.n	800293e <HAL_GPIO_Init+0xa2>
      {
        /* Check the Speed parameter */
        assert_param(IS_GPIO_SPEED(GPIO_Init->Speed));
        /* Configure the IO Speed */
        temp = GPIOx->OSPEEDR;
 80028dc:	687b      	ldr	r3, [r7, #4]
 80028de:	689b      	ldr	r3, [r3, #8]
 80028e0:	613b      	str	r3, [r7, #16]
        temp &= ~(GPIO_OSPEEDER_OSPEEDR0 << (position * 2u));
 80028e2:	697b      	ldr	r3, [r7, #20]
 80028e4:	005b      	lsls	r3, r3, #1
 80028e6:	2203      	movs	r2, #3
 80028e8:	409a      	lsls	r2, r3
 80028ea:	0013      	movs	r3, r2
 80028ec:	43da      	mvns	r2, r3
 80028ee:	693b      	ldr	r3, [r7, #16]
 80028f0:	4013      	ands	r3, r2
 80028f2:	613b      	str	r3, [r7, #16]
        temp |= (GPIO_Init->Speed << (position * 2u));
 80028f4:	683b      	ldr	r3, [r7, #0]
 80028f6:	68da      	ldr	r2, [r3, #12]
 80028f8:	697b      	ldr	r3, [r7, #20]
 80028fa:	005b      	lsls	r3, r3, #1
 80028fc:	409a      	lsls	r2, r3
 80028fe:	0013      	movs	r3, r2
 8002900:	693a      	ldr	r2, [r7, #16]
 8002902:	4313      	orrs	r3, r2
 8002904:	613b      	str	r3, [r7, #16]
        GPIOx->OSPEEDR = temp;
 8002906:	687b      	ldr	r3, [r7, #4]
 8002908:	693a      	ldr	r2, [r7, #16]
 800290a:	609a      	str	r2, [r3, #8]

        /* Configure the IO Output Type */
        temp = GPIOx->OTYPER;
 800290c:	687b      	ldr	r3, [r7, #4]
 800290e:	685b      	ldr	r3, [r3, #4]
 8002910:	613b      	str	r3, [r7, #16]
        temp &= ~(GPIO_OTYPER_OT_0 << position) ;
 8002912:	2201      	movs	r2, #1
 8002914:	697b      	ldr	r3, [r7, #20]
 8002916:	409a      	lsls	r2, r3
 8002918:	0013      	movs	r3, r2
 800291a:	43da      	mvns	r2, r3
 800291c:	693b      	ldr	r3, [r7, #16]
 800291e:	4013      	ands	r3, r2
 8002920:	613b      	str	r3, [r7, #16]
        temp |= (((GPIO_Init->Mode & OUTPUT_TYPE) >> OUTPUT_TYPE_Pos) << position);
 8002922:	683b      	ldr	r3, [r7, #0]
 8002924:	685b      	ldr	r3, [r3, #4]
 8002926:	091b      	lsrs	r3, r3, #4
 8002928:	2201      	movs	r2, #1
 800292a:	401a      	ands	r2, r3
 800292c:	697b      	ldr	r3, [r7, #20]
 800292e:	409a      	lsls	r2, r3
 8002930:	0013      	movs	r3, r2
 8002932:	693a      	ldr	r2, [r7, #16]
 8002934:	4313      	orrs	r3, r2
 8002936:	613b      	str	r3, [r7, #16]
        GPIOx->OTYPER = temp;
 8002938:	687b      	ldr	r3, [r7, #4]
 800293a:	693a      	ldr	r2, [r7, #16]
 800293c:	605a      	str	r2, [r3, #4]
      }
      
      if((GPIO_Init->Mode & GPIO_MODE) != MODE_ANALOG)
 800293e:	683b      	ldr	r3, [r7, #0]
 8002940:	685b      	ldr	r3, [r3, #4]
 8002942:	2203      	movs	r2, #3
 8002944:	4013      	ands	r3, r2
 8002946:	2b03      	cmp	r3, #3
 8002948:	d017      	beq.n	800297a <HAL_GPIO_Init+0xde>
      {
        /* Check the Pull parameter */
        assert_param(IS_GPIO_PULL(GPIO_Init->Pull));

        /* Activate the Pull-up or Pull down resistor for the current IO */
        temp = GPIOx->PUPDR;
 800294a:	687b      	ldr	r3, [r7, #4]
 800294c:	68db      	ldr	r3, [r3, #12]
 800294e:	613b      	str	r3, [r7, #16]
        temp &= ~(GPIO_PUPDR_PUPDR0 << (position * 2u));
 8002950:	697b      	ldr	r3, [r7, #20]
 8002952:	005b      	lsls	r3, r3, #1
 8002954:	2203      	movs	r2, #3
 8002956:	409a      	lsls	r2, r3
 8002958:	0013      	movs	r3, r2
 800295a:	43da      	mvns	r2, r3
 800295c:	693b      	ldr	r3, [r7, #16]
 800295e:	4013      	ands	r3, r2
 8002960:	613b      	str	r3, [r7, #16]
        temp |= ((GPIO_Init->Pull) << (position * 2u));
 8002962:	683b      	ldr	r3, [r7, #0]
 8002964:	689a      	ldr	r2, [r3, #8]
 8002966:	697b      	ldr	r3, [r7, #20]
 8002968:	005b      	lsls	r3, r3, #1
 800296a:	409a      	lsls	r2, r3
 800296c:	0013      	movs	r3, r2
 800296e:	693a      	ldr	r2, [r7, #16]
 8002970:	4313      	orrs	r3, r2
 8002972:	613b      	str	r3, [r7, #16]
        GPIOx->PUPDR = temp;
 8002974:	687b      	ldr	r3, [r7, #4]
 8002976:	693a      	ldr	r2, [r7, #16]
 8002978:	60da      	str	r2, [r3, #12]
      }

      /* In case of Alternate function mode selection */
      if((GPIO_Init->Mode & GPIO_MODE) == MODE_AF)
 800297a:	683b      	ldr	r3, [r7, #0]
 800297c:	685b      	ldr	r3, [r3, #4]
 800297e:	2203      	movs	r2, #3
 8002980:	4013      	ands	r3, r2
 8002982:	2b02      	cmp	r3, #2
 8002984:	d123      	bne.n	80029ce <HAL_GPIO_Init+0x132>
        /* Check the Alternate function parameters */
        assert_param(IS_GPIO_AF_INSTANCE(GPIOx));
        assert_param(IS_GPIO_AF(GPIO_Init->Alternate));

        /* Configure Alternate function mapped with the current IO */
        temp = GPIOx->AFR[position >> 3u];
 8002986:	697b      	ldr	r3, [r7, #20]
 8002988:	08da      	lsrs	r2, r3, #3
 800298a:	687b      	ldr	r3, [r7, #4]
 800298c:	3208      	adds	r2, #8
 800298e:	0092      	lsls	r2, r2, #2
 8002990:	58d3      	ldr	r3, [r2, r3]
 8002992:	613b      	str	r3, [r7, #16]
        temp &= ~(0xFu << ((position & 0x07u) * 4u));
 8002994:	697b      	ldr	r3, [r7, #20]
 8002996:	2207      	movs	r2, #7
 8002998:	4013      	ands	r3, r2
 800299a:	009b      	lsls	r3, r3, #2
 800299c:	220f      	movs	r2, #15
 800299e:	409a      	lsls	r2, r3
 80029a0:	0013      	movs	r3, r2
 80029a2:	43da      	mvns	r2, r3
 80029a4:	693b      	ldr	r3, [r7, #16]
 80029a6:	4013      	ands	r3, r2
 80029a8:	613b      	str	r3, [r7, #16]
        temp |= ((GPIO_Init->Alternate) << ((position & 0x07u) * 4u));
 80029aa:	683b      	ldr	r3, [r7, #0]
 80029ac:	691a      	ldr	r2, [r3, #16]
 80029ae:	697b      	ldr	r3, [r7, #20]
 80029b0:	2107      	movs	r1, #7
 80029b2:	400b      	ands	r3, r1
 80029b4:	009b      	lsls	r3, r3, #2
 80029b6:	409a      	lsls	r2, r3
 80029b8:	0013      	movs	r3, r2
 80029ba:	693a      	ldr	r2, [r7, #16]
 80029bc:	4313      	orrs	r3, r2
 80029be:	613b      	str	r3, [r7, #16]
        GPIOx->AFR[position >> 3u] = temp;
 80029c0:	697b      	ldr	r3, [r7, #20]
 80029c2:	08da      	lsrs	r2, r3, #3
 80029c4:	687b      	ldr	r3, [r7, #4]
 80029c6:	3208      	adds	r2, #8
 80029c8:	0092      	lsls	r2, r2, #2
 80029ca:	6939      	ldr	r1, [r7, #16]
 80029cc:	50d1      	str	r1, [r2, r3]
      }

      /* Configure IO Direction mode (Input, Output, Alternate or Analog) */
      temp = GPIOx->MODER;
 80029ce:	687b      	ldr	r3, [r7, #4]
 80029d0:	681b      	ldr	r3, [r3, #0]
 80029d2:	613b      	str	r3, [r7, #16]
      temp &= ~(GPIO_MODER_MODER0 << (position * 2u));
 80029d4:	697b      	ldr	r3, [r7, #20]
 80029d6:	005b      	lsls	r3, r3, #1
 80029d8:	2203      	movs	r2, #3
 80029da:	409a      	lsls	r2, r3
 80029dc:	0013      	movs	r3, r2
 80029de:	43da      	mvns	r2, r3
 80029e0:	693b      	ldr	r3, [r7, #16]
 80029e2:	4013      	ands	r3, r2
 80029e4:	613b      	str	r3, [r7, #16]
      temp |= ((GPIO_Init->Mode & GPIO_MODE) << (position * 2u));
 80029e6:	683b      	ldr	r3, [r7, #0]
 80029e8:	685b      	ldr	r3, [r3, #4]
 80029ea:	2203      	movs	r2, #3
 80029ec:	401a      	ands	r2, r3
 80029ee:	697b      	ldr	r3, [r7, #20]
 80029f0:	005b      	lsls	r3, r3, #1
 80029f2:	409a      	lsls	r2, r3
 80029f4:	0013      	movs	r3, r2
 80029f6:	693a      	ldr	r2, [r7, #16]
 80029f8:	4313      	orrs	r3, r2
 80029fa:	613b      	str	r3, [r7, #16]
      GPIOx->MODER = temp;
 80029fc:	687b      	ldr	r3, [r7, #4]
 80029fe:	693a      	ldr	r2, [r7, #16]
 8002a00:	601a      	str	r2, [r3, #0]

      /*--------------------- EXTI Mode Configuration ------------------------*/
      /* Configure the External Interrupt or event for the current IO */
      if((GPIO_Init->Mode & EXTI_MODE) != 0x00u)
 8002a02:	683b      	ldr	r3, [r7, #0]
 8002a04:	685a      	ldr	r2, [r3, #4]
 8002a06:	23c0      	movs	r3, #192	@ 0xc0
 8002a08:	029b      	lsls	r3, r3, #10
 8002a0a:	4013      	ands	r3, r2
 8002a0c:	d100      	bne.n	8002a10 <HAL_GPIO_Init+0x174>
 8002a0e:	e09a      	b.n	8002b46 <HAL_GPIO_Init+0x2aa>
      {
        /* Enable SYSCFG Clock */
        __HAL_RCC_SYSCFG_CLK_ENABLE();
 8002a10:	4b54      	ldr	r3, [pc, #336]	@ (8002b64 <HAL_GPIO_Init+0x2c8>)
 8002a12:	699a      	ldr	r2, [r3, #24]
 8002a14:	4b53      	ldr	r3, [pc, #332]	@ (8002b64 <HAL_GPIO_Init+0x2c8>)
 8002a16:	2101      	movs	r1, #1
 8002a18:	430a      	orrs	r2, r1
 8002a1a:	619a      	str	r2, [r3, #24]
 8002a1c:	4b51      	ldr	r3, [pc, #324]	@ (8002b64 <HAL_GPIO_Init+0x2c8>)
 8002a1e:	699b      	ldr	r3, [r3, #24]
 8002a20:	2201      	movs	r2, #1
 8002a22:	4013      	ands	r3, r2
 8002a24:	60bb      	str	r3, [r7, #8]
 8002a26:	68bb      	ldr	r3, [r7, #8]

        temp = SYSCFG->EXTICR[position >> 2u];
 8002a28:	4a4f      	ldr	r2, [pc, #316]	@ (8002b68 <HAL_GPIO_Init+0x2cc>)
 8002a2a:	697b      	ldr	r3, [r7, #20]
 8002a2c:	089b      	lsrs	r3, r3, #2
 8002a2e:	3302      	adds	r3, #2
 8002a30:	009b      	lsls	r3, r3, #2
 8002a32:	589b      	ldr	r3, [r3, r2]
 8002a34:	613b      	str	r3, [r7, #16]
        temp &= ~(0x0FuL << (4u * (position & 0x03u)));
 8002a36:	697b      	ldr	r3, [r7, #20]
 8002a38:	2203      	movs	r2, #3
 8002a3a:	4013      	ands	r3, r2
 8002a3c:	009b      	lsls	r3, r3, #2
 8002a3e:	220f      	movs	r2, #15
 8002a40:	409a      	lsls	r2, r3
 8002a42:	0013      	movs	r3, r2
 8002a44:	43da      	mvns	r2, r3
 8002a46:	693b      	ldr	r3, [r7, #16]
 8002a48:	4013      	ands	r3, r2
 8002a4a:	613b      	str	r3, [r7, #16]
        temp |= (GPIO_GET_INDEX(GPIOx) << (4u * (position & 0x03u)));
 8002a4c:	687a      	ldr	r2, [r7, #4]
 8002a4e:	2390      	movs	r3, #144	@ 0x90
 8002a50:	05db      	lsls	r3, r3, #23
 8002a52:	429a      	cmp	r2, r3
 8002a54:	d013      	beq.n	8002a7e <HAL_GPIO_Init+0x1e2>
 8002a56:	687b      	ldr	r3, [r7, #4]
 8002a58:	4a44      	ldr	r2, [pc, #272]	@ (8002b6c <HAL_GPIO_Init+0x2d0>)
 8002a5a:	4293      	cmp	r3, r2
 8002a5c:	d00d      	beq.n	8002a7a <HAL_GPIO_Init+0x1de>
 8002a5e:	687b      	ldr	r3, [r7, #4]
 8002a60:	4a43      	ldr	r2, [pc, #268]	@ (8002b70 <HAL_GPIO_Init+0x2d4>)
 8002a62:	4293      	cmp	r3, r2
 8002a64:	d007      	beq.n	8002a76 <HAL_GPIO_Init+0x1da>
 8002a66:	687b      	ldr	r3, [r7, #4]
 8002a68:	4a42      	ldr	r2, [pc, #264]	@ (8002b74 <HAL_GPIO_Init+0x2d8>)
 8002a6a:	4293      	cmp	r3, r2
 8002a6c:	d101      	bne.n	8002a72 <HAL_GPIO_Init+0x1d6>
 8002a6e:	2303      	movs	r3, #3
 8002a70:	e006      	b.n	8002a80 <HAL_GPIO_Init+0x1e4>
 8002a72:	2305      	movs	r3, #5
 8002a74:	e004      	b.n	8002a80 <HAL_GPIO_Init+0x1e4>
 8002a76:	2302      	movs	r3, #2
 8002a78:	e002      	b.n	8002a80 <HAL_GPIO_Init+0x1e4>
 8002a7a:	2301      	movs	r3, #1
 8002a7c:	e000      	b.n	8002a80 <HAL_GPIO_Init+0x1e4>
 8002a7e:	2300      	movs	r3, #0
 8002a80:	697a      	ldr	r2, [r7, #20]
 8002a82:	2103      	movs	r1, #3
 8002a84:	400a      	ands	r2, r1
 8002a86:	0092      	lsls	r2, r2, #2
 8002a88:	4093      	lsls	r3, r2
 8002a8a:	693a      	ldr	r2, [r7, #16]
 8002a8c:	4313      	orrs	r3, r2
 8002a8e:	613b      	str	r3, [r7, #16]
        SYSCFG->EXTICR[position >> 2u] = temp;
 8002a90:	4935      	ldr	r1, [pc, #212]	@ (8002b68 <HAL_GPIO_Init+0x2cc>)
 8002a92:	697b      	ldr	r3, [r7, #20]
 8002a94:	089b      	lsrs	r3, r3, #2
 8002a96:	3302      	adds	r3, #2
 8002a98:	009b      	lsls	r3, r3, #2
 8002a9a:	693a      	ldr	r2, [r7, #16]
 8002a9c:	505a      	str	r2, [r3, r1]

        /* Clear Rising Falling edge configuration */
        temp = EXTI->RTSR;
 8002a9e:	4b36      	ldr	r3, [pc, #216]	@ (8002b78 <HAL_GPIO_Init+0x2dc>)
 8002aa0:	689b      	ldr	r3, [r3, #8]
 8002aa2:	613b      	str	r3, [r7, #16]
        temp &= ~(iocurrent);
 8002aa4:	68fb      	ldr	r3, [r7, #12]
 8002aa6:	43da      	mvns	r2, r3
 8002aa8:	693b      	ldr	r3, [r7, #16]
 8002aaa:	4013      	ands	r3, r2
 8002aac:	613b      	str	r3, [r7, #16]
        if((GPIO_Init->Mode & TRIGGER_RISING) != 0x00u)
 8002aae:	683b      	ldr	r3, [r7, #0]
 8002ab0:	685a      	ldr	r2, [r3, #4]
 8002ab2:	2380      	movs	r3, #128	@ 0x80
 8002ab4:	035b      	lsls	r3, r3, #13
 8002ab6:	4013      	ands	r3, r2
 8002ab8:	d003      	beq.n	8002ac2 <HAL_GPIO_Init+0x226>
        {
          temp |= iocurrent;
 8002aba:	693a      	ldr	r2, [r7, #16]
 8002abc:	68fb      	ldr	r3, [r7, #12]
 8002abe:	4313      	orrs	r3, r2
 8002ac0:	613b      	str	r3, [r7, #16]
        }
        EXTI->RTSR = temp;
 8002ac2:	4b2d      	ldr	r3, [pc, #180]	@ (8002b78 <HAL_GPIO_Init+0x2dc>)
 8002ac4:	693a      	ldr	r2, [r7, #16]
 8002ac6:	609a      	str	r2, [r3, #8]

        temp = EXTI->FTSR;
 8002ac8:	4b2b      	ldr	r3, [pc, #172]	@ (8002b78 <HAL_GPIO_Init+0x2dc>)
 8002aca:	68db      	ldr	r3, [r3, #12]
 8002acc:	613b      	str	r3, [r7, #16]
        temp &= ~(iocurrent);
 8002ace:	68fb      	ldr	r3, [r7, #12]
 8002ad0:	43da      	mvns	r2, r3
 8002ad2:	693b      	ldr	r3, [r7, #16]
 8002ad4:	4013      	ands	r3, r2
 8002ad6:	613b      	str	r3, [r7, #16]
        if((GPIO_Init->Mode & TRIGGER_FALLING) != 0x00u)
 8002ad8:	683b      	ldr	r3, [r7, #0]
 8002ada:	685a      	ldr	r2, [r3, #4]
 8002adc:	2380      	movs	r3, #128	@ 0x80
 8002ade:	039b      	lsls	r3, r3, #14
 8002ae0:	4013      	ands	r3, r2
 8002ae2:	d003      	beq.n	8002aec <HAL_GPIO_Init+0x250>
        {
          temp |= iocurrent;
 8002ae4:	693a      	ldr	r2, [r7, #16]
 8002ae6:	68fb      	ldr	r3, [r7, #12]
 8002ae8:	4313      	orrs	r3, r2
 8002aea:	613b      	str	r3, [r7, #16]
        }
        EXTI->FTSR = temp;
 8002aec:	4b22      	ldr	r3, [pc, #136]	@ (8002b78 <HAL_GPIO_Init+0x2dc>)
 8002aee:	693a      	ldr	r2, [r7, #16]
 8002af0:	60da      	str	r2, [r3, #12]

        /* Clear EXTI line configuration */
        temp = EXTI->EMR;
 8002af2:	4b21      	ldr	r3, [pc, #132]	@ (8002b78 <HAL_GPIO_Init+0x2dc>)
 8002af4:	685b      	ldr	r3, [r3, #4]
 8002af6:	613b      	str	r3, [r7, #16]
        temp &= ~(iocurrent);
 8002af8:	68fb      	ldr	r3, [r7, #12]
 8002afa:	43da      	mvns	r2, r3
 8002afc:	693b      	ldr	r3, [r7, #16]
 8002afe:	4013      	ands	r3, r2
 8002b00:	613b      	str	r3, [r7, #16]
        if((GPIO_Init->Mode & EXTI_EVT) != 0x00u)
 8002b02:	683b      	ldr	r3, [r7, #0]
 8002b04:	685a      	ldr	r2, [r3, #4]
 8002b06:	2380      	movs	r3, #128	@ 0x80
 8002b08:	029b      	lsls	r3, r3, #10
 8002b0a:	4013      	ands	r3, r2
 8002b0c:	d003      	beq.n	8002b16 <HAL_GPIO_Init+0x27a>
        {
          temp |= iocurrent;
 8002b0e:	693a      	ldr	r2, [r7, #16]
 8002b10:	68fb      	ldr	r3, [r7, #12]
 8002b12:	4313      	orrs	r3, r2
 8002b14:	613b      	str	r3, [r7, #16]
        }
        EXTI->EMR = temp;
 8002b16:	4b18      	ldr	r3, [pc, #96]	@ (8002b78 <HAL_GPIO_Init+0x2dc>)
 8002b18:	693a      	ldr	r2, [r7, #16]
 8002b1a:	605a      	str	r2, [r3, #4]

        temp = EXTI->IMR;
 8002b1c:	4b16      	ldr	r3, [pc, #88]	@ (8002b78 <HAL_GPIO_Init+0x2dc>)
 8002b1e:	681b      	ldr	r3, [r3, #0]
 8002b20:	613b      	str	r3, [r7, #16]
        temp &= ~(iocurrent);
 8002b22:	68fb      	ldr	r3, [r7, #12]
 8002b24:	43da      	mvns	r2, r3
 8002b26:	693b      	ldr	r3, [r7, #16]
 8002b28:	4013      	ands	r3, r2
 8002b2a:	613b      	str	r3, [r7, #16]
        if((GPIO_Init->Mode & EXTI_IT) != 0x00u)
 8002b2c:	683b      	ldr	r3, [r7, #0]
 8002b2e:	685a      	ldr	r2, [r3, #4]
 8002b30:	2380      	movs	r3, #128	@ 0x80
 8002b32:	025b      	lsls	r3, r3, #9
 8002b34:	4013      	ands	r3, r2
 8002b36:	d003      	beq.n	8002b40 <HAL_GPIO_Init+0x2a4>
        {
          temp |= iocurrent;
 8002b38:	693a      	ldr	r2, [r7, #16]
 8002b3a:	68fb      	ldr	r3, [r7, #12]
 8002b3c:	4313      	orrs	r3, r2
 8002b3e:	613b      	str	r3, [r7, #16]
        }
        EXTI->IMR = temp;
 8002b40:	4b0d      	ldr	r3, [pc, #52]	@ (8002b78 <HAL_GPIO_Init+0x2dc>)
 8002b42:	693a      	ldr	r2, [r7, #16]
 8002b44:	601a      	str	r2, [r3, #0]
      }
    }

    position++;
 8002b46:	697b      	ldr	r3, [r7, #20]
 8002b48:	3301      	adds	r3, #1
 8002b4a:	617b      	str	r3, [r7, #20]
  while (((GPIO_Init->Pin) >> position) != 0x00u)
 8002b4c:	683b      	ldr	r3, [r7, #0]
 8002b4e:	681a      	ldr	r2, [r3, #0]
 8002b50:	697b      	ldr	r3, [r7, #20]
 8002b52:	40da      	lsrs	r2, r3
 8002b54:	1e13      	subs	r3, r2, #0
 8002b56:	d000      	beq.n	8002b5a <HAL_GPIO_Init+0x2be>
 8002b58:	e6a8      	b.n	80028ac <HAL_GPIO_Init+0x10>
  } 
}
 8002b5a:	46c0      	nop			@ (mov r8, r8)
 8002b5c:	46c0      	nop			@ (mov r8, r8)
 8002b5e:	46bd      	mov	sp, r7
 8002b60:	b006      	add	sp, #24
 8002b62:	bd80      	pop	{r7, pc}
 8002b64:	40021000 	.word	0x40021000
 8002b68:	40010000 	.word	0x40010000
 8002b6c:	48000400 	.word	0x48000400
 8002b70:	48000800 	.word	0x48000800
 8002b74:	48000c00 	.word	0x48000c00
 8002b78:	40010400 	.word	0x40010400

08002b7c <HAL_GPIO_ReadPin>:
  * @param  GPIO_Pin specifies the port bit to read.
  *         This parameter can be GPIO_PIN_x where x can be (0..15).
  * @retval The input port pin value.
  */
GPIO_PinState HAL_GPIO_ReadPin(GPIO_TypeDef* GPIOx, uint16_t GPIO_Pin)
{
 8002b7c:	b580      	push	{r7, lr}
 8002b7e:	b084      	sub	sp, #16
 8002b80:	af00      	add	r7, sp, #0
 8002b82:	6078      	str	r0, [r7, #4]
 8002b84:	000a      	movs	r2, r1
 8002b86:	1cbb      	adds	r3, r7, #2
 8002b88:	801a      	strh	r2, [r3, #0]
  GPIO_PinState bitstatus;

  /* Check the parameters */
  assert_param(IS_GPIO_PIN(GPIO_Pin));

  if ((GPIOx->IDR & GPIO_Pin) != (uint32_t)GPIO_PIN_RESET)
 8002b8a:	687b      	ldr	r3, [r7, #4]
 8002b8c:	691b      	ldr	r3, [r3, #16]
 8002b8e:	1cba      	adds	r2, r7, #2
 8002b90:	8812      	ldrh	r2, [r2, #0]
 8002b92:	4013      	ands	r3, r2
 8002b94:	d004      	beq.n	8002ba0 <HAL_GPIO_ReadPin+0x24>
  {
    bitstatus = GPIO_PIN_SET;
 8002b96:	230f      	movs	r3, #15
 8002b98:	18fb      	adds	r3, r7, r3
 8002b9a:	2201      	movs	r2, #1
 8002b9c:	701a      	strb	r2, [r3, #0]
 8002b9e:	e003      	b.n	8002ba8 <HAL_GPIO_ReadPin+0x2c>
  }
  else
  {
    bitstatus = GPIO_PIN_RESET;
 8002ba0:	230f      	movs	r3, #15
 8002ba2:	18fb      	adds	r3, r7, r3
 8002ba4:	2200      	movs	r2, #0
 8002ba6:	701a      	strb	r2, [r3, #0]
  }
  return bitstatus;
 8002ba8:	230f      	movs	r3, #15
 8002baa:	18fb      	adds	r3, r7, r3
 8002bac:	781b      	ldrb	r3, [r3, #0]
  }
 8002bae:	0018      	movs	r0, r3
 8002bb0:	46bd      	mov	sp, r7
 8002bb2:	b004      	add	sp, #16
 8002bb4:	bd80      	pop	{r7, pc}

08002bb6 <HAL_GPIO_WritePin>:
  *            @arg GPIO_PIN_RESET: to clear the port pin
  *            @arg GPIO_PIN_SET: to set the port pin
  * @retval None
  */
void HAL_GPIO_WritePin(GPIO_TypeDef* GPIOx, uint16_t GPIO_Pin, GPIO_PinState PinState)
{
 8002bb6:	b580      	push	{r7, lr}
 8002bb8:	b082      	sub	sp, #8
 8002bba:	af00      	add	r7, sp, #0
 8002bbc:	6078      	str	r0, [r7, #4]
 8002bbe:	0008      	movs	r0, r1
 8002bc0:	0011      	movs	r1, r2
 8002bc2:	1cbb      	adds	r3, r7, #2
 8002bc4:	1c02      	adds	r2, r0, #0
 8002bc6:	801a      	strh	r2, [r3, #0]
 8002bc8:	1c7b      	adds	r3, r7, #1
 8002bca:	1c0a      	adds	r2, r1, #0
 8002bcc:	701a      	strb	r2, [r3, #0]
  /* Check the parameters */
  assert_param(IS_GPIO_PIN(GPIO_Pin));
  assert_param(IS_GPIO_PIN_ACTION(PinState));

  if (PinState != GPIO_PIN_RESET)
 8002bce:	1c7b      	adds	r3, r7, #1
 8002bd0:	781b      	ldrb	r3, [r3, #0]
 8002bd2:	2b00      	cmp	r3, #0
 8002bd4:	d004      	beq.n	8002be0 <HAL_GPIO_WritePin+0x2a>
  {
    GPIOx->BSRR = (uint32_t)GPIO_Pin;
 8002bd6:	1cbb      	adds	r3, r7, #2
 8002bd8:	881a      	ldrh	r2, [r3, #0]
 8002bda:	687b      	ldr	r3, [r7, #4]
 8002bdc:	619a      	str	r2, [r3, #24]
  }
  else
  {
    GPIOx->BRR = (uint32_t)GPIO_Pin;
  }
}
 8002bde:	e003      	b.n	8002be8 <HAL_GPIO_WritePin+0x32>
    GPIOx->BRR = (uint32_t)GPIO_Pin;
 8002be0:	1cbb      	adds	r3, r7, #2
 8002be2:	881a      	ldrh	r2, [r3, #0]
 8002be4:	687b      	ldr	r3, [r7, #4]
 8002be6:	629a      	str	r2, [r3, #40]	@ 0x28
}
 8002be8:	46c0      	nop			@ (mov r8, r8)
 8002bea:	46bd      	mov	sp, r7
 8002bec:	b002      	add	sp, #8
 8002bee:	bd80      	pop	{r7, pc}

08002bf0 <HAL_GPIO_TogglePin>:
  * @param  GPIOx where x can be (A..F) to select the GPIO peripheral for STM32F0 family
  * @param  GPIO_Pin specifies the pin to be toggled.
  * @retval None
  */
void HAL_GPIO_TogglePin(GPIO_TypeDef* GPIOx, uint16_t GPIO_Pin)
{
 8002bf0:	b580      	push	{r7, lr}
 8002bf2:	b084      	sub	sp, #16
 8002bf4:	af00      	add	r7, sp, #0
 8002bf6:	6078      	str	r0, [r7, #4]
 8002bf8:	000a      	movs	r2, r1
 8002bfa:	1cbb      	adds	r3, r7, #2
 8002bfc:	801a      	strh	r2, [r3, #0]

  /* Check the parameters */
  assert_param(IS_GPIO_PIN(GPIO_Pin));

  /* get current Output Data Register value */
  odr = GPIOx->ODR;
 8002bfe:	687b      	ldr	r3, [r7, #4]
 8002c00:	695b      	ldr	r3, [r3, #20]
 8002c02:	60fb      	str	r3, [r7, #12]

  /* Set selected pins that were at low level, and reset ones that were high */
  GPIOx->BSRR = ((odr & GPIO_Pin) << GPIO_NUMBER) | (~odr & GPIO_Pin);
 8002c04:	1cbb      	adds	r3, r7, #2
 8002c06:	881b      	ldrh	r3, [r3, #0]
 8002c08:	68fa      	ldr	r2, [r7, #12]
 8002c0a:	4013      	ands	r3, r2
 8002c0c:	041a      	lsls	r2, r3, #16
 8002c0e:	68fb      	ldr	r3, [r7, #12]
 8002c10:	43db      	mvns	r3, r3
 8002c12:	1cb9      	adds	r1, r7, #2
 8002c14:	8809      	ldrh	r1, [r1, #0]
 8002c16:	400b      	ands	r3, r1
 8002c18:	431a      	orrs	r2, r3
 8002c1a:	687b      	ldr	r3, [r7, #4]
 8002c1c:	619a      	str	r2, [r3, #24]
}
 8002c1e:	46c0      	nop			@ (mov r8, r8)
 8002c20:	46bd      	mov	sp, r7
 8002c22:	b004      	add	sp, #16
 8002c24:	bd80      	pop	{r7, pc}
	...

08002c28 <HAL_GPIO_EXTI_IRQHandler>:
  * @brief  Handle EXTI interrupt request.
  * @param  GPIO_Pin Specifies the port pin connected to corresponding EXTI line.
  * @retval None
  */
void HAL_GPIO_EXTI_IRQHandler(uint16_t GPIO_Pin)
{
 8002c28:	b580      	push	{r7, lr}
 8002c2a:	b082      	sub	sp, #8
 8002c2c:	af00      	add	r7, sp, #0
 8002c2e:	0002      	movs	r2, r0
 8002c30:	1dbb      	adds	r3, r7, #6
 8002c32:	801a      	strh	r2, [r3, #0]
  /* EXTI line interrupt detected */
  if(__HAL_GPIO_EXTI_GET_IT(GPIO_Pin) != 0x00u)
 8002c34:	4b09      	ldr	r3, [pc, #36]	@ (8002c5c <HAL_GPIO_EXTI_IRQHandler+0x34>)
 8002c36:	695b      	ldr	r3, [r3, #20]
 8002c38:	1dba      	adds	r2, r7, #6
 8002c3a:	8812      	ldrh	r2, [r2, #0]
 8002c3c:	4013      	ands	r3, r2
 8002c3e:	d008      	beq.n	8002c52 <HAL_GPIO_EXTI_IRQHandler+0x2a>
  { 
    __HAL_GPIO_EXTI_CLEAR_IT(GPIO_Pin);
 8002c40:	4b06      	ldr	r3, [pc, #24]	@ (8002c5c <HAL_GPIO_EXTI_IRQHandler+0x34>)
 8002c42:	1dba      	adds	r2, r7, #6
 8002c44:	8812      	ldrh	r2, [r2, #0]
 8002c46:	615a      	str	r2, [r3, #20]
    HAL_GPIO_EXTI_Callback(GPIO_Pin);
 8002c48:	1dbb      	adds	r3, r7, #6
 8002c4a:	881b      	ldrh	r3, [r3, #0]
 8002c4c:	0018      	movs	r0, r3
 8002c4e:	f000 f807 	bl	8002c60 <HAL_GPIO_EXTI_Callback>
  }
}
 8002c52:	46c0      	nop			@ (mov r8, r8)
 8002c54:	46bd      	mov	sp, r7
 8002c56:	b002      	add	sp, #8
 8002c58:	bd80      	pop	{r7, pc}
 8002c5a:	46c0      	nop			@ (mov r8, r8)
 8002c5c:	40010400 	.word	0x40010400

08002c60 <HAL_GPIO_EXTI_Callback>:
  * @brief  EXTI line detection callback.
  * @param  GPIO_Pin Specifies the port pin connected to corresponding EXTI line.
  * @retval None
  */
__weak void HAL_GPIO_EXTI_Callback(uint16_t GPIO_Pin)
{
 8002c60:	b580      	push	{r7, lr}
 8002c62:	b082      	sub	sp, #8
 8002c64:	af00      	add	r7, sp, #0
 8002c66:	0002      	movs	r2, r0
 8002c68:	1dbb      	adds	r3, r7, #6
 8002c6a:	801a      	strh	r2, [r3, #0]
  UNUSED(GPIO_Pin);

  /* NOTE: This function should not be modified, when the callback is needed,
            the HAL_GPIO_EXTI_Callback could be implemented in the user file
   */ 
}
 8002c6c:	46c0      	nop			@ (mov r8, r8)
 8002c6e:	46bd      	mov	sp, r7
 8002c70:	b002      	add	sp, #8
 8002c72:	bd80      	pop	{r7, pc}

08002c74 <HAL_IWDG_Init>:
  * @param  hiwdg  pointer to a IWDG_HandleTypeDef structure that contains
  *                the configuration information for the specified IWDG module.
  * @retval HAL status
  */
HAL_StatusTypeDef HAL_IWDG_Init(IWDG_HandleTypeDef *hiwdg)
{
 8002c74:	b580      	push	{r7, lr}
 8002c76:	b084      	sub	sp, #16
 8002c78:	af00      	add	r7, sp, #0
 8002c7a:	6078      	str	r0, [r7, #4]
  uint32_t tickstart;

  /* Check the IWDG handle allocation */
  if (hiwdg == NULL)
 8002c7c:	687b      	ldr	r3, [r7, #4]
 8002c7e:	2b00      	cmp	r3, #0
 8002c80:	d101      	bne.n	8002c86 <HAL_IWDG_Init+0x12>
  {
    return HAL_ERROR;
 8002c82:	2301      	movs	r3, #1
 8002c84:	e03d      	b.n	8002d02 <HAL_IWDG_Init+0x8e>
  assert_param(IS_IWDG_PRESCALER(hiwdg->Init.Prescaler));
  assert_param(IS_IWDG_RELOAD(hiwdg->Init.Reload));
  assert_param(IS_IWDG_WINDOW(hiwdg->Init.Window));

  /* Enable IWDG. LSI is turned on automatically */
  __HAL_IWDG_START(hiwdg);
 8002c86:	687b      	ldr	r3, [r7, #4]
 8002c88:	681b      	ldr	r3, [r3, #0]
 8002c8a:	4a20      	ldr	r2, [pc, #128]	@ (8002d0c <HAL_IWDG_Init+0x98>)
 8002c8c:	601a      	str	r2, [r3, #0]

  /* Enable write access to IWDG_PR, IWDG_RLR and IWDG_WINR registers by writing
  0x5555 in KR */
  IWDG_ENABLE_WRITE_ACCESS(hiwdg);
 8002c8e:	687b      	ldr	r3, [r7, #4]
 8002c90:	681b      	ldr	r3, [r3, #0]
 8002c92:	4a1f      	ldr	r2, [pc, #124]	@ (8002d10 <HAL_IWDG_Init+0x9c>)
 8002c94:	601a      	str	r2, [r3, #0]

  /* Write to IWDG registers the Prescaler & Reload values to work with */
  hiwdg->Instance->PR = hiwdg->Init.Prescaler;
 8002c96:	687b      	ldr	r3, [r7, #4]
 8002c98:	681b      	ldr	r3, [r3, #0]
 8002c9a:	687a      	ldr	r2, [r7, #4]
 8002c9c:	6852      	ldr	r2, [r2, #4]
 8002c9e:	605a      	str	r2, [r3, #4]
  hiwdg->Instance->RLR = hiwdg->Init.Reload;
 8002ca0:	687b      	ldr	r3, [r7, #4]
 8002ca2:	681b      	ldr	r3, [r3, #0]
 8002ca4:	687a      	ldr	r2, [r7, #4]
 8002ca6:	6892      	ldr	r2, [r2, #8]
 8002ca8:	609a      	str	r2, [r3, #8]

  /* Check pending flag, if previous update not done, return timeout */
  tickstart = HAL_GetTick();
 8002caa:	f7ff fb67 	bl	800237c <HAL_GetTick>
 8002cae:	0003      	movs	r3, r0
 8002cb0:	60fb      	str	r3, [r7, #12]

  /* Wait for register to be updated */
  while ((hiwdg->Instance->SR & IWDG_KERNEL_UPDATE_FLAGS) != 0x00u)
 8002cb2:	e00e      	b.n	8002cd2 <HAL_IWDG_Init+0x5e>
  {
    if ((HAL_GetTick() - tickstart) > HAL_IWDG_DEFAULT_TIMEOUT)
 8002cb4:	f7ff fb62 	bl	800237c <HAL_GetTick>
 8002cb8:	0002      	movs	r2, r0
 8002cba:	68fb      	ldr	r3, [r7, #12]
 8002cbc:	1ad3      	subs	r3, r2, r3
 8002cbe:	2b27      	cmp	r3, #39	@ 0x27
 8002cc0:	d907      	bls.n	8002cd2 <HAL_IWDG_Init+0x5e>
    {
      if ((hiwdg->Instance->SR & IWDG_KERNEL_UPDATE_FLAGS) != 0x00u)
 8002cc2:	687b      	ldr	r3, [r7, #4]
 8002cc4:	681b      	ldr	r3, [r3, #0]
 8002cc6:	68db      	ldr	r3, [r3, #12]
 8002cc8:	2207      	movs	r2, #7
 8002cca:	4013      	ands	r3, r2
 8002ccc:	d001      	beq.n	8002cd2 <HAL_IWDG_Init+0x5e>
      {
        return HAL_TIMEOUT;
 8002cce:	2303      	movs	r3, #3
 8002cd0:	e017      	b.n	8002d02 <HAL_IWDG_Init+0x8e>
  while ((hiwdg->Instance->SR & IWDG_KERNEL_UPDATE_FLAGS) != 0x00u)
 8002cd2:	687b      	ldr	r3, [r7, #4]
 8002cd4:	681b      	ldr	r3, [r3, #0]
 8002cd6:	68db      	ldr	r3, [r3, #12]
 8002cd8:	2207      	movs	r2, #7
 8002cda:	4013      	ands	r3, r2
 8002cdc:	d1ea      	bne.n	8002cb4 <HAL_IWDG_Init+0x40>
    }
  }

  /* If window parameter is different than current value, modify window
  register */
  if (hiwdg->Instance->WINR != hiwdg->Init.Window)
 8002cde:	687b      	ldr	r3, [r7, #4]
 8002ce0:	681b      	ldr	r3, [r3, #0]
 8002ce2:	691a      	ldr	r2, [r3, #16]
 8002ce4:	687b      	ldr	r3, [r7, #4]
 8002ce6:	68db      	ldr	r3, [r3, #12]
 8002ce8:	429a      	cmp	r2, r3
 8002cea:	d005      	beq.n	8002cf8 <HAL_IWDG_Init+0x84>
  {
    /* Write to IWDG WINR the IWDG_Window value to compare with. In any case,
    even if window feature is disabled, Watchdog will be reloaded by writing
    windows register */
    hiwdg->Instance->WINR = hiwdg->Init.Window;
 8002cec:	687b      	ldr	r3, [r7, #4]
 8002cee:	681b      	ldr	r3, [r3, #0]
 8002cf0:	687a      	ldr	r2, [r7, #4]
 8002cf2:	68d2      	ldr	r2, [r2, #12]
 8002cf4:	611a      	str	r2, [r3, #16]
 8002cf6:	e003      	b.n	8002d00 <HAL_IWDG_Init+0x8c>
  }
  else
  {
    /* Reload IWDG counter with value defined in the reload register */
    __HAL_IWDG_RELOAD_COUNTER(hiwdg);
 8002cf8:	687b      	ldr	r3, [r7, #4]
 8002cfa:	681b      	ldr	r3, [r3, #0]
 8002cfc:	4a05      	ldr	r2, [pc, #20]	@ (8002d14 <HAL_IWDG_Init+0xa0>)
 8002cfe:	601a      	str	r2, [r3, #0]
  }

  /* Return function status */
  return HAL_OK;
 8002d00:	2300      	movs	r3, #0
}
 8002d02:	0018      	movs	r0, r3
 8002d04:	46bd      	mov	sp, r7
 8002d06:	b004      	add	sp, #16
 8002d08:	bd80      	pop	{r7, pc}
 8002d0a:	46c0      	nop			@ (mov r8, r8)
 8002d0c:	0000cccc 	.word	0x0000cccc
 8002d10:	00005555 	.word	0x00005555
 8002d14:	0000aaaa 	.word	0x0000aaaa

08002d18 <HAL_IWDG_Refresh>:
  * @param  hiwdg  pointer to a IWDG_HandleTypeDef structure that contains
  *                the configuration information for the specified IWDG module.
  * @retval HAL status
  */
HAL_StatusTypeDef HAL_IWDG_Refresh(IWDG_HandleTypeDef *hiwdg)
{
 8002d18:	b580      	push	{r7, lr}
 8002d1a:	b082      	sub	sp, #8
 8002d1c:	af00      	add	r7, sp, #0
 8002d1e:	6078      	str	r0, [r7, #4]
  /* Reload IWDG counter with value defined in the reload register */
  __HAL_IWDG_RELOAD_COUNTER(hiwdg);
 8002d20:	687b      	ldr	r3, [r7, #4]
 8002d22:	681b      	ldr	r3, [r3, #0]
 8002d24:	4a03      	ldr	r2, [pc, #12]	@ (8002d34 <HAL_IWDG_Refresh+0x1c>)
 8002d26:	601a      	str	r2, [r3, #0]

  /* Return function status */
  return HAL_OK;
 8002d28:	2300      	movs	r3, #0
}
 8002d2a:	0018      	movs	r0, r3
 8002d2c:	46bd      	mov	sp, r7
 8002d2e:	b002      	add	sp, #8
 8002d30:	bd80      	pop	{r7, pc}
 8002d32:	46c0      	nop			@ (mov r8, r8)
 8002d34:	0000aaaa 	.word	0x0000aaaa

08002d38 <HAL_RCC_OscConfig>:
  *         supported by this macro. User should request a transition to HSE Off
  *         first and then HSE On or HSE Bypass.
  * @retval HAL status
  */
HAL_StatusTypeDef HAL_RCC_OscConfig(RCC_OscInitTypeDef  *RCC_OscInitStruct)
{
 8002d38:	b580      	push	{r7, lr}
 8002d3a:	b088      	sub	sp, #32
 8002d3c:	af00      	add	r7, sp, #0
 8002d3e:	6078      	str	r0, [r7, #4]
  uint32_t tickstart;
  uint32_t pll_config;
  uint32_t pll_config2;

  /* Check Null pointer */
  if(RCC_OscInitStruct == NULL)
 8002d40:	687b      	ldr	r3, [r7, #4]
 8002d42:	2b00      	cmp	r3, #0
 8002d44:	d101      	bne.n	8002d4a <HAL_RCC_OscConfig+0x12>
  {
    return HAL_ERROR;
 8002d46:	2301      	movs	r3, #1
 8002d48:	e301      	b.n	800334e <HAL_RCC_OscConfig+0x616>

  /* Check the parameters */
  assert_param(IS_RCC_OSCILLATORTYPE(RCC_OscInitStruct->OscillatorType));

  /*------------------------------- HSE Configuration ------------------------*/ 
  if(((RCC_OscInitStruct->OscillatorType) & RCC_OSCILLATORTYPE_HSE) == RCC_OSCILLATORTYPE_HSE)
 8002d4a:	687b      	ldr	r3, [r7, #4]
 8002d4c:	681b      	ldr	r3, [r3, #0]
 8002d4e:	2201      	movs	r2, #1
 8002d50:	4013      	ands	r3, r2
 8002d52:	d100      	bne.n	8002d56 <HAL_RCC_OscConfig+0x1e>
 8002d54:	e08d      	b.n	8002e72 <HAL_RCC_OscConfig+0x13a>
  {
    /* Check the parameters */
    assert_param(IS_RCC_HSE(RCC_OscInitStruct->HSEState));

    /* When the HSE is used as system clock or clock source for PLL in these cases it is not allowed to be disabled */
    if((__HAL_RCC_GET_SYSCLK_SOURCE() == RCC_SYSCLKSOURCE_STATUS_HSE) 
 8002d56:	4bc3      	ldr	r3, [pc, #780]	@ (8003064 <HAL_RCC_OscConfig+0x32c>)
 8002d58:	685b      	ldr	r3, [r3, #4]
 8002d5a:	220c      	movs	r2, #12
 8002d5c:	4013      	ands	r3, r2
 8002d5e:	2b04      	cmp	r3, #4
 8002d60:	d00e      	beq.n	8002d80 <HAL_RCC_OscConfig+0x48>
       || ((__HAL_RCC_GET_SYSCLK_SOURCE() == RCC_SYSCLKSOURCE_STATUS_PLLCLK) && (__HAL_RCC_GET_PLL_OSCSOURCE() == RCC_PLLSOURCE_HSE)))
 8002d62:	4bc0      	ldr	r3, [pc, #768]	@ (8003064 <HAL_RCC_OscConfig+0x32c>)
 8002d64:	685b      	ldr	r3, [r3, #4]
 8002d66:	220c      	movs	r2, #12
 8002d68:	4013      	ands	r3, r2
 8002d6a:	2b08      	cmp	r3, #8
 8002d6c:	d116      	bne.n	8002d9c <HAL_RCC_OscConfig+0x64>
 8002d6e:	4bbd      	ldr	r3, [pc, #756]	@ (8003064 <HAL_RCC_OscConfig+0x32c>)
 8002d70:	685a      	ldr	r2, [r3, #4]
 8002d72:	2380      	movs	r3, #128	@ 0x80
 8002d74:	025b      	lsls	r3, r3, #9
 8002d76:	401a      	ands	r2, r3
 8002d78:	2380      	movs	r3, #128	@ 0x80
 8002d7a:	025b      	lsls	r3, r3, #9
 8002d7c:	429a      	cmp	r2, r3
 8002d7e:	d10d      	bne.n	8002d9c <HAL_RCC_OscConfig+0x64>
    {
      if((__HAL_RCC_GET_FLAG(RCC_FLAG_HSERDY) != RESET) && (RCC_OscInitStruct->HSEState == RCC_HSE_OFF))
 8002d80:	4bb8      	ldr	r3, [pc, #736]	@ (8003064 <HAL_RCC_OscConfig+0x32c>)
 8002d82:	681a      	ldr	r2, [r3, #0]
 8002d84:	2380      	movs	r3, #128	@ 0x80
 8002d86:	029b      	lsls	r3, r3, #10
 8002d88:	4013      	ands	r3, r2
 8002d8a:	d100      	bne.n	8002d8e <HAL_RCC_OscConfig+0x56>
 8002d8c:	e070      	b.n	8002e70 <HAL_RCC_OscConfig+0x138>
 8002d8e:	687b      	ldr	r3, [r7, #4]
 8002d90:	685b      	ldr	r3, [r3, #4]
 8002d92:	2b00      	cmp	r3, #0
 8002d94:	d000      	beq.n	8002d98 <HAL_RCC_OscConfig+0x60>
 8002d96:	e06b      	b.n	8002e70 <HAL_RCC_OscConfig+0x138>
      {
        return HAL_ERROR;
 8002d98:	2301      	movs	r3, #1
 8002d9a:	e2d8      	b.n	800334e <HAL_RCC_OscConfig+0x616>
      }
    }
    else
    {
      /* Set the new HSE configuration ---------------------------------------*/
      __HAL_RCC_HSE_CONFIG(RCC_OscInitStruct->HSEState);
 8002d9c:	687b      	ldr	r3, [r7, #4]
 8002d9e:	685b      	ldr	r3, [r3, #4]
 8002da0:	2b01      	cmp	r3, #1
 8002da2:	d107      	bne.n	8002db4 <HAL_RCC_OscConfig+0x7c>
 8002da4:	4baf      	ldr	r3, [pc, #700]	@ (8003064 <HAL_RCC_OscConfig+0x32c>)
 8002da6:	681a      	ldr	r2, [r3, #0]
 8002da8:	4bae      	ldr	r3, [pc, #696]	@ (8003064 <HAL_RCC_OscConfig+0x32c>)
 8002daa:	2180      	movs	r1, #128	@ 0x80
 8002dac:	0249      	lsls	r1, r1, #9
 8002dae:	430a      	orrs	r2, r1
 8002db0:	601a      	str	r2, [r3, #0]
 8002db2:	e02f      	b.n	8002e14 <HAL_RCC_OscConfig+0xdc>
 8002db4:	687b      	ldr	r3, [r7, #4]
 8002db6:	685b      	ldr	r3, [r3, #4]
 8002db8:	2b00      	cmp	r3, #0
 8002dba:	d10c      	bne.n	8002dd6 <HAL_RCC_OscConfig+0x9e>
 8002dbc:	4ba9      	ldr	r3, [pc, #676]	@ (8003064 <HAL_RCC_OscConfig+0x32c>)
 8002dbe:	681a      	ldr	r2, [r3, #0]
 8002dc0:	4ba8      	ldr	r3, [pc, #672]	@ (8003064 <HAL_RCC_OscConfig+0x32c>)
 8002dc2:	49a9      	ldr	r1, [pc, #676]	@ (8003068 <HAL_RCC_OscConfig+0x330>)
 8002dc4:	400a      	ands	r2, r1
 8002dc6:	601a      	str	r2, [r3, #0]
 8002dc8:	4ba6      	ldr	r3, [pc, #664]	@ (8003064 <HAL_RCC_OscConfig+0x32c>)
 8002dca:	681a      	ldr	r2, [r3, #0]
 8002dcc:	4ba5      	ldr	r3, [pc, #660]	@ (8003064 <HAL_RCC_OscConfig+0x32c>)
 8002dce:	49a7      	ldr	r1, [pc, #668]	@ (800306c <HAL_RCC_OscConfig+0x334>)
 8002dd0:	400a      	ands	r2, r1
 8002dd2:	601a      	str	r2, [r3, #0]
 8002dd4:	e01e      	b.n	8002e14 <HAL_RCC_OscConfig+0xdc>
 8002dd6:	687b      	ldr	r3, [r7, #4]
 8002dd8:	685b      	ldr	r3, [r3, #4]
 8002dda:	2b05      	cmp	r3, #5
 8002ddc:	d10e      	bne.n	8002dfc <HAL_RCC_OscConfig+0xc4>
 8002dde:	4ba1      	ldr	r3, [pc, #644]	@ (8003064 <HAL_RCC_OscConfig+0x32c>)
 8002de0:	681a      	ldr	r2, [r3, #0]
 8002de2:	4ba0      	ldr	r3, [pc, #640]	@ (8003064 <HAL_RCC_OscConfig+0x32c>)
 8002de4:	2180      	movs	r1, #128	@ 0x80
 8002de6:	02c9      	lsls	r1, r1, #11
 8002de8:	430a      	orrs	r2, r1
 8002dea:	601a      	str	r2, [r3, #0]
 8002dec:	4b9d      	ldr	r3, [pc, #628]	@ (8003064 <HAL_RCC_OscConfig+0x32c>)
 8002dee:	681a      	ldr	r2, [r3, #0]
 8002df0:	4b9c      	ldr	r3, [pc, #624]	@ (8003064 <HAL_RCC_OscConfig+0x32c>)
 8002df2:	2180      	movs	r1, #128	@ 0x80
 8002df4:	0249      	lsls	r1, r1, #9
 8002df6:	430a      	orrs	r2, r1
 8002df8:	601a      	str	r2, [r3, #0]
 8002dfa:	e00b      	b.n	8002e14 <HAL_RCC_OscConfig+0xdc>
 8002dfc:	4b99      	ldr	r3, [pc, #612]	@ (8003064 <HAL_RCC_OscConfig+0x32c>)
 8002dfe:	681a      	ldr	r2, [r3, #0]
 8002e00:	4b98      	ldr	r3, [pc, #608]	@ (8003064 <HAL_RCC_OscConfig+0x32c>)
 8002e02:	4999      	ldr	r1, [pc, #612]	@ (8003068 <HAL_RCC_OscConfig+0x330>)
 8002e04:	400a      	ands	r2, r1
 8002e06:	601a      	str	r2, [r3, #0]
 8002e08:	4b96      	ldr	r3, [pc, #600]	@ (8003064 <HAL_RCC_OscConfig+0x32c>)
 8002e0a:	681a      	ldr	r2, [r3, #0]
 8002e0c:	4b95      	ldr	r3, [pc, #596]	@ (8003064 <HAL_RCC_OscConfig+0x32c>)
 8002e0e:	4997      	ldr	r1, [pc, #604]	@ (800306c <HAL_RCC_OscConfig+0x334>)
 8002e10:	400a      	ands	r2, r1
 8002e12:	601a      	str	r2, [r3, #0]
      

       /* Check the HSE State */
      if(RCC_OscInitStruct->HSEState != RCC_HSE_OFF)
 8002e14:	687b      	ldr	r3, [r7, #4]
 8002e16:	685b      	ldr	r3, [r3, #4]
 8002e18:	2b00      	cmp	r3, #0
 8002e1a:	d014      	beq.n	8002e46 <HAL_RCC_OscConfig+0x10e>
      {
        /* Get Start Tick */
        tickstart = HAL_GetTick();
 8002e1c:	f7ff faae 	bl	800237c <HAL_GetTick>
 8002e20:	0003      	movs	r3, r0
 8002e22:	61bb      	str	r3, [r7, #24]
        
        /* Wait till HSE is ready */
        while(__HAL_RCC_GET_FLAG(RCC_FLAG_HSERDY) == RESET)
 8002e24:	e008      	b.n	8002e38 <HAL_RCC_OscConfig+0x100>
        {
          if((HAL_GetTick() - tickstart ) > HSE_TIMEOUT_VALUE)
 8002e26:	f7ff faa9 	bl	800237c <HAL_GetTick>
 8002e2a:	0002      	movs	r2, r0
 8002e2c:	69bb      	ldr	r3, [r7, #24]
 8002e2e:	1ad3      	subs	r3, r2, r3
 8002e30:	2b64      	cmp	r3, #100	@ 0x64
 8002e32:	d901      	bls.n	8002e38 <HAL_RCC_OscConfig+0x100>
          {
            return HAL_TIMEOUT;
 8002e34:	2303      	movs	r3, #3
 8002e36:	e28a      	b.n	800334e <HAL_RCC_OscConfig+0x616>
        while(__HAL_RCC_GET_FLAG(RCC_FLAG_HSERDY) == RESET)
 8002e38:	4b8a      	ldr	r3, [pc, #552]	@ (8003064 <HAL_RCC_OscConfig+0x32c>)
 8002e3a:	681a      	ldr	r2, [r3, #0]
 8002e3c:	2380      	movs	r3, #128	@ 0x80
 8002e3e:	029b      	lsls	r3, r3, #10
 8002e40:	4013      	ands	r3, r2
 8002e42:	d0f0      	beq.n	8002e26 <HAL_RCC_OscConfig+0xee>
 8002e44:	e015      	b.n	8002e72 <HAL_RCC_OscConfig+0x13a>
        }
      }
      else
      {
        /* Get Start Tick */
        tickstart = HAL_GetTick();
 8002e46:	f7ff fa99 	bl	800237c <HAL_GetTick>
 8002e4a:	0003      	movs	r3, r0
 8002e4c:	61bb      	str	r3, [r7, #24]
        
        /* Wait till HSE is disabled */
        while(__HAL_RCC_GET_FLAG(RCC_FLAG_HSERDY) != RESET)
 8002e4e:	e008      	b.n	8002e62 <HAL_RCC_OscConfig+0x12a>
        {
           if((HAL_GetTick() - tickstart ) > HSE_TIMEOUT_VALUE)
 8002e50:	f7ff fa94 	bl	800237c <HAL_GetTick>
 8002e54:	0002      	movs	r2, r0
 8002e56:	69bb      	ldr	r3, [r7, #24]
 8002e58:	1ad3      	subs	r3, r2, r3
 8002e5a:	2b64      	cmp	r3, #100	@ 0x64
 8002e5c:	d901      	bls.n	8002e62 <HAL_RCC_OscConfig+0x12a>
          {
            return HAL_TIMEOUT;
 8002e5e:	2303      	movs	r3, #3
 8002e60:	e275      	b.n	800334e <HAL_RCC_OscConfig+0x616>
        while(__HAL_RCC_GET_FLAG(RCC_FLAG_HSERDY) != RESET)
 8002e62:	4b80      	ldr	r3, [pc, #512]	@ (8003064 <HAL_RCC_OscConfig+0x32c>)
 8002e64:	681a      	ldr	r2, [r3, #0]
 8002e66:	2380      	movs	r3, #128	@ 0x80
 8002e68:	029b      	lsls	r3, r3, #10
 8002e6a:	4013      	ands	r3, r2
 8002e6c:	d1f0      	bne.n	8002e50 <HAL_RCC_OscConfig+0x118>
 8002e6e:	e000      	b.n	8002e72 <HAL_RCC_OscConfig+0x13a>
      if((__HAL_RCC_GET_FLAG(RCC_FLAG_HSERDY) != RESET) && (RCC_OscInitStruct->HSEState == RCC_HSE_OFF))
 8002e70:	46c0      	nop			@ (mov r8, r8)
        }
      }
    }
  }
  /*----------------------------- HSI Configuration --------------------------*/ 
  if(((RCC_OscInitStruct->OscillatorType) & RCC_OSCILLATORTYPE_HSI) == RCC_OSCILLATORTYPE_HSI)
 8002e72:	687b      	ldr	r3, [r7, #4]
 8002e74:	681b      	ldr	r3, [r3, #0]
 8002e76:	2202      	movs	r2, #2
 8002e78:	4013      	ands	r3, r2
 8002e7a:	d100      	bne.n	8002e7e <HAL_RCC_OscConfig+0x146>
 8002e7c:	e069      	b.n	8002f52 <HAL_RCC_OscConfig+0x21a>
    /* Check the parameters */
    assert_param(IS_RCC_HSI(RCC_OscInitStruct->HSIState));
    assert_param(IS_RCC_CALIBRATION_VALUE(RCC_OscInitStruct->HSICalibrationValue));
    
    /* Check if HSI is used as system clock or as PLL source when PLL is selected as system clock */ 
    if((__HAL_RCC_GET_SYSCLK_SOURCE() == RCC_SYSCLKSOURCE_STATUS_HSI) 
 8002e7e:	4b79      	ldr	r3, [pc, #484]	@ (8003064 <HAL_RCC_OscConfig+0x32c>)
 8002e80:	685b      	ldr	r3, [r3, #4]
 8002e82:	220c      	movs	r2, #12
 8002e84:	4013      	ands	r3, r2
 8002e86:	d00b      	beq.n	8002ea0 <HAL_RCC_OscConfig+0x168>
       || ((__HAL_RCC_GET_SYSCLK_SOURCE() == RCC_SYSCLKSOURCE_STATUS_PLLCLK) && (__HAL_RCC_GET_PLL_OSCSOURCE() == RCC_PLLSOURCE_HSI)))
 8002e88:	4b76      	ldr	r3, [pc, #472]	@ (8003064 <HAL_RCC_OscConfig+0x32c>)
 8002e8a:	685b      	ldr	r3, [r3, #4]
 8002e8c:	220c      	movs	r2, #12
 8002e8e:	4013      	ands	r3, r2
 8002e90:	2b08      	cmp	r3, #8
 8002e92:	d11c      	bne.n	8002ece <HAL_RCC_OscConfig+0x196>
 8002e94:	4b73      	ldr	r3, [pc, #460]	@ (8003064 <HAL_RCC_OscConfig+0x32c>)
 8002e96:	685a      	ldr	r2, [r3, #4]
 8002e98:	2380      	movs	r3, #128	@ 0x80
 8002e9a:	025b      	lsls	r3, r3, #9
 8002e9c:	4013      	ands	r3, r2
 8002e9e:	d116      	bne.n	8002ece <HAL_RCC_OscConfig+0x196>
    {
      /* When HSI is used as system clock it will not disabled */
      if((__HAL_RCC_GET_FLAG(RCC_FLAG_HSIRDY) != RESET) && (RCC_OscInitStruct->HSIState != RCC_HSI_ON))
 8002ea0:	4b70      	ldr	r3, [pc, #448]	@ (8003064 <HAL_RCC_OscConfig+0x32c>)
 8002ea2:	681b      	ldr	r3, [r3, #0]
 8002ea4:	2202      	movs	r2, #2
 8002ea6:	4013      	ands	r3, r2
 8002ea8:	d005      	beq.n	8002eb6 <HAL_RCC_OscConfig+0x17e>
 8002eaa:	687b      	ldr	r3, [r7, #4]
 8002eac:	68db      	ldr	r3, [r3, #12]
 8002eae:	2b01      	cmp	r3, #1
 8002eb0:	d001      	beq.n	8002eb6 <HAL_RCC_OscConfig+0x17e>
      {
        return HAL_ERROR;
 8002eb2:	2301      	movs	r3, #1
 8002eb4:	e24b      	b.n	800334e <HAL_RCC_OscConfig+0x616>
      }
      /* Otherwise, just the calibration is allowed */
      else
      {
        /* Adjusts the Internal High Speed oscillator (HSI) calibration value.*/
        __HAL_RCC_HSI_CALIBRATIONVALUE_ADJUST(RCC_OscInitStruct->HSICalibrationValue);
 8002eb6:	4b6b      	ldr	r3, [pc, #428]	@ (8003064 <HAL_RCC_OscConfig+0x32c>)
 8002eb8:	681b      	ldr	r3, [r3, #0]
 8002eba:	22f8      	movs	r2, #248	@ 0xf8
 8002ebc:	4393      	bics	r3, r2
 8002ebe:	0019      	movs	r1, r3
 8002ec0:	687b      	ldr	r3, [r7, #4]
 8002ec2:	691b      	ldr	r3, [r3, #16]
 8002ec4:	00da      	lsls	r2, r3, #3
 8002ec6:	4b67      	ldr	r3, [pc, #412]	@ (8003064 <HAL_RCC_OscConfig+0x32c>)
 8002ec8:	430a      	orrs	r2, r1
 8002eca:	601a      	str	r2, [r3, #0]
      if((__HAL_RCC_GET_FLAG(RCC_FLAG_HSIRDY) != RESET) && (RCC_OscInitStruct->HSIState != RCC_HSI_ON))
 8002ecc:	e041      	b.n	8002f52 <HAL_RCC_OscConfig+0x21a>
      }
    }
    else
    {
      /* Check the HSI State */
      if(RCC_OscInitStruct->HSIState != RCC_HSI_OFF)
 8002ece:	687b      	ldr	r3, [r7, #4]
 8002ed0:	68db      	ldr	r3, [r3, #12]
 8002ed2:	2b00      	cmp	r3, #0
 8002ed4:	d024      	beq.n	8002f20 <HAL_RCC_OscConfig+0x1e8>
      {
       /* Enable the Internal High Speed oscillator (HSI). */
        __HAL_RCC_HSI_ENABLE();
 8002ed6:	4b63      	ldr	r3, [pc, #396]	@ (8003064 <HAL_RCC_OscConfig+0x32c>)
 8002ed8:	681a      	ldr	r2, [r3, #0]
 8002eda:	4b62      	ldr	r3, [pc, #392]	@ (8003064 <HAL_RCC_OscConfig+0x32c>)
 8002edc:	2101      	movs	r1, #1
 8002ede:	430a      	orrs	r2, r1
 8002ee0:	601a      	str	r2, [r3, #0]
        
        /* Get Start Tick */
        tickstart = HAL_GetTick();
 8002ee2:	f7ff fa4b 	bl	800237c <HAL_GetTick>
 8002ee6:	0003      	movs	r3, r0
 8002ee8:	61bb      	str	r3, [r7, #24]
        
        /* Wait till HSI is ready */
        while(__HAL_RCC_GET_FLAG(RCC_FLAG_HSIRDY) == RESET)
 8002eea:	e008      	b.n	8002efe <HAL_RCC_OscConfig+0x1c6>
        {
          if((HAL_GetTick() - tickstart ) > HSI_TIMEOUT_VALUE)
 8002eec:	f7ff fa46 	bl	800237c <HAL_GetTick>
 8002ef0:	0002      	movs	r2, r0
 8002ef2:	69bb      	ldr	r3, [r7, #24]
 8002ef4:	1ad3      	subs	r3, r2, r3
 8002ef6:	2b02      	cmp	r3, #2
 8002ef8:	d901      	bls.n	8002efe <HAL_RCC_OscConfig+0x1c6>
          {
            return HAL_TIMEOUT;
 8002efa:	2303      	movs	r3, #3
 8002efc:	e227      	b.n	800334e <HAL_RCC_OscConfig+0x616>
        while(__HAL_RCC_GET_FLAG(RCC_FLAG_HSIRDY) == RESET)
 8002efe:	4b59      	ldr	r3, [pc, #356]	@ (8003064 <HAL_RCC_OscConfig+0x32c>)
 8002f00:	681b      	ldr	r3, [r3, #0]
 8002f02:	2202      	movs	r2, #2
 8002f04:	4013      	ands	r3, r2
 8002f06:	d0f1      	beq.n	8002eec <HAL_RCC_OscConfig+0x1b4>
          }
        }
                
        /* Adjusts the Internal High Speed oscillator (HSI) calibration value.*/
        __HAL_RCC_HSI_CALIBRATIONVALUE_ADJUST(RCC_OscInitStruct->HSICalibrationValue);
 8002f08:	4b56      	ldr	r3, [pc, #344]	@ (8003064 <HAL_RCC_OscConfig+0x32c>)
 8002f0a:	681b      	ldr	r3, [r3, #0]
 8002f0c:	22f8      	movs	r2, #248	@ 0xf8
 8002f0e:	4393      	bics	r3, r2
 8002f10:	0019      	movs	r1, r3
 8002f12:	687b      	ldr	r3, [r7, #4]
 8002f14:	691b      	ldr	r3, [r3, #16]
 8002f16:	00da      	lsls	r2, r3, #3
 8002f18:	4b52      	ldr	r3, [pc, #328]	@ (8003064 <HAL_RCC_OscConfig+0x32c>)
 8002f1a:	430a      	orrs	r2, r1
 8002f1c:	601a      	str	r2, [r3, #0]
 8002f1e:	e018      	b.n	8002f52 <HAL_RCC_OscConfig+0x21a>
      }
      else
      {
        /* Disable the Internal High Speed oscillator (HSI). */
        __HAL_RCC_HSI_DISABLE();
 8002f20:	4b50      	ldr	r3, [pc, #320]	@ (8003064 <HAL_RCC_OscConfig+0x32c>)
 8002f22:	681a      	ldr	r2, [r3, #0]
 8002f24:	4b4f      	ldr	r3, [pc, #316]	@ (8003064 <HAL_RCC_OscConfig+0x32c>)
 8002f26:	2101      	movs	r1, #1
 8002f28:	438a      	bics	r2, r1
 8002f2a:	601a      	str	r2, [r3, #0]
        
        /* Get Start Tick */
        tickstart = HAL_GetTick();
 8002f2c:	f7ff fa26 	bl	800237c <HAL_GetTick>
 8002f30:	0003      	movs	r3, r0
 8002f32:	61bb      	str	r3, [r7, #24]
        
        /* Wait till HSI is disabled */
        while(__HAL_RCC_GET_FLAG(RCC_FLAG_HSIRDY) != RESET)
 8002f34:	e008      	b.n	8002f48 <HAL_RCC_OscConfig+0x210>
        {
          if((HAL_GetTick() - tickstart ) > HSI_TIMEOUT_VALUE)
 8002f36:	f7ff fa21 	bl	800237c <HAL_GetTick>
 8002f3a:	0002      	movs	r2, r0
 8002f3c:	69bb      	ldr	r3, [r7, #24]
 8002f3e:	1ad3      	subs	r3, r2, r3
 8002f40:	2b02      	cmp	r3, #2
 8002f42:	d901      	bls.n	8002f48 <HAL_RCC_OscConfig+0x210>
          {
            return HAL_TIMEOUT;
 8002f44:	2303      	movs	r3, #3
 8002f46:	e202      	b.n	800334e <HAL_RCC_OscConfig+0x616>
        while(__HAL_RCC_GET_FLAG(RCC_FLAG_HSIRDY) != RESET)
 8002f48:	4b46      	ldr	r3, [pc, #280]	@ (8003064 <HAL_RCC_OscConfig+0x32c>)
 8002f4a:	681b      	ldr	r3, [r3, #0]
 8002f4c:	2202      	movs	r2, #2
 8002f4e:	4013      	ands	r3, r2
 8002f50:	d1f1      	bne.n	8002f36 <HAL_RCC_OscConfig+0x1fe>
        }
      }
    }
  }
  /*------------------------------ LSI Configuration -------------------------*/ 
  if(((RCC_OscInitStruct->OscillatorType) & RCC_OSCILLATORTYPE_LSI) == RCC_OSCILLATORTYPE_LSI)
 8002f52:	687b      	ldr	r3, [r7, #4]
 8002f54:	681b      	ldr	r3, [r3, #0]
 8002f56:	2208      	movs	r2, #8
 8002f58:	4013      	ands	r3, r2
 8002f5a:	d036      	beq.n	8002fca <HAL_RCC_OscConfig+0x292>
  {
    /* Check the parameters */
    assert_param(IS_RCC_LSI(RCC_OscInitStruct->LSIState));
    
    /* Check the LSI State */
    if(RCC_OscInitStruct->LSIState != RCC_LSI_OFF)
 8002f5c:	687b      	ldr	r3, [r7, #4]
 8002f5e:	69db      	ldr	r3, [r3, #28]
 8002f60:	2b00      	cmp	r3, #0
 8002f62:	d019      	beq.n	8002f98 <HAL_RCC_OscConfig+0x260>
    {
      /* Enable the Internal Low Speed oscillator (LSI). */
      __HAL_RCC_LSI_ENABLE();
 8002f64:	4b3f      	ldr	r3, [pc, #252]	@ (8003064 <HAL_RCC_OscConfig+0x32c>)
 8002f66:	6a5a      	ldr	r2, [r3, #36]	@ 0x24
 8002f68:	4b3e      	ldr	r3, [pc, #248]	@ (8003064 <HAL_RCC_OscConfig+0x32c>)
 8002f6a:	2101      	movs	r1, #1
 8002f6c:	430a      	orrs	r2, r1
 8002f6e:	625a      	str	r2, [r3, #36]	@ 0x24
      
      /* Get Start Tick */
      tickstart = HAL_GetTick();
 8002f70:	f7ff fa04 	bl	800237c <HAL_GetTick>
 8002f74:	0003      	movs	r3, r0
 8002f76:	61bb      	str	r3, [r7, #24]
      
      /* Wait till LSI is ready */  
      while(__HAL_RCC_GET_FLAG(RCC_FLAG_LSIRDY) == RESET)
 8002f78:	e008      	b.n	8002f8c <HAL_RCC_OscConfig+0x254>
      {
        if((HAL_GetTick() - tickstart ) > LSI_TIMEOUT_VALUE)
 8002f7a:	f7ff f9ff 	bl	800237c <HAL_GetTick>
 8002f7e:	0002      	movs	r2, r0
 8002f80:	69bb      	ldr	r3, [r7, #24]
 8002f82:	1ad3      	subs	r3, r2, r3
 8002f84:	2b02      	cmp	r3, #2
 8002f86:	d901      	bls.n	8002f8c <HAL_RCC_OscConfig+0x254>
        {
          return HAL_TIMEOUT;
 8002f88:	2303      	movs	r3, #3
 8002f8a:	e1e0      	b.n	800334e <HAL_RCC_OscConfig+0x616>
      while(__HAL_RCC_GET_FLAG(RCC_FLAG_LSIRDY) == RESET)
 8002f8c:	4b35      	ldr	r3, [pc, #212]	@ (8003064 <HAL_RCC_OscConfig+0x32c>)
 8002f8e:	6a5b      	ldr	r3, [r3, #36]	@ 0x24
 8002f90:	2202      	movs	r2, #2
 8002f92:	4013      	ands	r3, r2
 8002f94:	d0f1      	beq.n	8002f7a <HAL_RCC_OscConfig+0x242>
 8002f96:	e018      	b.n	8002fca <HAL_RCC_OscConfig+0x292>
      }
    }
    else
    {
      /* Disable the Internal Low Speed oscillator (LSI). */
      __HAL_RCC_LSI_DISABLE();
 8002f98:	4b32      	ldr	r3, [pc, #200]	@ (8003064 <HAL_RCC_OscConfig+0x32c>)
 8002f9a:	6a5a      	ldr	r2, [r3, #36]	@ 0x24
 8002f9c:	4b31      	ldr	r3, [pc, #196]	@ (8003064 <HAL_RCC_OscConfig+0x32c>)
 8002f9e:	2101      	movs	r1, #1
 8002fa0:	438a      	bics	r2, r1
 8002fa2:	625a      	str	r2, [r3, #36]	@ 0x24
      
      /* Get Start Tick */
      tickstart = HAL_GetTick();
 8002fa4:	f7ff f9ea 	bl	800237c <HAL_GetTick>
 8002fa8:	0003      	movs	r3, r0
 8002faa:	61bb      	str	r3, [r7, #24]
      
      /* Wait till LSI is disabled */  
      while(__HAL_RCC_GET_FLAG(RCC_FLAG_LSIRDY) != RESET)
 8002fac:	e008      	b.n	8002fc0 <HAL_RCC_OscConfig+0x288>
      {
        if((HAL_GetTick() - tickstart ) > LSI_TIMEOUT_VALUE)
 8002fae:	f7ff f9e5 	bl	800237c <HAL_GetTick>
 8002fb2:	0002      	movs	r2, r0
 8002fb4:	69bb      	ldr	r3, [r7, #24]
 8002fb6:	1ad3      	subs	r3, r2, r3
 8002fb8:	2b02      	cmp	r3, #2
 8002fba:	d901      	bls.n	8002fc0 <HAL_RCC_OscConfig+0x288>
        {
          return HAL_TIMEOUT;
 8002fbc:	2303      	movs	r3, #3
 8002fbe:	e1c6      	b.n	800334e <HAL_RCC_OscConfig+0x616>
      while(__HAL_RCC_GET_FLAG(RCC_FLAG_LSIRDY) != RESET)
 8002fc0:	4b28      	ldr	r3, [pc, #160]	@ (8003064 <HAL_RCC_OscConfig+0x32c>)
 8002fc2:	6a5b      	ldr	r3, [r3, #36]	@ 0x24
 8002fc4:	2202      	movs	r2, #2
 8002fc6:	4013      	ands	r3, r2
 8002fc8:	d1f1      	bne.n	8002fae <HAL_RCC_OscConfig+0x276>
        }
      }
    }
  }
  /*------------------------------ LSE Configuration -------------------------*/ 
  if(((RCC_OscInitStruct->OscillatorType) & RCC_OSCILLATORTYPE_LSE) == RCC_OSCILLATORTYPE_LSE)
 8002fca:	687b      	ldr	r3, [r7, #4]
 8002fcc:	681b      	ldr	r3, [r3, #0]
 8002fce:	2204      	movs	r2, #4
 8002fd0:	4013      	ands	r3, r2
 8002fd2:	d100      	bne.n	8002fd6 <HAL_RCC_OscConfig+0x29e>
 8002fd4:	e0b4      	b.n	8003140 <HAL_RCC_OscConfig+0x408>
  {
    FlagStatus       pwrclkchanged = RESET;
 8002fd6:	201f      	movs	r0, #31
 8002fd8:	183b      	adds	r3, r7, r0
 8002fda:	2200      	movs	r2, #0
 8002fdc:	701a      	strb	r2, [r3, #0]
    /* Check the parameters */
    assert_param(IS_RCC_LSE(RCC_OscInitStruct->LSEState));

    /* Update LSE configuration in Backup Domain control register    */
    /* Requires to enable write access to Backup Domain of necessary */
    if(__HAL_RCC_PWR_IS_CLK_DISABLED())
 8002fde:	4b21      	ldr	r3, [pc, #132]	@ (8003064 <HAL_RCC_OscConfig+0x32c>)
 8002fe0:	69da      	ldr	r2, [r3, #28]
 8002fe2:	2380      	movs	r3, #128	@ 0x80
 8002fe4:	055b      	lsls	r3, r3, #21
 8002fe6:	4013      	ands	r3, r2
 8002fe8:	d110      	bne.n	800300c <HAL_RCC_OscConfig+0x2d4>
    {
      __HAL_RCC_PWR_CLK_ENABLE();
 8002fea:	4b1e      	ldr	r3, [pc, #120]	@ (8003064 <HAL_RCC_OscConfig+0x32c>)
 8002fec:	69da      	ldr	r2, [r3, #28]
 8002fee:	4b1d      	ldr	r3, [pc, #116]	@ (8003064 <HAL_RCC_OscConfig+0x32c>)
 8002ff0:	2180      	movs	r1, #128	@ 0x80
 8002ff2:	0549      	lsls	r1, r1, #21
 8002ff4:	430a      	orrs	r2, r1
 8002ff6:	61da      	str	r2, [r3, #28]
 8002ff8:	4b1a      	ldr	r3, [pc, #104]	@ (8003064 <HAL_RCC_OscConfig+0x32c>)
 8002ffa:	69da      	ldr	r2, [r3, #28]
 8002ffc:	2380      	movs	r3, #128	@ 0x80
 8002ffe:	055b      	lsls	r3, r3, #21
 8003000:	4013      	ands	r3, r2
 8003002:	60fb      	str	r3, [r7, #12]
 8003004:	68fb      	ldr	r3, [r7, #12]
      pwrclkchanged = SET;
 8003006:	183b      	adds	r3, r7, r0
 8003008:	2201      	movs	r2, #1
 800300a:	701a      	strb	r2, [r3, #0]
    }
    
    if(HAL_IS_BIT_CLR(PWR->CR, PWR_CR_DBP))
 800300c:	4b18      	ldr	r3, [pc, #96]	@ (8003070 <HAL_RCC_OscConfig+0x338>)
 800300e:	681a      	ldr	r2, [r3, #0]
 8003010:	2380      	movs	r3, #128	@ 0x80
 8003012:	005b      	lsls	r3, r3, #1
 8003014:	4013      	ands	r3, r2
 8003016:	d11a      	bne.n	800304e <HAL_RCC_OscConfig+0x316>
    {
      /* Enable write access to Backup domain */
      SET_BIT(PWR->CR, PWR_CR_DBP);
 8003018:	4b15      	ldr	r3, [pc, #84]	@ (8003070 <HAL_RCC_OscConfig+0x338>)
 800301a:	681a      	ldr	r2, [r3, #0]
 800301c:	4b14      	ldr	r3, [pc, #80]	@ (8003070 <HAL_RCC_OscConfig+0x338>)
 800301e:	2180      	movs	r1, #128	@ 0x80
 8003020:	0049      	lsls	r1, r1, #1
 8003022:	430a      	orrs	r2, r1
 8003024:	601a      	str	r2, [r3, #0]
      
      /* Wait for Backup domain Write protection disable */
      tickstart = HAL_GetTick();
 8003026:	f7ff f9a9 	bl	800237c <HAL_GetTick>
 800302a:	0003      	movs	r3, r0
 800302c:	61bb      	str	r3, [r7, #24]

      while(HAL_IS_BIT_CLR(PWR->CR, PWR_CR_DBP))
 800302e:	e008      	b.n	8003042 <HAL_RCC_OscConfig+0x30a>
      {
        if((HAL_GetTick() - tickstart) > RCC_DBP_TIMEOUT_VALUE)
 8003030:	f7ff f9a4 	bl	800237c <HAL_GetTick>
 8003034:	0002      	movs	r2, r0
 8003036:	69bb      	ldr	r3, [r7, #24]
 8003038:	1ad3      	subs	r3, r2, r3
 800303a:	2b64      	cmp	r3, #100	@ 0x64
 800303c:	d901      	bls.n	8003042 <HAL_RCC_OscConfig+0x30a>
        {
          return HAL_TIMEOUT;
 800303e:	2303      	movs	r3, #3
 8003040:	e185      	b.n	800334e <HAL_RCC_OscConfig+0x616>
      while(HAL_IS_BIT_CLR(PWR->CR, PWR_CR_DBP))
 8003042:	4b0b      	ldr	r3, [pc, #44]	@ (8003070 <HAL_RCC_OscConfig+0x338>)
 8003044:	681a      	ldr	r2, [r3, #0]
 8003046:	2380      	movs	r3, #128	@ 0x80
 8003048:	005b      	lsls	r3, r3, #1
 800304a:	4013      	ands	r3, r2
 800304c:	d0f0      	beq.n	8003030 <HAL_RCC_OscConfig+0x2f8>
        }
      }
    }

    /* Set the new LSE configuration -----------------------------------------*/
    __HAL_RCC_LSE_CONFIG(RCC_OscInitStruct->LSEState);
 800304e:	687b      	ldr	r3, [r7, #4]
 8003050:	689b      	ldr	r3, [r3, #8]
 8003052:	2b01      	cmp	r3, #1
 8003054:	d10e      	bne.n	8003074 <HAL_RCC_OscConfig+0x33c>
 8003056:	4b03      	ldr	r3, [pc, #12]	@ (8003064 <HAL_RCC_OscConfig+0x32c>)
 8003058:	6a1a      	ldr	r2, [r3, #32]
 800305a:	4b02      	ldr	r3, [pc, #8]	@ (8003064 <HAL_RCC_OscConfig+0x32c>)
 800305c:	2101      	movs	r1, #1
 800305e:	430a      	orrs	r2, r1
 8003060:	621a      	str	r2, [r3, #32]
 8003062:	e035      	b.n	80030d0 <HAL_RCC_OscConfig+0x398>
 8003064:	40021000 	.word	0x40021000
 8003068:	fffeffff 	.word	0xfffeffff
 800306c:	fffbffff 	.word	0xfffbffff
 8003070:	40007000 	.word	0x40007000
 8003074:	687b      	ldr	r3, [r7, #4]
 8003076:	689b      	ldr	r3, [r3, #8]
 8003078:	2b00      	cmp	r3, #0
 800307a:	d10c      	bne.n	8003096 <HAL_RCC_OscConfig+0x35e>
 800307c:	4bb6      	ldr	r3, [pc, #728]	@ (8003358 <HAL_RCC_OscConfig+0x620>)
 800307e:	6a1a      	ldr	r2, [r3, #32]
 8003080:	4bb5      	ldr	r3, [pc, #724]	@ (8003358 <HAL_RCC_OscConfig+0x620>)
 8003082:	2101      	movs	r1, #1
 8003084:	438a      	bics	r2, r1
 8003086:	621a      	str	r2, [r3, #32]
 8003088:	4bb3      	ldr	r3, [pc, #716]	@ (8003358 <HAL_RCC_OscConfig+0x620>)
 800308a:	6a1a      	ldr	r2, [r3, #32]
 800308c:	4bb2      	ldr	r3, [pc, #712]	@ (8003358 <HAL_RCC_OscConfig+0x620>)
 800308e:	2104      	movs	r1, #4
 8003090:	438a      	bics	r2, r1
 8003092:	621a      	str	r2, [r3, #32]
 8003094:	e01c      	b.n	80030d0 <HAL_RCC_OscConfig+0x398>
 8003096:	687b      	ldr	r3, [r7, #4]
 8003098:	689b      	ldr	r3, [r3, #8]
 800309a:	2b05      	cmp	r3, #5
 800309c:	d10c      	bne.n	80030b8 <HAL_RCC_OscConfig+0x380>
 800309e:	4bae      	ldr	r3, [pc, #696]	@ (8003358 <HAL_RCC_OscConfig+0x620>)
 80030a0:	6a1a      	ldr	r2, [r3, #32]
 80030a2:	4bad      	ldr	r3, [pc, #692]	@ (8003358 <HAL_RCC_OscConfig+0x620>)
 80030a4:	2104      	movs	r1, #4
 80030a6:	430a      	orrs	r2, r1
 80030a8:	621a      	str	r2, [r3, #32]
 80030aa:	4bab      	ldr	r3, [pc, #684]	@ (8003358 <HAL_RCC_OscConfig+0x620>)
 80030ac:	6a1a      	ldr	r2, [r3, #32]
 80030ae:	4baa      	ldr	r3, [pc, #680]	@ (8003358 <HAL_RCC_OscConfig+0x620>)
 80030b0:	2101      	movs	r1, #1
 80030b2:	430a      	orrs	r2, r1
 80030b4:	621a      	str	r2, [r3, #32]
 80030b6:	e00b      	b.n	80030d0 <HAL_RCC_OscConfig+0x398>
 80030b8:	4ba7      	ldr	r3, [pc, #668]	@ (8003358 <HAL_RCC_OscConfig+0x620>)
 80030ba:	6a1a      	ldr	r2, [r3, #32]
 80030bc:	4ba6      	ldr	r3, [pc, #664]	@ (8003358 <HAL_RCC_OscConfig+0x620>)
 80030be:	2101      	movs	r1, #1
 80030c0:	438a      	bics	r2, r1
 80030c2:	621a      	str	r2, [r3, #32]
 80030c4:	4ba4      	ldr	r3, [pc, #656]	@ (8003358 <HAL_RCC_OscConfig+0x620>)
 80030c6:	6a1a      	ldr	r2, [r3, #32]
 80030c8:	4ba3      	ldr	r3, [pc, #652]	@ (8003358 <HAL_RCC_OscConfig+0x620>)
 80030ca:	2104      	movs	r1, #4
 80030cc:	438a      	bics	r2, r1
 80030ce:	621a      	str	r2, [r3, #32]
    /* Check the LSE State */
    if(RCC_OscInitStruct->LSEState != RCC_LSE_OFF)
 80030d0:	687b      	ldr	r3, [r7, #4]
 80030d2:	689b      	ldr	r3, [r3, #8]
 80030d4:	2b00      	cmp	r3, #0
 80030d6:	d014      	beq.n	8003102 <HAL_RCC_OscConfig+0x3ca>
    {
      /* Get Start Tick */
      tickstart = HAL_GetTick();
 80030d8:	f7ff f950 	bl	800237c <HAL_GetTick>
 80030dc:	0003      	movs	r3, r0
 80030de:	61bb      	str	r3, [r7, #24]
      
      /* Wait till LSE is ready */  
      while(__HAL_RCC_GET_FLAG(RCC_FLAG_LSERDY) == RESET)
 80030e0:	e009      	b.n	80030f6 <HAL_RCC_OscConfig+0x3be>
      {
        if((HAL_GetTick() - tickstart ) > RCC_LSE_TIMEOUT_VALUE)
 80030e2:	f7ff f94b 	bl	800237c <HAL_GetTick>
 80030e6:	0002      	movs	r2, r0
 80030e8:	69bb      	ldr	r3, [r7, #24]
 80030ea:	1ad3      	subs	r3, r2, r3
 80030ec:	4a9b      	ldr	r2, [pc, #620]	@ (800335c <HAL_RCC_OscConfig+0x624>)
 80030ee:	4293      	cmp	r3, r2
 80030f0:	d901      	bls.n	80030f6 <HAL_RCC_OscConfig+0x3be>
        {
          return HAL_TIMEOUT;
 80030f2:	2303      	movs	r3, #3
 80030f4:	e12b      	b.n	800334e <HAL_RCC_OscConfig+0x616>
      while(__HAL_RCC_GET_FLAG(RCC_FLAG_LSERDY) == RESET)
 80030f6:	4b98      	ldr	r3, [pc, #608]	@ (8003358 <HAL_RCC_OscConfig+0x620>)
 80030f8:	6a1b      	ldr	r3, [r3, #32]
 80030fa:	2202      	movs	r2, #2
 80030fc:	4013      	ands	r3, r2
 80030fe:	d0f0      	beq.n	80030e2 <HAL_RCC_OscConfig+0x3aa>
 8003100:	e013      	b.n	800312a <HAL_RCC_OscConfig+0x3f2>
      }
    }
    else
    {
      /* Get Start Tick */
      tickstart = HAL_GetTick();
 8003102:	f7ff f93b 	bl	800237c <HAL_GetTick>
 8003106:	0003      	movs	r3, r0
 8003108:	61bb      	str	r3, [r7, #24]
      
      /* Wait till LSE is disabled */  
      while(__HAL_RCC_GET_FLAG(RCC_FLAG_LSERDY) != RESET)
 800310a:	e009      	b.n	8003120 <HAL_RCC_OscConfig+0x3e8>
      {
        if((HAL_GetTick() - tickstart ) > RCC_LSE_TIMEOUT_VALUE)
 800310c:	f7ff f936 	bl	800237c <HAL_GetTick>
 8003110:	0002      	movs	r2, r0
 8003112:	69bb      	ldr	r3, [r7, #24]
 8003114:	1ad3      	subs	r3, r2, r3
 8003116:	4a91      	ldr	r2, [pc, #580]	@ (800335c <HAL_RCC_OscConfig+0x624>)
 8003118:	4293      	cmp	r3, r2
 800311a:	d901      	bls.n	8003120 <HAL_RCC_OscConfig+0x3e8>
        {
          return HAL_TIMEOUT;
 800311c:	2303      	movs	r3, #3
 800311e:	e116      	b.n	800334e <HAL_RCC_OscConfig+0x616>
      while(__HAL_RCC_GET_FLAG(RCC_FLAG_LSERDY) != RESET)
 8003120:	4b8d      	ldr	r3, [pc, #564]	@ (8003358 <HAL_RCC_OscConfig+0x620>)
 8003122:	6a1b      	ldr	r3, [r3, #32]
 8003124:	2202      	movs	r2, #2
 8003126:	4013      	ands	r3, r2
 8003128:	d1f0      	bne.n	800310c <HAL_RCC_OscConfig+0x3d4>
        }
      }
    }

    /* Require to disable power clock if necessary */
    if(pwrclkchanged == SET)
 800312a:	231f      	movs	r3, #31
 800312c:	18fb      	adds	r3, r7, r3
 800312e:	781b      	ldrb	r3, [r3, #0]
 8003130:	2b01      	cmp	r3, #1
 8003132:	d105      	bne.n	8003140 <HAL_RCC_OscConfig+0x408>
    {
      __HAL_RCC_PWR_CLK_DISABLE();
 8003134:	4b88      	ldr	r3, [pc, #544]	@ (8003358 <HAL_RCC_OscConfig+0x620>)
 8003136:	69da      	ldr	r2, [r3, #28]
 8003138:	4b87      	ldr	r3, [pc, #540]	@ (8003358 <HAL_RCC_OscConfig+0x620>)
 800313a:	4989      	ldr	r1, [pc, #548]	@ (8003360 <HAL_RCC_OscConfig+0x628>)
 800313c:	400a      	ands	r2, r1
 800313e:	61da      	str	r2, [r3, #28]
    }
  }

  /*----------------------------- HSI14 Configuration --------------------------*/
  if(((RCC_OscInitStruct->OscillatorType) & RCC_OSCILLATORTYPE_HSI14) == RCC_OSCILLATORTYPE_HSI14)
 8003140:	687b      	ldr	r3, [r7, #4]
 8003142:	681b      	ldr	r3, [r3, #0]
 8003144:	2210      	movs	r2, #16
 8003146:	4013      	ands	r3, r2
 8003148:	d063      	beq.n	8003212 <HAL_RCC_OscConfig+0x4da>
    /* Check the parameters */
    assert_param(IS_RCC_HSI14(RCC_OscInitStruct->HSI14State));
    assert_param(IS_RCC_CALIBRATION_VALUE(RCC_OscInitStruct->HSI14CalibrationValue));

    /* Check the HSI14 State */
    if(RCC_OscInitStruct->HSI14State == RCC_HSI14_ON)
 800314a:	687b      	ldr	r3, [r7, #4]
 800314c:	695b      	ldr	r3, [r3, #20]
 800314e:	2b01      	cmp	r3, #1
 8003150:	d12a      	bne.n	80031a8 <HAL_RCC_OscConfig+0x470>
    {
      /* Disable ADC control of the Internal High Speed oscillator HSI14 */
      __HAL_RCC_HSI14ADC_DISABLE();
 8003152:	4b81      	ldr	r3, [pc, #516]	@ (8003358 <HAL_RCC_OscConfig+0x620>)
 8003154:	6b5a      	ldr	r2, [r3, #52]	@ 0x34
 8003156:	4b80      	ldr	r3, [pc, #512]	@ (8003358 <HAL_RCC_OscConfig+0x620>)
 8003158:	2104      	movs	r1, #4
 800315a:	430a      	orrs	r2, r1
 800315c:	635a      	str	r2, [r3, #52]	@ 0x34

      /* Enable the Internal High Speed oscillator (HSI). */
      __HAL_RCC_HSI14_ENABLE();
 800315e:	4b7e      	ldr	r3, [pc, #504]	@ (8003358 <HAL_RCC_OscConfig+0x620>)
 8003160:	6b5a      	ldr	r2, [r3, #52]	@ 0x34
 8003162:	4b7d      	ldr	r3, [pc, #500]	@ (8003358 <HAL_RCC_OscConfig+0x620>)
 8003164:	2101      	movs	r1, #1
 8003166:	430a      	orrs	r2, r1
 8003168:	635a      	str	r2, [r3, #52]	@ 0x34

      /* Get Start Tick */
      tickstart = HAL_GetTick();
 800316a:	f7ff f907 	bl	800237c <HAL_GetTick>
 800316e:	0003      	movs	r3, r0
 8003170:	61bb      	str	r3, [r7, #24]
      
      /* Wait till HSI is ready */  
      while(__HAL_RCC_GET_FLAG(RCC_FLAG_HSI14RDY) == RESET)
 8003172:	e008      	b.n	8003186 <HAL_RCC_OscConfig+0x44e>
      {
        if((HAL_GetTick() - tickstart) > HSI14_TIMEOUT_VALUE)
 8003174:	f7ff f902 	bl	800237c <HAL_GetTick>
 8003178:	0002      	movs	r2, r0
 800317a:	69bb      	ldr	r3, [r7, #24]
 800317c:	1ad3      	subs	r3, r2, r3
 800317e:	2b02      	cmp	r3, #2
 8003180:	d901      	bls.n	8003186 <HAL_RCC_OscConfig+0x44e>
        {
          return HAL_TIMEOUT;
 8003182:	2303      	movs	r3, #3
 8003184:	e0e3      	b.n	800334e <HAL_RCC_OscConfig+0x616>
      while(__HAL_RCC_GET_FLAG(RCC_FLAG_HSI14RDY) == RESET)
 8003186:	4b74      	ldr	r3, [pc, #464]	@ (8003358 <HAL_RCC_OscConfig+0x620>)
 8003188:	6b5b      	ldr	r3, [r3, #52]	@ 0x34
 800318a:	2202      	movs	r2, #2
 800318c:	4013      	ands	r3, r2
 800318e:	d0f1      	beq.n	8003174 <HAL_RCC_OscConfig+0x43c>
        }      
      } 

      /* Adjusts the Internal High Speed oscillator 14Mhz (HSI14) calibration value. */
      __HAL_RCC_HSI14_CALIBRATIONVALUE_ADJUST(RCC_OscInitStruct->HSI14CalibrationValue);
 8003190:	4b71      	ldr	r3, [pc, #452]	@ (8003358 <HAL_RCC_OscConfig+0x620>)
 8003192:	6b5b      	ldr	r3, [r3, #52]	@ 0x34
 8003194:	22f8      	movs	r2, #248	@ 0xf8
 8003196:	4393      	bics	r3, r2
 8003198:	0019      	movs	r1, r3
 800319a:	687b      	ldr	r3, [r7, #4]
 800319c:	699b      	ldr	r3, [r3, #24]
 800319e:	00da      	lsls	r2, r3, #3
 80031a0:	4b6d      	ldr	r3, [pc, #436]	@ (8003358 <HAL_RCC_OscConfig+0x620>)
 80031a2:	430a      	orrs	r2, r1
 80031a4:	635a      	str	r2, [r3, #52]	@ 0x34
 80031a6:	e034      	b.n	8003212 <HAL_RCC_OscConfig+0x4da>
    }
    else if(RCC_OscInitStruct->HSI14State == RCC_HSI14_ADC_CONTROL)
 80031a8:	687b      	ldr	r3, [r7, #4]
 80031aa:	695b      	ldr	r3, [r3, #20]
 80031ac:	3305      	adds	r3, #5
 80031ae:	d111      	bne.n	80031d4 <HAL_RCC_OscConfig+0x49c>
    {
      /* Enable ADC control of the Internal High Speed oscillator HSI14 */
      __HAL_RCC_HSI14ADC_ENABLE();
 80031b0:	4b69      	ldr	r3, [pc, #420]	@ (8003358 <HAL_RCC_OscConfig+0x620>)
 80031b2:	6b5a      	ldr	r2, [r3, #52]	@ 0x34
 80031b4:	4b68      	ldr	r3, [pc, #416]	@ (8003358 <HAL_RCC_OscConfig+0x620>)
 80031b6:	2104      	movs	r1, #4
 80031b8:	438a      	bics	r2, r1
 80031ba:	635a      	str	r2, [r3, #52]	@ 0x34

      /* Adjusts the Internal High Speed oscillator 14Mhz (HSI14) calibration value. */
      __HAL_RCC_HSI14_CALIBRATIONVALUE_ADJUST(RCC_OscInitStruct->HSI14CalibrationValue);
 80031bc:	4b66      	ldr	r3, [pc, #408]	@ (8003358 <HAL_RCC_OscConfig+0x620>)
 80031be:	6b5b      	ldr	r3, [r3, #52]	@ 0x34
 80031c0:	22f8      	movs	r2, #248	@ 0xf8
 80031c2:	4393      	bics	r3, r2
 80031c4:	0019      	movs	r1, r3
 80031c6:	687b      	ldr	r3, [r7, #4]
 80031c8:	699b      	ldr	r3, [r3, #24]
 80031ca:	00da      	lsls	r2, r3, #3
 80031cc:	4b62      	ldr	r3, [pc, #392]	@ (8003358 <HAL_RCC_OscConfig+0x620>)
 80031ce:	430a      	orrs	r2, r1
 80031d0:	635a      	str	r2, [r3, #52]	@ 0x34
 80031d2:	e01e      	b.n	8003212 <HAL_RCC_OscConfig+0x4da>
    }
    else
    {
      /* Disable ADC control of the Internal High Speed oscillator HSI14 */
      __HAL_RCC_HSI14ADC_DISABLE();
 80031d4:	4b60      	ldr	r3, [pc, #384]	@ (8003358 <HAL_RCC_OscConfig+0x620>)
 80031d6:	6b5a      	ldr	r2, [r3, #52]	@ 0x34
 80031d8:	4b5f      	ldr	r3, [pc, #380]	@ (8003358 <HAL_RCC_OscConfig+0x620>)
 80031da:	2104      	movs	r1, #4
 80031dc:	430a      	orrs	r2, r1
 80031de:	635a      	str	r2, [r3, #52]	@ 0x34

      /* Disable the Internal High Speed oscillator (HSI). */
      __HAL_RCC_HSI14_DISABLE();
 80031e0:	4b5d      	ldr	r3, [pc, #372]	@ (8003358 <HAL_RCC_OscConfig+0x620>)
 80031e2:	6b5a      	ldr	r2, [r3, #52]	@ 0x34
 80031e4:	4b5c      	ldr	r3, [pc, #368]	@ (8003358 <HAL_RCC_OscConfig+0x620>)
 80031e6:	2101      	movs	r1, #1
 80031e8:	438a      	bics	r2, r1
 80031ea:	635a      	str	r2, [r3, #52]	@ 0x34

      /* Get Start Tick */
      tickstart = HAL_GetTick();
 80031ec:	f7ff f8c6 	bl	800237c <HAL_GetTick>
 80031f0:	0003      	movs	r3, r0
 80031f2:	61bb      	str	r3, [r7, #24]
      
      /* Wait till HSI is ready */  
      while(__HAL_RCC_GET_FLAG(RCC_FLAG_HSI14RDY) != RESET)
 80031f4:	e008      	b.n	8003208 <HAL_RCC_OscConfig+0x4d0>
      {
        if((HAL_GetTick() - tickstart) > HSI14_TIMEOUT_VALUE)
 80031f6:	f7ff f8c1 	bl	800237c <HAL_GetTick>
 80031fa:	0002      	movs	r2, r0
 80031fc:	69bb      	ldr	r3, [r7, #24]
 80031fe:	1ad3      	subs	r3, r2, r3
 8003200:	2b02      	cmp	r3, #2
 8003202:	d901      	bls.n	8003208 <HAL_RCC_OscConfig+0x4d0>
        {
          return HAL_TIMEOUT;
 8003204:	2303      	movs	r3, #3
 8003206:	e0a2      	b.n	800334e <HAL_RCC_OscConfig+0x616>
      while(__HAL_RCC_GET_FLAG(RCC_FLAG_HSI14RDY) != RESET)
 8003208:	4b53      	ldr	r3, [pc, #332]	@ (8003358 <HAL_RCC_OscConfig+0x620>)
 800320a:	6b5b      	ldr	r3, [r3, #52]	@ 0x34
 800320c:	2202      	movs	r2, #2
 800320e:	4013      	ands	r3, r2
 8003210:	d1f1      	bne.n	80031f6 <HAL_RCC_OscConfig+0x4be>
#endif /* RCC_HSI48_SUPPORT */
       
  /*-------------------------------- PLL Configuration -----------------------*/
  /* Check the parameters */
  assert_param(IS_RCC_PLL(RCC_OscInitStruct->PLL.PLLState));
  if ((RCC_OscInitStruct->PLL.PLLState) != RCC_PLL_NONE)
 8003212:	687b      	ldr	r3, [r7, #4]
 8003214:	6a1b      	ldr	r3, [r3, #32]
 8003216:	2b00      	cmp	r3, #0
 8003218:	d100      	bne.n	800321c <HAL_RCC_OscConfig+0x4e4>
 800321a:	e097      	b.n	800334c <HAL_RCC_OscConfig+0x614>
  {
    /* Check if the PLL is used as system clock or not */
    if(__HAL_RCC_GET_SYSCLK_SOURCE() != RCC_SYSCLKSOURCE_STATUS_PLLCLK)
 800321c:	4b4e      	ldr	r3, [pc, #312]	@ (8003358 <HAL_RCC_OscConfig+0x620>)
 800321e:	685b      	ldr	r3, [r3, #4]
 8003220:	220c      	movs	r2, #12
 8003222:	4013      	ands	r3, r2
 8003224:	2b08      	cmp	r3, #8
 8003226:	d100      	bne.n	800322a <HAL_RCC_OscConfig+0x4f2>
 8003228:	e06b      	b.n	8003302 <HAL_RCC_OscConfig+0x5ca>
    { 
      if((RCC_OscInitStruct->PLL.PLLState) == RCC_PLL_ON)
 800322a:	687b      	ldr	r3, [r7, #4]
 800322c:	6a1b      	ldr	r3, [r3, #32]
 800322e:	2b02      	cmp	r3, #2
 8003230:	d14c      	bne.n	80032cc <HAL_RCC_OscConfig+0x594>
        assert_param(IS_RCC_PLLSOURCE(RCC_OscInitStruct->PLL.PLLSource));
        assert_param(IS_RCC_PLL_MUL(RCC_OscInitStruct->PLL.PLLMUL));
        assert_param(IS_RCC_PREDIV(RCC_OscInitStruct->PLL.PREDIV));
  
        /* Disable the main PLL. */
        __HAL_RCC_PLL_DISABLE();
 8003232:	4b49      	ldr	r3, [pc, #292]	@ (8003358 <HAL_RCC_OscConfig+0x620>)
 8003234:	681a      	ldr	r2, [r3, #0]
 8003236:	4b48      	ldr	r3, [pc, #288]	@ (8003358 <HAL_RCC_OscConfig+0x620>)
 8003238:	494a      	ldr	r1, [pc, #296]	@ (8003364 <HAL_RCC_OscConfig+0x62c>)
 800323a:	400a      	ands	r2, r1
 800323c:	601a      	str	r2, [r3, #0]
        
        /* Get Start Tick */
        tickstart = HAL_GetTick();
 800323e:	f7ff f89d 	bl	800237c <HAL_GetTick>
 8003242:	0003      	movs	r3, r0
 8003244:	61bb      	str	r3, [r7, #24]
        
        /* Wait till PLL is disabled */
        while(__HAL_RCC_GET_FLAG(RCC_FLAG_PLLRDY)  != RESET)
 8003246:	e008      	b.n	800325a <HAL_RCC_OscConfig+0x522>
        {
          if((HAL_GetTick() - tickstart ) > PLL_TIMEOUT_VALUE)
 8003248:	f7ff f898 	bl	800237c <HAL_GetTick>
 800324c:	0002      	movs	r2, r0
 800324e:	69bb      	ldr	r3, [r7, #24]
 8003250:	1ad3      	subs	r3, r2, r3
 8003252:	2b02      	cmp	r3, #2
 8003254:	d901      	bls.n	800325a <HAL_RCC_OscConfig+0x522>
          {
            return HAL_TIMEOUT;
 8003256:	2303      	movs	r3, #3
 8003258:	e079      	b.n	800334e <HAL_RCC_OscConfig+0x616>
        while(__HAL_RCC_GET_FLAG(RCC_FLAG_PLLRDY)  != RESET)
 800325a:	4b3f      	ldr	r3, [pc, #252]	@ (8003358 <HAL_RCC_OscConfig+0x620>)
 800325c:	681a      	ldr	r2, [r3, #0]
 800325e:	2380      	movs	r3, #128	@ 0x80
 8003260:	049b      	lsls	r3, r3, #18
 8003262:	4013      	ands	r3, r2
 8003264:	d1f0      	bne.n	8003248 <HAL_RCC_OscConfig+0x510>
          }
        }

        /* Configure the main PLL clock source, predivider and multiplication factor. */
        __HAL_RCC_PLL_CONFIG(RCC_OscInitStruct->PLL.PLLSource,
 8003266:	4b3c      	ldr	r3, [pc, #240]	@ (8003358 <HAL_RCC_OscConfig+0x620>)
 8003268:	6adb      	ldr	r3, [r3, #44]	@ 0x2c
 800326a:	220f      	movs	r2, #15
 800326c:	4393      	bics	r3, r2
 800326e:	0019      	movs	r1, r3
 8003270:	687b      	ldr	r3, [r7, #4]
 8003272:	6ada      	ldr	r2, [r3, #44]	@ 0x2c
 8003274:	4b38      	ldr	r3, [pc, #224]	@ (8003358 <HAL_RCC_OscConfig+0x620>)
 8003276:	430a      	orrs	r2, r1
 8003278:	62da      	str	r2, [r3, #44]	@ 0x2c
 800327a:	4b37      	ldr	r3, [pc, #220]	@ (8003358 <HAL_RCC_OscConfig+0x620>)
 800327c:	685b      	ldr	r3, [r3, #4]
 800327e:	4a3a      	ldr	r2, [pc, #232]	@ (8003368 <HAL_RCC_OscConfig+0x630>)
 8003280:	4013      	ands	r3, r2
 8003282:	0019      	movs	r1, r3
 8003284:	687b      	ldr	r3, [r7, #4]
 8003286:	6a9a      	ldr	r2, [r3, #40]	@ 0x28
 8003288:	687b      	ldr	r3, [r7, #4]
 800328a:	6a5b      	ldr	r3, [r3, #36]	@ 0x24
 800328c:	431a      	orrs	r2, r3
 800328e:	4b32      	ldr	r3, [pc, #200]	@ (8003358 <HAL_RCC_OscConfig+0x620>)
 8003290:	430a      	orrs	r2, r1
 8003292:	605a      	str	r2, [r3, #4]
                             RCC_OscInitStruct->PLL.PREDIV,
                             RCC_OscInitStruct->PLL.PLLMUL);
        /* Enable the main PLL. */
        __HAL_RCC_PLL_ENABLE();
 8003294:	4b30      	ldr	r3, [pc, #192]	@ (8003358 <HAL_RCC_OscConfig+0x620>)
 8003296:	681a      	ldr	r2, [r3, #0]
 8003298:	4b2f      	ldr	r3, [pc, #188]	@ (8003358 <HAL_RCC_OscConfig+0x620>)
 800329a:	2180      	movs	r1, #128	@ 0x80
 800329c:	0449      	lsls	r1, r1, #17
 800329e:	430a      	orrs	r2, r1
 80032a0:	601a      	str	r2, [r3, #0]
        
        /* Get Start Tick */
        tickstart = HAL_GetTick();
 80032a2:	f7ff f86b 	bl	800237c <HAL_GetTick>
 80032a6:	0003      	movs	r3, r0
 80032a8:	61bb      	str	r3, [r7, #24]
        
        /* Wait till PLL is ready */
        while(__HAL_RCC_GET_FLAG(RCC_FLAG_PLLRDY)  == RESET)
 80032aa:	e008      	b.n	80032be <HAL_RCC_OscConfig+0x586>
        {
          if((HAL_GetTick() - tickstart ) > PLL_TIMEOUT_VALUE)
 80032ac:	f7ff f866 	bl	800237c <HAL_GetTick>
 80032b0:	0002      	movs	r2, r0
 80032b2:	69bb      	ldr	r3, [r7, #24]
 80032b4:	1ad3      	subs	r3, r2, r3
 80032b6:	2b02      	cmp	r3, #2
 80032b8:	d901      	bls.n	80032be <HAL_RCC_OscConfig+0x586>
          {
            return HAL_TIMEOUT;
 80032ba:	2303      	movs	r3, #3
 80032bc:	e047      	b.n	800334e <HAL_RCC_OscConfig+0x616>
        while(__HAL_RCC_GET_FLAG(RCC_FLAG_PLLRDY)  == RESET)
 80032be:	4b26      	ldr	r3, [pc, #152]	@ (8003358 <HAL_RCC_OscConfig+0x620>)
 80032c0:	681a      	ldr	r2, [r3, #0]
 80032c2:	2380      	movs	r3, #128	@ 0x80
 80032c4:	049b      	lsls	r3, r3, #18
 80032c6:	4013      	ands	r3, r2
 80032c8:	d0f0      	beq.n	80032ac <HAL_RCC_OscConfig+0x574>
 80032ca:	e03f      	b.n	800334c <HAL_RCC_OscConfig+0x614>
        }
      }
      else
      {
        /* Disable the main PLL. */
        __HAL_RCC_PLL_DISABLE();
 80032cc:	4b22      	ldr	r3, [pc, #136]	@ (8003358 <HAL_RCC_OscConfig+0x620>)
 80032ce:	681a      	ldr	r2, [r3, #0]
 80032d0:	4b21      	ldr	r3, [pc, #132]	@ (8003358 <HAL_RCC_OscConfig+0x620>)
 80032d2:	4924      	ldr	r1, [pc, #144]	@ (8003364 <HAL_RCC_OscConfig+0x62c>)
 80032d4:	400a      	ands	r2, r1
 80032d6:	601a      	str	r2, [r3, #0]
 
        /* Get Start Tick */
        tickstart = HAL_GetTick();
 80032d8:	f7ff f850 	bl	800237c <HAL_GetTick>
 80032dc:	0003      	movs	r3, r0
 80032de:	61bb      	str	r3, [r7, #24]
        
        /* Wait till PLL is disabled */  
        while(__HAL_RCC_GET_FLAG(RCC_FLAG_PLLRDY)  != RESET)
 80032e0:	e008      	b.n	80032f4 <HAL_RCC_OscConfig+0x5bc>
        {
          if((HAL_GetTick() - tickstart ) > PLL_TIMEOUT_VALUE)
 80032e2:	f7ff f84b 	bl	800237c <HAL_GetTick>
 80032e6:	0002      	movs	r2, r0
 80032e8:	69bb      	ldr	r3, [r7, #24]
 80032ea:	1ad3      	subs	r3, r2, r3
 80032ec:	2b02      	cmp	r3, #2
 80032ee:	d901      	bls.n	80032f4 <HAL_RCC_OscConfig+0x5bc>
          {
            return HAL_TIMEOUT;
 80032f0:	2303      	movs	r3, #3
 80032f2:	e02c      	b.n	800334e <HAL_RCC_OscConfig+0x616>
        while(__HAL_RCC_GET_FLAG(RCC_FLAG_PLLRDY)  != RESET)
 80032f4:	4b18      	ldr	r3, [pc, #96]	@ (8003358 <HAL_RCC_OscConfig+0x620>)
 80032f6:	681a      	ldr	r2, [r3, #0]
 80032f8:	2380      	movs	r3, #128	@ 0x80
 80032fa:	049b      	lsls	r3, r3, #18
 80032fc:	4013      	ands	r3, r2
 80032fe:	d1f0      	bne.n	80032e2 <HAL_RCC_OscConfig+0x5aa>
 8003300:	e024      	b.n	800334c <HAL_RCC_OscConfig+0x614>
      }
    }
    else
    {
      /* Check if there is a request to disable the PLL used as System clock source */
      if((RCC_OscInitStruct->PLL.PLLState) == RCC_PLL_OFF)
 8003302:	687b      	ldr	r3, [r7, #4]
 8003304:	6a1b      	ldr	r3, [r3, #32]
 8003306:	2b01      	cmp	r3, #1
 8003308:	d101      	bne.n	800330e <HAL_RCC_OscConfig+0x5d6>
      {
        return HAL_ERROR;
 800330a:	2301      	movs	r3, #1
 800330c:	e01f      	b.n	800334e <HAL_RCC_OscConfig+0x616>
      }
      else
      {
        /* Do not return HAL_ERROR if request repeats the current configuration */
        pll_config  = RCC->CFGR;
 800330e:	4b12      	ldr	r3, [pc, #72]	@ (8003358 <HAL_RCC_OscConfig+0x620>)
 8003310:	685b      	ldr	r3, [r3, #4]
 8003312:	617b      	str	r3, [r7, #20]
        pll_config2 = RCC->CFGR2;
 8003314:	4b10      	ldr	r3, [pc, #64]	@ (8003358 <HAL_RCC_OscConfig+0x620>)
 8003316:	6adb      	ldr	r3, [r3, #44]	@ 0x2c
 8003318:	613b      	str	r3, [r7, #16]
        if((READ_BIT(pll_config,  RCC_CFGR_PLLSRC)  != RCC_OscInitStruct->PLL.PLLSource) ||
 800331a:	697a      	ldr	r2, [r7, #20]
 800331c:	2380      	movs	r3, #128	@ 0x80
 800331e:	025b      	lsls	r3, r3, #9
 8003320:	401a      	ands	r2, r3
 8003322:	687b      	ldr	r3, [r7, #4]
 8003324:	6a5b      	ldr	r3, [r3, #36]	@ 0x24
 8003326:	429a      	cmp	r2, r3
 8003328:	d10e      	bne.n	8003348 <HAL_RCC_OscConfig+0x610>
           (READ_BIT(pll_config2, RCC_CFGR2_PREDIV) != RCC_OscInitStruct->PLL.PREDIV)    ||
 800332a:	693b      	ldr	r3, [r7, #16]
 800332c:	220f      	movs	r2, #15
 800332e:	401a      	ands	r2, r3
 8003330:	687b      	ldr	r3, [r7, #4]
 8003332:	6adb      	ldr	r3, [r3, #44]	@ 0x2c
        if((READ_BIT(pll_config,  RCC_CFGR_PLLSRC)  != RCC_OscInitStruct->PLL.PLLSource) ||
 8003334:	429a      	cmp	r2, r3
 8003336:	d107      	bne.n	8003348 <HAL_RCC_OscConfig+0x610>
           (READ_BIT(pll_config,  RCC_CFGR_PLLMUL)  != RCC_OscInitStruct->PLL.PLLMUL))
 8003338:	697a      	ldr	r2, [r7, #20]
 800333a:	23f0      	movs	r3, #240	@ 0xf0
 800333c:	039b      	lsls	r3, r3, #14
 800333e:	401a      	ands	r2, r3
 8003340:	687b      	ldr	r3, [r7, #4]
 8003342:	6a9b      	ldr	r3, [r3, #40]	@ 0x28
           (READ_BIT(pll_config2, RCC_CFGR2_PREDIV) != RCC_OscInitStruct->PLL.PREDIV)    ||
 8003344:	429a      	cmp	r2, r3
 8003346:	d001      	beq.n	800334c <HAL_RCC_OscConfig+0x614>
        {
          return HAL_ERROR;
 8003348:	2301      	movs	r3, #1
 800334a:	e000      	b.n	800334e <HAL_RCC_OscConfig+0x616>
        }
      }
    }
  }

  return HAL_OK;
 800334c:	2300      	movs	r3, #0
}
 800334e:	0018      	movs	r0, r3
 8003350:	46bd      	mov	sp, r7
 8003352:	b008      	add	sp, #32
 8003354:	bd80      	pop	{r7, pc}
 8003356:	46c0      	nop			@ (mov r8, r8)
 8003358:	40021000 	.word	0x40021000
 800335c:	00001388 	.word	0x00001388
 8003360:	efffffff 	.word	0xefffffff
 8003364:	feffffff 	.word	0xfeffffff
 8003368:	ffc2ffff 	.word	0xffc2ffff

0800336c <HAL_RCC_ClockConfig>:
  *         You can use @ref HAL_RCC_GetClockConfig() function to know which clock is
  *         currently used as system clock source.
  * @retval HAL status
  */
HAL_StatusTypeDef HAL_RCC_ClockConfig(RCC_ClkInitTypeDef  *RCC_ClkInitStruct, uint32_t FLatency)
{
 800336c:	b580      	push	{r7, lr}
 800336e:	b084      	sub	sp, #16
 8003370:	af00      	add	r7, sp, #0
 8003372:	6078      	str	r0, [r7, #4]
 8003374:	6039      	str	r1, [r7, #0]
  uint32_t tickstart;

  /* Check Null pointer */
  if(RCC_ClkInitStruct == NULL)
 8003376:	687b      	ldr	r3, [r7, #4]
 8003378:	2b00      	cmp	r3, #0
 800337a:	d101      	bne.n	8003380 <HAL_RCC_ClockConfig+0x14>
  {
    return HAL_ERROR;
 800337c:	2301      	movs	r3, #1
 800337e:	e0b3      	b.n	80034e8 <HAL_RCC_ClockConfig+0x17c>
  /* To correctly read data from FLASH memory, the number of wait states (LATENCY) 
  must be correctly programmed according to the frequency of the CPU clock 
    (HCLK) of the device. */

  /* Increasing the number of wait states because of higher CPU frequency */
  if(FLatency > __HAL_FLASH_GET_LATENCY())
 8003380:	4b5b      	ldr	r3, [pc, #364]	@ (80034f0 <HAL_RCC_ClockConfig+0x184>)
 8003382:	681b      	ldr	r3, [r3, #0]
 8003384:	2201      	movs	r2, #1
 8003386:	4013      	ands	r3, r2
 8003388:	683a      	ldr	r2, [r7, #0]
 800338a:	429a      	cmp	r2, r3
 800338c:	d911      	bls.n	80033b2 <HAL_RCC_ClockConfig+0x46>
  {    
    /* Program the new number of wait states to the LATENCY bits in the FLASH_ACR register */
    __HAL_FLASH_SET_LATENCY(FLatency);
 800338e:	4b58      	ldr	r3, [pc, #352]	@ (80034f0 <HAL_RCC_ClockConfig+0x184>)
 8003390:	681b      	ldr	r3, [r3, #0]
 8003392:	2201      	movs	r2, #1
 8003394:	4393      	bics	r3, r2
 8003396:	0019      	movs	r1, r3
 8003398:	4b55      	ldr	r3, [pc, #340]	@ (80034f0 <HAL_RCC_ClockConfig+0x184>)
 800339a:	683a      	ldr	r2, [r7, #0]
 800339c:	430a      	orrs	r2, r1
 800339e:	601a      	str	r2, [r3, #0]
    
    /* Check that the new number of wait states is taken into account to access the Flash
    memory by reading the FLASH_ACR register */
    if(__HAL_FLASH_GET_LATENCY() != FLatency)
 80033a0:	4b53      	ldr	r3, [pc, #332]	@ (80034f0 <HAL_RCC_ClockConfig+0x184>)
 80033a2:	681b      	ldr	r3, [r3, #0]
 80033a4:	2201      	movs	r2, #1
 80033a6:	4013      	ands	r3, r2
 80033a8:	683a      	ldr	r2, [r7, #0]
 80033aa:	429a      	cmp	r2, r3
 80033ac:	d001      	beq.n	80033b2 <HAL_RCC_ClockConfig+0x46>
    {
      return HAL_ERROR;
 80033ae:	2301      	movs	r3, #1
 80033b0:	e09a      	b.n	80034e8 <HAL_RCC_ClockConfig+0x17c>
    }
  }

  /*-------------------------- HCLK Configuration --------------------------*/
  if(((RCC_ClkInitStruct->ClockType) & RCC_CLOCKTYPE_HCLK) == RCC_CLOCKTYPE_HCLK)
 80033b2:	687b      	ldr	r3, [r7, #4]
 80033b4:	681b      	ldr	r3, [r3, #0]
 80033b6:	2202      	movs	r2, #2
 80033b8:	4013      	ands	r3, r2
 80033ba:	d015      	beq.n	80033e8 <HAL_RCC_ClockConfig+0x7c>
  {
    /* Set the highest APB divider in order to ensure that we do not go through
       a non-spec phase whatever we decrease or increase HCLK. */
    if(((RCC_ClkInitStruct->ClockType) & RCC_CLOCKTYPE_PCLK1) == RCC_CLOCKTYPE_PCLK1)
 80033bc:	687b      	ldr	r3, [r7, #4]
 80033be:	681b      	ldr	r3, [r3, #0]
 80033c0:	2204      	movs	r2, #4
 80033c2:	4013      	ands	r3, r2
 80033c4:	d006      	beq.n	80033d4 <HAL_RCC_ClockConfig+0x68>
    {
      MODIFY_REG(RCC->CFGR, RCC_CFGR_PPRE, RCC_HCLK_DIV16);
 80033c6:	4b4b      	ldr	r3, [pc, #300]	@ (80034f4 <HAL_RCC_ClockConfig+0x188>)
 80033c8:	685a      	ldr	r2, [r3, #4]
 80033ca:	4b4a      	ldr	r3, [pc, #296]	@ (80034f4 <HAL_RCC_ClockConfig+0x188>)
 80033cc:	21e0      	movs	r1, #224	@ 0xe0
 80033ce:	00c9      	lsls	r1, r1, #3
 80033d0:	430a      	orrs	r2, r1
 80033d2:	605a      	str	r2, [r3, #4]
    }

    /* Set the new HCLK clock divider */
    assert_param(IS_RCC_HCLK(RCC_ClkInitStruct->AHBCLKDivider));
    MODIFY_REG(RCC->CFGR, RCC_CFGR_HPRE, RCC_ClkInitStruct->AHBCLKDivider);
 80033d4:	4b47      	ldr	r3, [pc, #284]	@ (80034f4 <HAL_RCC_ClockConfig+0x188>)
 80033d6:	685b      	ldr	r3, [r3, #4]
 80033d8:	22f0      	movs	r2, #240	@ 0xf0
 80033da:	4393      	bics	r3, r2
 80033dc:	0019      	movs	r1, r3
 80033de:	687b      	ldr	r3, [r7, #4]
 80033e0:	689a      	ldr	r2, [r3, #8]
 80033e2:	4b44      	ldr	r3, [pc, #272]	@ (80034f4 <HAL_RCC_ClockConfig+0x188>)
 80033e4:	430a      	orrs	r2, r1
 80033e6:	605a      	str	r2, [r3, #4]
  }

  /*------------------------- SYSCLK Configuration ---------------------------*/ 
  if(((RCC_ClkInitStruct->ClockType) & RCC_CLOCKTYPE_SYSCLK) == RCC_CLOCKTYPE_SYSCLK)
 80033e8:	687b      	ldr	r3, [r7, #4]
 80033ea:	681b      	ldr	r3, [r3, #0]
 80033ec:	2201      	movs	r2, #1
 80033ee:	4013      	ands	r3, r2
 80033f0:	d040      	beq.n	8003474 <HAL_RCC_ClockConfig+0x108>
  {
    assert_param(IS_RCC_SYSCLKSOURCE(RCC_ClkInitStruct->SYSCLKSource));
    
    /* HSE is selected as System Clock Source */
    if(RCC_ClkInitStruct->SYSCLKSource == RCC_SYSCLKSOURCE_HSE)
 80033f2:	687b      	ldr	r3, [r7, #4]
 80033f4:	685b      	ldr	r3, [r3, #4]
 80033f6:	2b01      	cmp	r3, #1
 80033f8:	d107      	bne.n	800340a <HAL_RCC_ClockConfig+0x9e>
    {
      /* Check the HSE ready flag */  
      if(__HAL_RCC_GET_FLAG(RCC_FLAG_HSERDY) == RESET)
 80033fa:	4b3e      	ldr	r3, [pc, #248]	@ (80034f4 <HAL_RCC_ClockConfig+0x188>)
 80033fc:	681a      	ldr	r2, [r3, #0]
 80033fe:	2380      	movs	r3, #128	@ 0x80
 8003400:	029b      	lsls	r3, r3, #10
 8003402:	4013      	ands	r3, r2
 8003404:	d114      	bne.n	8003430 <HAL_RCC_ClockConfig+0xc4>
      {
        return HAL_ERROR;
 8003406:	2301      	movs	r3, #1
 8003408:	e06e      	b.n	80034e8 <HAL_RCC_ClockConfig+0x17c>
      }
    }
    /* PLL is selected as System Clock Source */
    else if(RCC_ClkInitStruct->SYSCLKSource == RCC_SYSCLKSOURCE_PLLCLK)
 800340a:	687b      	ldr	r3, [r7, #4]
 800340c:	685b      	ldr	r3, [r3, #4]
 800340e:	2b02      	cmp	r3, #2
 8003410:	d107      	bne.n	8003422 <HAL_RCC_ClockConfig+0xb6>
    {
      /* Check the PLL ready flag */  
      if(__HAL_RCC_GET_FLAG(RCC_FLAG_PLLRDY) == RESET)
 8003412:	4b38      	ldr	r3, [pc, #224]	@ (80034f4 <HAL_RCC_ClockConfig+0x188>)
 8003414:	681a      	ldr	r2, [r3, #0]
 8003416:	2380      	movs	r3, #128	@ 0x80
 8003418:	049b      	lsls	r3, r3, #18
 800341a:	4013      	ands	r3, r2
 800341c:	d108      	bne.n	8003430 <HAL_RCC_ClockConfig+0xc4>
      {
        return HAL_ERROR;
 800341e:	2301      	movs	r3, #1
 8003420:	e062      	b.n	80034e8 <HAL_RCC_ClockConfig+0x17c>
#endif /* RCC_CFGR_SWS_HSI48 */
    /* HSI is selected as System Clock Source */
    else
    {
      /* Check the HSI ready flag */  
      if(__HAL_RCC_GET_FLAG(RCC_FLAG_HSIRDY) == RESET)
 8003422:	4b34      	ldr	r3, [pc, #208]	@ (80034f4 <HAL_RCC_ClockConfig+0x188>)
 8003424:	681b      	ldr	r3, [r3, #0]
 8003426:	2202      	movs	r2, #2
 8003428:	4013      	ands	r3, r2
 800342a:	d101      	bne.n	8003430 <HAL_RCC_ClockConfig+0xc4>
      {
        return HAL_ERROR;
 800342c:	2301      	movs	r3, #1
 800342e:	e05b      	b.n	80034e8 <HAL_RCC_ClockConfig+0x17c>
      }
    }
    __HAL_RCC_SYSCLK_CONFIG(RCC_ClkInitStruct->SYSCLKSource);
 8003430:	4b30      	ldr	r3, [pc, #192]	@ (80034f4 <HAL_RCC_ClockConfig+0x188>)
 8003432:	685b      	ldr	r3, [r3, #4]
 8003434:	2203      	movs	r2, #3
 8003436:	4393      	bics	r3, r2
 8003438:	0019      	movs	r1, r3
 800343a:	687b      	ldr	r3, [r7, #4]
 800343c:	685a      	ldr	r2, [r3, #4]
 800343e:	4b2d      	ldr	r3, [pc, #180]	@ (80034f4 <HAL_RCC_ClockConfig+0x188>)
 8003440:	430a      	orrs	r2, r1
 8003442:	605a      	str	r2, [r3, #4]

    /* Get Start Tick */
    tickstart = HAL_GetTick();
 8003444:	f7fe ff9a 	bl	800237c <HAL_GetTick>
 8003448:	0003      	movs	r3, r0
 800344a:	60fb      	str	r3, [r7, #12]
    
    while (__HAL_RCC_GET_SYSCLK_SOURCE() != (RCC_ClkInitStruct->SYSCLKSource << RCC_CFGR_SWS_Pos))
 800344c:	e009      	b.n	8003462 <HAL_RCC_ClockConfig+0xf6>
    {
      if((HAL_GetTick() - tickstart ) > CLOCKSWITCH_TIMEOUT_VALUE)
 800344e:	f7fe ff95 	bl	800237c <HAL_GetTick>
 8003452:	0002      	movs	r2, r0
 8003454:	68fb      	ldr	r3, [r7, #12]
 8003456:	1ad3      	subs	r3, r2, r3
 8003458:	4a27      	ldr	r2, [pc, #156]	@ (80034f8 <HAL_RCC_ClockConfig+0x18c>)
 800345a:	4293      	cmp	r3, r2
 800345c:	d901      	bls.n	8003462 <HAL_RCC_ClockConfig+0xf6>
      {
        return HAL_TIMEOUT;
 800345e:	2303      	movs	r3, #3
 8003460:	e042      	b.n	80034e8 <HAL_RCC_ClockConfig+0x17c>
    while (__HAL_RCC_GET_SYSCLK_SOURCE() != (RCC_ClkInitStruct->SYSCLKSource << RCC_CFGR_SWS_Pos))
 8003462:	4b24      	ldr	r3, [pc, #144]	@ (80034f4 <HAL_RCC_ClockConfig+0x188>)
 8003464:	685b      	ldr	r3, [r3, #4]
 8003466:	220c      	movs	r2, #12
 8003468:	401a      	ands	r2, r3
 800346a:	687b      	ldr	r3, [r7, #4]
 800346c:	685b      	ldr	r3, [r3, #4]
 800346e:	009b      	lsls	r3, r3, #2
 8003470:	429a      	cmp	r2, r3
 8003472:	d1ec      	bne.n	800344e <HAL_RCC_ClockConfig+0xe2>
      }
    }
  }

  /* Decreasing the number of wait states because of lower CPU frequency */
  if(FLatency < __HAL_FLASH_GET_LATENCY())
 8003474:	4b1e      	ldr	r3, [pc, #120]	@ (80034f0 <HAL_RCC_ClockConfig+0x184>)
 8003476:	681b      	ldr	r3, [r3, #0]
 8003478:	2201      	movs	r2, #1
 800347a:	4013      	ands	r3, r2
 800347c:	683a      	ldr	r2, [r7, #0]
 800347e:	429a      	cmp	r2, r3
 8003480:	d211      	bcs.n	80034a6 <HAL_RCC_ClockConfig+0x13a>
  {    
    /* Program the new number of wait states to the LATENCY bits in the FLASH_ACR register */
    __HAL_FLASH_SET_LATENCY(FLatency);
 8003482:	4b1b      	ldr	r3, [pc, #108]	@ (80034f0 <HAL_RCC_ClockConfig+0x184>)
 8003484:	681b      	ldr	r3, [r3, #0]
 8003486:	2201      	movs	r2, #1
 8003488:	4393      	bics	r3, r2
 800348a:	0019      	movs	r1, r3
 800348c:	4b18      	ldr	r3, [pc, #96]	@ (80034f0 <HAL_RCC_ClockConfig+0x184>)
 800348e:	683a      	ldr	r2, [r7, #0]
 8003490:	430a      	orrs	r2, r1
 8003492:	601a      	str	r2, [r3, #0]
    
    /* Check that the new number of wait states is taken into account to access the Flash
    memory by reading the FLASH_ACR register */
    if(__HAL_FLASH_GET_LATENCY() != FLatency)
 8003494:	4b16      	ldr	r3, [pc, #88]	@ (80034f0 <HAL_RCC_ClockConfig+0x184>)
 8003496:	681b      	ldr	r3, [r3, #0]
 8003498:	2201      	movs	r2, #1
 800349a:	4013      	ands	r3, r2
 800349c:	683a      	ldr	r2, [r7, #0]
 800349e:	429a      	cmp	r2, r3
 80034a0:	d001      	beq.n	80034a6 <HAL_RCC_ClockConfig+0x13a>
    {
      return HAL_ERROR;
 80034a2:	2301      	movs	r3, #1
 80034a4:	e020      	b.n	80034e8 <HAL_RCC_ClockConfig+0x17c>
    }
  }    

  /*-------------------------- PCLK1 Configuration ---------------------------*/ 
  if(((RCC_ClkInitStruct->ClockType) & RCC_CLOCKTYPE_PCLK1) == RCC_CLOCKTYPE_PCLK1)
 80034a6:	687b      	ldr	r3, [r7, #4]
 80034a8:	681b      	ldr	r3, [r3, #0]
 80034aa:	2204      	movs	r2, #4
 80034ac:	4013      	ands	r3, r2
 80034ae:	d009      	beq.n	80034c4 <HAL_RCC_ClockConfig+0x158>
  {
    assert_param(IS_RCC_PCLK(RCC_ClkInitStruct->APB1CLKDivider));
    MODIFY_REG(RCC->CFGR, RCC_CFGR_PPRE, RCC_ClkInitStruct->APB1CLKDivider);
 80034b0:	4b10      	ldr	r3, [pc, #64]	@ (80034f4 <HAL_RCC_ClockConfig+0x188>)
 80034b2:	685b      	ldr	r3, [r3, #4]
 80034b4:	4a11      	ldr	r2, [pc, #68]	@ (80034fc <HAL_RCC_ClockConfig+0x190>)
 80034b6:	4013      	ands	r3, r2
 80034b8:	0019      	movs	r1, r3
 80034ba:	687b      	ldr	r3, [r7, #4]
 80034bc:	68da      	ldr	r2, [r3, #12]
 80034be:	4b0d      	ldr	r3, [pc, #52]	@ (80034f4 <HAL_RCC_ClockConfig+0x188>)
 80034c0:	430a      	orrs	r2, r1
 80034c2:	605a      	str	r2, [r3, #4]
  }
  
  /* Update the SystemCoreClock global variable */
  SystemCoreClock = HAL_RCC_GetSysClockFreq() >> AHBPrescTable[(RCC->CFGR & RCC_CFGR_HPRE)>> RCC_CFGR_HPRE_BITNUMBER];
 80034c4:	f000 f820 	bl	8003508 <HAL_RCC_GetSysClockFreq>
 80034c8:	0001      	movs	r1, r0
 80034ca:	4b0a      	ldr	r3, [pc, #40]	@ (80034f4 <HAL_RCC_ClockConfig+0x188>)
 80034cc:	685b      	ldr	r3, [r3, #4]
 80034ce:	091b      	lsrs	r3, r3, #4
 80034d0:	220f      	movs	r2, #15
 80034d2:	4013      	ands	r3, r2
 80034d4:	4a0a      	ldr	r2, [pc, #40]	@ (8003500 <HAL_RCC_ClockConfig+0x194>)
 80034d6:	5cd3      	ldrb	r3, [r2, r3]
 80034d8:	000a      	movs	r2, r1
 80034da:	40da      	lsrs	r2, r3
 80034dc:	4b09      	ldr	r3, [pc, #36]	@ (8003504 <HAL_RCC_ClockConfig+0x198>)
 80034de:	601a      	str	r2, [r3, #0]

  /* Configure the source of time base considering new system clocks settings*/
  HAL_InitTick (TICK_INT_PRIORITY);
 80034e0:	2000      	movs	r0, #0
 80034e2:	f7fe ff05 	bl	80022f0 <HAL_InitTick>
  
  return HAL_OK;
 80034e6:	2300      	movs	r3, #0
}
 80034e8:	0018      	movs	r0, r3
 80034ea:	46bd      	mov	sp, r7
 80034ec:	b004      	add	sp, #16
 80034ee:	bd80      	pop	{r7, pc}
 80034f0:	40022000 	.word	0x40022000
 80034f4:	40021000 	.word	0x40021000
 80034f8:	00001388 	.word	0x00001388
 80034fc:	fffff8ff 	.word	0xfffff8ff
 8003500:	08006004 	.word	0x08006004
 8003504:	20000004 	.word	0x20000004

08003508 <HAL_RCC_GetSysClockFreq>:
  *         right SYSCLK value. Otherwise, any configuration based on this function will be incorrect.
  *         
  * @retval SYSCLK frequency
  */
uint32_t HAL_RCC_GetSysClockFreq(void)
{
 8003508:	b580      	push	{r7, lr}
 800350a:	b086      	sub	sp, #24
 800350c:	af00      	add	r7, sp, #0
  static const uint8_t aPLLMULFactorTable[16U] = { 2U,  3U,  4U,  5U,  6U,  7U,  8U,  9U,
                                                   10U, 11U, 12U, 13U, 14U, 15U, 16U, 16U};
  static const uint8_t aPredivFactorTable[16U] = { 1U, 2U,  3U,  4U,  5U,  6U,  7U,  8U,
                                                   9U,10U, 11U, 12U, 13U, 14U, 15U, 16U};

  uint32_t tmpreg = 0U, prediv = 0U, pllclk = 0U, pllmul = 0U;
 800350e:	2300      	movs	r3, #0
 8003510:	60fb      	str	r3, [r7, #12]
 8003512:	2300      	movs	r3, #0
 8003514:	60bb      	str	r3, [r7, #8]
 8003516:	2300      	movs	r3, #0
 8003518:	617b      	str	r3, [r7, #20]
 800351a:	2300      	movs	r3, #0
 800351c:	607b      	str	r3, [r7, #4]
  uint32_t sysclockfreq = 0U;
 800351e:	2300      	movs	r3, #0
 8003520:	613b      	str	r3, [r7, #16]
  
  tmpreg = RCC->CFGR;
 8003522:	4b20      	ldr	r3, [pc, #128]	@ (80035a4 <HAL_RCC_GetSysClockFreq+0x9c>)
 8003524:	685b      	ldr	r3, [r3, #4]
 8003526:	60fb      	str	r3, [r7, #12]
  
  /* Get SYSCLK source -------------------------------------------------------*/
  switch (tmpreg & RCC_CFGR_SWS)
 8003528:	68fb      	ldr	r3, [r7, #12]
 800352a:	220c      	movs	r2, #12
 800352c:	4013      	ands	r3, r2
 800352e:	2b04      	cmp	r3, #4
 8003530:	d002      	beq.n	8003538 <HAL_RCC_GetSysClockFreq+0x30>
 8003532:	2b08      	cmp	r3, #8
 8003534:	d003      	beq.n	800353e <HAL_RCC_GetSysClockFreq+0x36>
 8003536:	e02c      	b.n	8003592 <HAL_RCC_GetSysClockFreq+0x8a>
  {
    case RCC_SYSCLKSOURCE_STATUS_HSE:  /* HSE used as system clock */
    {
      sysclockfreq = HSE_VALUE;
 8003538:	4b1b      	ldr	r3, [pc, #108]	@ (80035a8 <HAL_RCC_GetSysClockFreq+0xa0>)
 800353a:	613b      	str	r3, [r7, #16]
      break;
 800353c:	e02c      	b.n	8003598 <HAL_RCC_GetSysClockFreq+0x90>
    }
    case RCC_SYSCLKSOURCE_STATUS_PLLCLK:  /* PLL used as system clock */
    {
      pllmul = aPLLMULFactorTable[(uint32_t)(tmpreg & RCC_CFGR_PLLMUL) >> RCC_CFGR_PLLMUL_BITNUMBER];
 800353e:	68fb      	ldr	r3, [r7, #12]
 8003540:	0c9b      	lsrs	r3, r3, #18
 8003542:	220f      	movs	r2, #15
 8003544:	4013      	ands	r3, r2
 8003546:	4a19      	ldr	r2, [pc, #100]	@ (80035ac <HAL_RCC_GetSysClockFreq+0xa4>)
 8003548:	5cd3      	ldrb	r3, [r2, r3]
 800354a:	607b      	str	r3, [r7, #4]
      prediv = aPredivFactorTable[(uint32_t)(RCC->CFGR2 & RCC_CFGR2_PREDIV) >> RCC_CFGR2_PREDIV_BITNUMBER];
 800354c:	4b15      	ldr	r3, [pc, #84]	@ (80035a4 <HAL_RCC_GetSysClockFreq+0x9c>)
 800354e:	6adb      	ldr	r3, [r3, #44]	@ 0x2c
 8003550:	220f      	movs	r2, #15
 8003552:	4013      	ands	r3, r2
 8003554:	4a16      	ldr	r2, [pc, #88]	@ (80035b0 <HAL_RCC_GetSysClockFreq+0xa8>)
 8003556:	5cd3      	ldrb	r3, [r2, r3]
 8003558:	60bb      	str	r3, [r7, #8]
      if ((tmpreg & RCC_CFGR_PLLSRC) == RCC_PLLSOURCE_HSE)
 800355a:	68fa      	ldr	r2, [r7, #12]
 800355c:	2380      	movs	r3, #128	@ 0x80
 800355e:	025b      	lsls	r3, r3, #9
 8003560:	4013      	ands	r3, r2
 8003562:	d009      	beq.n	8003578 <HAL_RCC_GetSysClockFreq+0x70>
      {
        /* HSE used as PLL clock source : PLLCLK = HSE/PREDIV * PLLMUL */
        pllclk = (uint32_t)((uint64_t) HSE_VALUE / (uint64_t) (prediv)) * ((uint64_t) pllmul);
 8003564:	68b9      	ldr	r1, [r7, #8]
 8003566:	4810      	ldr	r0, [pc, #64]	@ (80035a8 <HAL_RCC_GetSysClockFreq+0xa0>)
 8003568:	f7fc fdd6 	bl	8000118 <__udivsi3>
 800356c:	0003      	movs	r3, r0
 800356e:	001a      	movs	r2, r3
 8003570:	687b      	ldr	r3, [r7, #4]
 8003572:	4353      	muls	r3, r2
 8003574:	617b      	str	r3, [r7, #20]
 8003576:	e009      	b.n	800358c <HAL_RCC_GetSysClockFreq+0x84>
#if  (defined(STM32F042x6) || defined(STM32F048xx) || defined(STM32F070x6) || defined(STM32F071xB) || defined(STM32F072xB) || defined(STM32F078xx) || defined(STM32F070xB) || defined(STM32F091xC) || defined(STM32F098xx) || defined(STM32F030xC))
        /* HSI used as PLL clock source : PLLCLK = HSI/PREDIV * PLLMUL */
        pllclk = (uint32_t)((uint64_t) HSI_VALUE / (uint64_t) (prediv)) * ((uint64_t) pllmul);
#else
        /* HSI used as PLL clock source : PLLCLK = HSI/2 * PLLMUL */
        pllclk = (uint32_t)((uint64_t) (HSI_VALUE >> 1U) * ((uint64_t) pllmul));
 8003578:	6879      	ldr	r1, [r7, #4]
 800357a:	000a      	movs	r2, r1
 800357c:	0152      	lsls	r2, r2, #5
 800357e:	1a52      	subs	r2, r2, r1
 8003580:	0193      	lsls	r3, r2, #6
 8003582:	1a9b      	subs	r3, r3, r2
 8003584:	00db      	lsls	r3, r3, #3
 8003586:	185b      	adds	r3, r3, r1
 8003588:	021b      	lsls	r3, r3, #8
 800358a:	617b      	str	r3, [r7, #20]
#endif
      }
      sysclockfreq = pllclk;
 800358c:	697b      	ldr	r3, [r7, #20]
 800358e:	613b      	str	r3, [r7, #16]
      break;
 8003590:	e002      	b.n	8003598 <HAL_RCC_GetSysClockFreq+0x90>
    }
#endif /* RCC_CFGR_SWS_HSI48 */
    case RCC_SYSCLKSOURCE_STATUS_HSI:  /* HSI used as system clock source */
    default: /* HSI used as system clock */
    {
      sysclockfreq = HSI_VALUE;
 8003592:	4b05      	ldr	r3, [pc, #20]	@ (80035a8 <HAL_RCC_GetSysClockFreq+0xa0>)
 8003594:	613b      	str	r3, [r7, #16]
      break;
 8003596:	46c0      	nop			@ (mov r8, r8)
    }
  }
  return sysclockfreq;
 8003598:	693b      	ldr	r3, [r7, #16]
}
 800359a:	0018      	movs	r0, r3
 800359c:	46bd      	mov	sp, r7
 800359e:	b006      	add	sp, #24
 80035a0:	bd80      	pop	{r7, pc}
 80035a2:	46c0      	nop			@ (mov r8, r8)
 80035a4:	40021000 	.word	0x40021000
 80035a8:	007a1200 	.word	0x007a1200
 80035ac:	0800601c 	.word	0x0800601c
 80035b0:	0800602c 	.word	0x0800602c

080035b4 <HAL_RCC_GetHCLKFreq>:
  * @note   The SystemCoreClock CMSIS variable is used to store System Clock Frequency 
  *         and updated within this function
  * @retval HCLK frequency
  */
uint32_t HAL_RCC_GetHCLKFreq(void)
{
 80035b4:	b580      	push	{r7, lr}
 80035b6:	af00      	add	r7, sp, #0
  return SystemCoreClock;
 80035b8:	4b02      	ldr	r3, [pc, #8]	@ (80035c4 <HAL_RCC_GetHCLKFreq+0x10>)
 80035ba:	681b      	ldr	r3, [r3, #0]
}
 80035bc:	0018      	movs	r0, r3
 80035be:	46bd      	mov	sp, r7
 80035c0:	bd80      	pop	{r7, pc}
 80035c2:	46c0      	nop			@ (mov r8, r8)
 80035c4:	20000004 	.word	0x20000004

080035c8 <HAL_RCC_GetPCLK1Freq>:
  * @note   Each time PCLK1 changes, this function must be called to update the
  *         right PCLK1 value. Otherwise, any configuration based on this function will be incorrect.
  * @retval PCLK1 frequency
  */
uint32_t HAL_RCC_GetPCLK1Freq(void)
{
 80035c8:	b580      	push	{r7, lr}
 80035ca:	af00      	add	r7, sp, #0
  /* Get HCLK source and Compute PCLK1 frequency ---------------------------*/
  return (HAL_RCC_GetHCLKFreq() >> APBPrescTable[(RCC->CFGR & RCC_CFGR_PPRE) >> RCC_CFGR_PPRE_BITNUMBER]);
 80035cc:	f7ff fff2 	bl	80035b4 <HAL_RCC_GetHCLKFreq>
 80035d0:	0001      	movs	r1, r0
 80035d2:	4b06      	ldr	r3, [pc, #24]	@ (80035ec <HAL_RCC_GetPCLK1Freq+0x24>)
 80035d4:	685b      	ldr	r3, [r3, #4]
 80035d6:	0a1b      	lsrs	r3, r3, #8
 80035d8:	2207      	movs	r2, #7
 80035da:	4013      	ands	r3, r2
 80035dc:	4a04      	ldr	r2, [pc, #16]	@ (80035f0 <HAL_RCC_GetPCLK1Freq+0x28>)
 80035de:	5cd3      	ldrb	r3, [r2, r3]
 80035e0:	40d9      	lsrs	r1, r3
 80035e2:	000b      	movs	r3, r1
}    
 80035e4:	0018      	movs	r0, r3
 80035e6:	46bd      	mov	sp, r7
 80035e8:	bd80      	pop	{r7, pc}
 80035ea:	46c0      	nop			@ (mov r8, r8)
 80035ec:	40021000 	.word	0x40021000
 80035f0:	08006014 	.word	0x08006014

080035f4 <HAL_SPI_Init>:
  * @param  hspi pointer to a SPI_HandleTypeDef structure that contains
  *               the configuration information for SPI module.
  * @retval HAL status
  */
HAL_StatusTypeDef HAL_SPI_Init(SPI_HandleTypeDef *hspi)
{
 80035f4:	b580      	push	{r7, lr}
 80035f6:	b084      	sub	sp, #16
 80035f8:	af00      	add	r7, sp, #0
 80035fa:	6078      	str	r0, [r7, #4]
  uint32_t frxth;

  /* Check the SPI handle allocation */
  if (hspi == NULL)
 80035fc:	687b      	ldr	r3, [r7, #4]
 80035fe:	2b00      	cmp	r3, #0
 8003600:	d101      	bne.n	8003606 <HAL_SPI_Init+0x12>
  {
    return HAL_ERROR;
 8003602:	2301      	movs	r3, #1
 8003604:	e0a8      	b.n	8003758 <HAL_SPI_Init+0x164>
  assert_param(IS_SPI_NSS(hspi->Init.NSS));
  assert_param(IS_SPI_NSSP(hspi->Init.NSSPMode));
  assert_param(IS_SPI_BAUDRATE_PRESCALER(hspi->Init.BaudRatePrescaler));
  assert_param(IS_SPI_FIRST_BIT(hspi->Init.FirstBit));
  assert_param(IS_SPI_TIMODE(hspi->Init.TIMode));
  if (hspi->Init.TIMode == SPI_TIMODE_DISABLE)
 8003606:	687b      	ldr	r3, [r7, #4]
 8003608:	6a5b      	ldr	r3, [r3, #36]	@ 0x24
 800360a:	2b00      	cmp	r3, #0
 800360c:	d109      	bne.n	8003622 <HAL_SPI_Init+0x2e>
  {
    assert_param(IS_SPI_CPOL(hspi->Init.CLKPolarity));
    assert_param(IS_SPI_CPHA(hspi->Init.CLKPhase));

    if (hspi->Init.Mode == SPI_MODE_MASTER)
 800360e:	687b      	ldr	r3, [r7, #4]
 8003610:	685a      	ldr	r2, [r3, #4]
 8003612:	2382      	movs	r3, #130	@ 0x82
 8003614:	005b      	lsls	r3, r3, #1
 8003616:	429a      	cmp	r2, r3
 8003618:	d009      	beq.n	800362e <HAL_SPI_Init+0x3a>
      assert_param(IS_SPI_BAUDRATE_PRESCALER(hspi->Init.BaudRatePrescaler));
    }
    else
    {
      /* Baudrate prescaler not use in Motoraola Slave mode. force to default value */
      hspi->Init.BaudRatePrescaler = SPI_BAUDRATEPRESCALER_2;
 800361a:	687b      	ldr	r3, [r7, #4]
 800361c:	2200      	movs	r2, #0
 800361e:	61da      	str	r2, [r3, #28]
 8003620:	e005      	b.n	800362e <HAL_SPI_Init+0x3a>
  else
  {
    assert_param(IS_SPI_BAUDRATE_PRESCALER(hspi->Init.BaudRatePrescaler));

    /* Force polarity and phase to TI protocaol requirements */
    hspi->Init.CLKPolarity = SPI_POLARITY_LOW;
 8003622:	687b      	ldr	r3, [r7, #4]
 8003624:	2200      	movs	r2, #0
 8003626:	611a      	str	r2, [r3, #16]
    hspi->Init.CLKPhase    = SPI_PHASE_1EDGE;
 8003628:	687b      	ldr	r3, [r7, #4]
 800362a:	2200      	movs	r2, #0
 800362c:	615a      	str	r2, [r3, #20]
  {
    assert_param(IS_SPI_CRC_POLYNOMIAL(hspi->Init.CRCPolynomial));
    assert_param(IS_SPI_CRC_LENGTH(hspi->Init.CRCLength));
  }
#else
  hspi->Init.CRCCalculation = SPI_CRCCALCULATION_DISABLE;
 800362e:	687b      	ldr	r3, [r7, #4]
 8003630:	2200      	movs	r2, #0
 8003632:	629a      	str	r2, [r3, #40]	@ 0x28
#endif /* USE_SPI_CRC */

  if (hspi->State == HAL_SPI_STATE_RESET)
 8003634:	687b      	ldr	r3, [r7, #4]
 8003636:	225d      	movs	r2, #93	@ 0x5d
 8003638:	5c9b      	ldrb	r3, [r3, r2]
 800363a:	b2db      	uxtb	r3, r3
 800363c:	2b00      	cmp	r3, #0
 800363e:	d107      	bne.n	8003650 <HAL_SPI_Init+0x5c>
  {
    /* Allocate lock resource and initialize it */
    hspi->Lock = HAL_UNLOCKED;
 8003640:	687b      	ldr	r3, [r7, #4]
 8003642:	225c      	movs	r2, #92	@ 0x5c
 8003644:	2100      	movs	r1, #0
 8003646:	5499      	strb	r1, [r3, r2]

    /* Init the low level hardware : GPIO, CLOCK, NVIC... */
    hspi->MspInitCallback(hspi);
#else
    /* Init the low level hardware : GPIO, CLOCK, NVIC... */
    HAL_SPI_MspInit(hspi);
 8003648:	687b      	ldr	r3, [r7, #4]
 800364a:	0018      	movs	r0, r3
 800364c:	f7fe fbe0 	bl	8001e10 <HAL_SPI_MspInit>
#endif /* USE_HAL_SPI_REGISTER_CALLBACKS */
  }

  hspi->State = HAL_SPI_STATE_BUSY;
 8003650:	687b      	ldr	r3, [r7, #4]
 8003652:	225d      	movs	r2, #93	@ 0x5d
 8003654:	2102      	movs	r1, #2
 8003656:	5499      	strb	r1, [r3, r2]

  /* Disable the selected SPI peripheral */
  __HAL_SPI_DISABLE(hspi);
 8003658:	687b      	ldr	r3, [r7, #4]
 800365a:	681b      	ldr	r3, [r3, #0]
 800365c:	681a      	ldr	r2, [r3, #0]
 800365e:	687b      	ldr	r3, [r7, #4]
 8003660:	681b      	ldr	r3, [r3, #0]
 8003662:	2140      	movs	r1, #64	@ 0x40
 8003664:	438a      	bics	r2, r1
 8003666:	601a      	str	r2, [r3, #0]

  /* Align by default the rs fifo threshold on the data size */
  if (hspi->Init.DataSize > SPI_DATASIZE_8BIT)
 8003668:	687b      	ldr	r3, [r7, #4]
 800366a:	68da      	ldr	r2, [r3, #12]
 800366c:	23e0      	movs	r3, #224	@ 0xe0
 800366e:	00db      	lsls	r3, r3, #3
 8003670:	429a      	cmp	r2, r3
 8003672:	d902      	bls.n	800367a <HAL_SPI_Init+0x86>
  {
    frxth = SPI_RXFIFO_THRESHOLD_HF;
 8003674:	2300      	movs	r3, #0
 8003676:	60fb      	str	r3, [r7, #12]
 8003678:	e002      	b.n	8003680 <HAL_SPI_Init+0x8c>
  }
  else
  {
    frxth = SPI_RXFIFO_THRESHOLD_QF;
 800367a:	2380      	movs	r3, #128	@ 0x80
 800367c:	015b      	lsls	r3, r3, #5
 800367e:	60fb      	str	r3, [r7, #12]
  }

  /* CRC calculation is valid only for 16Bit and 8 Bit */
  if ((hspi->Init.DataSize != SPI_DATASIZE_16BIT) && (hspi->Init.DataSize != SPI_DATASIZE_8BIT))
 8003680:	687b      	ldr	r3, [r7, #4]
 8003682:	68da      	ldr	r2, [r3, #12]
 8003684:	23f0      	movs	r3, #240	@ 0xf0
 8003686:	011b      	lsls	r3, r3, #4
 8003688:	429a      	cmp	r2, r3
 800368a:	d008      	beq.n	800369e <HAL_SPI_Init+0xaa>
 800368c:	687b      	ldr	r3, [r7, #4]
 800368e:	68da      	ldr	r2, [r3, #12]
 8003690:	23e0      	movs	r3, #224	@ 0xe0
 8003692:	00db      	lsls	r3, r3, #3
 8003694:	429a      	cmp	r2, r3
 8003696:	d002      	beq.n	800369e <HAL_SPI_Init+0xaa>
  {
    /* CRC must be disabled */
    hspi->Init.CRCCalculation = SPI_CRCCALCULATION_DISABLE;
 8003698:	687b      	ldr	r3, [r7, #4]
 800369a:	2200      	movs	r2, #0
 800369c:	629a      	str	r2, [r3, #40]	@ 0x28
  }

  /*----------------------- SPIx CR1 & CR2 Configuration ---------------------*/
  /* Configure : SPI Mode, Communication Mode, Clock polarity and phase, NSS management,
  Communication speed, First bit and CRC calculation state */
  WRITE_REG(hspi->Instance->CR1, ((hspi->Init.Mode & (SPI_CR1_MSTR | SPI_CR1_SSI)) |
 800369e:	687b      	ldr	r3, [r7, #4]
 80036a0:	685a      	ldr	r2, [r3, #4]
 80036a2:	2382      	movs	r3, #130	@ 0x82
 80036a4:	005b      	lsls	r3, r3, #1
 80036a6:	401a      	ands	r2, r3
 80036a8:	687b      	ldr	r3, [r7, #4]
 80036aa:	6899      	ldr	r1, [r3, #8]
 80036ac:	2384      	movs	r3, #132	@ 0x84
 80036ae:	021b      	lsls	r3, r3, #8
 80036b0:	400b      	ands	r3, r1
 80036b2:	431a      	orrs	r2, r3
 80036b4:	687b      	ldr	r3, [r7, #4]
 80036b6:	691b      	ldr	r3, [r3, #16]
 80036b8:	2102      	movs	r1, #2
 80036ba:	400b      	ands	r3, r1
 80036bc:	431a      	orrs	r2, r3
 80036be:	687b      	ldr	r3, [r7, #4]
 80036c0:	695b      	ldr	r3, [r3, #20]
 80036c2:	2101      	movs	r1, #1
 80036c4:	400b      	ands	r3, r1
 80036c6:	431a      	orrs	r2, r3
 80036c8:	687b      	ldr	r3, [r7, #4]
 80036ca:	6999      	ldr	r1, [r3, #24]
 80036cc:	2380      	movs	r3, #128	@ 0x80
 80036ce:	009b      	lsls	r3, r3, #2
 80036d0:	400b      	ands	r3, r1
 80036d2:	431a      	orrs	r2, r3
 80036d4:	687b      	ldr	r3, [r7, #4]
 80036d6:	69db      	ldr	r3, [r3, #28]
 80036d8:	2138      	movs	r1, #56	@ 0x38
 80036da:	400b      	ands	r3, r1
 80036dc:	431a      	orrs	r2, r3
 80036de:	687b      	ldr	r3, [r7, #4]
 80036e0:	6a1b      	ldr	r3, [r3, #32]
 80036e2:	2180      	movs	r1, #128	@ 0x80
 80036e4:	400b      	ands	r3, r1
 80036e6:	431a      	orrs	r2, r3
 80036e8:	0011      	movs	r1, r2
 80036ea:	687b      	ldr	r3, [r7, #4]
 80036ec:	6a9a      	ldr	r2, [r3, #40]	@ 0x28
 80036ee:	2380      	movs	r3, #128	@ 0x80
 80036f0:	019b      	lsls	r3, r3, #6
 80036f2:	401a      	ands	r2, r3
 80036f4:	687b      	ldr	r3, [r7, #4]
 80036f6:	681b      	ldr	r3, [r3, #0]
 80036f8:	430a      	orrs	r2, r1
 80036fa:	601a      	str	r2, [r3, #0]
    }
  }
#endif /* USE_SPI_CRC */

  /* Configure : NSS management, TI Mode, NSS Pulse, Data size and Rx Fifo threshold */
  WRITE_REG(hspi->Instance->CR2, (((hspi->Init.NSS >> 16U) & SPI_CR2_SSOE) |
 80036fc:	687b      	ldr	r3, [r7, #4]
 80036fe:	699b      	ldr	r3, [r3, #24]
 8003700:	0c1b      	lsrs	r3, r3, #16
 8003702:	2204      	movs	r2, #4
 8003704:	401a      	ands	r2, r3
 8003706:	687b      	ldr	r3, [r7, #4]
 8003708:	6a5b      	ldr	r3, [r3, #36]	@ 0x24
 800370a:	2110      	movs	r1, #16
 800370c:	400b      	ands	r3, r1
 800370e:	431a      	orrs	r2, r3
 8003710:	687b      	ldr	r3, [r7, #4]
 8003712:	6b5b      	ldr	r3, [r3, #52]	@ 0x34
 8003714:	2108      	movs	r1, #8
 8003716:	400b      	ands	r3, r1
 8003718:	431a      	orrs	r2, r3
 800371a:	687b      	ldr	r3, [r7, #4]
 800371c:	68d9      	ldr	r1, [r3, #12]
 800371e:	23f0      	movs	r3, #240	@ 0xf0
 8003720:	011b      	lsls	r3, r3, #4
 8003722:	400b      	ands	r3, r1
 8003724:	431a      	orrs	r2, r3
 8003726:	0011      	movs	r1, r2
 8003728:	68fa      	ldr	r2, [r7, #12]
 800372a:	2380      	movs	r3, #128	@ 0x80
 800372c:	015b      	lsls	r3, r3, #5
 800372e:	401a      	ands	r2, r3
 8003730:	687b      	ldr	r3, [r7, #4]
 8003732:	681b      	ldr	r3, [r3, #0]
 8003734:	430a      	orrs	r2, r1
 8003736:	605a      	str	r2, [r3, #4]
  }
#endif /* USE_SPI_CRC */

#if defined(SPI_I2SCFGR_I2SMOD)
  /* Activate the SPI mode (Make sure that I2SMOD bit in I2SCFGR register is reset) */
  CLEAR_BIT(hspi->Instance->I2SCFGR, SPI_I2SCFGR_I2SMOD);
 8003738:	687b      	ldr	r3, [r7, #4]
 800373a:	681b      	ldr	r3, [r3, #0]
 800373c:	69da      	ldr	r2, [r3, #28]
 800373e:	687b      	ldr	r3, [r7, #4]
 8003740:	681b      	ldr	r3, [r3, #0]
 8003742:	4907      	ldr	r1, [pc, #28]	@ (8003760 <HAL_SPI_Init+0x16c>)
 8003744:	400a      	ands	r2, r1
 8003746:	61da      	str	r2, [r3, #28]
#endif /* SPI_I2SCFGR_I2SMOD */

  hspi->ErrorCode = HAL_SPI_ERROR_NONE;
 8003748:	687b      	ldr	r3, [r7, #4]
 800374a:	2200      	movs	r2, #0
 800374c:	661a      	str	r2, [r3, #96]	@ 0x60
  hspi->State     = HAL_SPI_STATE_READY;
 800374e:	687b      	ldr	r3, [r7, #4]
 8003750:	225d      	movs	r2, #93	@ 0x5d
 8003752:	2101      	movs	r1, #1
 8003754:	5499      	strb	r1, [r3, r2]

  return HAL_OK;
 8003756:	2300      	movs	r3, #0
}
 8003758:	0018      	movs	r0, r3
 800375a:	46bd      	mov	sp, r7
 800375c:	b004      	add	sp, #16
 800375e:	bd80      	pop	{r7, pc}
 8003760:	fffff7ff 	.word	0xfffff7ff

08003764 <HAL_SPI_Transmit>:
  * @param  Size amount of data to be sent
  * @param  Timeout Timeout duration
  * @retval HAL status
  */
HAL_StatusTypeDef HAL_SPI_Transmit(SPI_HandleTypeDef *hspi, uint8_t *pData, uint16_t Size, uint32_t Timeout)
{
 8003764:	b580      	push	{r7, lr}
 8003766:	b088      	sub	sp, #32
 8003768:	af00      	add	r7, sp, #0
 800376a:	60f8      	str	r0, [r7, #12]
 800376c:	60b9      	str	r1, [r7, #8]
 800376e:	603b      	str	r3, [r7, #0]
 8003770:	1dbb      	adds	r3, r7, #6
 8003772:	801a      	strh	r2, [r3, #0]
  uint32_t tickstart;
  HAL_StatusTypeDef errorcode = HAL_OK;
 8003774:	231f      	movs	r3, #31
 8003776:	18fb      	adds	r3, r7, r3
 8003778:	2200      	movs	r2, #0
 800377a:	701a      	strb	r2, [r3, #0]

  /* Check Direction parameter */
  assert_param(IS_SPI_DIRECTION_2LINES_OR_1LINE(hspi->Init.Direction));

  /* Process Locked */
  __HAL_LOCK(hspi);
 800377c:	68fb      	ldr	r3, [r7, #12]
 800377e:	225c      	movs	r2, #92	@ 0x5c
 8003780:	5c9b      	ldrb	r3, [r3, r2]
 8003782:	2b01      	cmp	r3, #1
 8003784:	d101      	bne.n	800378a <HAL_SPI_Transmit+0x26>
 8003786:	2302      	movs	r3, #2
 8003788:	e147      	b.n	8003a1a <HAL_SPI_Transmit+0x2b6>
 800378a:	68fb      	ldr	r3, [r7, #12]
 800378c:	225c      	movs	r2, #92	@ 0x5c
 800378e:	2101      	movs	r1, #1
 8003790:	5499      	strb	r1, [r3, r2]

  /* Init tickstart for timeout management*/
  tickstart = HAL_GetTick();
 8003792:	f7fe fdf3 	bl	800237c <HAL_GetTick>
 8003796:	0003      	movs	r3, r0
 8003798:	61bb      	str	r3, [r7, #24]
  initial_TxXferCount = Size;
 800379a:	2316      	movs	r3, #22
 800379c:	18fb      	adds	r3, r7, r3
 800379e:	1dba      	adds	r2, r7, #6
 80037a0:	8812      	ldrh	r2, [r2, #0]
 80037a2:	801a      	strh	r2, [r3, #0]

  if (hspi->State != HAL_SPI_STATE_READY)
 80037a4:	68fb      	ldr	r3, [r7, #12]
 80037a6:	225d      	movs	r2, #93	@ 0x5d
 80037a8:	5c9b      	ldrb	r3, [r3, r2]
 80037aa:	b2db      	uxtb	r3, r3
 80037ac:	2b01      	cmp	r3, #1
 80037ae:	d004      	beq.n	80037ba <HAL_SPI_Transmit+0x56>
  {
    errorcode = HAL_BUSY;
 80037b0:	231f      	movs	r3, #31
 80037b2:	18fb      	adds	r3, r7, r3
 80037b4:	2202      	movs	r2, #2
 80037b6:	701a      	strb	r2, [r3, #0]
    goto error;
 80037b8:	e128      	b.n	8003a0c <HAL_SPI_Transmit+0x2a8>
  }

  if ((pData == NULL) || (Size == 0U))
 80037ba:	68bb      	ldr	r3, [r7, #8]
 80037bc:	2b00      	cmp	r3, #0
 80037be:	d003      	beq.n	80037c8 <HAL_SPI_Transmit+0x64>
 80037c0:	1dbb      	adds	r3, r7, #6
 80037c2:	881b      	ldrh	r3, [r3, #0]
 80037c4:	2b00      	cmp	r3, #0
 80037c6:	d104      	bne.n	80037d2 <HAL_SPI_Transmit+0x6e>
  {
    errorcode = HAL_ERROR;
 80037c8:	231f      	movs	r3, #31
 80037ca:	18fb      	adds	r3, r7, r3
 80037cc:	2201      	movs	r2, #1
 80037ce:	701a      	strb	r2, [r3, #0]
    goto error;
 80037d0:	e11c      	b.n	8003a0c <HAL_SPI_Transmit+0x2a8>
  }

  /* Set the transaction information */
  hspi->State       = HAL_SPI_STATE_BUSY_TX;
 80037d2:	68fb      	ldr	r3, [r7, #12]
 80037d4:	225d      	movs	r2, #93	@ 0x5d
 80037d6:	2103      	movs	r1, #3
 80037d8:	5499      	strb	r1, [r3, r2]
  hspi->ErrorCode   = HAL_SPI_ERROR_NONE;
 80037da:	68fb      	ldr	r3, [r7, #12]
 80037dc:	2200      	movs	r2, #0
 80037de:	661a      	str	r2, [r3, #96]	@ 0x60
  hspi->pTxBuffPtr  = (uint8_t *)pData;
 80037e0:	68fb      	ldr	r3, [r7, #12]
 80037e2:	68ba      	ldr	r2, [r7, #8]
 80037e4:	639a      	str	r2, [r3, #56]	@ 0x38
  hspi->TxXferSize  = Size;
 80037e6:	68fb      	ldr	r3, [r7, #12]
 80037e8:	1dba      	adds	r2, r7, #6
 80037ea:	8812      	ldrh	r2, [r2, #0]
 80037ec:	879a      	strh	r2, [r3, #60]	@ 0x3c
  hspi->TxXferCount = Size;
 80037ee:	68fb      	ldr	r3, [r7, #12]
 80037f0:	1dba      	adds	r2, r7, #6
 80037f2:	8812      	ldrh	r2, [r2, #0]
 80037f4:	87da      	strh	r2, [r3, #62]	@ 0x3e

  /*Init field not used in handle to zero */
  hspi->pRxBuffPtr  = (uint8_t *)NULL;
 80037f6:	68fb      	ldr	r3, [r7, #12]
 80037f8:	2200      	movs	r2, #0
 80037fa:	641a      	str	r2, [r3, #64]	@ 0x40
  hspi->RxXferSize  = 0U;
 80037fc:	68fb      	ldr	r3, [r7, #12]
 80037fe:	2244      	movs	r2, #68	@ 0x44
 8003800:	2100      	movs	r1, #0
 8003802:	5299      	strh	r1, [r3, r2]
  hspi->RxXferCount = 0U;
 8003804:	68fb      	ldr	r3, [r7, #12]
 8003806:	2246      	movs	r2, #70	@ 0x46
 8003808:	2100      	movs	r1, #0
 800380a:	5299      	strh	r1, [r3, r2]
  hspi->TxISR       = NULL;
 800380c:	68fb      	ldr	r3, [r7, #12]
 800380e:	2200      	movs	r2, #0
 8003810:	651a      	str	r2, [r3, #80]	@ 0x50
  hspi->RxISR       = NULL;
 8003812:	68fb      	ldr	r3, [r7, #12]
 8003814:	2200      	movs	r2, #0
 8003816:	64da      	str	r2, [r3, #76]	@ 0x4c

  /* Configure communication direction : 1Line */
  if (hspi->Init.Direction == SPI_DIRECTION_1LINE)
 8003818:	68fb      	ldr	r3, [r7, #12]
 800381a:	689a      	ldr	r2, [r3, #8]
 800381c:	2380      	movs	r3, #128	@ 0x80
 800381e:	021b      	lsls	r3, r3, #8
 8003820:	429a      	cmp	r2, r3
 8003822:	d110      	bne.n	8003846 <HAL_SPI_Transmit+0xe2>
  {
    /* Disable SPI Peripheral before set 1Line direction (BIDIOE bit) */
    __HAL_SPI_DISABLE(hspi);
 8003824:	68fb      	ldr	r3, [r7, #12]
 8003826:	681b      	ldr	r3, [r3, #0]
 8003828:	681a      	ldr	r2, [r3, #0]
 800382a:	68fb      	ldr	r3, [r7, #12]
 800382c:	681b      	ldr	r3, [r3, #0]
 800382e:	2140      	movs	r1, #64	@ 0x40
 8003830:	438a      	bics	r2, r1
 8003832:	601a      	str	r2, [r3, #0]
    SPI_1LINE_TX(hspi);
 8003834:	68fb      	ldr	r3, [r7, #12]
 8003836:	681b      	ldr	r3, [r3, #0]
 8003838:	681a      	ldr	r2, [r3, #0]
 800383a:	68fb      	ldr	r3, [r7, #12]
 800383c:	681b      	ldr	r3, [r3, #0]
 800383e:	2180      	movs	r1, #128	@ 0x80
 8003840:	01c9      	lsls	r1, r1, #7
 8003842:	430a      	orrs	r2, r1
 8003844:	601a      	str	r2, [r3, #0]
    SPI_RESET_CRC(hspi);
  }
#endif /* USE_SPI_CRC */

  /* Check if the SPI is already enabled */
  if ((hspi->Instance->CR1 & SPI_CR1_SPE) != SPI_CR1_SPE)
 8003846:	68fb      	ldr	r3, [r7, #12]
 8003848:	681b      	ldr	r3, [r3, #0]
 800384a:	681b      	ldr	r3, [r3, #0]
 800384c:	2240      	movs	r2, #64	@ 0x40
 800384e:	4013      	ands	r3, r2
 8003850:	2b40      	cmp	r3, #64	@ 0x40
 8003852:	d007      	beq.n	8003864 <HAL_SPI_Transmit+0x100>
  {
    /* Enable SPI peripheral */
    __HAL_SPI_ENABLE(hspi);
 8003854:	68fb      	ldr	r3, [r7, #12]
 8003856:	681b      	ldr	r3, [r3, #0]
 8003858:	681a      	ldr	r2, [r3, #0]
 800385a:	68fb      	ldr	r3, [r7, #12]
 800385c:	681b      	ldr	r3, [r3, #0]
 800385e:	2140      	movs	r1, #64	@ 0x40
 8003860:	430a      	orrs	r2, r1
 8003862:	601a      	str	r2, [r3, #0]
  }

  /* Transmit data in 16 Bit mode */
  if (hspi->Init.DataSize > SPI_DATASIZE_8BIT)
 8003864:	68fb      	ldr	r3, [r7, #12]
 8003866:	68da      	ldr	r2, [r3, #12]
 8003868:	23e0      	movs	r3, #224	@ 0xe0
 800386a:	00db      	lsls	r3, r3, #3
 800386c:	429a      	cmp	r2, r3
 800386e:	d952      	bls.n	8003916 <HAL_SPI_Transmit+0x1b2>
  {
    if ((hspi->Init.Mode == SPI_MODE_SLAVE) || (initial_TxXferCount == 0x01U))
 8003870:	68fb      	ldr	r3, [r7, #12]
 8003872:	685b      	ldr	r3, [r3, #4]
 8003874:	2b00      	cmp	r3, #0
 8003876:	d004      	beq.n	8003882 <HAL_SPI_Transmit+0x11e>
 8003878:	2316      	movs	r3, #22
 800387a:	18fb      	adds	r3, r7, r3
 800387c:	881b      	ldrh	r3, [r3, #0]
 800387e:	2b01      	cmp	r3, #1
 8003880:	d143      	bne.n	800390a <HAL_SPI_Transmit+0x1a6>
    {
      hspi->Instance->DR = *((uint16_t *)hspi->pTxBuffPtr);
 8003882:	68fb      	ldr	r3, [r7, #12]
 8003884:	6b9b      	ldr	r3, [r3, #56]	@ 0x38
 8003886:	881a      	ldrh	r2, [r3, #0]
 8003888:	68fb      	ldr	r3, [r7, #12]
 800388a:	681b      	ldr	r3, [r3, #0]
 800388c:	60da      	str	r2, [r3, #12]
      hspi->pTxBuffPtr += sizeof(uint16_t);
 800388e:	68fb      	ldr	r3, [r7, #12]
 8003890:	6b9b      	ldr	r3, [r3, #56]	@ 0x38
 8003892:	1c9a      	adds	r2, r3, #2
 8003894:	68fb      	ldr	r3, [r7, #12]
 8003896:	639a      	str	r2, [r3, #56]	@ 0x38
      hspi->TxXferCount--;
 8003898:	68fb      	ldr	r3, [r7, #12]
 800389a:	8fdb      	ldrh	r3, [r3, #62]	@ 0x3e
 800389c:	b29b      	uxth	r3, r3
 800389e:	3b01      	subs	r3, #1
 80038a0:	b29a      	uxth	r2, r3
 80038a2:	68fb      	ldr	r3, [r7, #12]
 80038a4:	87da      	strh	r2, [r3, #62]	@ 0x3e
    }
    /* Transmit data in 16 Bit mode */
    while (hspi->TxXferCount > 0U)
 80038a6:	e030      	b.n	800390a <HAL_SPI_Transmit+0x1a6>
    {
      /* Wait until TXE flag is set to send data */
      if (__HAL_SPI_GET_FLAG(hspi, SPI_FLAG_TXE))
 80038a8:	68fb      	ldr	r3, [r7, #12]
 80038aa:	681b      	ldr	r3, [r3, #0]
 80038ac:	689b      	ldr	r3, [r3, #8]
 80038ae:	2202      	movs	r2, #2
 80038b0:	4013      	ands	r3, r2
 80038b2:	2b02      	cmp	r3, #2
 80038b4:	d112      	bne.n	80038dc <HAL_SPI_Transmit+0x178>
      {
        hspi->Instance->DR = *((uint16_t *)hspi->pTxBuffPtr);
 80038b6:	68fb      	ldr	r3, [r7, #12]
 80038b8:	6b9b      	ldr	r3, [r3, #56]	@ 0x38
 80038ba:	881a      	ldrh	r2, [r3, #0]
 80038bc:	68fb      	ldr	r3, [r7, #12]
 80038be:	681b      	ldr	r3, [r3, #0]
 80038c0:	60da      	str	r2, [r3, #12]
        hspi->pTxBuffPtr += sizeof(uint16_t);
 80038c2:	68fb      	ldr	r3, [r7, #12]
 80038c4:	6b9b      	ldr	r3, [r3, #56]	@ 0x38
 80038c6:	1c9a      	adds	r2, r3, #2
 80038c8:	68fb      	ldr	r3, [r7, #12]
 80038ca:	639a      	str	r2, [r3, #56]	@ 0x38
        hspi->TxXferCount--;
 80038cc:	68fb      	ldr	r3, [r7, #12]
 80038ce:	8fdb      	ldrh	r3, [r3, #62]	@ 0x3e
 80038d0:	b29b      	uxth	r3, r3
 80038d2:	3b01      	subs	r3, #1
 80038d4:	b29a      	uxth	r2, r3
 80038d6:	68fb      	ldr	r3, [r7, #12]
 80038d8:	87da      	strh	r2, [r3, #62]	@ 0x3e
 80038da:	e016      	b.n	800390a <HAL_SPI_Transmit+0x1a6>
      }
      else
      {
        /* Timeout management */
        if ((((HAL_GetTick() - tickstart) >=  Timeout) && (Timeout != HAL_MAX_DELAY)) || (Timeout == 0U))
 80038dc:	f7fe fd4e 	bl	800237c <HAL_GetTick>
 80038e0:	0002      	movs	r2, r0
 80038e2:	69bb      	ldr	r3, [r7, #24]
 80038e4:	1ad3      	subs	r3, r2, r3
 80038e6:	683a      	ldr	r2, [r7, #0]
 80038e8:	429a      	cmp	r2, r3
 80038ea:	d802      	bhi.n	80038f2 <HAL_SPI_Transmit+0x18e>
 80038ec:	683b      	ldr	r3, [r7, #0]
 80038ee:	3301      	adds	r3, #1
 80038f0:	d102      	bne.n	80038f8 <HAL_SPI_Transmit+0x194>
 80038f2:	683b      	ldr	r3, [r7, #0]
 80038f4:	2b00      	cmp	r3, #0
 80038f6:	d108      	bne.n	800390a <HAL_SPI_Transmit+0x1a6>
        {
          errorcode = HAL_TIMEOUT;
 80038f8:	231f      	movs	r3, #31
 80038fa:	18fb      	adds	r3, r7, r3
 80038fc:	2203      	movs	r2, #3
 80038fe:	701a      	strb	r2, [r3, #0]
          hspi->State = HAL_SPI_STATE_READY;
 8003900:	68fb      	ldr	r3, [r7, #12]
 8003902:	225d      	movs	r2, #93	@ 0x5d
 8003904:	2101      	movs	r1, #1
 8003906:	5499      	strb	r1, [r3, r2]
          goto error;
 8003908:	e080      	b.n	8003a0c <HAL_SPI_Transmit+0x2a8>
    while (hspi->TxXferCount > 0U)
 800390a:	68fb      	ldr	r3, [r7, #12]
 800390c:	8fdb      	ldrh	r3, [r3, #62]	@ 0x3e
 800390e:	b29b      	uxth	r3, r3
 8003910:	2b00      	cmp	r3, #0
 8003912:	d1c9      	bne.n	80038a8 <HAL_SPI_Transmit+0x144>
 8003914:	e053      	b.n	80039be <HAL_SPI_Transmit+0x25a>
    }
  }
  /* Transmit data in 8 Bit mode */
  else
  {
    if ((hspi->Init.Mode == SPI_MODE_SLAVE) || (initial_TxXferCount == 0x01U))
 8003916:	68fb      	ldr	r3, [r7, #12]
 8003918:	685b      	ldr	r3, [r3, #4]
 800391a:	2b00      	cmp	r3, #0
 800391c:	d004      	beq.n	8003928 <HAL_SPI_Transmit+0x1c4>
 800391e:	2316      	movs	r3, #22
 8003920:	18fb      	adds	r3, r7, r3
 8003922:	881b      	ldrh	r3, [r3, #0]
 8003924:	2b01      	cmp	r3, #1
 8003926:	d145      	bne.n	80039b4 <HAL_SPI_Transmit+0x250>
    {
      *((__IO uint8_t *)&hspi->Instance->DR) = (*hspi->pTxBuffPtr);
 8003928:	68fb      	ldr	r3, [r7, #12]
 800392a:	6b9a      	ldr	r2, [r3, #56]	@ 0x38
 800392c:	68fb      	ldr	r3, [r7, #12]
 800392e:	681b      	ldr	r3, [r3, #0]
 8003930:	330c      	adds	r3, #12
 8003932:	7812      	ldrb	r2, [r2, #0]
 8003934:	701a      	strb	r2, [r3, #0]
      hspi->pTxBuffPtr += sizeof(uint8_t);
 8003936:	68fb      	ldr	r3, [r7, #12]
 8003938:	6b9b      	ldr	r3, [r3, #56]	@ 0x38
 800393a:	1c5a      	adds	r2, r3, #1
 800393c:	68fb      	ldr	r3, [r7, #12]
 800393e:	639a      	str	r2, [r3, #56]	@ 0x38
      hspi->TxXferCount--;
 8003940:	68fb      	ldr	r3, [r7, #12]
 8003942:	8fdb      	ldrh	r3, [r3, #62]	@ 0x3e
 8003944:	b29b      	uxth	r3, r3
 8003946:	3b01      	subs	r3, #1
 8003948:	b29a      	uxth	r2, r3
 800394a:	68fb      	ldr	r3, [r7, #12]
 800394c:	87da      	strh	r2, [r3, #62]	@ 0x3e
    }
    while (hspi->TxXferCount > 0U)
 800394e:	e031      	b.n	80039b4 <HAL_SPI_Transmit+0x250>
    {
      /* Wait until TXE flag is set to send data */
      if (__HAL_SPI_GET_FLAG(hspi, SPI_FLAG_TXE))
 8003950:	68fb      	ldr	r3, [r7, #12]
 8003952:	681b      	ldr	r3, [r3, #0]
 8003954:	689b      	ldr	r3, [r3, #8]
 8003956:	2202      	movs	r2, #2
 8003958:	4013      	ands	r3, r2
 800395a:	2b02      	cmp	r3, #2
 800395c:	d113      	bne.n	8003986 <HAL_SPI_Transmit+0x222>
      {
        *((__IO uint8_t *)&hspi->Instance->DR) = (*hspi->pTxBuffPtr);
 800395e:	68fb      	ldr	r3, [r7, #12]
 8003960:	6b9a      	ldr	r2, [r3, #56]	@ 0x38
 8003962:	68fb      	ldr	r3, [r7, #12]
 8003964:	681b      	ldr	r3, [r3, #0]
 8003966:	330c      	adds	r3, #12
 8003968:	7812      	ldrb	r2, [r2, #0]
 800396a:	701a      	strb	r2, [r3, #0]
        hspi->pTxBuffPtr += sizeof(uint8_t);
 800396c:	68fb      	ldr	r3, [r7, #12]
 800396e:	6b9b      	ldr	r3, [r3, #56]	@ 0x38
 8003970:	1c5a      	adds	r2, r3, #1
 8003972:	68fb      	ldr	r3, [r7, #12]
 8003974:	639a      	str	r2, [r3, #56]	@ 0x38
        hspi->TxXferCount--;
 8003976:	68fb      	ldr	r3, [r7, #12]
 8003978:	8fdb      	ldrh	r3, [r3, #62]	@ 0x3e
 800397a:	b29b      	uxth	r3, r3
 800397c:	3b01      	subs	r3, #1
 800397e:	b29a      	uxth	r2, r3
 8003980:	68fb      	ldr	r3, [r7, #12]
 8003982:	87da      	strh	r2, [r3, #62]	@ 0x3e
 8003984:	e016      	b.n	80039b4 <HAL_SPI_Transmit+0x250>
      }
      else
      {
        /* Timeout management */
        if ((((HAL_GetTick() - tickstart) >=  Timeout) && (Timeout != HAL_MAX_DELAY)) || (Timeout == 0U))
 8003986:	f7fe fcf9 	bl	800237c <HAL_GetTick>
 800398a:	0002      	movs	r2, r0
 800398c:	69bb      	ldr	r3, [r7, #24]
 800398e:	1ad3      	subs	r3, r2, r3
 8003990:	683a      	ldr	r2, [r7, #0]
 8003992:	429a      	cmp	r2, r3
 8003994:	d802      	bhi.n	800399c <HAL_SPI_Transmit+0x238>
 8003996:	683b      	ldr	r3, [r7, #0]
 8003998:	3301      	adds	r3, #1
 800399a:	d102      	bne.n	80039a2 <HAL_SPI_Transmit+0x23e>
 800399c:	683b      	ldr	r3, [r7, #0]
 800399e:	2b00      	cmp	r3, #0
 80039a0:	d108      	bne.n	80039b4 <HAL_SPI_Transmit+0x250>
        {
          errorcode = HAL_TIMEOUT;
 80039a2:	231f      	movs	r3, #31
 80039a4:	18fb      	adds	r3, r7, r3
 80039a6:	2203      	movs	r2, #3
 80039a8:	701a      	strb	r2, [r3, #0]
          hspi->State = HAL_SPI_STATE_READY;
 80039aa:	68fb      	ldr	r3, [r7, #12]
 80039ac:	225d      	movs	r2, #93	@ 0x5d
 80039ae:	2101      	movs	r1, #1
 80039b0:	5499      	strb	r1, [r3, r2]
          goto error;
 80039b2:	e02b      	b.n	8003a0c <HAL_SPI_Transmit+0x2a8>
    while (hspi->TxXferCount > 0U)
 80039b4:	68fb      	ldr	r3, [r7, #12]
 80039b6:	8fdb      	ldrh	r3, [r3, #62]	@ 0x3e
 80039b8:	b29b      	uxth	r3, r3
 80039ba:	2b00      	cmp	r3, #0
 80039bc:	d1c8      	bne.n	8003950 <HAL_SPI_Transmit+0x1ec>
    SET_BIT(hspi->Instance->CR1, SPI_CR1_CRCNEXT);
  }
#endif /* USE_SPI_CRC */

  /* Check the end of the transaction */
  if (SPI_EndRxTxTransaction(hspi, Timeout, tickstart) != HAL_OK)
 80039be:	69ba      	ldr	r2, [r7, #24]
 80039c0:	6839      	ldr	r1, [r7, #0]
 80039c2:	68fb      	ldr	r3, [r7, #12]
 80039c4:	0018      	movs	r0, r3
 80039c6:	f000 fcef 	bl	80043a8 <SPI_EndRxTxTransaction>
 80039ca:	1e03      	subs	r3, r0, #0
 80039cc:	d002      	beq.n	80039d4 <HAL_SPI_Transmit+0x270>
  {
    hspi->ErrorCode = HAL_SPI_ERROR_FLAG;
 80039ce:	68fb      	ldr	r3, [r7, #12]
 80039d0:	2220      	movs	r2, #32
 80039d2:	661a      	str	r2, [r3, #96]	@ 0x60
  }

  /* Clear overrun flag in 2 Lines communication mode because received is not read */
  if (hspi->Init.Direction == SPI_DIRECTION_2LINES)
 80039d4:	68fb      	ldr	r3, [r7, #12]
 80039d6:	689b      	ldr	r3, [r3, #8]
 80039d8:	2b00      	cmp	r3, #0
 80039da:	d10a      	bne.n	80039f2 <HAL_SPI_Transmit+0x28e>
  {
    __HAL_SPI_CLEAR_OVRFLAG(hspi);
 80039dc:	2300      	movs	r3, #0
 80039de:	613b      	str	r3, [r7, #16]
 80039e0:	68fb      	ldr	r3, [r7, #12]
 80039e2:	681b      	ldr	r3, [r3, #0]
 80039e4:	68db      	ldr	r3, [r3, #12]
 80039e6:	613b      	str	r3, [r7, #16]
 80039e8:	68fb      	ldr	r3, [r7, #12]
 80039ea:	681b      	ldr	r3, [r3, #0]
 80039ec:	689b      	ldr	r3, [r3, #8]
 80039ee:	613b      	str	r3, [r7, #16]
 80039f0:	693b      	ldr	r3, [r7, #16]
  }

  if (hspi->ErrorCode != HAL_SPI_ERROR_NONE)
 80039f2:	68fb      	ldr	r3, [r7, #12]
 80039f4:	6e1b      	ldr	r3, [r3, #96]	@ 0x60
 80039f6:	2b00      	cmp	r3, #0
 80039f8:	d004      	beq.n	8003a04 <HAL_SPI_Transmit+0x2a0>
  {
    errorcode = HAL_ERROR;
 80039fa:	231f      	movs	r3, #31
 80039fc:	18fb      	adds	r3, r7, r3
 80039fe:	2201      	movs	r2, #1
 8003a00:	701a      	strb	r2, [r3, #0]
 8003a02:	e003      	b.n	8003a0c <HAL_SPI_Transmit+0x2a8>
  }
  else
  {
    hspi->State = HAL_SPI_STATE_READY;
 8003a04:	68fb      	ldr	r3, [r7, #12]
 8003a06:	225d      	movs	r2, #93	@ 0x5d
 8003a08:	2101      	movs	r1, #1
 8003a0a:	5499      	strb	r1, [r3, r2]
  }

error:
  /* Process Unlocked */
  __HAL_UNLOCK(hspi);
 8003a0c:	68fb      	ldr	r3, [r7, #12]
 8003a0e:	225c      	movs	r2, #92	@ 0x5c
 8003a10:	2100      	movs	r1, #0
 8003a12:	5499      	strb	r1, [r3, r2]
  return errorcode;
 8003a14:	231f      	movs	r3, #31
 8003a16:	18fb      	adds	r3, r7, r3
 8003a18:	781b      	ldrb	r3, [r3, #0]
}
 8003a1a:	0018      	movs	r0, r3
 8003a1c:	46bd      	mov	sp, r7
 8003a1e:	b008      	add	sp, #32
 8003a20:	bd80      	pop	{r7, pc}
	...

08003a24 <HAL_SPI_Receive>:
  * @param  Size amount of data to be received
  * @param  Timeout Timeout duration
  * @retval HAL status
  */
HAL_StatusTypeDef HAL_SPI_Receive(SPI_HandleTypeDef *hspi, uint8_t *pData, uint16_t Size, uint32_t Timeout)
{
 8003a24:	b590      	push	{r4, r7, lr}
 8003a26:	b089      	sub	sp, #36	@ 0x24
 8003a28:	af02      	add	r7, sp, #8
 8003a2a:	60f8      	str	r0, [r7, #12]
 8003a2c:	60b9      	str	r1, [r7, #8]
 8003a2e:	603b      	str	r3, [r7, #0]
 8003a30:	1dbb      	adds	r3, r7, #6
 8003a32:	801a      	strh	r2, [r3, #0]
  __IO uint32_t tmpreg = 0U;
  __IO uint8_t  *ptmpreg8;
  __IO uint8_t  tmpreg8 = 0;
#endif /* USE_SPI_CRC */
  uint32_t tickstart;
  HAL_StatusTypeDef errorcode = HAL_OK;
 8003a34:	2117      	movs	r1, #23
 8003a36:	187b      	adds	r3, r7, r1
 8003a38:	2200      	movs	r2, #0
 8003a3a:	701a      	strb	r2, [r3, #0]

  if (hspi->State != HAL_SPI_STATE_READY)
 8003a3c:	68fb      	ldr	r3, [r7, #12]
 8003a3e:	225d      	movs	r2, #93	@ 0x5d
 8003a40:	5c9b      	ldrb	r3, [r3, r2]
 8003a42:	b2db      	uxtb	r3, r3
 8003a44:	2b01      	cmp	r3, #1
 8003a46:	d003      	beq.n	8003a50 <HAL_SPI_Receive+0x2c>
  {
    errorcode = HAL_BUSY;
 8003a48:	187b      	adds	r3, r7, r1
 8003a4a:	2202      	movs	r2, #2
 8003a4c:	701a      	strb	r2, [r3, #0]
    goto error;
 8003a4e:	e12b      	b.n	8003ca8 <HAL_SPI_Receive+0x284>
  }

  if ((hspi->Init.Mode == SPI_MODE_MASTER) && (hspi->Init.Direction == SPI_DIRECTION_2LINES))
 8003a50:	68fb      	ldr	r3, [r7, #12]
 8003a52:	685a      	ldr	r2, [r3, #4]
 8003a54:	2382      	movs	r3, #130	@ 0x82
 8003a56:	005b      	lsls	r3, r3, #1
 8003a58:	429a      	cmp	r2, r3
 8003a5a:	d113      	bne.n	8003a84 <HAL_SPI_Receive+0x60>
 8003a5c:	68fb      	ldr	r3, [r7, #12]
 8003a5e:	689b      	ldr	r3, [r3, #8]
 8003a60:	2b00      	cmp	r3, #0
 8003a62:	d10f      	bne.n	8003a84 <HAL_SPI_Receive+0x60>
  {
    hspi->State = HAL_SPI_STATE_BUSY_RX;
 8003a64:	68fb      	ldr	r3, [r7, #12]
 8003a66:	225d      	movs	r2, #93	@ 0x5d
 8003a68:	2104      	movs	r1, #4
 8003a6a:	5499      	strb	r1, [r3, r2]
    /* Call transmit-receive function to send Dummy data on Tx line and generate clock on CLK line */
    return HAL_SPI_TransmitReceive(hspi, pData, pData, Size, Timeout);
 8003a6c:	1dbb      	adds	r3, r7, #6
 8003a6e:	881c      	ldrh	r4, [r3, #0]
 8003a70:	68ba      	ldr	r2, [r7, #8]
 8003a72:	68b9      	ldr	r1, [r7, #8]
 8003a74:	68f8      	ldr	r0, [r7, #12]
 8003a76:	683b      	ldr	r3, [r7, #0]
 8003a78:	9300      	str	r3, [sp, #0]
 8003a7a:	0023      	movs	r3, r4
 8003a7c:	f000 f924 	bl	8003cc8 <HAL_SPI_TransmitReceive>
 8003a80:	0003      	movs	r3, r0
 8003a82:	e118      	b.n	8003cb6 <HAL_SPI_Receive+0x292>
  }

  /* Process Locked */
  __HAL_LOCK(hspi);
 8003a84:	68fb      	ldr	r3, [r7, #12]
 8003a86:	225c      	movs	r2, #92	@ 0x5c
 8003a88:	5c9b      	ldrb	r3, [r3, r2]
 8003a8a:	2b01      	cmp	r3, #1
 8003a8c:	d101      	bne.n	8003a92 <HAL_SPI_Receive+0x6e>
 8003a8e:	2302      	movs	r3, #2
 8003a90:	e111      	b.n	8003cb6 <HAL_SPI_Receive+0x292>
 8003a92:	68fb      	ldr	r3, [r7, #12]
 8003a94:	225c      	movs	r2, #92	@ 0x5c
 8003a96:	2101      	movs	r1, #1
 8003a98:	5499      	strb	r1, [r3, r2]

  /* Init tickstart for timeout management*/
  tickstart = HAL_GetTick();
 8003a9a:	f7fe fc6f 	bl	800237c <HAL_GetTick>
 8003a9e:	0003      	movs	r3, r0
 8003aa0:	613b      	str	r3, [r7, #16]

  if ((pData == NULL) || (Size == 0U))
 8003aa2:	68bb      	ldr	r3, [r7, #8]
 8003aa4:	2b00      	cmp	r3, #0
 8003aa6:	d003      	beq.n	8003ab0 <HAL_SPI_Receive+0x8c>
 8003aa8:	1dbb      	adds	r3, r7, #6
 8003aaa:	881b      	ldrh	r3, [r3, #0]
 8003aac:	2b00      	cmp	r3, #0
 8003aae:	d104      	bne.n	8003aba <HAL_SPI_Receive+0x96>
  {
    errorcode = HAL_ERROR;
 8003ab0:	2317      	movs	r3, #23
 8003ab2:	18fb      	adds	r3, r7, r3
 8003ab4:	2201      	movs	r2, #1
 8003ab6:	701a      	strb	r2, [r3, #0]
    goto error;
 8003ab8:	e0f6      	b.n	8003ca8 <HAL_SPI_Receive+0x284>
  }

  /* Set the transaction information */
  hspi->State       = HAL_SPI_STATE_BUSY_RX;
 8003aba:	68fb      	ldr	r3, [r7, #12]
 8003abc:	225d      	movs	r2, #93	@ 0x5d
 8003abe:	2104      	movs	r1, #4
 8003ac0:	5499      	strb	r1, [r3, r2]
  hspi->ErrorCode   = HAL_SPI_ERROR_NONE;
 8003ac2:	68fb      	ldr	r3, [r7, #12]
 8003ac4:	2200      	movs	r2, #0
 8003ac6:	661a      	str	r2, [r3, #96]	@ 0x60
  hspi->pRxBuffPtr  = (uint8_t *)pData;
 8003ac8:	68fb      	ldr	r3, [r7, #12]
 8003aca:	68ba      	ldr	r2, [r7, #8]
 8003acc:	641a      	str	r2, [r3, #64]	@ 0x40
  hspi->RxXferSize  = Size;
 8003ace:	68fb      	ldr	r3, [r7, #12]
 8003ad0:	1dba      	adds	r2, r7, #6
 8003ad2:	2144      	movs	r1, #68	@ 0x44
 8003ad4:	8812      	ldrh	r2, [r2, #0]
 8003ad6:	525a      	strh	r2, [r3, r1]
  hspi->RxXferCount = Size;
 8003ad8:	68fb      	ldr	r3, [r7, #12]
 8003ada:	1dba      	adds	r2, r7, #6
 8003adc:	2146      	movs	r1, #70	@ 0x46
 8003ade:	8812      	ldrh	r2, [r2, #0]
 8003ae0:	525a      	strh	r2, [r3, r1]

  /*Init field not used in handle to zero */
  hspi->pTxBuffPtr  = (uint8_t *)NULL;
 8003ae2:	68fb      	ldr	r3, [r7, #12]
 8003ae4:	2200      	movs	r2, #0
 8003ae6:	639a      	str	r2, [r3, #56]	@ 0x38
  hspi->TxXferSize  = 0U;
 8003ae8:	68fb      	ldr	r3, [r7, #12]
 8003aea:	2200      	movs	r2, #0
 8003aec:	879a      	strh	r2, [r3, #60]	@ 0x3c
  hspi->TxXferCount = 0U;
 8003aee:	68fb      	ldr	r3, [r7, #12]
 8003af0:	2200      	movs	r2, #0
 8003af2:	87da      	strh	r2, [r3, #62]	@ 0x3e
  hspi->RxISR       = NULL;
 8003af4:	68fb      	ldr	r3, [r7, #12]
 8003af6:	2200      	movs	r2, #0
 8003af8:	64da      	str	r2, [r3, #76]	@ 0x4c
  hspi->TxISR       = NULL;
 8003afa:	68fb      	ldr	r3, [r7, #12]
 8003afc:	2200      	movs	r2, #0
 8003afe:	651a      	str	r2, [r3, #80]	@ 0x50
    hspi->RxXferCount--;
  }
#endif /* USE_SPI_CRC */

  /* Set the Rx Fifo threshold */
  if (hspi->Init.DataSize > SPI_DATASIZE_8BIT)
 8003b00:	68fb      	ldr	r3, [r7, #12]
 8003b02:	68da      	ldr	r2, [r3, #12]
 8003b04:	23e0      	movs	r3, #224	@ 0xe0
 8003b06:	00db      	lsls	r3, r3, #3
 8003b08:	429a      	cmp	r2, r3
 8003b0a:	d908      	bls.n	8003b1e <HAL_SPI_Receive+0xfa>
  {
    /* Set RX Fifo threshold according the reception data length: 16bit */
    CLEAR_BIT(hspi->Instance->CR2, SPI_RXFIFO_THRESHOLD);
 8003b0c:	68fb      	ldr	r3, [r7, #12]
 8003b0e:	681b      	ldr	r3, [r3, #0]
 8003b10:	685a      	ldr	r2, [r3, #4]
 8003b12:	68fb      	ldr	r3, [r7, #12]
 8003b14:	681b      	ldr	r3, [r3, #0]
 8003b16:	496a      	ldr	r1, [pc, #424]	@ (8003cc0 <HAL_SPI_Receive+0x29c>)
 8003b18:	400a      	ands	r2, r1
 8003b1a:	605a      	str	r2, [r3, #4]
 8003b1c:	e008      	b.n	8003b30 <HAL_SPI_Receive+0x10c>
  }
  else
  {
    /* Set RX Fifo threshold according the reception data length: 8bit */
    SET_BIT(hspi->Instance->CR2, SPI_RXFIFO_THRESHOLD);
 8003b1e:	68fb      	ldr	r3, [r7, #12]
 8003b20:	681b      	ldr	r3, [r3, #0]
 8003b22:	685a      	ldr	r2, [r3, #4]
 8003b24:	68fb      	ldr	r3, [r7, #12]
 8003b26:	681b      	ldr	r3, [r3, #0]
 8003b28:	2180      	movs	r1, #128	@ 0x80
 8003b2a:	0149      	lsls	r1, r1, #5
 8003b2c:	430a      	orrs	r2, r1
 8003b2e:	605a      	str	r2, [r3, #4]
  }

  /* Configure communication direction: 1Line */
  if (hspi->Init.Direction == SPI_DIRECTION_1LINE)
 8003b30:	68fb      	ldr	r3, [r7, #12]
 8003b32:	689a      	ldr	r2, [r3, #8]
 8003b34:	2380      	movs	r3, #128	@ 0x80
 8003b36:	021b      	lsls	r3, r3, #8
 8003b38:	429a      	cmp	r2, r3
 8003b3a:	d10f      	bne.n	8003b5c <HAL_SPI_Receive+0x138>
  {
    /* Disable SPI Peripheral before set 1Line direction (BIDIOE bit) */
    __HAL_SPI_DISABLE(hspi);
 8003b3c:	68fb      	ldr	r3, [r7, #12]
 8003b3e:	681b      	ldr	r3, [r3, #0]
 8003b40:	681a      	ldr	r2, [r3, #0]
 8003b42:	68fb      	ldr	r3, [r7, #12]
 8003b44:	681b      	ldr	r3, [r3, #0]
 8003b46:	2140      	movs	r1, #64	@ 0x40
 8003b48:	438a      	bics	r2, r1
 8003b4a:	601a      	str	r2, [r3, #0]
    SPI_1LINE_RX(hspi);
 8003b4c:	68fb      	ldr	r3, [r7, #12]
 8003b4e:	681b      	ldr	r3, [r3, #0]
 8003b50:	681a      	ldr	r2, [r3, #0]
 8003b52:	68fb      	ldr	r3, [r7, #12]
 8003b54:	681b      	ldr	r3, [r3, #0]
 8003b56:	495b      	ldr	r1, [pc, #364]	@ (8003cc4 <HAL_SPI_Receive+0x2a0>)
 8003b58:	400a      	ands	r2, r1
 8003b5a:	601a      	str	r2, [r3, #0]
  }

  /* Check if the SPI is already enabled */
  if ((hspi->Instance->CR1 & SPI_CR1_SPE) != SPI_CR1_SPE)
 8003b5c:	68fb      	ldr	r3, [r7, #12]
 8003b5e:	681b      	ldr	r3, [r3, #0]
 8003b60:	681b      	ldr	r3, [r3, #0]
 8003b62:	2240      	movs	r2, #64	@ 0x40
 8003b64:	4013      	ands	r3, r2
 8003b66:	2b40      	cmp	r3, #64	@ 0x40
 8003b68:	d007      	beq.n	8003b7a <HAL_SPI_Receive+0x156>
  {
    /* Enable SPI peripheral */
    __HAL_SPI_ENABLE(hspi);
 8003b6a:	68fb      	ldr	r3, [r7, #12]
 8003b6c:	681b      	ldr	r3, [r3, #0]
 8003b6e:	681a      	ldr	r2, [r3, #0]
 8003b70:	68fb      	ldr	r3, [r7, #12]
 8003b72:	681b      	ldr	r3, [r3, #0]
 8003b74:	2140      	movs	r1, #64	@ 0x40
 8003b76:	430a      	orrs	r2, r1
 8003b78:	601a      	str	r2, [r3, #0]
  }

  /* Receive data in 8 Bit mode */
  if (hspi->Init.DataSize <= SPI_DATASIZE_8BIT)
 8003b7a:	68fb      	ldr	r3, [r7, #12]
 8003b7c:	68da      	ldr	r2, [r3, #12]
 8003b7e:	23e0      	movs	r3, #224	@ 0xe0
 8003b80:	00db      	lsls	r3, r3, #3
 8003b82:	429a      	cmp	r2, r3
 8003b84:	d900      	bls.n	8003b88 <HAL_SPI_Receive+0x164>
 8003b86:	e071      	b.n	8003c6c <HAL_SPI_Receive+0x248>
  {
    /* Transfer loop */
    while (hspi->RxXferCount > 0U)
 8003b88:	e035      	b.n	8003bf6 <HAL_SPI_Receive+0x1d2>
    {
      /* Check the RXNE flag */
      if (__HAL_SPI_GET_FLAG(hspi, SPI_FLAG_RXNE))
 8003b8a:	68fb      	ldr	r3, [r7, #12]
 8003b8c:	681b      	ldr	r3, [r3, #0]
 8003b8e:	689b      	ldr	r3, [r3, #8]
 8003b90:	2201      	movs	r2, #1
 8003b92:	4013      	ands	r3, r2
 8003b94:	2b01      	cmp	r3, #1
 8003b96:	d117      	bne.n	8003bc8 <HAL_SPI_Receive+0x1a4>
      {
        /* read the received data */
        (* (uint8_t *)hspi->pRxBuffPtr) = *(__IO uint8_t *)&hspi->Instance->DR;
 8003b98:	68fb      	ldr	r3, [r7, #12]
 8003b9a:	681b      	ldr	r3, [r3, #0]
 8003b9c:	330c      	adds	r3, #12
 8003b9e:	001a      	movs	r2, r3
 8003ba0:	68fb      	ldr	r3, [r7, #12]
 8003ba2:	6c1b      	ldr	r3, [r3, #64]	@ 0x40
 8003ba4:	7812      	ldrb	r2, [r2, #0]
 8003ba6:	b2d2      	uxtb	r2, r2
 8003ba8:	701a      	strb	r2, [r3, #0]
        hspi->pRxBuffPtr += sizeof(uint8_t);
 8003baa:	68fb      	ldr	r3, [r7, #12]
 8003bac:	6c1b      	ldr	r3, [r3, #64]	@ 0x40
 8003bae:	1c5a      	adds	r2, r3, #1
 8003bb0:	68fb      	ldr	r3, [r7, #12]
 8003bb2:	641a      	str	r2, [r3, #64]	@ 0x40
        hspi->RxXferCount--;
 8003bb4:	68fb      	ldr	r3, [r7, #12]
 8003bb6:	2246      	movs	r2, #70	@ 0x46
 8003bb8:	5a9b      	ldrh	r3, [r3, r2]
 8003bba:	b29b      	uxth	r3, r3
 8003bbc:	3b01      	subs	r3, #1
 8003bbe:	b299      	uxth	r1, r3
 8003bc0:	68fb      	ldr	r3, [r7, #12]
 8003bc2:	2246      	movs	r2, #70	@ 0x46
 8003bc4:	5299      	strh	r1, [r3, r2]
 8003bc6:	e016      	b.n	8003bf6 <HAL_SPI_Receive+0x1d2>
      }
      else
      {
        /* Timeout management */
        if ((((HAL_GetTick() - tickstart) >=  Timeout) && (Timeout != HAL_MAX_DELAY)) || (Timeout == 0U))
 8003bc8:	f7fe fbd8 	bl	800237c <HAL_GetTick>
 8003bcc:	0002      	movs	r2, r0
 8003bce:	693b      	ldr	r3, [r7, #16]
 8003bd0:	1ad3      	subs	r3, r2, r3
 8003bd2:	683a      	ldr	r2, [r7, #0]
 8003bd4:	429a      	cmp	r2, r3
 8003bd6:	d802      	bhi.n	8003bde <HAL_SPI_Receive+0x1ba>
 8003bd8:	683b      	ldr	r3, [r7, #0]
 8003bda:	3301      	adds	r3, #1
 8003bdc:	d102      	bne.n	8003be4 <HAL_SPI_Receive+0x1c0>
 8003bde:	683b      	ldr	r3, [r7, #0]
 8003be0:	2b00      	cmp	r3, #0
 8003be2:	d108      	bne.n	8003bf6 <HAL_SPI_Receive+0x1d2>
        {
          errorcode = HAL_TIMEOUT;
 8003be4:	2317      	movs	r3, #23
 8003be6:	18fb      	adds	r3, r7, r3
 8003be8:	2203      	movs	r2, #3
 8003bea:	701a      	strb	r2, [r3, #0]
          hspi->State = HAL_SPI_STATE_READY;
 8003bec:	68fb      	ldr	r3, [r7, #12]
 8003bee:	225d      	movs	r2, #93	@ 0x5d
 8003bf0:	2101      	movs	r1, #1
 8003bf2:	5499      	strb	r1, [r3, r2]
          goto error;
 8003bf4:	e058      	b.n	8003ca8 <HAL_SPI_Receive+0x284>
    while (hspi->RxXferCount > 0U)
 8003bf6:	68fb      	ldr	r3, [r7, #12]
 8003bf8:	2246      	movs	r2, #70	@ 0x46
 8003bfa:	5a9b      	ldrh	r3, [r3, r2]
 8003bfc:	b29b      	uxth	r3, r3
 8003bfe:	2b00      	cmp	r3, #0
 8003c00:	d1c3      	bne.n	8003b8a <HAL_SPI_Receive+0x166>
 8003c02:	e039      	b.n	8003c78 <HAL_SPI_Receive+0x254>
  {
    /* Transfer loop */
    while (hspi->RxXferCount > 0U)
    {
      /* Check the RXNE flag */
      if (__HAL_SPI_GET_FLAG(hspi, SPI_FLAG_RXNE))
 8003c04:	68fb      	ldr	r3, [r7, #12]
 8003c06:	681b      	ldr	r3, [r3, #0]
 8003c08:	689b      	ldr	r3, [r3, #8]
 8003c0a:	2201      	movs	r2, #1
 8003c0c:	4013      	ands	r3, r2
 8003c0e:	2b01      	cmp	r3, #1
 8003c10:	d115      	bne.n	8003c3e <HAL_SPI_Receive+0x21a>
      {
        *((uint16_t *)hspi->pRxBuffPtr) = (uint16_t)hspi->Instance->DR;
 8003c12:	68fb      	ldr	r3, [r7, #12]
 8003c14:	681b      	ldr	r3, [r3, #0]
 8003c16:	68da      	ldr	r2, [r3, #12]
 8003c18:	68fb      	ldr	r3, [r7, #12]
 8003c1a:	6c1b      	ldr	r3, [r3, #64]	@ 0x40
 8003c1c:	b292      	uxth	r2, r2
 8003c1e:	801a      	strh	r2, [r3, #0]
        hspi->pRxBuffPtr += sizeof(uint16_t);
 8003c20:	68fb      	ldr	r3, [r7, #12]
 8003c22:	6c1b      	ldr	r3, [r3, #64]	@ 0x40
 8003c24:	1c9a      	adds	r2, r3, #2
 8003c26:	68fb      	ldr	r3, [r7, #12]
 8003c28:	641a      	str	r2, [r3, #64]	@ 0x40
        hspi->RxXferCount--;
 8003c2a:	68fb      	ldr	r3, [r7, #12]
 8003c2c:	2246      	movs	r2, #70	@ 0x46
 8003c2e:	5a9b      	ldrh	r3, [r3, r2]
 8003c30:	b29b      	uxth	r3, r3
 8003c32:	3b01      	subs	r3, #1
 8003c34:	b299      	uxth	r1, r3
 8003c36:	68fb      	ldr	r3, [r7, #12]
 8003c38:	2246      	movs	r2, #70	@ 0x46
 8003c3a:	5299      	strh	r1, [r3, r2]
 8003c3c:	e016      	b.n	8003c6c <HAL_SPI_Receive+0x248>
      }
      else
      {
        /* Timeout management */
        if ((((HAL_GetTick() - tickstart) >=  Timeout) && (Timeout != HAL_MAX_DELAY)) || (Timeout == 0U))
 8003c3e:	f7fe fb9d 	bl	800237c <HAL_GetTick>
 8003c42:	0002      	movs	r2, r0
 8003c44:	693b      	ldr	r3, [r7, #16]
 8003c46:	1ad3      	subs	r3, r2, r3
 8003c48:	683a      	ldr	r2, [r7, #0]
 8003c4a:	429a      	cmp	r2, r3
 8003c4c:	d802      	bhi.n	8003c54 <HAL_SPI_Receive+0x230>
 8003c4e:	683b      	ldr	r3, [r7, #0]
 8003c50:	3301      	adds	r3, #1
 8003c52:	d102      	bne.n	8003c5a <HAL_SPI_Receive+0x236>
 8003c54:	683b      	ldr	r3, [r7, #0]
 8003c56:	2b00      	cmp	r3, #0
 8003c58:	d108      	bne.n	8003c6c <HAL_SPI_Receive+0x248>
        {
          errorcode = HAL_TIMEOUT;
 8003c5a:	2317      	movs	r3, #23
 8003c5c:	18fb      	adds	r3, r7, r3
 8003c5e:	2203      	movs	r2, #3
 8003c60:	701a      	strb	r2, [r3, #0]
          hspi->State = HAL_SPI_STATE_READY;
 8003c62:	68fb      	ldr	r3, [r7, #12]
 8003c64:	225d      	movs	r2, #93	@ 0x5d
 8003c66:	2101      	movs	r1, #1
 8003c68:	5499      	strb	r1, [r3, r2]
          goto error;
 8003c6a:	e01d      	b.n	8003ca8 <HAL_SPI_Receive+0x284>
    while (hspi->RxXferCount > 0U)
 8003c6c:	68fb      	ldr	r3, [r7, #12]
 8003c6e:	2246      	movs	r2, #70	@ 0x46
 8003c70:	5a9b      	ldrh	r3, [r3, r2]
 8003c72:	b29b      	uxth	r3, r3
 8003c74:	2b00      	cmp	r3, #0
 8003c76:	d1c5      	bne.n	8003c04 <HAL_SPI_Receive+0x1e0>
    }
  }
#endif /* USE_SPI_CRC */

  /* Check the end of the transaction */
  if (SPI_EndRxTransaction(hspi, Timeout, tickstart) != HAL_OK)
 8003c78:	693a      	ldr	r2, [r7, #16]
 8003c7a:	6839      	ldr	r1, [r7, #0]
 8003c7c:	68fb      	ldr	r3, [r7, #12]
 8003c7e:	0018      	movs	r0, r3
 8003c80:	f000 fb34 	bl	80042ec <SPI_EndRxTransaction>
 8003c84:	1e03      	subs	r3, r0, #0
 8003c86:	d002      	beq.n	8003c8e <HAL_SPI_Receive+0x26a>
  {
    hspi->ErrorCode = HAL_SPI_ERROR_FLAG;
 8003c88:	68fb      	ldr	r3, [r7, #12]
 8003c8a:	2220      	movs	r2, #32
 8003c8c:	661a      	str	r2, [r3, #96]	@ 0x60
    SET_BIT(hspi->ErrorCode, HAL_SPI_ERROR_CRC);
    __HAL_SPI_CLEAR_CRCERRFLAG(hspi);
  }
#endif /* USE_SPI_CRC */

  if (hspi->ErrorCode != HAL_SPI_ERROR_NONE)
 8003c8e:	68fb      	ldr	r3, [r7, #12]
 8003c90:	6e1b      	ldr	r3, [r3, #96]	@ 0x60
 8003c92:	2b00      	cmp	r3, #0
 8003c94:	d004      	beq.n	8003ca0 <HAL_SPI_Receive+0x27c>
  {
    errorcode = HAL_ERROR;
 8003c96:	2317      	movs	r3, #23
 8003c98:	18fb      	adds	r3, r7, r3
 8003c9a:	2201      	movs	r2, #1
 8003c9c:	701a      	strb	r2, [r3, #0]
 8003c9e:	e003      	b.n	8003ca8 <HAL_SPI_Receive+0x284>
  }
  else
  {
    hspi->State = HAL_SPI_STATE_READY;
 8003ca0:	68fb      	ldr	r3, [r7, #12]
 8003ca2:	225d      	movs	r2, #93	@ 0x5d
 8003ca4:	2101      	movs	r1, #1
 8003ca6:	5499      	strb	r1, [r3, r2]
  }

error :
  __HAL_UNLOCK(hspi);
 8003ca8:	68fb      	ldr	r3, [r7, #12]
 8003caa:	225c      	movs	r2, #92	@ 0x5c
 8003cac:	2100      	movs	r1, #0
 8003cae:	5499      	strb	r1, [r3, r2]
  return errorcode;
 8003cb0:	2317      	movs	r3, #23
 8003cb2:	18fb      	adds	r3, r7, r3
 8003cb4:	781b      	ldrb	r3, [r3, #0]
}
 8003cb6:	0018      	movs	r0, r3
 8003cb8:	46bd      	mov	sp, r7
 8003cba:	b007      	add	sp, #28
 8003cbc:	bd90      	pop	{r4, r7, pc}
 8003cbe:	46c0      	nop			@ (mov r8, r8)
 8003cc0:	ffffefff 	.word	0xffffefff
 8003cc4:	ffffbfff 	.word	0xffffbfff

08003cc8 <HAL_SPI_TransmitReceive>:
  * @param  Timeout Timeout duration
  * @retval HAL status
  */
HAL_StatusTypeDef HAL_SPI_TransmitReceive(SPI_HandleTypeDef *hspi, uint8_t *pTxData, uint8_t *pRxData, uint16_t Size,
                                          uint32_t Timeout)
{
 8003cc8:	b580      	push	{r7, lr}
 8003cca:	b08a      	sub	sp, #40	@ 0x28
 8003ccc:	af00      	add	r7, sp, #0
 8003cce:	60f8      	str	r0, [r7, #12]
 8003cd0:	60b9      	str	r1, [r7, #8]
 8003cd2:	607a      	str	r2, [r7, #4]
 8003cd4:	001a      	movs	r2, r3
 8003cd6:	1cbb      	adds	r3, r7, #2
 8003cd8:	801a      	strh	r2, [r3, #0]
  __IO uint8_t  *ptmpreg8;
  __IO uint8_t  tmpreg8 = 0;
#endif /* USE_SPI_CRC */

  /* Variable used to alternate Rx and Tx during transfer */
  uint32_t             txallowed = 1U;
 8003cda:	2301      	movs	r3, #1
 8003cdc:	627b      	str	r3, [r7, #36]	@ 0x24
  HAL_StatusTypeDef    errorcode = HAL_OK;
 8003cde:	2323      	movs	r3, #35	@ 0x23
 8003ce0:	18fb      	adds	r3, r7, r3
 8003ce2:	2200      	movs	r2, #0
 8003ce4:	701a      	strb	r2, [r3, #0]

  /* Check Direction parameter */
  assert_param(IS_SPI_DIRECTION_2LINES(hspi->Init.Direction));

  /* Process Locked */
  __HAL_LOCK(hspi);
 8003ce6:	68fb      	ldr	r3, [r7, #12]
 8003ce8:	225c      	movs	r2, #92	@ 0x5c
 8003cea:	5c9b      	ldrb	r3, [r3, r2]
 8003cec:	2b01      	cmp	r3, #1
 8003cee:	d101      	bne.n	8003cf4 <HAL_SPI_TransmitReceive+0x2c>
 8003cf0:	2302      	movs	r3, #2
 8003cf2:	e1c4      	b.n	800407e <HAL_SPI_TransmitReceive+0x3b6>
 8003cf4:	68fb      	ldr	r3, [r7, #12]
 8003cf6:	225c      	movs	r2, #92	@ 0x5c
 8003cf8:	2101      	movs	r1, #1
 8003cfa:	5499      	strb	r1, [r3, r2]

  /* Init tickstart for timeout management*/
  tickstart = HAL_GetTick();
 8003cfc:	f7fe fb3e 	bl	800237c <HAL_GetTick>
 8003d00:	0003      	movs	r3, r0
 8003d02:	61fb      	str	r3, [r7, #28]

  /* Init temporary variables */
  tmp_state           = hspi->State;
 8003d04:	201b      	movs	r0, #27
 8003d06:	183b      	adds	r3, r7, r0
 8003d08:	68fa      	ldr	r2, [r7, #12]
 8003d0a:	215d      	movs	r1, #93	@ 0x5d
 8003d0c:	5c52      	ldrb	r2, [r2, r1]
 8003d0e:	701a      	strb	r2, [r3, #0]
  tmp_mode            = hspi->Init.Mode;
 8003d10:	68fb      	ldr	r3, [r7, #12]
 8003d12:	685b      	ldr	r3, [r3, #4]
 8003d14:	617b      	str	r3, [r7, #20]
  initial_TxXferCount = Size;
 8003d16:	2312      	movs	r3, #18
 8003d18:	18fb      	adds	r3, r7, r3
 8003d1a:	1cba      	adds	r2, r7, #2
 8003d1c:	8812      	ldrh	r2, [r2, #0]
 8003d1e:	801a      	strh	r2, [r3, #0]
#if (USE_SPI_CRC != 0U)
  spi_cr1             = READ_REG(hspi->Instance->CR1);
  spi_cr2             = READ_REG(hspi->Instance->CR2);
#endif /* USE_SPI_CRC */

  if (!((tmp_state == HAL_SPI_STATE_READY) || \
 8003d20:	183b      	adds	r3, r7, r0
 8003d22:	781b      	ldrb	r3, [r3, #0]
 8003d24:	2b01      	cmp	r3, #1
 8003d26:	d011      	beq.n	8003d4c <HAL_SPI_TransmitReceive+0x84>
 8003d28:	697a      	ldr	r2, [r7, #20]
 8003d2a:	2382      	movs	r3, #130	@ 0x82
 8003d2c:	005b      	lsls	r3, r3, #1
 8003d2e:	429a      	cmp	r2, r3
 8003d30:	d107      	bne.n	8003d42 <HAL_SPI_TransmitReceive+0x7a>
        ((tmp_mode == SPI_MODE_MASTER) && (hspi->Init.Direction == SPI_DIRECTION_2LINES) && (tmp_state == HAL_SPI_STATE_BUSY_RX))))
 8003d32:	68fb      	ldr	r3, [r7, #12]
 8003d34:	689b      	ldr	r3, [r3, #8]
 8003d36:	2b00      	cmp	r3, #0
 8003d38:	d103      	bne.n	8003d42 <HAL_SPI_TransmitReceive+0x7a>
 8003d3a:	183b      	adds	r3, r7, r0
 8003d3c:	781b      	ldrb	r3, [r3, #0]
 8003d3e:	2b04      	cmp	r3, #4
 8003d40:	d004      	beq.n	8003d4c <HAL_SPI_TransmitReceive+0x84>
  {
    errorcode = HAL_BUSY;
 8003d42:	2323      	movs	r3, #35	@ 0x23
 8003d44:	18fb      	adds	r3, r7, r3
 8003d46:	2202      	movs	r2, #2
 8003d48:	701a      	strb	r2, [r3, #0]
    goto error;
 8003d4a:	e191      	b.n	8004070 <HAL_SPI_TransmitReceive+0x3a8>
  }

  if ((pTxData == NULL) || (pRxData == NULL) || (Size == 0U))
 8003d4c:	68bb      	ldr	r3, [r7, #8]
 8003d4e:	2b00      	cmp	r3, #0
 8003d50:	d006      	beq.n	8003d60 <HAL_SPI_TransmitReceive+0x98>
 8003d52:	687b      	ldr	r3, [r7, #4]
 8003d54:	2b00      	cmp	r3, #0
 8003d56:	d003      	beq.n	8003d60 <HAL_SPI_TransmitReceive+0x98>
 8003d58:	1cbb      	adds	r3, r7, #2
 8003d5a:	881b      	ldrh	r3, [r3, #0]
 8003d5c:	2b00      	cmp	r3, #0
 8003d5e:	d104      	bne.n	8003d6a <HAL_SPI_TransmitReceive+0xa2>
  {
    errorcode = HAL_ERROR;
 8003d60:	2323      	movs	r3, #35	@ 0x23
 8003d62:	18fb      	adds	r3, r7, r3
 8003d64:	2201      	movs	r2, #1
 8003d66:	701a      	strb	r2, [r3, #0]
    goto error;
 8003d68:	e182      	b.n	8004070 <HAL_SPI_TransmitReceive+0x3a8>
  }

  /* Don't overwrite in case of HAL_SPI_STATE_BUSY_RX */
  if (hspi->State != HAL_SPI_STATE_BUSY_RX)
 8003d6a:	68fb      	ldr	r3, [r7, #12]
 8003d6c:	225d      	movs	r2, #93	@ 0x5d
 8003d6e:	5c9b      	ldrb	r3, [r3, r2]
 8003d70:	b2db      	uxtb	r3, r3
 8003d72:	2b04      	cmp	r3, #4
 8003d74:	d003      	beq.n	8003d7e <HAL_SPI_TransmitReceive+0xb6>
  {
    hspi->State = HAL_SPI_STATE_BUSY_TX_RX;
 8003d76:	68fb      	ldr	r3, [r7, #12]
 8003d78:	225d      	movs	r2, #93	@ 0x5d
 8003d7a:	2105      	movs	r1, #5
 8003d7c:	5499      	strb	r1, [r3, r2]
  }

  /* Set the transaction information */
  hspi->ErrorCode   = HAL_SPI_ERROR_NONE;
 8003d7e:	68fb      	ldr	r3, [r7, #12]
 8003d80:	2200      	movs	r2, #0
 8003d82:	661a      	str	r2, [r3, #96]	@ 0x60
  hspi->pRxBuffPtr  = (uint8_t *)pRxData;
 8003d84:	68fb      	ldr	r3, [r7, #12]
 8003d86:	687a      	ldr	r2, [r7, #4]
 8003d88:	641a      	str	r2, [r3, #64]	@ 0x40
  hspi->RxXferCount = Size;
 8003d8a:	68fb      	ldr	r3, [r7, #12]
 8003d8c:	1cba      	adds	r2, r7, #2
 8003d8e:	2146      	movs	r1, #70	@ 0x46
 8003d90:	8812      	ldrh	r2, [r2, #0]
 8003d92:	525a      	strh	r2, [r3, r1]
  hspi->RxXferSize  = Size;
 8003d94:	68fb      	ldr	r3, [r7, #12]
 8003d96:	1cba      	adds	r2, r7, #2
 8003d98:	2144      	movs	r1, #68	@ 0x44
 8003d9a:	8812      	ldrh	r2, [r2, #0]
 8003d9c:	525a      	strh	r2, [r3, r1]
  hspi->pTxBuffPtr  = (uint8_t *)pTxData;
 8003d9e:	68fb      	ldr	r3, [r7, #12]
 8003da0:	68ba      	ldr	r2, [r7, #8]
 8003da2:	639a      	str	r2, [r3, #56]	@ 0x38
  hspi->TxXferCount = Size;
 8003da4:	68fb      	ldr	r3, [r7, #12]
 8003da6:	1cba      	adds	r2, r7, #2
 8003da8:	8812      	ldrh	r2, [r2, #0]
 8003daa:	87da      	strh	r2, [r3, #62]	@ 0x3e
  hspi->TxXferSize  = Size;
 8003dac:	68fb      	ldr	r3, [r7, #12]
 8003dae:	1cba      	adds	r2, r7, #2
 8003db0:	8812      	ldrh	r2, [r2, #0]
 8003db2:	879a      	strh	r2, [r3, #60]	@ 0x3c

  /*Init field not used in handle to zero */
  hspi->RxISR       = NULL;
 8003db4:	68fb      	ldr	r3, [r7, #12]
 8003db6:	2200      	movs	r2, #0
 8003db8:	64da      	str	r2, [r3, #76]	@ 0x4c
  hspi->TxISR       = NULL;
 8003dba:	68fb      	ldr	r3, [r7, #12]
 8003dbc:	2200      	movs	r2, #0
 8003dbe:	651a      	str	r2, [r3, #80]	@ 0x50
    SPI_RESET_CRC(hspi);
  }
#endif /* USE_SPI_CRC */

  /* Set the Rx Fifo threshold */
  if (hspi->Init.DataSize > SPI_DATASIZE_8BIT)
 8003dc0:	68fb      	ldr	r3, [r7, #12]
 8003dc2:	68da      	ldr	r2, [r3, #12]
 8003dc4:	23e0      	movs	r3, #224	@ 0xe0
 8003dc6:	00db      	lsls	r3, r3, #3
 8003dc8:	429a      	cmp	r2, r3
 8003dca:	d908      	bls.n	8003dde <HAL_SPI_TransmitReceive+0x116>
  {
    /* Set fiforxthreshold according the reception data length: 16bit */
    CLEAR_BIT(hspi->Instance->CR2, SPI_RXFIFO_THRESHOLD);
 8003dcc:	68fb      	ldr	r3, [r7, #12]
 8003dce:	681b      	ldr	r3, [r3, #0]
 8003dd0:	685a      	ldr	r2, [r3, #4]
 8003dd2:	68fb      	ldr	r3, [r7, #12]
 8003dd4:	681b      	ldr	r3, [r3, #0]
 8003dd6:	49ac      	ldr	r1, [pc, #688]	@ (8004088 <HAL_SPI_TransmitReceive+0x3c0>)
 8003dd8:	400a      	ands	r2, r1
 8003dda:	605a      	str	r2, [r3, #4]
 8003ddc:	e008      	b.n	8003df0 <HAL_SPI_TransmitReceive+0x128>
  }
  else
  {
    /* Set fiforxthreshold according the reception data length: 8bit */
    SET_BIT(hspi->Instance->CR2, SPI_RXFIFO_THRESHOLD);
 8003dde:	68fb      	ldr	r3, [r7, #12]
 8003de0:	681b      	ldr	r3, [r3, #0]
 8003de2:	685a      	ldr	r2, [r3, #4]
 8003de4:	68fb      	ldr	r3, [r7, #12]
 8003de6:	681b      	ldr	r3, [r3, #0]
 8003de8:	2180      	movs	r1, #128	@ 0x80
 8003dea:	0149      	lsls	r1, r1, #5
 8003dec:	430a      	orrs	r2, r1
 8003dee:	605a      	str	r2, [r3, #4]
  }

  /* Check if the SPI is already enabled */
  if ((hspi->Instance->CR1 & SPI_CR1_SPE) != SPI_CR1_SPE)
 8003df0:	68fb      	ldr	r3, [r7, #12]
 8003df2:	681b      	ldr	r3, [r3, #0]
 8003df4:	681b      	ldr	r3, [r3, #0]
 8003df6:	2240      	movs	r2, #64	@ 0x40
 8003df8:	4013      	ands	r3, r2
 8003dfa:	2b40      	cmp	r3, #64	@ 0x40
 8003dfc:	d007      	beq.n	8003e0e <HAL_SPI_TransmitReceive+0x146>
  {
    /* Enable SPI peripheral */
    __HAL_SPI_ENABLE(hspi);
 8003dfe:	68fb      	ldr	r3, [r7, #12]
 8003e00:	681b      	ldr	r3, [r3, #0]
 8003e02:	681a      	ldr	r2, [r3, #0]
 8003e04:	68fb      	ldr	r3, [r7, #12]
 8003e06:	681b      	ldr	r3, [r3, #0]
 8003e08:	2140      	movs	r1, #64	@ 0x40
 8003e0a:	430a      	orrs	r2, r1
 8003e0c:	601a      	str	r2, [r3, #0]
  }

  /* Transmit and Receive data in 16 Bit mode */
  if (hspi->Init.DataSize > SPI_DATASIZE_8BIT)
 8003e0e:	68fb      	ldr	r3, [r7, #12]
 8003e10:	68da      	ldr	r2, [r3, #12]
 8003e12:	23e0      	movs	r3, #224	@ 0xe0
 8003e14:	00db      	lsls	r3, r3, #3
 8003e16:	429a      	cmp	r2, r3
 8003e18:	d800      	bhi.n	8003e1c <HAL_SPI_TransmitReceive+0x154>
 8003e1a:	e083      	b.n	8003f24 <HAL_SPI_TransmitReceive+0x25c>
  {
    if ((hspi->Init.Mode == SPI_MODE_SLAVE) || (initial_TxXferCount == 0x01U))
 8003e1c:	68fb      	ldr	r3, [r7, #12]
 8003e1e:	685b      	ldr	r3, [r3, #4]
 8003e20:	2b00      	cmp	r3, #0
 8003e22:	d005      	beq.n	8003e30 <HAL_SPI_TransmitReceive+0x168>
 8003e24:	2312      	movs	r3, #18
 8003e26:	18fb      	adds	r3, r7, r3
 8003e28:	881b      	ldrh	r3, [r3, #0]
 8003e2a:	2b01      	cmp	r3, #1
 8003e2c:	d000      	beq.n	8003e30 <HAL_SPI_TransmitReceive+0x168>
 8003e2e:	e06d      	b.n	8003f0c <HAL_SPI_TransmitReceive+0x244>
    {
      hspi->Instance->DR = *((uint16_t *)hspi->pTxBuffPtr);
 8003e30:	68fb      	ldr	r3, [r7, #12]
 8003e32:	6b9b      	ldr	r3, [r3, #56]	@ 0x38
 8003e34:	881a      	ldrh	r2, [r3, #0]
 8003e36:	68fb      	ldr	r3, [r7, #12]
 8003e38:	681b      	ldr	r3, [r3, #0]
 8003e3a:	60da      	str	r2, [r3, #12]
      hspi->pTxBuffPtr += sizeof(uint16_t);
 8003e3c:	68fb      	ldr	r3, [r7, #12]
 8003e3e:	6b9b      	ldr	r3, [r3, #56]	@ 0x38
 8003e40:	1c9a      	adds	r2, r3, #2
 8003e42:	68fb      	ldr	r3, [r7, #12]
 8003e44:	639a      	str	r2, [r3, #56]	@ 0x38
      hspi->TxXferCount--;
 8003e46:	68fb      	ldr	r3, [r7, #12]
 8003e48:	8fdb      	ldrh	r3, [r3, #62]	@ 0x3e
 8003e4a:	b29b      	uxth	r3, r3
 8003e4c:	3b01      	subs	r3, #1
 8003e4e:	b29a      	uxth	r2, r3
 8003e50:	68fb      	ldr	r3, [r7, #12]
 8003e52:	87da      	strh	r2, [r3, #62]	@ 0x3e
        SET_BIT(hspi->Instance->CR1, SPI_CR1_CRCNEXT);
      }
#endif /* USE_SPI_CRC */

    }
    while ((hspi->TxXferCount > 0U) || (hspi->RxXferCount > 0U))
 8003e54:	e05a      	b.n	8003f0c <HAL_SPI_TransmitReceive+0x244>
    {
      /* Check TXE flag */
      if ((__HAL_SPI_GET_FLAG(hspi, SPI_FLAG_TXE)) && (hspi->TxXferCount > 0U) && (txallowed == 1U))
 8003e56:	68fb      	ldr	r3, [r7, #12]
 8003e58:	681b      	ldr	r3, [r3, #0]
 8003e5a:	689b      	ldr	r3, [r3, #8]
 8003e5c:	2202      	movs	r2, #2
 8003e5e:	4013      	ands	r3, r2
 8003e60:	2b02      	cmp	r3, #2
 8003e62:	d11b      	bne.n	8003e9c <HAL_SPI_TransmitReceive+0x1d4>
 8003e64:	68fb      	ldr	r3, [r7, #12]
 8003e66:	8fdb      	ldrh	r3, [r3, #62]	@ 0x3e
 8003e68:	b29b      	uxth	r3, r3
 8003e6a:	2b00      	cmp	r3, #0
 8003e6c:	d016      	beq.n	8003e9c <HAL_SPI_TransmitReceive+0x1d4>
 8003e6e:	6a7b      	ldr	r3, [r7, #36]	@ 0x24
 8003e70:	2b01      	cmp	r3, #1
 8003e72:	d113      	bne.n	8003e9c <HAL_SPI_TransmitReceive+0x1d4>
      {
        hspi->Instance->DR = *((uint16_t *)hspi->pTxBuffPtr);
 8003e74:	68fb      	ldr	r3, [r7, #12]
 8003e76:	6b9b      	ldr	r3, [r3, #56]	@ 0x38
 8003e78:	881a      	ldrh	r2, [r3, #0]
 8003e7a:	68fb      	ldr	r3, [r7, #12]
 8003e7c:	681b      	ldr	r3, [r3, #0]
 8003e7e:	60da      	str	r2, [r3, #12]
        hspi->pTxBuffPtr += sizeof(uint16_t);
 8003e80:	68fb      	ldr	r3, [r7, #12]
 8003e82:	6b9b      	ldr	r3, [r3, #56]	@ 0x38
 8003e84:	1c9a      	adds	r2, r3, #2
 8003e86:	68fb      	ldr	r3, [r7, #12]
 8003e88:	639a      	str	r2, [r3, #56]	@ 0x38
        hspi->TxXferCount--;
 8003e8a:	68fb      	ldr	r3, [r7, #12]
 8003e8c:	8fdb      	ldrh	r3, [r3, #62]	@ 0x3e
 8003e8e:	b29b      	uxth	r3, r3
 8003e90:	3b01      	subs	r3, #1
 8003e92:	b29a      	uxth	r2, r3
 8003e94:	68fb      	ldr	r3, [r7, #12]
 8003e96:	87da      	strh	r2, [r3, #62]	@ 0x3e
        /* Next Data is a reception (Rx). Tx not allowed */
        txallowed = 0U;
 8003e98:	2300      	movs	r3, #0
 8003e9a:	627b      	str	r3, [r7, #36]	@ 0x24
        }
#endif /* USE_SPI_CRC */
      }

      /* Check RXNE flag */
      if ((__HAL_SPI_GET_FLAG(hspi, SPI_FLAG_RXNE)) && (hspi->RxXferCount > 0U))
 8003e9c:	68fb      	ldr	r3, [r7, #12]
 8003e9e:	681b      	ldr	r3, [r3, #0]
 8003ea0:	689b      	ldr	r3, [r3, #8]
 8003ea2:	2201      	movs	r2, #1
 8003ea4:	4013      	ands	r3, r2
 8003ea6:	2b01      	cmp	r3, #1
 8003ea8:	d11c      	bne.n	8003ee4 <HAL_SPI_TransmitReceive+0x21c>
 8003eaa:	68fb      	ldr	r3, [r7, #12]
 8003eac:	2246      	movs	r2, #70	@ 0x46
 8003eae:	5a9b      	ldrh	r3, [r3, r2]
 8003eb0:	b29b      	uxth	r3, r3
 8003eb2:	2b00      	cmp	r3, #0
 8003eb4:	d016      	beq.n	8003ee4 <HAL_SPI_TransmitReceive+0x21c>
      {
        *((uint16_t *)hspi->pRxBuffPtr) = (uint16_t)hspi->Instance->DR;
 8003eb6:	68fb      	ldr	r3, [r7, #12]
 8003eb8:	681b      	ldr	r3, [r3, #0]
 8003eba:	68da      	ldr	r2, [r3, #12]
 8003ebc:	68fb      	ldr	r3, [r7, #12]
 8003ebe:	6c1b      	ldr	r3, [r3, #64]	@ 0x40
 8003ec0:	b292      	uxth	r2, r2
 8003ec2:	801a      	strh	r2, [r3, #0]
        hspi->pRxBuffPtr += sizeof(uint16_t);
 8003ec4:	68fb      	ldr	r3, [r7, #12]
 8003ec6:	6c1b      	ldr	r3, [r3, #64]	@ 0x40
 8003ec8:	1c9a      	adds	r2, r3, #2
 8003eca:	68fb      	ldr	r3, [r7, #12]
 8003ecc:	641a      	str	r2, [r3, #64]	@ 0x40
        hspi->RxXferCount--;
 8003ece:	68fb      	ldr	r3, [r7, #12]
 8003ed0:	2246      	movs	r2, #70	@ 0x46
 8003ed2:	5a9b      	ldrh	r3, [r3, r2]
 8003ed4:	b29b      	uxth	r3, r3
 8003ed6:	3b01      	subs	r3, #1
 8003ed8:	b299      	uxth	r1, r3
 8003eda:	68fb      	ldr	r3, [r7, #12]
 8003edc:	2246      	movs	r2, #70	@ 0x46
 8003ede:	5299      	strh	r1, [r3, r2]
        /* Next Data is a Transmission (Tx). Tx is allowed */
        txallowed = 1U;
 8003ee0:	2301      	movs	r3, #1
 8003ee2:	627b      	str	r3, [r7, #36]	@ 0x24
      }
      if (((HAL_GetTick() - tickstart) >=  Timeout) && (Timeout != HAL_MAX_DELAY))
 8003ee4:	f7fe fa4a 	bl	800237c <HAL_GetTick>
 8003ee8:	0002      	movs	r2, r0
 8003eea:	69fb      	ldr	r3, [r7, #28]
 8003eec:	1ad3      	subs	r3, r2, r3
 8003eee:	6b3a      	ldr	r2, [r7, #48]	@ 0x30
 8003ef0:	429a      	cmp	r2, r3
 8003ef2:	d80b      	bhi.n	8003f0c <HAL_SPI_TransmitReceive+0x244>
 8003ef4:	6b3b      	ldr	r3, [r7, #48]	@ 0x30
 8003ef6:	3301      	adds	r3, #1
 8003ef8:	d008      	beq.n	8003f0c <HAL_SPI_TransmitReceive+0x244>
      {
        errorcode = HAL_TIMEOUT;
 8003efa:	2323      	movs	r3, #35	@ 0x23
 8003efc:	18fb      	adds	r3, r7, r3
 8003efe:	2203      	movs	r2, #3
 8003f00:	701a      	strb	r2, [r3, #0]
        hspi->State = HAL_SPI_STATE_READY;
 8003f02:	68fb      	ldr	r3, [r7, #12]
 8003f04:	225d      	movs	r2, #93	@ 0x5d
 8003f06:	2101      	movs	r1, #1
 8003f08:	5499      	strb	r1, [r3, r2]
        goto error;
 8003f0a:	e0b1      	b.n	8004070 <HAL_SPI_TransmitReceive+0x3a8>
    while ((hspi->TxXferCount > 0U) || (hspi->RxXferCount > 0U))
 8003f0c:	68fb      	ldr	r3, [r7, #12]
 8003f0e:	8fdb      	ldrh	r3, [r3, #62]	@ 0x3e
 8003f10:	b29b      	uxth	r3, r3
 8003f12:	2b00      	cmp	r3, #0
 8003f14:	d19f      	bne.n	8003e56 <HAL_SPI_TransmitReceive+0x18e>
 8003f16:	68fb      	ldr	r3, [r7, #12]
 8003f18:	2246      	movs	r2, #70	@ 0x46
 8003f1a:	5a9b      	ldrh	r3, [r3, r2]
 8003f1c:	b29b      	uxth	r3, r3
 8003f1e:	2b00      	cmp	r3, #0
 8003f20:	d199      	bne.n	8003e56 <HAL_SPI_TransmitReceive+0x18e>
 8003f22:	e089      	b.n	8004038 <HAL_SPI_TransmitReceive+0x370>
    }
  }
  /* Transmit and Receive data in 8 Bit mode */
  else
  {
    if ((hspi->Init.Mode == SPI_MODE_SLAVE) || (initial_TxXferCount == 0x01U))
 8003f24:	68fb      	ldr	r3, [r7, #12]
 8003f26:	685b      	ldr	r3, [r3, #4]
 8003f28:	2b00      	cmp	r3, #0
 8003f2a:	d005      	beq.n	8003f38 <HAL_SPI_TransmitReceive+0x270>
 8003f2c:	2312      	movs	r3, #18
 8003f2e:	18fb      	adds	r3, r7, r3
 8003f30:	881b      	ldrh	r3, [r3, #0]
 8003f32:	2b01      	cmp	r3, #1
 8003f34:	d000      	beq.n	8003f38 <HAL_SPI_TransmitReceive+0x270>
 8003f36:	e074      	b.n	8004022 <HAL_SPI_TransmitReceive+0x35a>
    {
      *((__IO uint8_t *)&hspi->Instance->DR) = (*hspi->pTxBuffPtr);
 8003f38:	68fb      	ldr	r3, [r7, #12]
 8003f3a:	6b9a      	ldr	r2, [r3, #56]	@ 0x38
 8003f3c:	68fb      	ldr	r3, [r7, #12]
 8003f3e:	681b      	ldr	r3, [r3, #0]
 8003f40:	330c      	adds	r3, #12
 8003f42:	7812      	ldrb	r2, [r2, #0]
 8003f44:	701a      	strb	r2, [r3, #0]
      hspi->pTxBuffPtr += sizeof(uint8_t);
 8003f46:	68fb      	ldr	r3, [r7, #12]
 8003f48:	6b9b      	ldr	r3, [r3, #56]	@ 0x38
 8003f4a:	1c5a      	adds	r2, r3, #1
 8003f4c:	68fb      	ldr	r3, [r7, #12]
 8003f4e:	639a      	str	r2, [r3, #56]	@ 0x38
      hspi->TxXferCount--;
 8003f50:	68fb      	ldr	r3, [r7, #12]
 8003f52:	8fdb      	ldrh	r3, [r3, #62]	@ 0x3e
 8003f54:	b29b      	uxth	r3, r3
 8003f56:	3b01      	subs	r3, #1
 8003f58:	b29a      	uxth	r2, r3
 8003f5a:	68fb      	ldr	r3, [r7, #12]
 8003f5c:	87da      	strh	r2, [r3, #62]	@ 0x3e
        }
        SET_BIT(hspi->Instance->CR1, SPI_CR1_CRCNEXT);
      }
#endif /* USE_SPI_CRC */
    }
    while ((hspi->TxXferCount > 0U) || (hspi->RxXferCount > 0U))
 8003f5e:	e060      	b.n	8004022 <HAL_SPI_TransmitReceive+0x35a>
    {
      /* Check TXE flag */
      if ((__HAL_SPI_GET_FLAG(hspi, SPI_FLAG_TXE)) && (hspi->TxXferCount > 0U) && (txallowed == 1U))
 8003f60:	68fb      	ldr	r3, [r7, #12]
 8003f62:	681b      	ldr	r3, [r3, #0]
 8003f64:	689b      	ldr	r3, [r3, #8]
 8003f66:	2202      	movs	r2, #2
 8003f68:	4013      	ands	r3, r2
 8003f6a:	2b02      	cmp	r3, #2
 8003f6c:	d11c      	bne.n	8003fa8 <HAL_SPI_TransmitReceive+0x2e0>
 8003f6e:	68fb      	ldr	r3, [r7, #12]
 8003f70:	8fdb      	ldrh	r3, [r3, #62]	@ 0x3e
 8003f72:	b29b      	uxth	r3, r3
 8003f74:	2b00      	cmp	r3, #0
 8003f76:	d017      	beq.n	8003fa8 <HAL_SPI_TransmitReceive+0x2e0>
 8003f78:	6a7b      	ldr	r3, [r7, #36]	@ 0x24
 8003f7a:	2b01      	cmp	r3, #1
 8003f7c:	d114      	bne.n	8003fa8 <HAL_SPI_TransmitReceive+0x2e0>
      {
        *(__IO uint8_t *)&hspi->Instance->DR = (*hspi->pTxBuffPtr);
 8003f7e:	68fb      	ldr	r3, [r7, #12]
 8003f80:	6b9a      	ldr	r2, [r3, #56]	@ 0x38
 8003f82:	68fb      	ldr	r3, [r7, #12]
 8003f84:	681b      	ldr	r3, [r3, #0]
 8003f86:	330c      	adds	r3, #12
 8003f88:	7812      	ldrb	r2, [r2, #0]
 8003f8a:	701a      	strb	r2, [r3, #0]
        hspi->pTxBuffPtr++;
 8003f8c:	68fb      	ldr	r3, [r7, #12]
 8003f8e:	6b9b      	ldr	r3, [r3, #56]	@ 0x38
 8003f90:	1c5a      	adds	r2, r3, #1
 8003f92:	68fb      	ldr	r3, [r7, #12]
 8003f94:	639a      	str	r2, [r3, #56]	@ 0x38
        hspi->TxXferCount--;
 8003f96:	68fb      	ldr	r3, [r7, #12]
 8003f98:	8fdb      	ldrh	r3, [r3, #62]	@ 0x3e
 8003f9a:	b29b      	uxth	r3, r3
 8003f9c:	3b01      	subs	r3, #1
 8003f9e:	b29a      	uxth	r2, r3
 8003fa0:	68fb      	ldr	r3, [r7, #12]
 8003fa2:	87da      	strh	r2, [r3, #62]	@ 0x3e
        /* Next Data is a reception (Rx). Tx not allowed */
        txallowed = 0U;
 8003fa4:	2300      	movs	r3, #0
 8003fa6:	627b      	str	r3, [r7, #36]	@ 0x24
        }
#endif /* USE_SPI_CRC */
      }

      /* Wait until RXNE flag is reset */
      if ((__HAL_SPI_GET_FLAG(hspi, SPI_FLAG_RXNE)) && (hspi->RxXferCount > 0U))
 8003fa8:	68fb      	ldr	r3, [r7, #12]
 8003faa:	681b      	ldr	r3, [r3, #0]
 8003fac:	689b      	ldr	r3, [r3, #8]
 8003fae:	2201      	movs	r2, #1
 8003fb0:	4013      	ands	r3, r2
 8003fb2:	2b01      	cmp	r3, #1
 8003fb4:	d11e      	bne.n	8003ff4 <HAL_SPI_TransmitReceive+0x32c>
 8003fb6:	68fb      	ldr	r3, [r7, #12]
 8003fb8:	2246      	movs	r2, #70	@ 0x46
 8003fba:	5a9b      	ldrh	r3, [r3, r2]
 8003fbc:	b29b      	uxth	r3, r3
 8003fbe:	2b00      	cmp	r3, #0
 8003fc0:	d018      	beq.n	8003ff4 <HAL_SPI_TransmitReceive+0x32c>
      {
        (*(uint8_t *)hspi->pRxBuffPtr) = *(__IO uint8_t *)&hspi->Instance->DR;
 8003fc2:	68fb      	ldr	r3, [r7, #12]
 8003fc4:	681b      	ldr	r3, [r3, #0]
 8003fc6:	330c      	adds	r3, #12
 8003fc8:	001a      	movs	r2, r3
 8003fca:	68fb      	ldr	r3, [r7, #12]
 8003fcc:	6c1b      	ldr	r3, [r3, #64]	@ 0x40
 8003fce:	7812      	ldrb	r2, [r2, #0]
 8003fd0:	b2d2      	uxtb	r2, r2
 8003fd2:	701a      	strb	r2, [r3, #0]
        hspi->pRxBuffPtr++;
 8003fd4:	68fb      	ldr	r3, [r7, #12]
 8003fd6:	6c1b      	ldr	r3, [r3, #64]	@ 0x40
 8003fd8:	1c5a      	adds	r2, r3, #1
 8003fda:	68fb      	ldr	r3, [r7, #12]
 8003fdc:	641a      	str	r2, [r3, #64]	@ 0x40
        hspi->RxXferCount--;
 8003fde:	68fb      	ldr	r3, [r7, #12]
 8003fe0:	2246      	movs	r2, #70	@ 0x46
 8003fe2:	5a9b      	ldrh	r3, [r3, r2]
 8003fe4:	b29b      	uxth	r3, r3
 8003fe6:	3b01      	subs	r3, #1
 8003fe8:	b299      	uxth	r1, r3
 8003fea:	68fb      	ldr	r3, [r7, #12]
 8003fec:	2246      	movs	r2, #70	@ 0x46
 8003fee:	5299      	strh	r1, [r3, r2]
        /* Next Data is a Transmission (Tx). Tx is allowed */
        txallowed = 1U;
 8003ff0:	2301      	movs	r3, #1
 8003ff2:	627b      	str	r3, [r7, #36]	@ 0x24
      }
      if ((((HAL_GetTick() - tickstart) >=  Timeout) && ((Timeout != HAL_MAX_DELAY))) || (Timeout == 0U))
 8003ff4:	f7fe f9c2 	bl	800237c <HAL_GetTick>
 8003ff8:	0002      	movs	r2, r0
 8003ffa:	69fb      	ldr	r3, [r7, #28]
 8003ffc:	1ad3      	subs	r3, r2, r3
 8003ffe:	6b3a      	ldr	r2, [r7, #48]	@ 0x30
 8004000:	429a      	cmp	r2, r3
 8004002:	d802      	bhi.n	800400a <HAL_SPI_TransmitReceive+0x342>
 8004004:	6b3b      	ldr	r3, [r7, #48]	@ 0x30
 8004006:	3301      	adds	r3, #1
 8004008:	d102      	bne.n	8004010 <HAL_SPI_TransmitReceive+0x348>
 800400a:	6b3b      	ldr	r3, [r7, #48]	@ 0x30
 800400c:	2b00      	cmp	r3, #0
 800400e:	d108      	bne.n	8004022 <HAL_SPI_TransmitReceive+0x35a>
      {
        errorcode = HAL_TIMEOUT;
 8004010:	2323      	movs	r3, #35	@ 0x23
 8004012:	18fb      	adds	r3, r7, r3
 8004014:	2203      	movs	r2, #3
 8004016:	701a      	strb	r2, [r3, #0]
        hspi->State = HAL_SPI_STATE_READY;
 8004018:	68fb      	ldr	r3, [r7, #12]
 800401a:	225d      	movs	r2, #93	@ 0x5d
 800401c:	2101      	movs	r1, #1
 800401e:	5499      	strb	r1, [r3, r2]
        goto error;
 8004020:	e026      	b.n	8004070 <HAL_SPI_TransmitReceive+0x3a8>
    while ((hspi->TxXferCount > 0U) || (hspi->RxXferCount > 0U))
 8004022:	68fb      	ldr	r3, [r7, #12]
 8004024:	8fdb      	ldrh	r3, [r3, #62]	@ 0x3e
 8004026:	b29b      	uxth	r3, r3
 8004028:	2b00      	cmp	r3, #0
 800402a:	d199      	bne.n	8003f60 <HAL_SPI_TransmitReceive+0x298>
 800402c:	68fb      	ldr	r3, [r7, #12]
 800402e:	2246      	movs	r2, #70	@ 0x46
 8004030:	5a9b      	ldrh	r3, [r3, r2]
 8004032:	b29b      	uxth	r3, r3
 8004034:	2b00      	cmp	r3, #0
 8004036:	d193      	bne.n	8003f60 <HAL_SPI_TransmitReceive+0x298>
    errorcode = HAL_ERROR;
  }
#endif /* USE_SPI_CRC */

  /* Check the end of the transaction */
  if (SPI_EndRxTxTransaction(hspi, Timeout, tickstart) != HAL_OK)
 8004038:	69fa      	ldr	r2, [r7, #28]
 800403a:	6b39      	ldr	r1, [r7, #48]	@ 0x30
 800403c:	68fb      	ldr	r3, [r7, #12]
 800403e:	0018      	movs	r0, r3
 8004040:	f000 f9b2 	bl	80043a8 <SPI_EndRxTxTransaction>
 8004044:	1e03      	subs	r3, r0, #0
 8004046:	d006      	beq.n	8004056 <HAL_SPI_TransmitReceive+0x38e>
  {
    errorcode = HAL_ERROR;
 8004048:	2323      	movs	r3, #35	@ 0x23
 800404a:	18fb      	adds	r3, r7, r3
 800404c:	2201      	movs	r2, #1
 800404e:	701a      	strb	r2, [r3, #0]
    hspi->ErrorCode = HAL_SPI_ERROR_FLAG;
 8004050:	68fb      	ldr	r3, [r7, #12]
 8004052:	2220      	movs	r2, #32
 8004054:	661a      	str	r2, [r3, #96]	@ 0x60
  }

  if (hspi->ErrorCode != HAL_SPI_ERROR_NONE)
 8004056:	68fb      	ldr	r3, [r7, #12]
 8004058:	6e1b      	ldr	r3, [r3, #96]	@ 0x60
 800405a:	2b00      	cmp	r3, #0
 800405c:	d004      	beq.n	8004068 <HAL_SPI_TransmitReceive+0x3a0>
  {
    errorcode = HAL_ERROR;
 800405e:	2323      	movs	r3, #35	@ 0x23
 8004060:	18fb      	adds	r3, r7, r3
 8004062:	2201      	movs	r2, #1
 8004064:	701a      	strb	r2, [r3, #0]
 8004066:	e003      	b.n	8004070 <HAL_SPI_TransmitReceive+0x3a8>
  }
  else
  {
    hspi->State = HAL_SPI_STATE_READY;
 8004068:	68fb      	ldr	r3, [r7, #12]
 800406a:	225d      	movs	r2, #93	@ 0x5d
 800406c:	2101      	movs	r1, #1
 800406e:	5499      	strb	r1, [r3, r2]
  }
  
error :
  __HAL_UNLOCK(hspi);
 8004070:	68fb      	ldr	r3, [r7, #12]
 8004072:	225c      	movs	r2, #92	@ 0x5c
 8004074:	2100      	movs	r1, #0
 8004076:	5499      	strb	r1, [r3, r2]
  return errorcode;
 8004078:	2323      	movs	r3, #35	@ 0x23
 800407a:	18fb      	adds	r3, r7, r3
 800407c:	781b      	ldrb	r3, [r3, #0]
}
 800407e:	0018      	movs	r0, r3
 8004080:	46bd      	mov	sp, r7
 8004082:	b00a      	add	sp, #40	@ 0x28
 8004084:	bd80      	pop	{r7, pc}
 8004086:	46c0      	nop			@ (mov r8, r8)
 8004088:	ffffefff 	.word	0xffffefff

0800408c <SPI_WaitFlagStateUntilTimeout>:
  * @param  Tickstart tick start value
  * @retval HAL status
  */
static HAL_StatusTypeDef SPI_WaitFlagStateUntilTimeout(SPI_HandleTypeDef *hspi, uint32_t Flag, FlagStatus State,
                                                       uint32_t Timeout, uint32_t Tickstart)
{
 800408c:	b580      	push	{r7, lr}
 800408e:	b088      	sub	sp, #32
 8004090:	af00      	add	r7, sp, #0
 8004092:	60f8      	str	r0, [r7, #12]
 8004094:	60b9      	str	r1, [r7, #8]
 8004096:	603b      	str	r3, [r7, #0]
 8004098:	1dfb      	adds	r3, r7, #7
 800409a:	701a      	strb	r2, [r3, #0]
  __IO uint32_t count;
  uint32_t tmp_timeout;
  uint32_t tmp_tickstart;

  /* Adjust Timeout value  in case of end of transfer */
  tmp_timeout   = Timeout - (HAL_GetTick() - Tickstart);
 800409c:	f7fe f96e 	bl	800237c <HAL_GetTick>
 80040a0:	0002      	movs	r2, r0
 80040a2:	6abb      	ldr	r3, [r7, #40]	@ 0x28
 80040a4:	1a9b      	subs	r3, r3, r2
 80040a6:	683a      	ldr	r2, [r7, #0]
 80040a8:	18d3      	adds	r3, r2, r3
 80040aa:	61fb      	str	r3, [r7, #28]
  tmp_tickstart = HAL_GetTick();
 80040ac:	f7fe f966 	bl	800237c <HAL_GetTick>
 80040b0:	0003      	movs	r3, r0
 80040b2:	61bb      	str	r3, [r7, #24]

  /* Calculate Timeout based on a software loop to avoid blocking issue if Systick is disabled */
  count = tmp_timeout * ((SystemCoreClock * 32U) >> 20U);
 80040b4:	4b3a      	ldr	r3, [pc, #232]	@ (80041a0 <SPI_WaitFlagStateUntilTimeout+0x114>)
 80040b6:	681b      	ldr	r3, [r3, #0]
 80040b8:	015b      	lsls	r3, r3, #5
 80040ba:	0d1b      	lsrs	r3, r3, #20
 80040bc:	69fa      	ldr	r2, [r7, #28]
 80040be:	4353      	muls	r3, r2
 80040c0:	617b      	str	r3, [r7, #20]

  while ((__HAL_SPI_GET_FLAG(hspi, Flag) ? SET : RESET) != State)
 80040c2:	e058      	b.n	8004176 <SPI_WaitFlagStateUntilTimeout+0xea>
  {
    if (Timeout != HAL_MAX_DELAY)
 80040c4:	683b      	ldr	r3, [r7, #0]
 80040c6:	3301      	adds	r3, #1
 80040c8:	d055      	beq.n	8004176 <SPI_WaitFlagStateUntilTimeout+0xea>
    {
      if (((HAL_GetTick() - tmp_tickstart) >= tmp_timeout) || (tmp_timeout == 0U))
 80040ca:	f7fe f957 	bl	800237c <HAL_GetTick>
 80040ce:	0002      	movs	r2, r0
 80040d0:	69bb      	ldr	r3, [r7, #24]
 80040d2:	1ad3      	subs	r3, r2, r3
 80040d4:	69fa      	ldr	r2, [r7, #28]
 80040d6:	429a      	cmp	r2, r3
 80040d8:	d902      	bls.n	80040e0 <SPI_WaitFlagStateUntilTimeout+0x54>
 80040da:	69fb      	ldr	r3, [r7, #28]
 80040dc:	2b00      	cmp	r3, #0
 80040de:	d142      	bne.n	8004166 <SPI_WaitFlagStateUntilTimeout+0xda>
        /* Disable the SPI and reset the CRC: the CRC value should be cleared
           on both master and slave sides in order to resynchronize the master
           and slave for their respective CRC calculation */

        /* Disable TXE, RXNE and ERR interrupts for the interrupt process */
        __HAL_SPI_DISABLE_IT(hspi, (SPI_IT_TXE | SPI_IT_RXNE | SPI_IT_ERR));
 80040e0:	68fb      	ldr	r3, [r7, #12]
 80040e2:	681b      	ldr	r3, [r3, #0]
 80040e4:	685a      	ldr	r2, [r3, #4]
 80040e6:	68fb      	ldr	r3, [r7, #12]
 80040e8:	681b      	ldr	r3, [r3, #0]
 80040ea:	21e0      	movs	r1, #224	@ 0xe0
 80040ec:	438a      	bics	r2, r1
 80040ee:	605a      	str	r2, [r3, #4]

        if ((hspi->Init.Mode == SPI_MODE_MASTER) && ((hspi->Init.Direction == SPI_DIRECTION_1LINE)
 80040f0:	68fb      	ldr	r3, [r7, #12]
 80040f2:	685a      	ldr	r2, [r3, #4]
 80040f4:	2382      	movs	r3, #130	@ 0x82
 80040f6:	005b      	lsls	r3, r3, #1
 80040f8:	429a      	cmp	r2, r3
 80040fa:	d113      	bne.n	8004124 <SPI_WaitFlagStateUntilTimeout+0x98>
 80040fc:	68fb      	ldr	r3, [r7, #12]
 80040fe:	689a      	ldr	r2, [r3, #8]
 8004100:	2380      	movs	r3, #128	@ 0x80
 8004102:	021b      	lsls	r3, r3, #8
 8004104:	429a      	cmp	r2, r3
 8004106:	d005      	beq.n	8004114 <SPI_WaitFlagStateUntilTimeout+0x88>
                                                     || (hspi->Init.Direction == SPI_DIRECTION_2LINES_RXONLY)))
 8004108:	68fb      	ldr	r3, [r7, #12]
 800410a:	689a      	ldr	r2, [r3, #8]
 800410c:	2380      	movs	r3, #128	@ 0x80
 800410e:	00db      	lsls	r3, r3, #3
 8004110:	429a      	cmp	r2, r3
 8004112:	d107      	bne.n	8004124 <SPI_WaitFlagStateUntilTimeout+0x98>
        {
          /* Disable SPI peripheral */
          __HAL_SPI_DISABLE(hspi);
 8004114:	68fb      	ldr	r3, [r7, #12]
 8004116:	681b      	ldr	r3, [r3, #0]
 8004118:	681a      	ldr	r2, [r3, #0]
 800411a:	68fb      	ldr	r3, [r7, #12]
 800411c:	681b      	ldr	r3, [r3, #0]
 800411e:	2140      	movs	r1, #64	@ 0x40
 8004120:	438a      	bics	r2, r1
 8004122:	601a      	str	r2, [r3, #0]
        }

        /* Reset CRC Calculation */
        if (hspi->Init.CRCCalculation == SPI_CRCCALCULATION_ENABLE)
 8004124:	68fb      	ldr	r3, [r7, #12]
 8004126:	6a9a      	ldr	r2, [r3, #40]	@ 0x28
 8004128:	2380      	movs	r3, #128	@ 0x80
 800412a:	019b      	lsls	r3, r3, #6
 800412c:	429a      	cmp	r2, r3
 800412e:	d110      	bne.n	8004152 <SPI_WaitFlagStateUntilTimeout+0xc6>
        {
          SPI_RESET_CRC(hspi);
 8004130:	68fb      	ldr	r3, [r7, #12]
 8004132:	681b      	ldr	r3, [r3, #0]
 8004134:	681a      	ldr	r2, [r3, #0]
 8004136:	68fb      	ldr	r3, [r7, #12]
 8004138:	681b      	ldr	r3, [r3, #0]
 800413a:	491a      	ldr	r1, [pc, #104]	@ (80041a4 <SPI_WaitFlagStateUntilTimeout+0x118>)
 800413c:	400a      	ands	r2, r1
 800413e:	601a      	str	r2, [r3, #0]
 8004140:	68fb      	ldr	r3, [r7, #12]
 8004142:	681b      	ldr	r3, [r3, #0]
 8004144:	681a      	ldr	r2, [r3, #0]
 8004146:	68fb      	ldr	r3, [r7, #12]
 8004148:	681b      	ldr	r3, [r3, #0]
 800414a:	2180      	movs	r1, #128	@ 0x80
 800414c:	0189      	lsls	r1, r1, #6
 800414e:	430a      	orrs	r2, r1
 8004150:	601a      	str	r2, [r3, #0]
        }

        hspi->State = HAL_SPI_STATE_READY;
 8004152:	68fb      	ldr	r3, [r7, #12]
 8004154:	225d      	movs	r2, #93	@ 0x5d
 8004156:	2101      	movs	r1, #1
 8004158:	5499      	strb	r1, [r3, r2]

        /* Process Unlocked */
        __HAL_UNLOCK(hspi);
 800415a:	68fb      	ldr	r3, [r7, #12]
 800415c:	225c      	movs	r2, #92	@ 0x5c
 800415e:	2100      	movs	r1, #0
 8004160:	5499      	strb	r1, [r3, r2]

        return HAL_TIMEOUT;
 8004162:	2303      	movs	r3, #3
 8004164:	e017      	b.n	8004196 <SPI_WaitFlagStateUntilTimeout+0x10a>
      }
      /* If Systick is disabled or not incremented, deactivate timeout to go in disable loop procedure */
      if (count == 0U)
 8004166:	697b      	ldr	r3, [r7, #20]
 8004168:	2b00      	cmp	r3, #0
 800416a:	d101      	bne.n	8004170 <SPI_WaitFlagStateUntilTimeout+0xe4>
      {
        tmp_timeout = 0U;
 800416c:	2300      	movs	r3, #0
 800416e:	61fb      	str	r3, [r7, #28]
      }
      count--;
 8004170:	697b      	ldr	r3, [r7, #20]
 8004172:	3b01      	subs	r3, #1
 8004174:	617b      	str	r3, [r7, #20]
  while ((__HAL_SPI_GET_FLAG(hspi, Flag) ? SET : RESET) != State)
 8004176:	68fb      	ldr	r3, [r7, #12]
 8004178:	681b      	ldr	r3, [r3, #0]
 800417a:	689b      	ldr	r3, [r3, #8]
 800417c:	68ba      	ldr	r2, [r7, #8]
 800417e:	4013      	ands	r3, r2
 8004180:	68ba      	ldr	r2, [r7, #8]
 8004182:	1ad3      	subs	r3, r2, r3
 8004184:	425a      	negs	r2, r3
 8004186:	4153      	adcs	r3, r2
 8004188:	b2db      	uxtb	r3, r3
 800418a:	001a      	movs	r2, r3
 800418c:	1dfb      	adds	r3, r7, #7
 800418e:	781b      	ldrb	r3, [r3, #0]
 8004190:	429a      	cmp	r2, r3
 8004192:	d197      	bne.n	80040c4 <SPI_WaitFlagStateUntilTimeout+0x38>
    }
  }

  return HAL_OK;
 8004194:	2300      	movs	r3, #0
}
 8004196:	0018      	movs	r0, r3
 8004198:	46bd      	mov	sp, r7
 800419a:	b008      	add	sp, #32
 800419c:	bd80      	pop	{r7, pc}
 800419e:	46c0      	nop			@ (mov r8, r8)
 80041a0:	20000004 	.word	0x20000004
 80041a4:	ffffdfff 	.word	0xffffdfff

080041a8 <SPI_WaitFifoStateUntilTimeout>:
  * @param  Tickstart tick start value
  * @retval HAL status
  */
static HAL_StatusTypeDef SPI_WaitFifoStateUntilTimeout(SPI_HandleTypeDef *hspi, uint32_t Fifo, uint32_t State,
                                                       uint32_t Timeout, uint32_t Tickstart)
{
 80041a8:	b580      	push	{r7, lr}
 80041aa:	b08a      	sub	sp, #40	@ 0x28
 80041ac:	af00      	add	r7, sp, #0
 80041ae:	60f8      	str	r0, [r7, #12]
 80041b0:	60b9      	str	r1, [r7, #8]
 80041b2:	607a      	str	r2, [r7, #4]
 80041b4:	603b      	str	r3, [r7, #0]
  __IO uint32_t count;
  uint32_t tmp_timeout;
  uint32_t tmp_tickstart;
  __IO uint8_t  *ptmpreg8;
  __IO uint8_t  tmpreg8 = 0;
 80041b6:	2317      	movs	r3, #23
 80041b8:	18fb      	adds	r3, r7, r3
 80041ba:	2200      	movs	r2, #0
 80041bc:	701a      	strb	r2, [r3, #0]

  /* Adjust Timeout value  in case of end of transfer */
  tmp_timeout = Timeout - (HAL_GetTick() - Tickstart);
 80041be:	f7fe f8dd 	bl	800237c <HAL_GetTick>
 80041c2:	0002      	movs	r2, r0
 80041c4:	6b3b      	ldr	r3, [r7, #48]	@ 0x30
 80041c6:	1a9b      	subs	r3, r3, r2
 80041c8:	683a      	ldr	r2, [r7, #0]
 80041ca:	18d3      	adds	r3, r2, r3
 80041cc:	627b      	str	r3, [r7, #36]	@ 0x24
  tmp_tickstart = HAL_GetTick();
 80041ce:	f7fe f8d5 	bl	800237c <HAL_GetTick>
 80041d2:	0003      	movs	r3, r0
 80041d4:	623b      	str	r3, [r7, #32]

  /* Initialize the 8bit temporary pointer */
  ptmpreg8 = (__IO uint8_t *)&hspi->Instance->DR;
 80041d6:	68fb      	ldr	r3, [r7, #12]
 80041d8:	681b      	ldr	r3, [r3, #0]
 80041da:	330c      	adds	r3, #12
 80041dc:	61fb      	str	r3, [r7, #28]

  /* Calculate Timeout based on a software loop to avoid blocking issue if Systick is disabled */
  count = tmp_timeout * ((SystemCoreClock * 35U) >> 20U);
 80041de:	4b41      	ldr	r3, [pc, #260]	@ (80042e4 <SPI_WaitFifoStateUntilTimeout+0x13c>)
 80041e0:	681a      	ldr	r2, [r3, #0]
 80041e2:	0013      	movs	r3, r2
 80041e4:	009b      	lsls	r3, r3, #2
 80041e6:	189b      	adds	r3, r3, r2
 80041e8:	00da      	lsls	r2, r3, #3
 80041ea:	1ad3      	subs	r3, r2, r3
 80041ec:	0d1b      	lsrs	r3, r3, #20
 80041ee:	6a7a      	ldr	r2, [r7, #36]	@ 0x24
 80041f0:	4353      	muls	r3, r2
 80041f2:	61bb      	str	r3, [r7, #24]

  while ((hspi->Instance->SR & Fifo) != State)
 80041f4:	e068      	b.n	80042c8 <SPI_WaitFifoStateUntilTimeout+0x120>
  {
    if ((Fifo == SPI_SR_FRLVL) && (State == SPI_FRLVL_EMPTY))
 80041f6:	68ba      	ldr	r2, [r7, #8]
 80041f8:	23c0      	movs	r3, #192	@ 0xc0
 80041fa:	00db      	lsls	r3, r3, #3
 80041fc:	429a      	cmp	r2, r3
 80041fe:	d10a      	bne.n	8004216 <SPI_WaitFifoStateUntilTimeout+0x6e>
 8004200:	687b      	ldr	r3, [r7, #4]
 8004202:	2b00      	cmp	r3, #0
 8004204:	d107      	bne.n	8004216 <SPI_WaitFifoStateUntilTimeout+0x6e>
    {
      /* Flush Data Register by a blank read */
      tmpreg8 = *ptmpreg8;
 8004206:	69fb      	ldr	r3, [r7, #28]
 8004208:	781b      	ldrb	r3, [r3, #0]
 800420a:	b2da      	uxtb	r2, r3
 800420c:	2117      	movs	r1, #23
 800420e:	187b      	adds	r3, r7, r1
 8004210:	701a      	strb	r2, [r3, #0]
      /* To avoid GCC warning */
      UNUSED(tmpreg8);
 8004212:	187b      	adds	r3, r7, r1
 8004214:	781b      	ldrb	r3, [r3, #0]
    }

    if (Timeout != HAL_MAX_DELAY)
 8004216:	683b      	ldr	r3, [r7, #0]
 8004218:	3301      	adds	r3, #1
 800421a:	d055      	beq.n	80042c8 <SPI_WaitFifoStateUntilTimeout+0x120>
    {
      if (((HAL_GetTick() - tmp_tickstart) >= tmp_timeout) || (tmp_timeout == 0U))
 800421c:	f7fe f8ae 	bl	800237c <HAL_GetTick>
 8004220:	0002      	movs	r2, r0
 8004222:	6a3b      	ldr	r3, [r7, #32]
 8004224:	1ad3      	subs	r3, r2, r3
 8004226:	6a7a      	ldr	r2, [r7, #36]	@ 0x24
 8004228:	429a      	cmp	r2, r3
 800422a:	d902      	bls.n	8004232 <SPI_WaitFifoStateUntilTimeout+0x8a>
 800422c:	6a7b      	ldr	r3, [r7, #36]	@ 0x24
 800422e:	2b00      	cmp	r3, #0
 8004230:	d142      	bne.n	80042b8 <SPI_WaitFifoStateUntilTimeout+0x110>
        /* Disable the SPI and reset the CRC: the CRC value should be cleared
           on both master and slave sides in order to resynchronize the master
           and slave for their respective CRC calculation */

        /* Disable TXE, RXNE and ERR interrupts for the interrupt process */
        __HAL_SPI_DISABLE_IT(hspi, (SPI_IT_TXE | SPI_IT_RXNE | SPI_IT_ERR));
 8004232:	68fb      	ldr	r3, [r7, #12]
 8004234:	681b      	ldr	r3, [r3, #0]
 8004236:	685a      	ldr	r2, [r3, #4]
 8004238:	68fb      	ldr	r3, [r7, #12]
 800423a:	681b      	ldr	r3, [r3, #0]
 800423c:	21e0      	movs	r1, #224	@ 0xe0
 800423e:	438a      	bics	r2, r1
 8004240:	605a      	str	r2, [r3, #4]

        if ((hspi->Init.Mode == SPI_MODE_MASTER) && ((hspi->Init.Direction == SPI_DIRECTION_1LINE)
 8004242:	68fb      	ldr	r3, [r7, #12]
 8004244:	685a      	ldr	r2, [r3, #4]
 8004246:	2382      	movs	r3, #130	@ 0x82
 8004248:	005b      	lsls	r3, r3, #1
 800424a:	429a      	cmp	r2, r3
 800424c:	d113      	bne.n	8004276 <SPI_WaitFifoStateUntilTimeout+0xce>
 800424e:	68fb      	ldr	r3, [r7, #12]
 8004250:	689a      	ldr	r2, [r3, #8]
 8004252:	2380      	movs	r3, #128	@ 0x80
 8004254:	021b      	lsls	r3, r3, #8
 8004256:	429a      	cmp	r2, r3
 8004258:	d005      	beq.n	8004266 <SPI_WaitFifoStateUntilTimeout+0xbe>
                                                     || (hspi->Init.Direction == SPI_DIRECTION_2LINES_RXONLY)))
 800425a:	68fb      	ldr	r3, [r7, #12]
 800425c:	689a      	ldr	r2, [r3, #8]
 800425e:	2380      	movs	r3, #128	@ 0x80
 8004260:	00db      	lsls	r3, r3, #3
 8004262:	429a      	cmp	r2, r3
 8004264:	d107      	bne.n	8004276 <SPI_WaitFifoStateUntilTimeout+0xce>
        {
          /* Disable SPI peripheral */
          __HAL_SPI_DISABLE(hspi);
 8004266:	68fb      	ldr	r3, [r7, #12]
 8004268:	681b      	ldr	r3, [r3, #0]
 800426a:	681a      	ldr	r2, [r3, #0]
 800426c:	68fb      	ldr	r3, [r7, #12]
 800426e:	681b      	ldr	r3, [r3, #0]
 8004270:	2140      	movs	r1, #64	@ 0x40
 8004272:	438a      	bics	r2, r1
 8004274:	601a      	str	r2, [r3, #0]
        }

        /* Reset CRC Calculation */
        if (hspi->Init.CRCCalculation == SPI_CRCCALCULATION_ENABLE)
 8004276:	68fb      	ldr	r3, [r7, #12]
 8004278:	6a9a      	ldr	r2, [r3, #40]	@ 0x28
 800427a:	2380      	movs	r3, #128	@ 0x80
 800427c:	019b      	lsls	r3, r3, #6
 800427e:	429a      	cmp	r2, r3
 8004280:	d110      	bne.n	80042a4 <SPI_WaitFifoStateUntilTimeout+0xfc>
        {
          SPI_RESET_CRC(hspi);
 8004282:	68fb      	ldr	r3, [r7, #12]
 8004284:	681b      	ldr	r3, [r3, #0]
 8004286:	681a      	ldr	r2, [r3, #0]
 8004288:	68fb      	ldr	r3, [r7, #12]
 800428a:	681b      	ldr	r3, [r3, #0]
 800428c:	4916      	ldr	r1, [pc, #88]	@ (80042e8 <SPI_WaitFifoStateUntilTimeout+0x140>)
 800428e:	400a      	ands	r2, r1
 8004290:	601a      	str	r2, [r3, #0]
 8004292:	68fb      	ldr	r3, [r7, #12]
 8004294:	681b      	ldr	r3, [r3, #0]
 8004296:	681a      	ldr	r2, [r3, #0]
 8004298:	68fb      	ldr	r3, [r7, #12]
 800429a:	681b      	ldr	r3, [r3, #0]
 800429c:	2180      	movs	r1, #128	@ 0x80
 800429e:	0189      	lsls	r1, r1, #6
 80042a0:	430a      	orrs	r2, r1
 80042a2:	601a      	str	r2, [r3, #0]
        }

        hspi->State = HAL_SPI_STATE_READY;
 80042a4:	68fb      	ldr	r3, [r7, #12]
 80042a6:	225d      	movs	r2, #93	@ 0x5d
 80042a8:	2101      	movs	r1, #1
 80042aa:	5499      	strb	r1, [r3, r2]

        /* Process Unlocked */
        __HAL_UNLOCK(hspi);
 80042ac:	68fb      	ldr	r3, [r7, #12]
 80042ae:	225c      	movs	r2, #92	@ 0x5c
 80042b0:	2100      	movs	r1, #0
 80042b2:	5499      	strb	r1, [r3, r2]

        return HAL_TIMEOUT;
 80042b4:	2303      	movs	r3, #3
 80042b6:	e010      	b.n	80042da <SPI_WaitFifoStateUntilTimeout+0x132>
      }
      /* If Systick is disabled or not incremented, deactivate timeout to go in disable loop procedure */
      if (count == 0U)
 80042b8:	69bb      	ldr	r3, [r7, #24]
 80042ba:	2b00      	cmp	r3, #0
 80042bc:	d101      	bne.n	80042c2 <SPI_WaitFifoStateUntilTimeout+0x11a>
      {
        tmp_timeout = 0U;
 80042be:	2300      	movs	r3, #0
 80042c0:	627b      	str	r3, [r7, #36]	@ 0x24
      }
      count--;
 80042c2:	69bb      	ldr	r3, [r7, #24]
 80042c4:	3b01      	subs	r3, #1
 80042c6:	61bb      	str	r3, [r7, #24]
  while ((hspi->Instance->SR & Fifo) != State)
 80042c8:	68fb      	ldr	r3, [r7, #12]
 80042ca:	681b      	ldr	r3, [r3, #0]
 80042cc:	689b      	ldr	r3, [r3, #8]
 80042ce:	68ba      	ldr	r2, [r7, #8]
 80042d0:	4013      	ands	r3, r2
 80042d2:	687a      	ldr	r2, [r7, #4]
 80042d4:	429a      	cmp	r2, r3
 80042d6:	d18e      	bne.n	80041f6 <SPI_WaitFifoStateUntilTimeout+0x4e>
    }
  }

  return HAL_OK;
 80042d8:	2300      	movs	r3, #0
}
 80042da:	0018      	movs	r0, r3
 80042dc:	46bd      	mov	sp, r7
 80042de:	b00a      	add	sp, #40	@ 0x28
 80042e0:	bd80      	pop	{r7, pc}
 80042e2:	46c0      	nop			@ (mov r8, r8)
 80042e4:	20000004 	.word	0x20000004
 80042e8:	ffffdfff 	.word	0xffffdfff

080042ec <SPI_EndRxTransaction>:
  * @param  Timeout Timeout duration
  * @param  Tickstart tick start value
  * @retval HAL status
  */
static HAL_StatusTypeDef SPI_EndRxTransaction(SPI_HandleTypeDef *hspi,  uint32_t Timeout, uint32_t Tickstart)
{
 80042ec:	b580      	push	{r7, lr}
 80042ee:	b086      	sub	sp, #24
 80042f0:	af02      	add	r7, sp, #8
 80042f2:	60f8      	str	r0, [r7, #12]
 80042f4:	60b9      	str	r1, [r7, #8]
 80042f6:	607a      	str	r2, [r7, #4]
  if ((hspi->Init.Mode == SPI_MODE_MASTER) && ((hspi->Init.Direction == SPI_DIRECTION_1LINE)
 80042f8:	68fb      	ldr	r3, [r7, #12]
 80042fa:	685a      	ldr	r2, [r3, #4]
 80042fc:	2382      	movs	r3, #130	@ 0x82
 80042fe:	005b      	lsls	r3, r3, #1
 8004300:	429a      	cmp	r2, r3
 8004302:	d113      	bne.n	800432c <SPI_EndRxTransaction+0x40>
 8004304:	68fb      	ldr	r3, [r7, #12]
 8004306:	689a      	ldr	r2, [r3, #8]
 8004308:	2380      	movs	r3, #128	@ 0x80
 800430a:	021b      	lsls	r3, r3, #8
 800430c:	429a      	cmp	r2, r3
 800430e:	d005      	beq.n	800431c <SPI_EndRxTransaction+0x30>
                                               || (hspi->Init.Direction == SPI_DIRECTION_2LINES_RXONLY)))
 8004310:	68fb      	ldr	r3, [r7, #12]
 8004312:	689a      	ldr	r2, [r3, #8]
 8004314:	2380      	movs	r3, #128	@ 0x80
 8004316:	00db      	lsls	r3, r3, #3
 8004318:	429a      	cmp	r2, r3
 800431a:	d107      	bne.n	800432c <SPI_EndRxTransaction+0x40>
  {
    /* Disable SPI peripheral */
    __HAL_SPI_DISABLE(hspi);
 800431c:	68fb      	ldr	r3, [r7, #12]
 800431e:	681b      	ldr	r3, [r3, #0]
 8004320:	681a      	ldr	r2, [r3, #0]
 8004322:	68fb      	ldr	r3, [r7, #12]
 8004324:	681b      	ldr	r3, [r3, #0]
 8004326:	2140      	movs	r1, #64	@ 0x40
 8004328:	438a      	bics	r2, r1
 800432a:	601a      	str	r2, [r3, #0]
  }

  /* Control the BSY flag */
  if (SPI_WaitFlagStateUntilTimeout(hspi, SPI_FLAG_BSY, RESET, Timeout, Tickstart) != HAL_OK)
 800432c:	68ba      	ldr	r2, [r7, #8]
 800432e:	68f8      	ldr	r0, [r7, #12]
 8004330:	687b      	ldr	r3, [r7, #4]
 8004332:	9300      	str	r3, [sp, #0]
 8004334:	0013      	movs	r3, r2
 8004336:	2200      	movs	r2, #0
 8004338:	2180      	movs	r1, #128	@ 0x80
 800433a:	f7ff fea7 	bl	800408c <SPI_WaitFlagStateUntilTimeout>
 800433e:	1e03      	subs	r3, r0, #0
 8004340:	d007      	beq.n	8004352 <SPI_EndRxTransaction+0x66>
  {
    SET_BIT(hspi->ErrorCode, HAL_SPI_ERROR_FLAG);
 8004342:	68fb      	ldr	r3, [r7, #12]
 8004344:	6e1b      	ldr	r3, [r3, #96]	@ 0x60
 8004346:	2220      	movs	r2, #32
 8004348:	431a      	orrs	r2, r3
 800434a:	68fb      	ldr	r3, [r7, #12]
 800434c:	661a      	str	r2, [r3, #96]	@ 0x60
    return HAL_TIMEOUT;
 800434e:	2303      	movs	r3, #3
 8004350:	e026      	b.n	80043a0 <SPI_EndRxTransaction+0xb4>
  }

  if ((hspi->Init.Mode == SPI_MODE_MASTER) && ((hspi->Init.Direction == SPI_DIRECTION_1LINE)
 8004352:	68fb      	ldr	r3, [r7, #12]
 8004354:	685a      	ldr	r2, [r3, #4]
 8004356:	2382      	movs	r3, #130	@ 0x82
 8004358:	005b      	lsls	r3, r3, #1
 800435a:	429a      	cmp	r2, r3
 800435c:	d11f      	bne.n	800439e <SPI_EndRxTransaction+0xb2>
 800435e:	68fb      	ldr	r3, [r7, #12]
 8004360:	689a      	ldr	r2, [r3, #8]
 8004362:	2380      	movs	r3, #128	@ 0x80
 8004364:	021b      	lsls	r3, r3, #8
 8004366:	429a      	cmp	r2, r3
 8004368:	d005      	beq.n	8004376 <SPI_EndRxTransaction+0x8a>
                                               || (hspi->Init.Direction == SPI_DIRECTION_2LINES_RXONLY)))
 800436a:	68fb      	ldr	r3, [r7, #12]
 800436c:	689a      	ldr	r2, [r3, #8]
 800436e:	2380      	movs	r3, #128	@ 0x80
 8004370:	00db      	lsls	r3, r3, #3
 8004372:	429a      	cmp	r2, r3
 8004374:	d113      	bne.n	800439e <SPI_EndRxTransaction+0xb2>
  {
    /* Empty the FRLVL fifo */
    if (SPI_WaitFifoStateUntilTimeout(hspi, SPI_FLAG_FRLVL, SPI_FRLVL_EMPTY, Timeout, Tickstart) != HAL_OK)
 8004376:	68ba      	ldr	r2, [r7, #8]
 8004378:	23c0      	movs	r3, #192	@ 0xc0
 800437a:	00d9      	lsls	r1, r3, #3
 800437c:	68f8      	ldr	r0, [r7, #12]
 800437e:	687b      	ldr	r3, [r7, #4]
 8004380:	9300      	str	r3, [sp, #0]
 8004382:	0013      	movs	r3, r2
 8004384:	2200      	movs	r2, #0
 8004386:	f7ff ff0f 	bl	80041a8 <SPI_WaitFifoStateUntilTimeout>
 800438a:	1e03      	subs	r3, r0, #0
 800438c:	d007      	beq.n	800439e <SPI_EndRxTransaction+0xb2>
    {
      SET_BIT(hspi->ErrorCode, HAL_SPI_ERROR_FLAG);
 800438e:	68fb      	ldr	r3, [r7, #12]
 8004390:	6e1b      	ldr	r3, [r3, #96]	@ 0x60
 8004392:	2220      	movs	r2, #32
 8004394:	431a      	orrs	r2, r3
 8004396:	68fb      	ldr	r3, [r7, #12]
 8004398:	661a      	str	r2, [r3, #96]	@ 0x60
      return HAL_TIMEOUT;
 800439a:	2303      	movs	r3, #3
 800439c:	e000      	b.n	80043a0 <SPI_EndRxTransaction+0xb4>
    }
  }
  return HAL_OK;
 800439e:	2300      	movs	r3, #0
}
 80043a0:	0018      	movs	r0, r3
 80043a2:	46bd      	mov	sp, r7
 80043a4:	b004      	add	sp, #16
 80043a6:	bd80      	pop	{r7, pc}

080043a8 <SPI_EndRxTxTransaction>:
  * @param  Timeout Timeout duration
  * @param  Tickstart tick start value
  * @retval HAL status
  */
static HAL_StatusTypeDef SPI_EndRxTxTransaction(SPI_HandleTypeDef *hspi, uint32_t Timeout, uint32_t Tickstart)
{
 80043a8:	b580      	push	{r7, lr}
 80043aa:	b086      	sub	sp, #24
 80043ac:	af02      	add	r7, sp, #8
 80043ae:	60f8      	str	r0, [r7, #12]
 80043b0:	60b9      	str	r1, [r7, #8]
 80043b2:	607a      	str	r2, [r7, #4]
  /* Control if the TX fifo is empty */
  if (SPI_WaitFifoStateUntilTimeout(hspi, SPI_FLAG_FTLVL, SPI_FTLVL_EMPTY, Timeout, Tickstart) != HAL_OK)
 80043b4:	68ba      	ldr	r2, [r7, #8]
 80043b6:	23c0      	movs	r3, #192	@ 0xc0
 80043b8:	0159      	lsls	r1, r3, #5
 80043ba:	68f8      	ldr	r0, [r7, #12]
 80043bc:	687b      	ldr	r3, [r7, #4]
 80043be:	9300      	str	r3, [sp, #0]
 80043c0:	0013      	movs	r3, r2
 80043c2:	2200      	movs	r2, #0
 80043c4:	f7ff fef0 	bl	80041a8 <SPI_WaitFifoStateUntilTimeout>
 80043c8:	1e03      	subs	r3, r0, #0
 80043ca:	d007      	beq.n	80043dc <SPI_EndRxTxTransaction+0x34>
  {
    SET_BIT(hspi->ErrorCode, HAL_SPI_ERROR_FLAG);
 80043cc:	68fb      	ldr	r3, [r7, #12]
 80043ce:	6e1b      	ldr	r3, [r3, #96]	@ 0x60
 80043d0:	2220      	movs	r2, #32
 80043d2:	431a      	orrs	r2, r3
 80043d4:	68fb      	ldr	r3, [r7, #12]
 80043d6:	661a      	str	r2, [r3, #96]	@ 0x60
    return HAL_TIMEOUT;
 80043d8:	2303      	movs	r3, #3
 80043da:	e027      	b.n	800442c <SPI_EndRxTxTransaction+0x84>
  }

  /* Control the BSY flag */
  if (SPI_WaitFlagStateUntilTimeout(hspi, SPI_FLAG_BSY, RESET, Timeout, Tickstart) != HAL_OK)
 80043dc:	68ba      	ldr	r2, [r7, #8]
 80043de:	68f8      	ldr	r0, [r7, #12]
 80043e0:	687b      	ldr	r3, [r7, #4]
 80043e2:	9300      	str	r3, [sp, #0]
 80043e4:	0013      	movs	r3, r2
 80043e6:	2200      	movs	r2, #0
 80043e8:	2180      	movs	r1, #128	@ 0x80
 80043ea:	f7ff fe4f 	bl	800408c <SPI_WaitFlagStateUntilTimeout>
 80043ee:	1e03      	subs	r3, r0, #0
 80043f0:	d007      	beq.n	8004402 <SPI_EndRxTxTransaction+0x5a>
  {
    SET_BIT(hspi->ErrorCode, HAL_SPI_ERROR_FLAG);
 80043f2:	68fb      	ldr	r3, [r7, #12]
 80043f4:	6e1b      	ldr	r3, [r3, #96]	@ 0x60
 80043f6:	2220      	movs	r2, #32
 80043f8:	431a      	orrs	r2, r3
 80043fa:	68fb      	ldr	r3, [r7, #12]
 80043fc:	661a      	str	r2, [r3, #96]	@ 0x60
    return HAL_TIMEOUT;
 80043fe:	2303      	movs	r3, #3
 8004400:	e014      	b.n	800442c <SPI_EndRxTxTransaction+0x84>
  }

  /* Control if the RX fifo is empty */
  if (SPI_WaitFifoStateUntilTimeout(hspi, SPI_FLAG_FRLVL, SPI_FRLVL_EMPTY, Timeout, Tickstart) != HAL_OK)
 8004402:	68ba      	ldr	r2, [r7, #8]
 8004404:	23c0      	movs	r3, #192	@ 0xc0
 8004406:	00d9      	lsls	r1, r3, #3
 8004408:	68f8      	ldr	r0, [r7, #12]
 800440a:	687b      	ldr	r3, [r7, #4]
 800440c:	9300      	str	r3, [sp, #0]
 800440e:	0013      	movs	r3, r2
 8004410:	2200      	movs	r2, #0
 8004412:	f7ff fec9 	bl	80041a8 <SPI_WaitFifoStateUntilTimeout>
 8004416:	1e03      	subs	r3, r0, #0
 8004418:	d007      	beq.n	800442a <SPI_EndRxTxTransaction+0x82>
  {
    SET_BIT(hspi->ErrorCode, HAL_SPI_ERROR_FLAG);
 800441a:	68fb      	ldr	r3, [r7, #12]
 800441c:	6e1b      	ldr	r3, [r3, #96]	@ 0x60
 800441e:	2220      	movs	r2, #32
 8004420:	431a      	orrs	r2, r3
 8004422:	68fb      	ldr	r3, [r7, #12]
 8004424:	661a      	str	r2, [r3, #96]	@ 0x60
    return HAL_TIMEOUT;
 8004426:	2303      	movs	r3, #3
 8004428:	e000      	b.n	800442c <SPI_EndRxTxTransaction+0x84>
  }

  return HAL_OK;
 800442a:	2300      	movs	r3, #0
}
 800442c:	0018      	movs	r0, r3
 800442e:	46bd      	mov	sp, r7
 8004430:	b004      	add	sp, #16
 8004432:	bd80      	pop	{r7, pc}

08004434 <HAL_TIM_Base_Init>:
  *         Ex: call @ref HAL_TIM_Base_DeInit() before HAL_TIM_Base_Init()
  * @param  htim TIM Base handle
  * @retval HAL status
  */
HAL_StatusTypeDef HAL_TIM_Base_Init(TIM_HandleTypeDef *htim)
{
 8004434:	b580      	push	{r7, lr}
 8004436:	b082      	sub	sp, #8
 8004438:	af00      	add	r7, sp, #0
 800443a:	6078      	str	r0, [r7, #4]
  /* Check the TIM handle allocation */
  if (htim == NULL)
 800443c:	687b      	ldr	r3, [r7, #4]
 800443e:	2b00      	cmp	r3, #0
 8004440:	d101      	bne.n	8004446 <HAL_TIM_Base_Init+0x12>
  {
    return HAL_ERROR;
 8004442:	2301      	movs	r3, #1
 8004444:	e042      	b.n	80044cc <HAL_TIM_Base_Init+0x98>
  assert_param(IS_TIM_COUNTER_MODE(htim->Init.CounterMode));
  assert_param(IS_TIM_CLOCKDIVISION_DIV(htim->Init.ClockDivision));
  assert_param(IS_TIM_PERIOD(htim, htim->Init.Period));
  assert_param(IS_TIM_AUTORELOAD_PRELOAD(htim->Init.AutoReloadPreload));

  if (htim->State == HAL_TIM_STATE_RESET)
 8004446:	687b      	ldr	r3, [r7, #4]
 8004448:	223d      	movs	r2, #61	@ 0x3d
 800444a:	5c9b      	ldrb	r3, [r3, r2]
 800444c:	b2db      	uxtb	r3, r3
 800444e:	2b00      	cmp	r3, #0
 8004450:	d107      	bne.n	8004462 <HAL_TIM_Base_Init+0x2e>
  {
    /* Allocate lock resource and initialize it */
    htim->Lock = HAL_UNLOCKED;
 8004452:	687b      	ldr	r3, [r7, #4]
 8004454:	223c      	movs	r2, #60	@ 0x3c
 8004456:	2100      	movs	r1, #0
 8004458:	5499      	strb	r1, [r3, r2]
    }
    /* Init the low level hardware : GPIO, CLOCK, NVIC */
    htim->Base_MspInitCallback(htim);
#else
    /* Init the low level hardware : GPIO, CLOCK, NVIC */
    HAL_TIM_Base_MspInit(htim);
 800445a:	687b      	ldr	r3, [r7, #4]
 800445c:	0018      	movs	r0, r3
 800445e:	f7fd fded 	bl	800203c <HAL_TIM_Base_MspInit>
#endif /* USE_HAL_TIM_REGISTER_CALLBACKS */
  }

  /* Set the TIM state */
  htim->State = HAL_TIM_STATE_BUSY;
 8004462:	687b      	ldr	r3, [r7, #4]
 8004464:	223d      	movs	r2, #61	@ 0x3d
 8004466:	2102      	movs	r1, #2
 8004468:	5499      	strb	r1, [r3, r2]

  /* Set the Time Base configuration */
  TIM_Base_SetConfig(htim->Instance, &htim->Init);
 800446a:	687b      	ldr	r3, [r7, #4]
 800446c:	681a      	ldr	r2, [r3, #0]
 800446e:	687b      	ldr	r3, [r7, #4]
 8004470:	3304      	adds	r3, #4
 8004472:	0019      	movs	r1, r3
 8004474:	0010      	movs	r0, r2
 8004476:	f000 f943 	bl	8004700 <TIM_Base_SetConfig>

  /* Initialize the DMA burst operation state */
  htim->DMABurstState = HAL_DMA_BURST_STATE_READY;
 800447a:	687b      	ldr	r3, [r7, #4]
 800447c:	2246      	movs	r2, #70	@ 0x46
 800447e:	2101      	movs	r1, #1
 8004480:	5499      	strb	r1, [r3, r2]

  /* Initialize the TIM channels state */
  TIM_CHANNEL_STATE_SET_ALL(htim, HAL_TIM_CHANNEL_STATE_READY);
 8004482:	687b      	ldr	r3, [r7, #4]
 8004484:	223e      	movs	r2, #62	@ 0x3e
 8004486:	2101      	movs	r1, #1
 8004488:	5499      	strb	r1, [r3, r2]
 800448a:	687b      	ldr	r3, [r7, #4]
 800448c:	223f      	movs	r2, #63	@ 0x3f
 800448e:	2101      	movs	r1, #1
 8004490:	5499      	strb	r1, [r3, r2]
 8004492:	687b      	ldr	r3, [r7, #4]
 8004494:	2240      	movs	r2, #64	@ 0x40
 8004496:	2101      	movs	r1, #1
 8004498:	5499      	strb	r1, [r3, r2]
 800449a:	687b      	ldr	r3, [r7, #4]
 800449c:	2241      	movs	r2, #65	@ 0x41
 800449e:	2101      	movs	r1, #1
 80044a0:	5499      	strb	r1, [r3, r2]
  TIM_CHANNEL_N_STATE_SET_ALL(htim, HAL_TIM_CHANNEL_STATE_READY);
 80044a2:	687b      	ldr	r3, [r7, #4]
 80044a4:	2242      	movs	r2, #66	@ 0x42
 80044a6:	2101      	movs	r1, #1
 80044a8:	5499      	strb	r1, [r3, r2]
 80044aa:	687b      	ldr	r3, [r7, #4]
 80044ac:	2243      	movs	r2, #67	@ 0x43
 80044ae:	2101      	movs	r1, #1
 80044b0:	5499      	strb	r1, [r3, r2]
 80044b2:	687b      	ldr	r3, [r7, #4]
 80044b4:	2244      	movs	r2, #68	@ 0x44
 80044b6:	2101      	movs	r1, #1
 80044b8:	5499      	strb	r1, [r3, r2]
 80044ba:	687b      	ldr	r3, [r7, #4]
 80044bc:	2245      	movs	r2, #69	@ 0x45
 80044be:	2101      	movs	r1, #1
 80044c0:	5499      	strb	r1, [r3, r2]

  /* Initialize the TIM state*/
  htim->State = HAL_TIM_STATE_READY;
 80044c2:	687b      	ldr	r3, [r7, #4]
 80044c4:	223d      	movs	r2, #61	@ 0x3d
 80044c6:	2101      	movs	r1, #1
 80044c8:	5499      	strb	r1, [r3, r2]

  return HAL_OK;
 80044ca:	2300      	movs	r3, #0
}
 80044cc:	0018      	movs	r0, r3
 80044ce:	46bd      	mov	sp, r7
 80044d0:	b002      	add	sp, #8
 80044d2:	bd80      	pop	{r7, pc}

080044d4 <HAL_TIM_IRQHandler>:
  * @brief  This function handles TIM interrupts requests.
  * @param  htim TIM  handle
  * @retval None
  */
void HAL_TIM_IRQHandler(TIM_HandleTypeDef *htim)
{
 80044d4:	b580      	push	{r7, lr}
 80044d6:	b084      	sub	sp, #16
 80044d8:	af00      	add	r7, sp, #0
 80044da:	6078      	str	r0, [r7, #4]
  uint32_t itsource = htim->Instance->DIER;
 80044dc:	687b      	ldr	r3, [r7, #4]
 80044de:	681b      	ldr	r3, [r3, #0]
 80044e0:	68db      	ldr	r3, [r3, #12]
 80044e2:	60fb      	str	r3, [r7, #12]
  uint32_t itflag   = htim->Instance->SR;
 80044e4:	687b      	ldr	r3, [r7, #4]
 80044e6:	681b      	ldr	r3, [r3, #0]
 80044e8:	691b      	ldr	r3, [r3, #16]
 80044ea:	60bb      	str	r3, [r7, #8]

  /* Capture compare 1 event */
  if ((itflag & (TIM_FLAG_CC1)) == (TIM_FLAG_CC1))
 80044ec:	68bb      	ldr	r3, [r7, #8]
 80044ee:	2202      	movs	r2, #2
 80044f0:	4013      	ands	r3, r2
 80044f2:	d021      	beq.n	8004538 <HAL_TIM_IRQHandler+0x64>
  {
    if ((itsource & (TIM_IT_CC1)) == (TIM_IT_CC1))
 80044f4:	68fb      	ldr	r3, [r7, #12]
 80044f6:	2202      	movs	r2, #2
 80044f8:	4013      	ands	r3, r2
 80044fa:	d01d      	beq.n	8004538 <HAL_TIM_IRQHandler+0x64>
    {
      {
        __HAL_TIM_CLEAR_FLAG(htim, TIM_FLAG_CC1);
 80044fc:	687b      	ldr	r3, [r7, #4]
 80044fe:	681b      	ldr	r3, [r3, #0]
 8004500:	2203      	movs	r2, #3
 8004502:	4252      	negs	r2, r2
 8004504:	611a      	str	r2, [r3, #16]
        htim->Channel = HAL_TIM_ACTIVE_CHANNEL_1;
 8004506:	687b      	ldr	r3, [r7, #4]
 8004508:	2201      	movs	r2, #1
 800450a:	771a      	strb	r2, [r3, #28]

        /* Input capture event */
        if ((htim->Instance->CCMR1 & TIM_CCMR1_CC1S) != 0x00U)
 800450c:	687b      	ldr	r3, [r7, #4]
 800450e:	681b      	ldr	r3, [r3, #0]
 8004510:	699b      	ldr	r3, [r3, #24]
 8004512:	2203      	movs	r2, #3
 8004514:	4013      	ands	r3, r2
 8004516:	d004      	beq.n	8004522 <HAL_TIM_IRQHandler+0x4e>
        {
#if (USE_HAL_TIM_REGISTER_CALLBACKS == 1)
          htim->IC_CaptureCallback(htim);
#else
          HAL_TIM_IC_CaptureCallback(htim);
 8004518:	687b      	ldr	r3, [r7, #4]
 800451a:	0018      	movs	r0, r3
 800451c:	f000 f8d8 	bl	80046d0 <HAL_TIM_IC_CaptureCallback>
 8004520:	e007      	b.n	8004532 <HAL_TIM_IRQHandler+0x5e>
        {
#if (USE_HAL_TIM_REGISTER_CALLBACKS == 1)
          htim->OC_DelayElapsedCallback(htim);
          htim->PWM_PulseFinishedCallback(htim);
#else
          HAL_TIM_OC_DelayElapsedCallback(htim);
 8004522:	687b      	ldr	r3, [r7, #4]
 8004524:	0018      	movs	r0, r3
 8004526:	f000 f8cb 	bl	80046c0 <HAL_TIM_OC_DelayElapsedCallback>
          HAL_TIM_PWM_PulseFinishedCallback(htim);
 800452a:	687b      	ldr	r3, [r7, #4]
 800452c:	0018      	movs	r0, r3
 800452e:	f000 f8d7 	bl	80046e0 <HAL_TIM_PWM_PulseFinishedCallback>
#endif /* USE_HAL_TIM_REGISTER_CALLBACKS */
        }
        htim->Channel = HAL_TIM_ACTIVE_CHANNEL_CLEARED;
 8004532:	687b      	ldr	r3, [r7, #4]
 8004534:	2200      	movs	r2, #0
 8004536:	771a      	strb	r2, [r3, #28]
      }
    }
  }
  /* Capture compare 2 event */
  if ((itflag & (TIM_FLAG_CC2)) == (TIM_FLAG_CC2))
 8004538:	68bb      	ldr	r3, [r7, #8]
 800453a:	2204      	movs	r2, #4
 800453c:	4013      	ands	r3, r2
 800453e:	d022      	beq.n	8004586 <HAL_TIM_IRQHandler+0xb2>
  {
    if ((itsource & (TIM_IT_CC2)) == (TIM_IT_CC2))
 8004540:	68fb      	ldr	r3, [r7, #12]
 8004542:	2204      	movs	r2, #4
 8004544:	4013      	ands	r3, r2
 8004546:	d01e      	beq.n	8004586 <HAL_TIM_IRQHandler+0xb2>
    {
      __HAL_TIM_CLEAR_FLAG(htim, TIM_FLAG_CC2);
 8004548:	687b      	ldr	r3, [r7, #4]
 800454a:	681b      	ldr	r3, [r3, #0]
 800454c:	2205      	movs	r2, #5
 800454e:	4252      	negs	r2, r2
 8004550:	611a      	str	r2, [r3, #16]
      htim->Channel = HAL_TIM_ACTIVE_CHANNEL_2;
 8004552:	687b      	ldr	r3, [r7, #4]
 8004554:	2202      	movs	r2, #2
 8004556:	771a      	strb	r2, [r3, #28]
      /* Input capture event */
      if ((htim->Instance->CCMR1 & TIM_CCMR1_CC2S) != 0x00U)
 8004558:	687b      	ldr	r3, [r7, #4]
 800455a:	681b      	ldr	r3, [r3, #0]
 800455c:	699a      	ldr	r2, [r3, #24]
 800455e:	23c0      	movs	r3, #192	@ 0xc0
 8004560:	009b      	lsls	r3, r3, #2
 8004562:	4013      	ands	r3, r2
 8004564:	d004      	beq.n	8004570 <HAL_TIM_IRQHandler+0x9c>
      {
#if (USE_HAL_TIM_REGISTER_CALLBACKS == 1)
        htim->IC_CaptureCallback(htim);
#else
        HAL_TIM_IC_CaptureCallback(htim);
 8004566:	687b      	ldr	r3, [r7, #4]
 8004568:	0018      	movs	r0, r3
 800456a:	f000 f8b1 	bl	80046d0 <HAL_TIM_IC_CaptureCallback>
 800456e:	e007      	b.n	8004580 <HAL_TIM_IRQHandler+0xac>
      {
#if (USE_HAL_TIM_REGISTER_CALLBACKS == 1)
        htim->OC_DelayElapsedCallback(htim);
        htim->PWM_PulseFinishedCallback(htim);
#else
        HAL_TIM_OC_DelayElapsedCallback(htim);
 8004570:	687b      	ldr	r3, [r7, #4]
 8004572:	0018      	movs	r0, r3
 8004574:	f000 f8a4 	bl	80046c0 <HAL_TIM_OC_DelayElapsedCallback>
        HAL_TIM_PWM_PulseFinishedCallback(htim);
 8004578:	687b      	ldr	r3, [r7, #4]
 800457a:	0018      	movs	r0, r3
 800457c:	f000 f8b0 	bl	80046e0 <HAL_TIM_PWM_PulseFinishedCallback>
#endif /* USE_HAL_TIM_REGISTER_CALLBACKS */
      }
      htim->Channel = HAL_TIM_ACTIVE_CHANNEL_CLEARED;
 8004580:	687b      	ldr	r3, [r7, #4]
 8004582:	2200      	movs	r2, #0
 8004584:	771a      	strb	r2, [r3, #28]
    }
  }
  /* Capture compare 3 event */
  if ((itflag & (TIM_FLAG_CC3)) == (TIM_FLAG_CC3))
 8004586:	68bb      	ldr	r3, [r7, #8]
 8004588:	2208      	movs	r2, #8
 800458a:	4013      	ands	r3, r2
 800458c:	d021      	beq.n	80045d2 <HAL_TIM_IRQHandler+0xfe>
  {
    if ((itsource & (TIM_IT_CC3)) == (TIM_IT_CC3))
 800458e:	68fb      	ldr	r3, [r7, #12]
 8004590:	2208      	movs	r2, #8
 8004592:	4013      	ands	r3, r2
 8004594:	d01d      	beq.n	80045d2 <HAL_TIM_IRQHandler+0xfe>
    {
      __HAL_TIM_CLEAR_FLAG(htim, TIM_FLAG_CC3);
 8004596:	687b      	ldr	r3, [r7, #4]
 8004598:	681b      	ldr	r3, [r3, #0]
 800459a:	2209      	movs	r2, #9
 800459c:	4252      	negs	r2, r2
 800459e:	611a      	str	r2, [r3, #16]
      htim->Channel = HAL_TIM_ACTIVE_CHANNEL_3;
 80045a0:	687b      	ldr	r3, [r7, #4]
 80045a2:	2204      	movs	r2, #4
 80045a4:	771a      	strb	r2, [r3, #28]
      /* Input capture event */
      if ((htim->Instance->CCMR2 & TIM_CCMR2_CC3S) != 0x00U)
 80045a6:	687b      	ldr	r3, [r7, #4]
 80045a8:	681b      	ldr	r3, [r3, #0]
 80045aa:	69db      	ldr	r3, [r3, #28]
 80045ac:	2203      	movs	r2, #3
 80045ae:	4013      	ands	r3, r2
 80045b0:	d004      	beq.n	80045bc <HAL_TIM_IRQHandler+0xe8>
      {
#if (USE_HAL_TIM_REGISTER_CALLBACKS == 1)
        htim->IC_CaptureCallback(htim);
#else
        HAL_TIM_IC_CaptureCallback(htim);
 80045b2:	687b      	ldr	r3, [r7, #4]
 80045b4:	0018      	movs	r0, r3
 80045b6:	f000 f88b 	bl	80046d0 <HAL_TIM_IC_CaptureCallback>
 80045ba:	e007      	b.n	80045cc <HAL_TIM_IRQHandler+0xf8>
      {
#if (USE_HAL_TIM_REGISTER_CALLBACKS == 1)
        htim->OC_DelayElapsedCallback(htim);
        htim->PWM_PulseFinishedCallback(htim);
#else
        HAL_TIM_OC_DelayElapsedCallback(htim);
 80045bc:	687b      	ldr	r3, [r7, #4]
 80045be:	0018      	movs	r0, r3
 80045c0:	f000 f87e 	bl	80046c0 <HAL_TIM_OC_DelayElapsedCallback>
        HAL_TIM_PWM_PulseFinishedCallback(htim);
 80045c4:	687b      	ldr	r3, [r7, #4]
 80045c6:	0018      	movs	r0, r3
 80045c8:	f000 f88a 	bl	80046e0 <HAL_TIM_PWM_PulseFinishedCallback>
#endif /* USE_HAL_TIM_REGISTER_CALLBACKS */
      }
      htim->Channel = HAL_TIM_ACTIVE_CHANNEL_CLEARED;
 80045cc:	687b      	ldr	r3, [r7, #4]
 80045ce:	2200      	movs	r2, #0
 80045d0:	771a      	strb	r2, [r3, #28]
    }
  }
  /* Capture compare 4 event */
  if ((itflag & (TIM_FLAG_CC4)) == (TIM_FLAG_CC4))
 80045d2:	68bb      	ldr	r3, [r7, #8]
 80045d4:	2210      	movs	r2, #16
 80045d6:	4013      	ands	r3, r2
 80045d8:	d022      	beq.n	8004620 <HAL_TIM_IRQHandler+0x14c>
  {
    if ((itsource & (TIM_IT_CC4)) == (TIM_IT_CC4))
 80045da:	68fb      	ldr	r3, [r7, #12]
 80045dc:	2210      	movs	r2, #16
 80045de:	4013      	ands	r3, r2
 80045e0:	d01e      	beq.n	8004620 <HAL_TIM_IRQHandler+0x14c>
    {
      __HAL_TIM_CLEAR_FLAG(htim, TIM_FLAG_CC4);
 80045e2:	687b      	ldr	r3, [r7, #4]
 80045e4:	681b      	ldr	r3, [r3, #0]
 80045e6:	2211      	movs	r2, #17
 80045e8:	4252      	negs	r2, r2
 80045ea:	611a      	str	r2, [r3, #16]
      htim->Channel = HAL_TIM_ACTIVE_CHANNEL_4;
 80045ec:	687b      	ldr	r3, [r7, #4]
 80045ee:	2208      	movs	r2, #8
 80045f0:	771a      	strb	r2, [r3, #28]
      /* Input capture event */
      if ((htim->Instance->CCMR2 & TIM_CCMR2_CC4S) != 0x00U)
 80045f2:	687b      	ldr	r3, [r7, #4]
 80045f4:	681b      	ldr	r3, [r3, #0]
 80045f6:	69da      	ldr	r2, [r3, #28]
 80045f8:	23c0      	movs	r3, #192	@ 0xc0
 80045fa:	009b      	lsls	r3, r3, #2
 80045fc:	4013      	ands	r3, r2
 80045fe:	d004      	beq.n	800460a <HAL_TIM_IRQHandler+0x136>
      {
#if (USE_HAL_TIM_REGISTER_CALLBACKS == 1)
        htim->IC_CaptureCallback(htim);
#else
        HAL_TIM_IC_CaptureCallback(htim);
 8004600:	687b      	ldr	r3, [r7, #4]
 8004602:	0018      	movs	r0, r3
 8004604:	f000 f864 	bl	80046d0 <HAL_TIM_IC_CaptureCallback>
 8004608:	e007      	b.n	800461a <HAL_TIM_IRQHandler+0x146>
      {
#if (USE_HAL_TIM_REGISTER_CALLBACKS == 1)
        htim->OC_DelayElapsedCallback(htim);
        htim->PWM_PulseFinishedCallback(htim);
#else
        HAL_TIM_OC_DelayElapsedCallback(htim);
 800460a:	687b      	ldr	r3, [r7, #4]
 800460c:	0018      	movs	r0, r3
 800460e:	f000 f857 	bl	80046c0 <HAL_TIM_OC_DelayElapsedCallback>
        HAL_TIM_PWM_PulseFinishedCallback(htim);
 8004612:	687b      	ldr	r3, [r7, #4]
 8004614:	0018      	movs	r0, r3
 8004616:	f000 f863 	bl	80046e0 <HAL_TIM_PWM_PulseFinishedCallback>
#endif /* USE_HAL_TIM_REGISTER_CALLBACKS */
      }
      htim->Channel = HAL_TIM_ACTIVE_CHANNEL_CLEARED;
 800461a:	687b      	ldr	r3, [r7, #4]
 800461c:	2200      	movs	r2, #0
 800461e:	771a      	strb	r2, [r3, #28]
    }
  }
  /* TIM Update event */
  if ((itflag & (TIM_FLAG_UPDATE)) == (TIM_FLAG_UPDATE))
 8004620:	68bb      	ldr	r3, [r7, #8]
 8004622:	2201      	movs	r2, #1
 8004624:	4013      	ands	r3, r2
 8004626:	d00c      	beq.n	8004642 <HAL_TIM_IRQHandler+0x16e>
  {
    if ((itsource & (TIM_IT_UPDATE)) == (TIM_IT_UPDATE))
 8004628:	68fb      	ldr	r3, [r7, #12]
 800462a:	2201      	movs	r2, #1
 800462c:	4013      	ands	r3, r2
 800462e:	d008      	beq.n	8004642 <HAL_TIM_IRQHandler+0x16e>
    {
      __HAL_TIM_CLEAR_FLAG(htim, TIM_FLAG_UPDATE);
 8004630:	687b      	ldr	r3, [r7, #4]
 8004632:	681b      	ldr	r3, [r3, #0]
 8004634:	2202      	movs	r2, #2
 8004636:	4252      	negs	r2, r2
 8004638:	611a      	str	r2, [r3, #16]
#if (USE_HAL_TIM_REGISTER_CALLBACKS == 1)
      htim->PeriodElapsedCallback(htim);
#else
      HAL_TIM_PeriodElapsedCallback(htim);
 800463a:	687b      	ldr	r3, [r7, #4]
 800463c:	0018      	movs	r0, r3
 800463e:	f000 f837 	bl	80046b0 <HAL_TIM_PeriodElapsedCallback>
#endif /* USE_HAL_TIM_REGISTER_CALLBACKS */
    }
  }
  /* TIM Break input event */
  if ((itflag & (TIM_FLAG_BREAK)) == (TIM_FLAG_BREAK))
 8004642:	68bb      	ldr	r3, [r7, #8]
 8004644:	2280      	movs	r2, #128	@ 0x80
 8004646:	4013      	ands	r3, r2
 8004648:	d00c      	beq.n	8004664 <HAL_TIM_IRQHandler+0x190>
  {
    if ((itsource & (TIM_IT_BREAK)) == (TIM_IT_BREAK))
 800464a:	68fb      	ldr	r3, [r7, #12]
 800464c:	2280      	movs	r2, #128	@ 0x80
 800464e:	4013      	ands	r3, r2
 8004650:	d008      	beq.n	8004664 <HAL_TIM_IRQHandler+0x190>
    {
      __HAL_TIM_CLEAR_FLAG(htim, TIM_FLAG_BREAK);
 8004652:	687b      	ldr	r3, [r7, #4]
 8004654:	681b      	ldr	r3, [r3, #0]
 8004656:	2281      	movs	r2, #129	@ 0x81
 8004658:	4252      	negs	r2, r2
 800465a:	611a      	str	r2, [r3, #16]
#if (USE_HAL_TIM_REGISTER_CALLBACKS == 1)
      htim->BreakCallback(htim);
#else
      HAL_TIMEx_BreakCallback(htim);
 800465c:	687b      	ldr	r3, [r7, #4]
 800465e:	0018      	movs	r0, r3
 8004660:	f000 f8da 	bl	8004818 <HAL_TIMEx_BreakCallback>
#endif /* USE_HAL_TIM_REGISTER_CALLBACKS */
    }
  }
  /* TIM Trigger detection event */
  if ((itflag & (TIM_FLAG_TRIGGER)) == (TIM_FLAG_TRIGGER))
 8004664:	68bb      	ldr	r3, [r7, #8]
 8004666:	2240      	movs	r2, #64	@ 0x40
 8004668:	4013      	ands	r3, r2
 800466a:	d00c      	beq.n	8004686 <HAL_TIM_IRQHandler+0x1b2>
  {
    if ((itsource & (TIM_IT_TRIGGER)) == (TIM_IT_TRIGGER))
 800466c:	68fb      	ldr	r3, [r7, #12]
 800466e:	2240      	movs	r2, #64	@ 0x40
 8004670:	4013      	ands	r3, r2
 8004672:	d008      	beq.n	8004686 <HAL_TIM_IRQHandler+0x1b2>
    {
      __HAL_TIM_CLEAR_FLAG(htim, TIM_FLAG_TRIGGER);
 8004674:	687b      	ldr	r3, [r7, #4]
 8004676:	681b      	ldr	r3, [r3, #0]
 8004678:	2241      	movs	r2, #65	@ 0x41
 800467a:	4252      	negs	r2, r2
 800467c:	611a      	str	r2, [r3, #16]
#if (USE_HAL_TIM_REGISTER_CALLBACKS == 1)
      htim->TriggerCallback(htim);
#else
      HAL_TIM_TriggerCallback(htim);
 800467e:	687b      	ldr	r3, [r7, #4]
 8004680:	0018      	movs	r0, r3
 8004682:	f000 f835 	bl	80046f0 <HAL_TIM_TriggerCallback>
#endif /* USE_HAL_TIM_REGISTER_CALLBACKS */
    }
  }
  /* TIM commutation event */
  if ((itflag & (TIM_FLAG_COM)) == (TIM_FLAG_COM))
 8004686:	68bb      	ldr	r3, [r7, #8]
 8004688:	2220      	movs	r2, #32
 800468a:	4013      	ands	r3, r2
 800468c:	d00c      	beq.n	80046a8 <HAL_TIM_IRQHandler+0x1d4>
  {
    if ((itsource & (TIM_IT_COM)) == (TIM_IT_COM))
 800468e:	68fb      	ldr	r3, [r7, #12]
 8004690:	2220      	movs	r2, #32
 8004692:	4013      	ands	r3, r2
 8004694:	d008      	beq.n	80046a8 <HAL_TIM_IRQHandler+0x1d4>
    {
      __HAL_TIM_CLEAR_FLAG(htim, TIM_FLAG_COM);
 8004696:	687b      	ldr	r3, [r7, #4]
 8004698:	681b      	ldr	r3, [r3, #0]
 800469a:	2221      	movs	r2, #33	@ 0x21
 800469c:	4252      	negs	r2, r2
 800469e:	611a      	str	r2, [r3, #16]
#if (USE_HAL_TIM_REGISTER_CALLBACKS == 1)
      htim->CommutationCallback(htim);
#else
      HAL_TIMEx_CommutCallback(htim);
 80046a0:	687b      	ldr	r3, [r7, #4]
 80046a2:	0018      	movs	r0, r3
 80046a4:	f000 f8b0 	bl	8004808 <HAL_TIMEx_CommutCallback>
#endif /* USE_HAL_TIM_REGISTER_CALLBACKS */
    }
  }
}
 80046a8:	46c0      	nop			@ (mov r8, r8)
 80046aa:	46bd      	mov	sp, r7
 80046ac:	b004      	add	sp, #16
 80046ae:	bd80      	pop	{r7, pc}

080046b0 <HAL_TIM_PeriodElapsedCallback>:
  * @brief  Period elapsed callback in non-blocking mode
  * @param  htim TIM handle
  * @retval None
  */
__weak void HAL_TIM_PeriodElapsedCallback(TIM_HandleTypeDef *htim)
{
 80046b0:	b580      	push	{r7, lr}
 80046b2:	b082      	sub	sp, #8
 80046b4:	af00      	add	r7, sp, #0
 80046b6:	6078      	str	r0, [r7, #4]
  UNUSED(htim);

  /* NOTE : This function should not be modified, when the callback is needed,
            the HAL_TIM_PeriodElapsedCallback could be implemented in the user file
   */
}
 80046b8:	46c0      	nop			@ (mov r8, r8)
 80046ba:	46bd      	mov	sp, r7
 80046bc:	b002      	add	sp, #8
 80046be:	bd80      	pop	{r7, pc}

080046c0 <HAL_TIM_OC_DelayElapsedCallback>:
  * @brief  Output Compare callback in non-blocking mode
  * @param  htim TIM OC handle
  * @retval None
  */
__weak void HAL_TIM_OC_DelayElapsedCallback(TIM_HandleTypeDef *htim)
{
 80046c0:	b580      	push	{r7, lr}
 80046c2:	b082      	sub	sp, #8
 80046c4:	af00      	add	r7, sp, #0
 80046c6:	6078      	str	r0, [r7, #4]
  UNUSED(htim);

  /* NOTE : This function should not be modified, when the callback is needed,
            the HAL_TIM_OC_DelayElapsedCallback could be implemented in the user file
   */
}
 80046c8:	46c0      	nop			@ (mov r8, r8)
 80046ca:	46bd      	mov	sp, r7
 80046cc:	b002      	add	sp, #8
 80046ce:	bd80      	pop	{r7, pc}

080046d0 <HAL_TIM_IC_CaptureCallback>:
  * @brief  Input Capture callback in non-blocking mode
  * @param  htim TIM IC handle
  * @retval None
  */
__weak void HAL_TIM_IC_CaptureCallback(TIM_HandleTypeDef *htim)
{
 80046d0:	b580      	push	{r7, lr}
 80046d2:	b082      	sub	sp, #8
 80046d4:	af00      	add	r7, sp, #0
 80046d6:	6078      	str	r0, [r7, #4]
  UNUSED(htim);

  /* NOTE : This function should not be modified, when the callback is needed,
            the HAL_TIM_IC_CaptureCallback could be implemented in the user file
   */
}
 80046d8:	46c0      	nop			@ (mov r8, r8)
 80046da:	46bd      	mov	sp, r7
 80046dc:	b002      	add	sp, #8
 80046de:	bd80      	pop	{r7, pc}

080046e0 <HAL_TIM_PWM_PulseFinishedCallback>:
  * @brief  PWM Pulse finished callback in non-blocking mode
  * @param  htim TIM handle
  * @retval None
  */
__weak void HAL_TIM_PWM_PulseFinishedCallback(TIM_HandleTypeDef *htim)
{
 80046e0:	b580      	push	{r7, lr}
 80046e2:	b082      	sub	sp, #8
 80046e4:	af00      	add	r7, sp, #0
 80046e6:	6078      	str	r0, [r7, #4]
  UNUSED(htim);

  /* NOTE : This function should not be modified, when the callback is needed,
            the HAL_TIM_PWM_PulseFinishedCallback could be implemented in the user file
   */
}
 80046e8:	46c0      	nop			@ (mov r8, r8)
 80046ea:	46bd      	mov	sp, r7
 80046ec:	b002      	add	sp, #8
 80046ee:	bd80      	pop	{r7, pc}

080046f0 <HAL_TIM_TriggerCallback>:
  * @brief  Hall Trigger detection callback in non-blocking mode
  * @param  htim TIM handle
  * @retval None
  */
__weak void HAL_TIM_TriggerCallback(TIM_HandleTypeDef *htim)
{
 80046f0:	b580      	push	{r7, lr}
 80046f2:	b082      	sub	sp, #8
 80046f4:	af00      	add	r7, sp, #0
 80046f6:	6078      	str	r0, [r7, #4]
  UNUSED(htim);

  /* NOTE : This function should not be modified, when the callback is needed,
            the HAL_TIM_TriggerCallback could be implemented in the user file
   */
}
 80046f8:	46c0      	nop			@ (mov r8, r8)
 80046fa:	46bd      	mov	sp, r7
 80046fc:	b002      	add	sp, #8
 80046fe:	bd80      	pop	{r7, pc}

08004700 <TIM_Base_SetConfig>:
  * @param  TIMx TIM peripheral
  * @param  Structure TIM Base configuration structure
  * @retval None
  */
void TIM_Base_SetConfig(TIM_TypeDef *TIMx, const TIM_Base_InitTypeDef *Structure)
{
 8004700:	b580      	push	{r7, lr}
 8004702:	b084      	sub	sp, #16
 8004704:	af00      	add	r7, sp, #0
 8004706:	6078      	str	r0, [r7, #4]
 8004708:	6039      	str	r1, [r7, #0]
  uint32_t tmpcr1;
  tmpcr1 = TIMx->CR1;
 800470a:	687b      	ldr	r3, [r7, #4]
 800470c:	681b      	ldr	r3, [r3, #0]
 800470e:	60fb      	str	r3, [r7, #12]

  /* Set TIM Time Base Unit parameters ---------------------------------------*/
  if (IS_TIM_COUNTER_MODE_SELECT_INSTANCE(TIMx))
 8004710:	687b      	ldr	r3, [r7, #4]
 8004712:	4a36      	ldr	r2, [pc, #216]	@ (80047ec <TIM_Base_SetConfig+0xec>)
 8004714:	4293      	cmp	r3, r2
 8004716:	d003      	beq.n	8004720 <TIM_Base_SetConfig+0x20>
 8004718:	687b      	ldr	r3, [r7, #4]
 800471a:	4a35      	ldr	r2, [pc, #212]	@ (80047f0 <TIM_Base_SetConfig+0xf0>)
 800471c:	4293      	cmp	r3, r2
 800471e:	d108      	bne.n	8004732 <TIM_Base_SetConfig+0x32>
  {
    /* Select the Counter Mode */
    tmpcr1 &= ~(TIM_CR1_DIR | TIM_CR1_CMS);
 8004720:	68fb      	ldr	r3, [r7, #12]
 8004722:	2270      	movs	r2, #112	@ 0x70
 8004724:	4393      	bics	r3, r2
 8004726:	60fb      	str	r3, [r7, #12]
    tmpcr1 |= Structure->CounterMode;
 8004728:	683b      	ldr	r3, [r7, #0]
 800472a:	685b      	ldr	r3, [r3, #4]
 800472c:	68fa      	ldr	r2, [r7, #12]
 800472e:	4313      	orrs	r3, r2
 8004730:	60fb      	str	r3, [r7, #12]
  }

  if (IS_TIM_CLOCK_DIVISION_INSTANCE(TIMx))
 8004732:	687b      	ldr	r3, [r7, #4]
 8004734:	4a2d      	ldr	r2, [pc, #180]	@ (80047ec <TIM_Base_SetConfig+0xec>)
 8004736:	4293      	cmp	r3, r2
 8004738:	d013      	beq.n	8004762 <TIM_Base_SetConfig+0x62>
 800473a:	687b      	ldr	r3, [r7, #4]
 800473c:	4a2c      	ldr	r2, [pc, #176]	@ (80047f0 <TIM_Base_SetConfig+0xf0>)
 800473e:	4293      	cmp	r3, r2
 8004740:	d00f      	beq.n	8004762 <TIM_Base_SetConfig+0x62>
 8004742:	687b      	ldr	r3, [r7, #4]
 8004744:	4a2b      	ldr	r2, [pc, #172]	@ (80047f4 <TIM_Base_SetConfig+0xf4>)
 8004746:	4293      	cmp	r3, r2
 8004748:	d00b      	beq.n	8004762 <TIM_Base_SetConfig+0x62>
 800474a:	687b      	ldr	r3, [r7, #4]
 800474c:	4a2a      	ldr	r2, [pc, #168]	@ (80047f8 <TIM_Base_SetConfig+0xf8>)
 800474e:	4293      	cmp	r3, r2
 8004750:	d007      	beq.n	8004762 <TIM_Base_SetConfig+0x62>
 8004752:	687b      	ldr	r3, [r7, #4]
 8004754:	4a29      	ldr	r2, [pc, #164]	@ (80047fc <TIM_Base_SetConfig+0xfc>)
 8004756:	4293      	cmp	r3, r2
 8004758:	d003      	beq.n	8004762 <TIM_Base_SetConfig+0x62>
 800475a:	687b      	ldr	r3, [r7, #4]
 800475c:	4a28      	ldr	r2, [pc, #160]	@ (8004800 <TIM_Base_SetConfig+0x100>)
 800475e:	4293      	cmp	r3, r2
 8004760:	d108      	bne.n	8004774 <TIM_Base_SetConfig+0x74>
  {
    /* Set the clock division */
    tmpcr1 &= ~TIM_CR1_CKD;
 8004762:	68fb      	ldr	r3, [r7, #12]
 8004764:	4a27      	ldr	r2, [pc, #156]	@ (8004804 <TIM_Base_SetConfig+0x104>)
 8004766:	4013      	ands	r3, r2
 8004768:	60fb      	str	r3, [r7, #12]
    tmpcr1 |= (uint32_t)Structure->ClockDivision;
 800476a:	683b      	ldr	r3, [r7, #0]
 800476c:	68db      	ldr	r3, [r3, #12]
 800476e:	68fa      	ldr	r2, [r7, #12]
 8004770:	4313      	orrs	r3, r2
 8004772:	60fb      	str	r3, [r7, #12]
  }

  /* Set the auto-reload preload */
  MODIFY_REG(tmpcr1, TIM_CR1_ARPE, Structure->AutoReloadPreload);
 8004774:	68fb      	ldr	r3, [r7, #12]
 8004776:	2280      	movs	r2, #128	@ 0x80
 8004778:	4393      	bics	r3, r2
 800477a:	001a      	movs	r2, r3
 800477c:	683b      	ldr	r3, [r7, #0]
 800477e:	695b      	ldr	r3, [r3, #20]
 8004780:	4313      	orrs	r3, r2
 8004782:	60fb      	str	r3, [r7, #12]

  TIMx->CR1 = tmpcr1;
 8004784:	687b      	ldr	r3, [r7, #4]
 8004786:	68fa      	ldr	r2, [r7, #12]
 8004788:	601a      	str	r2, [r3, #0]

  /* Set the Autoreload value */
  TIMx->ARR = (uint32_t)Structure->Period ;
 800478a:	683b      	ldr	r3, [r7, #0]
 800478c:	689a      	ldr	r2, [r3, #8]
 800478e:	687b      	ldr	r3, [r7, #4]
 8004790:	62da      	str	r2, [r3, #44]	@ 0x2c

  /* Set the Prescaler value */
  TIMx->PSC = Structure->Prescaler;
 8004792:	683b      	ldr	r3, [r7, #0]
 8004794:	681a      	ldr	r2, [r3, #0]
 8004796:	687b      	ldr	r3, [r7, #4]
 8004798:	629a      	str	r2, [r3, #40]	@ 0x28

  if (IS_TIM_REPETITION_COUNTER_INSTANCE(TIMx))
 800479a:	687b      	ldr	r3, [r7, #4]
 800479c:	4a13      	ldr	r2, [pc, #76]	@ (80047ec <TIM_Base_SetConfig+0xec>)
 800479e:	4293      	cmp	r3, r2
 80047a0:	d00b      	beq.n	80047ba <TIM_Base_SetConfig+0xba>
 80047a2:	687b      	ldr	r3, [r7, #4]
 80047a4:	4a14      	ldr	r2, [pc, #80]	@ (80047f8 <TIM_Base_SetConfig+0xf8>)
 80047a6:	4293      	cmp	r3, r2
 80047a8:	d007      	beq.n	80047ba <TIM_Base_SetConfig+0xba>
 80047aa:	687b      	ldr	r3, [r7, #4]
 80047ac:	4a13      	ldr	r2, [pc, #76]	@ (80047fc <TIM_Base_SetConfig+0xfc>)
 80047ae:	4293      	cmp	r3, r2
 80047b0:	d003      	beq.n	80047ba <TIM_Base_SetConfig+0xba>
 80047b2:	687b      	ldr	r3, [r7, #4]
 80047b4:	4a12      	ldr	r2, [pc, #72]	@ (8004800 <TIM_Base_SetConfig+0x100>)
 80047b6:	4293      	cmp	r3, r2
 80047b8:	d103      	bne.n	80047c2 <TIM_Base_SetConfig+0xc2>
  {
    /* Set the Repetition Counter value */
    TIMx->RCR = Structure->RepetitionCounter;
 80047ba:	683b      	ldr	r3, [r7, #0]
 80047bc:	691a      	ldr	r2, [r3, #16]
 80047be:	687b      	ldr	r3, [r7, #4]
 80047c0:	631a      	str	r2, [r3, #48]	@ 0x30
  }

  /* Generate an update event to reload the Prescaler
     and the repetition counter (only for advanced timer) value immediately */
  TIMx->EGR = TIM_EGR_UG;
 80047c2:	687b      	ldr	r3, [r7, #4]
 80047c4:	2201      	movs	r2, #1
 80047c6:	615a      	str	r2, [r3, #20]

  /* Check if the update flag is set after the Update Generation, if so clear the UIF flag */
  if (HAL_IS_BIT_SET(TIMx->SR, TIM_FLAG_UPDATE))
 80047c8:	687b      	ldr	r3, [r7, #4]
 80047ca:	691b      	ldr	r3, [r3, #16]
 80047cc:	2201      	movs	r2, #1
 80047ce:	4013      	ands	r3, r2
 80047d0:	2b01      	cmp	r3, #1
 80047d2:	d106      	bne.n	80047e2 <TIM_Base_SetConfig+0xe2>
  {
    /* Clear the update flag */
    CLEAR_BIT(TIMx->SR, TIM_FLAG_UPDATE);
 80047d4:	687b      	ldr	r3, [r7, #4]
 80047d6:	691b      	ldr	r3, [r3, #16]
 80047d8:	2201      	movs	r2, #1
 80047da:	4393      	bics	r3, r2
 80047dc:	001a      	movs	r2, r3
 80047de:	687b      	ldr	r3, [r7, #4]
 80047e0:	611a      	str	r2, [r3, #16]
  }
}
 80047e2:	46c0      	nop			@ (mov r8, r8)
 80047e4:	46bd      	mov	sp, r7
 80047e6:	b004      	add	sp, #16
 80047e8:	bd80      	pop	{r7, pc}
 80047ea:	46c0      	nop			@ (mov r8, r8)
 80047ec:	40012c00 	.word	0x40012c00
 80047f0:	40000400 	.word	0x40000400
 80047f4:	40002000 	.word	0x40002000
 80047f8:	40014000 	.word	0x40014000
 80047fc:	40014400 	.word	0x40014400
 8004800:	40014800 	.word	0x40014800
 8004804:	fffffcff 	.word	0xfffffcff

08004808 <HAL_TIMEx_CommutCallback>:
  * @brief  Commutation callback in non-blocking mode
  * @param  htim TIM handle
  * @retval None
  */
__weak void HAL_TIMEx_CommutCallback(TIM_HandleTypeDef *htim)
{
 8004808:	b580      	push	{r7, lr}
 800480a:	b082      	sub	sp, #8
 800480c:	af00      	add	r7, sp, #0
 800480e:	6078      	str	r0, [r7, #4]
  UNUSED(htim);

  /* NOTE : This function should not be modified, when the callback is needed,
            the HAL_TIMEx_CommutCallback could be implemented in the user file
   */
}
 8004810:	46c0      	nop			@ (mov r8, r8)
 8004812:	46bd      	mov	sp, r7
 8004814:	b002      	add	sp, #8
 8004816:	bd80      	pop	{r7, pc}

08004818 <HAL_TIMEx_BreakCallback>:
  * @brief  Break detection callback in non-blocking mode
  * @param  htim TIM handle
  * @retval None
  */
__weak void HAL_TIMEx_BreakCallback(TIM_HandleTypeDef *htim)
{
 8004818:	b580      	push	{r7, lr}
 800481a:	b082      	sub	sp, #8
 800481c:	af00      	add	r7, sp, #0
 800481e:	6078      	str	r0, [r7, #4]
  UNUSED(htim);

  /* NOTE : This function should not be modified, when the callback is needed,
            the HAL_TIMEx_BreakCallback could be implemented in the user file
   */
}
 8004820:	46c0      	nop			@ (mov r8, r8)
 8004822:	46bd      	mov	sp, r7
 8004824:	b002      	add	sp, #8
 8004826:	bd80      	pop	{r7, pc}

08004828 <HAL_UART_Init>:
  *        parameters in the UART_InitTypeDef and initialize the associated handle.
  * @param huart UART handle.
  * @retval HAL status
  */
HAL_StatusTypeDef HAL_UART_Init(UART_HandleTypeDef *huart)
{
 8004828:	b580      	push	{r7, lr}
 800482a:	b082      	sub	sp, #8
 800482c:	af00      	add	r7, sp, #0
 800482e:	6078      	str	r0, [r7, #4]
  /* Check the UART handle allocation */
  if (huart == NULL)
 8004830:	687b      	ldr	r3, [r7, #4]
 8004832:	2b00      	cmp	r3, #0
 8004834:	d101      	bne.n	800483a <HAL_UART_Init+0x12>
  {
    return HAL_ERROR;
 8004836:	2301      	movs	r3, #1
 8004838:	e044      	b.n	80048c4 <HAL_UART_Init+0x9c>
  {
    /* Check the parameters */
    assert_param(IS_UART_INSTANCE(huart->Instance));
  }

  if (huart->gState == HAL_UART_STATE_RESET)
 800483a:	687b      	ldr	r3, [r7, #4]
 800483c:	6fdb      	ldr	r3, [r3, #124]	@ 0x7c
 800483e:	2b00      	cmp	r3, #0
 8004840:	d107      	bne.n	8004852 <HAL_UART_Init+0x2a>
  {
    /* Allocate lock resource and initialize it */
    huart->Lock = HAL_UNLOCKED;
 8004842:	687b      	ldr	r3, [r7, #4]
 8004844:	2278      	movs	r2, #120	@ 0x78
 8004846:	2100      	movs	r1, #0
 8004848:	5499      	strb	r1, [r3, r2]

    /* Init the low level hardware */
    huart->MspInitCallback(huart);
#else
    /* Init the low level hardware : GPIO, CLOCK */
    HAL_UART_MspInit(huart);
 800484a:	687b      	ldr	r3, [r7, #4]
 800484c:	0018      	movs	r0, r3
 800484e:	f7fd fc67 	bl	8002120 <HAL_UART_MspInit>
#endif /* (USE_HAL_UART_REGISTER_CALLBACKS) */
  }

  huart->gState = HAL_UART_STATE_BUSY;
 8004852:	687b      	ldr	r3, [r7, #4]
 8004854:	2224      	movs	r2, #36	@ 0x24
 8004856:	67da      	str	r2, [r3, #124]	@ 0x7c

  __HAL_UART_DISABLE(huart);
 8004858:	687b      	ldr	r3, [r7, #4]
 800485a:	681b      	ldr	r3, [r3, #0]
 800485c:	681a      	ldr	r2, [r3, #0]
 800485e:	687b      	ldr	r3, [r7, #4]
 8004860:	681b      	ldr	r3, [r3, #0]
 8004862:	2101      	movs	r1, #1
 8004864:	438a      	bics	r2, r1
 8004866:	601a      	str	r2, [r3, #0]

  /* Perform advanced settings configuration */
  /* For some items, configuration requires to be done prior TE and RE bits are set */
  if (huart->AdvancedInit.AdvFeatureInit != UART_ADVFEATURE_NO_INIT)
 8004868:	687b      	ldr	r3, [r7, #4]
 800486a:	6a5b      	ldr	r3, [r3, #36]	@ 0x24
 800486c:	2b00      	cmp	r3, #0
 800486e:	d003      	beq.n	8004878 <HAL_UART_Init+0x50>
  {
    UART_AdvFeatureConfig(huart);
 8004870:	687b      	ldr	r3, [r7, #4]
 8004872:	0018      	movs	r0, r3
 8004874:	f000 fdc4 	bl	8005400 <UART_AdvFeatureConfig>
  }

  /* Set the UART Communication parameters */
  if (UART_SetConfig(huart) == HAL_ERROR)
 8004878:	687b      	ldr	r3, [r7, #4]
 800487a:	0018      	movs	r0, r3
 800487c:	f000 fc80 	bl	8005180 <UART_SetConfig>
 8004880:	0003      	movs	r3, r0
 8004882:	2b01      	cmp	r3, #1
 8004884:	d101      	bne.n	800488a <HAL_UART_Init+0x62>
  {
    return HAL_ERROR;
 8004886:	2301      	movs	r3, #1
 8004888:	e01c      	b.n	80048c4 <HAL_UART_Init+0x9c>
  - LINEN (if LIN is supported) and CLKEN bits in the USART_CR2 register,
  - SCEN (if Smartcard is supported), HDSEL and IREN (if IrDA is supported)  bits in the USART_CR3 register.*/
#if defined (USART_CR2_LINEN)
  CLEAR_BIT(huart->Instance->CR2, (USART_CR2_LINEN | USART_CR2_CLKEN));
#else
  CLEAR_BIT(huart->Instance->CR2, USART_CR2_CLKEN);
 800488a:	687b      	ldr	r3, [r7, #4]
 800488c:	681b      	ldr	r3, [r3, #0]
 800488e:	685a      	ldr	r2, [r3, #4]
 8004890:	687b      	ldr	r3, [r7, #4]
 8004892:	681b      	ldr	r3, [r3, #0]
 8004894:	490d      	ldr	r1, [pc, #52]	@ (80048cc <HAL_UART_Init+0xa4>)
 8004896:	400a      	ands	r2, r1
 8004898:	605a      	str	r2, [r3, #4]
#endif /* USART_CR3_IREN */
#else
#if defined (USART_CR3_IREN)
  CLEAR_BIT(huart->Instance->CR3, (USART_CR3_HDSEL | USART_CR3_IREN));
#else
  CLEAR_BIT(huart->Instance->CR3, USART_CR3_HDSEL);
 800489a:	687b      	ldr	r3, [r7, #4]
 800489c:	681b      	ldr	r3, [r3, #0]
 800489e:	689a      	ldr	r2, [r3, #8]
 80048a0:	687b      	ldr	r3, [r7, #4]
 80048a2:	681b      	ldr	r3, [r3, #0]
 80048a4:	2108      	movs	r1, #8
 80048a6:	438a      	bics	r2, r1
 80048a8:	609a      	str	r2, [r3, #8]
#endif /* USART_CR3_IREN*/
#endif /* USART_CR3_SCEN */

  __HAL_UART_ENABLE(huart);
 80048aa:	687b      	ldr	r3, [r7, #4]
 80048ac:	681b      	ldr	r3, [r3, #0]
 80048ae:	681a      	ldr	r2, [r3, #0]
 80048b0:	687b      	ldr	r3, [r7, #4]
 80048b2:	681b      	ldr	r3, [r3, #0]
 80048b4:	2101      	movs	r1, #1
 80048b6:	430a      	orrs	r2, r1
 80048b8:	601a      	str	r2, [r3, #0]

  /* TEACK and/or REACK to check before moving huart->gState and huart->RxState to Ready */
  return (UART_CheckIdleState(huart));
 80048ba:	687b      	ldr	r3, [r7, #4]
 80048bc:	0018      	movs	r0, r3
 80048be:	f000 fe53 	bl	8005568 <UART_CheckIdleState>
 80048c2:	0003      	movs	r3, r0
}
 80048c4:	0018      	movs	r0, r3
 80048c6:	46bd      	mov	sp, r7
 80048c8:	b002      	add	sp, #8
 80048ca:	bd80      	pop	{r7, pc}
 80048cc:	fffff7ff 	.word	0xfffff7ff

080048d0 <HAL_UART_Transmit>:
  * @param Size    Amount of data elements (u8 or u16) to be sent.
  * @param Timeout Timeout duration.
  * @retval HAL status
  */
HAL_StatusTypeDef HAL_UART_Transmit(UART_HandleTypeDef *huart, const uint8_t *pData, uint16_t Size, uint32_t Timeout)
{
 80048d0:	b580      	push	{r7, lr}
 80048d2:	b08a      	sub	sp, #40	@ 0x28
 80048d4:	af02      	add	r7, sp, #8
 80048d6:	60f8      	str	r0, [r7, #12]
 80048d8:	60b9      	str	r1, [r7, #8]
 80048da:	603b      	str	r3, [r7, #0]
 80048dc:	1dbb      	adds	r3, r7, #6
 80048de:	801a      	strh	r2, [r3, #0]
  const uint8_t  *pdata8bits;
  const uint16_t *pdata16bits;
  uint32_t tickstart;

  /* Check that a Tx process is not already ongoing */
  if (huart->gState == HAL_UART_STATE_READY)
 80048e0:	68fb      	ldr	r3, [r7, #12]
 80048e2:	6fdb      	ldr	r3, [r3, #124]	@ 0x7c
 80048e4:	2b20      	cmp	r3, #32
 80048e6:	d000      	beq.n	80048ea <HAL_UART_Transmit+0x1a>
 80048e8:	e08c      	b.n	8004a04 <HAL_UART_Transmit+0x134>
  {
    if ((pData == NULL) || (Size == 0U))
 80048ea:	68bb      	ldr	r3, [r7, #8]
 80048ec:	2b00      	cmp	r3, #0
 80048ee:	d003      	beq.n	80048f8 <HAL_UART_Transmit+0x28>
 80048f0:	1dbb      	adds	r3, r7, #6
 80048f2:	881b      	ldrh	r3, [r3, #0]
 80048f4:	2b00      	cmp	r3, #0
 80048f6:	d101      	bne.n	80048fc <HAL_UART_Transmit+0x2c>
    {
      return  HAL_ERROR;
 80048f8:	2301      	movs	r3, #1
 80048fa:	e084      	b.n	8004a06 <HAL_UART_Transmit+0x136>
    }

    /* In case of 9bits/No Parity transfer, pData buffer provided as input parameter
       should be aligned on a u16 frontier, as data to be filled into TDR will be
       handled through a u16 cast. */
    if ((huart->Init.WordLength == UART_WORDLENGTH_9B) && (huart->Init.Parity == UART_PARITY_NONE))
 80048fc:	68fb      	ldr	r3, [r7, #12]
 80048fe:	689a      	ldr	r2, [r3, #8]
 8004900:	2380      	movs	r3, #128	@ 0x80
 8004902:	015b      	lsls	r3, r3, #5
 8004904:	429a      	cmp	r2, r3
 8004906:	d109      	bne.n	800491c <HAL_UART_Transmit+0x4c>
 8004908:	68fb      	ldr	r3, [r7, #12]
 800490a:	691b      	ldr	r3, [r3, #16]
 800490c:	2b00      	cmp	r3, #0
 800490e:	d105      	bne.n	800491c <HAL_UART_Transmit+0x4c>
    {
      if ((((uint32_t)pData) & 1U) != 0U)
 8004910:	68bb      	ldr	r3, [r7, #8]
 8004912:	2201      	movs	r2, #1
 8004914:	4013      	ands	r3, r2
 8004916:	d001      	beq.n	800491c <HAL_UART_Transmit+0x4c>
      {
        return  HAL_ERROR;
 8004918:	2301      	movs	r3, #1
 800491a:	e074      	b.n	8004a06 <HAL_UART_Transmit+0x136>
      }
    }

    huart->ErrorCode = HAL_UART_ERROR_NONE;
 800491c:	68fb      	ldr	r3, [r7, #12]
 800491e:	2284      	movs	r2, #132	@ 0x84
 8004920:	2100      	movs	r1, #0
 8004922:	5099      	str	r1, [r3, r2]
    huart->gState = HAL_UART_STATE_BUSY_TX;
 8004924:	68fb      	ldr	r3, [r7, #12]
 8004926:	2221      	movs	r2, #33	@ 0x21
 8004928:	67da      	str	r2, [r3, #124]	@ 0x7c

    /* Init tickstart for timeout management */
    tickstart = HAL_GetTick();
 800492a:	f7fd fd27 	bl	800237c <HAL_GetTick>
 800492e:	0003      	movs	r3, r0
 8004930:	617b      	str	r3, [r7, #20]

    huart->TxXferSize  = Size;
 8004932:	68fb      	ldr	r3, [r7, #12]
 8004934:	1dba      	adds	r2, r7, #6
 8004936:	2150      	movs	r1, #80	@ 0x50
 8004938:	8812      	ldrh	r2, [r2, #0]
 800493a:	525a      	strh	r2, [r3, r1]
    huart->TxXferCount = Size;
 800493c:	68fb      	ldr	r3, [r7, #12]
 800493e:	1dba      	adds	r2, r7, #6
 8004940:	2152      	movs	r1, #82	@ 0x52
 8004942:	8812      	ldrh	r2, [r2, #0]
 8004944:	525a      	strh	r2, [r3, r1]

    /* In case of 9bits/No Parity transfer, pData needs to be handled as a uint16_t pointer */
    if ((huart->Init.WordLength == UART_WORDLENGTH_9B) && (huart->Init.Parity == UART_PARITY_NONE))
 8004946:	68fb      	ldr	r3, [r7, #12]
 8004948:	689a      	ldr	r2, [r3, #8]
 800494a:	2380      	movs	r3, #128	@ 0x80
 800494c:	015b      	lsls	r3, r3, #5
 800494e:	429a      	cmp	r2, r3
 8004950:	d108      	bne.n	8004964 <HAL_UART_Transmit+0x94>
 8004952:	68fb      	ldr	r3, [r7, #12]
 8004954:	691b      	ldr	r3, [r3, #16]
 8004956:	2b00      	cmp	r3, #0
 8004958:	d104      	bne.n	8004964 <HAL_UART_Transmit+0x94>
    {
      pdata8bits  = NULL;
 800495a:	2300      	movs	r3, #0
 800495c:	61fb      	str	r3, [r7, #28]
      pdata16bits = (const uint16_t *) pData;
 800495e:	68bb      	ldr	r3, [r7, #8]
 8004960:	61bb      	str	r3, [r7, #24]
 8004962:	e003      	b.n	800496c <HAL_UART_Transmit+0x9c>
    }
    else
    {
      pdata8bits  = pData;
 8004964:	68bb      	ldr	r3, [r7, #8]
 8004966:	61fb      	str	r3, [r7, #28]
      pdata16bits = NULL;
 8004968:	2300      	movs	r3, #0
 800496a:	61bb      	str	r3, [r7, #24]
    }

    while (huart->TxXferCount > 0U)
 800496c:	e02f      	b.n	80049ce <HAL_UART_Transmit+0xfe>
    {
      if (UART_WaitOnFlagUntilTimeout(huart, UART_FLAG_TXE, RESET, tickstart, Timeout) != HAL_OK)
 800496e:	697a      	ldr	r2, [r7, #20]
 8004970:	68f8      	ldr	r0, [r7, #12]
 8004972:	683b      	ldr	r3, [r7, #0]
 8004974:	9300      	str	r3, [sp, #0]
 8004976:	0013      	movs	r3, r2
 8004978:	2200      	movs	r2, #0
 800497a:	2180      	movs	r1, #128	@ 0x80
 800497c:	f000 fe9c 	bl	80056b8 <UART_WaitOnFlagUntilTimeout>
 8004980:	1e03      	subs	r3, r0, #0
 8004982:	d004      	beq.n	800498e <HAL_UART_Transmit+0xbe>
      {

        huart->gState = HAL_UART_STATE_READY;
 8004984:	68fb      	ldr	r3, [r7, #12]
 8004986:	2220      	movs	r2, #32
 8004988:	67da      	str	r2, [r3, #124]	@ 0x7c

        return HAL_TIMEOUT;
 800498a:	2303      	movs	r3, #3
 800498c:	e03b      	b.n	8004a06 <HAL_UART_Transmit+0x136>
      }
      if (pdata8bits == NULL)
 800498e:	69fb      	ldr	r3, [r7, #28]
 8004990:	2b00      	cmp	r3, #0
 8004992:	d10b      	bne.n	80049ac <HAL_UART_Transmit+0xdc>
      {
        huart->Instance->TDR = (uint16_t)(*pdata16bits & 0x01FFU);
 8004994:	69bb      	ldr	r3, [r7, #24]
 8004996:	881a      	ldrh	r2, [r3, #0]
 8004998:	68fb      	ldr	r3, [r7, #12]
 800499a:	681b      	ldr	r3, [r3, #0]
 800499c:	05d2      	lsls	r2, r2, #23
 800499e:	0dd2      	lsrs	r2, r2, #23
 80049a0:	b292      	uxth	r2, r2
 80049a2:	851a      	strh	r2, [r3, #40]	@ 0x28
        pdata16bits++;
 80049a4:	69bb      	ldr	r3, [r7, #24]
 80049a6:	3302      	adds	r3, #2
 80049a8:	61bb      	str	r3, [r7, #24]
 80049aa:	e007      	b.n	80049bc <HAL_UART_Transmit+0xec>
      }
      else
      {
        huart->Instance->TDR = (uint8_t)(*pdata8bits & 0xFFU);
 80049ac:	69fb      	ldr	r3, [r7, #28]
 80049ae:	781a      	ldrb	r2, [r3, #0]
 80049b0:	68fb      	ldr	r3, [r7, #12]
 80049b2:	681b      	ldr	r3, [r3, #0]
 80049b4:	851a      	strh	r2, [r3, #40]	@ 0x28
        pdata8bits++;
 80049b6:	69fb      	ldr	r3, [r7, #28]
 80049b8:	3301      	adds	r3, #1
 80049ba:	61fb      	str	r3, [r7, #28]
      }
      huart->TxXferCount--;
 80049bc:	68fb      	ldr	r3, [r7, #12]
 80049be:	2252      	movs	r2, #82	@ 0x52
 80049c0:	5a9b      	ldrh	r3, [r3, r2]
 80049c2:	b29b      	uxth	r3, r3
 80049c4:	3b01      	subs	r3, #1
 80049c6:	b299      	uxth	r1, r3
 80049c8:	68fb      	ldr	r3, [r7, #12]
 80049ca:	2252      	movs	r2, #82	@ 0x52
 80049cc:	5299      	strh	r1, [r3, r2]
    while (huart->TxXferCount > 0U)
 80049ce:	68fb      	ldr	r3, [r7, #12]
 80049d0:	2252      	movs	r2, #82	@ 0x52
 80049d2:	5a9b      	ldrh	r3, [r3, r2]
 80049d4:	b29b      	uxth	r3, r3
 80049d6:	2b00      	cmp	r3, #0
 80049d8:	d1c9      	bne.n	800496e <HAL_UART_Transmit+0x9e>
    }

    if (UART_WaitOnFlagUntilTimeout(huart, UART_FLAG_TC, RESET, tickstart, Timeout) != HAL_OK)
 80049da:	697a      	ldr	r2, [r7, #20]
 80049dc:	68f8      	ldr	r0, [r7, #12]
 80049de:	683b      	ldr	r3, [r7, #0]
 80049e0:	9300      	str	r3, [sp, #0]
 80049e2:	0013      	movs	r3, r2
 80049e4:	2200      	movs	r2, #0
 80049e6:	2140      	movs	r1, #64	@ 0x40
 80049e8:	f000 fe66 	bl	80056b8 <UART_WaitOnFlagUntilTimeout>
 80049ec:	1e03      	subs	r3, r0, #0
 80049ee:	d004      	beq.n	80049fa <HAL_UART_Transmit+0x12a>
    {
      huart->gState = HAL_UART_STATE_READY;
 80049f0:	68fb      	ldr	r3, [r7, #12]
 80049f2:	2220      	movs	r2, #32
 80049f4:	67da      	str	r2, [r3, #124]	@ 0x7c

      return HAL_TIMEOUT;
 80049f6:	2303      	movs	r3, #3
 80049f8:	e005      	b.n	8004a06 <HAL_UART_Transmit+0x136>
    }

    /* At end of Tx process, restore huart->gState to Ready */
    huart->gState = HAL_UART_STATE_READY;
 80049fa:	68fb      	ldr	r3, [r7, #12]
 80049fc:	2220      	movs	r2, #32
 80049fe:	67da      	str	r2, [r3, #124]	@ 0x7c

    return HAL_OK;
 8004a00:	2300      	movs	r3, #0
 8004a02:	e000      	b.n	8004a06 <HAL_UART_Transmit+0x136>
  }
  else
  {
    return HAL_BUSY;
 8004a04:	2302      	movs	r3, #2
  }
}
 8004a06:	0018      	movs	r0, r3
 8004a08:	46bd      	mov	sp, r7
 8004a0a:	b008      	add	sp, #32
 8004a0c:	bd80      	pop	{r7, pc}
	...

08004a10 <HAL_UART_Receive>:
  * @param Size    Amount of data elements (u8 or u16) to be received.
  * @param Timeout Timeout duration.
  * @retval HAL status
  */
HAL_StatusTypeDef HAL_UART_Receive(UART_HandleTypeDef *huart, uint8_t *pData, uint16_t Size, uint32_t Timeout)
{
 8004a10:	b580      	push	{r7, lr}
 8004a12:	b08a      	sub	sp, #40	@ 0x28
 8004a14:	af02      	add	r7, sp, #8
 8004a16:	60f8      	str	r0, [r7, #12]
 8004a18:	60b9      	str	r1, [r7, #8]
 8004a1a:	603b      	str	r3, [r7, #0]
 8004a1c:	1dbb      	adds	r3, r7, #6
 8004a1e:	801a      	strh	r2, [r3, #0]
  uint16_t *pdata16bits;
  uint16_t uhMask;
  uint32_t tickstart;

  /* Check that a Rx process is not already ongoing */
  if (huart->RxState == HAL_UART_STATE_READY)
 8004a20:	68fb      	ldr	r3, [r7, #12]
 8004a22:	2280      	movs	r2, #128	@ 0x80
 8004a24:	589b      	ldr	r3, [r3, r2]
 8004a26:	2b20      	cmp	r3, #32
 8004a28:	d000      	beq.n	8004a2c <HAL_UART_Receive+0x1c>
 8004a2a:	e0bd      	b.n	8004ba8 <HAL_UART_Receive+0x198>
  {
    if ((pData == NULL) || (Size == 0U))
 8004a2c:	68bb      	ldr	r3, [r7, #8]
 8004a2e:	2b00      	cmp	r3, #0
 8004a30:	d003      	beq.n	8004a3a <HAL_UART_Receive+0x2a>
 8004a32:	1dbb      	adds	r3, r7, #6
 8004a34:	881b      	ldrh	r3, [r3, #0]
 8004a36:	2b00      	cmp	r3, #0
 8004a38:	d101      	bne.n	8004a3e <HAL_UART_Receive+0x2e>
    {
      return  HAL_ERROR;
 8004a3a:	2301      	movs	r3, #1
 8004a3c:	e0b5      	b.n	8004baa <HAL_UART_Receive+0x19a>
    }

    /* In case of 9bits/No Parity transfer, pData buffer provided as input parameter
       should be aligned on a u16 frontier, as data to be received from RDR will be
       handled through a u16 cast. */
    if ((huart->Init.WordLength == UART_WORDLENGTH_9B) && (huart->Init.Parity == UART_PARITY_NONE))
 8004a3e:	68fb      	ldr	r3, [r7, #12]
 8004a40:	689a      	ldr	r2, [r3, #8]
 8004a42:	2380      	movs	r3, #128	@ 0x80
 8004a44:	015b      	lsls	r3, r3, #5
 8004a46:	429a      	cmp	r2, r3
 8004a48:	d109      	bne.n	8004a5e <HAL_UART_Receive+0x4e>
 8004a4a:	68fb      	ldr	r3, [r7, #12]
 8004a4c:	691b      	ldr	r3, [r3, #16]
 8004a4e:	2b00      	cmp	r3, #0
 8004a50:	d105      	bne.n	8004a5e <HAL_UART_Receive+0x4e>
    {
      if ((((uint32_t)pData) & 1U) != 0U)
 8004a52:	68bb      	ldr	r3, [r7, #8]
 8004a54:	2201      	movs	r2, #1
 8004a56:	4013      	ands	r3, r2
 8004a58:	d001      	beq.n	8004a5e <HAL_UART_Receive+0x4e>
      {
        return  HAL_ERROR;
 8004a5a:	2301      	movs	r3, #1
 8004a5c:	e0a5      	b.n	8004baa <HAL_UART_Receive+0x19a>
      }
    }

    huart->ErrorCode = HAL_UART_ERROR_NONE;
 8004a5e:	68fb      	ldr	r3, [r7, #12]
 8004a60:	2284      	movs	r2, #132	@ 0x84
 8004a62:	2100      	movs	r1, #0
 8004a64:	5099      	str	r1, [r3, r2]
    huart->RxState = HAL_UART_STATE_BUSY_RX;
 8004a66:	68fb      	ldr	r3, [r7, #12]
 8004a68:	2280      	movs	r2, #128	@ 0x80
 8004a6a:	2122      	movs	r1, #34	@ 0x22
 8004a6c:	5099      	str	r1, [r3, r2]
    huart->ReceptionType = HAL_UART_RECEPTION_STANDARD;
 8004a6e:	68fb      	ldr	r3, [r7, #12]
 8004a70:	2200      	movs	r2, #0
 8004a72:	661a      	str	r2, [r3, #96]	@ 0x60

    /* Init tickstart for timeout management */
    tickstart = HAL_GetTick();
 8004a74:	f7fd fc82 	bl	800237c <HAL_GetTick>
 8004a78:	0003      	movs	r3, r0
 8004a7a:	617b      	str	r3, [r7, #20]

    huart->RxXferSize  = Size;
 8004a7c:	68fb      	ldr	r3, [r7, #12]
 8004a7e:	1dba      	adds	r2, r7, #6
 8004a80:	2158      	movs	r1, #88	@ 0x58
 8004a82:	8812      	ldrh	r2, [r2, #0]
 8004a84:	525a      	strh	r2, [r3, r1]
    huart->RxXferCount = Size;
 8004a86:	68fb      	ldr	r3, [r7, #12]
 8004a88:	1dba      	adds	r2, r7, #6
 8004a8a:	215a      	movs	r1, #90	@ 0x5a
 8004a8c:	8812      	ldrh	r2, [r2, #0]
 8004a8e:	525a      	strh	r2, [r3, r1]

    /* Computation of UART mask to apply to RDR register */
    UART_MASK_COMPUTATION(huart);
 8004a90:	68fb      	ldr	r3, [r7, #12]
 8004a92:	689a      	ldr	r2, [r3, #8]
 8004a94:	2380      	movs	r3, #128	@ 0x80
 8004a96:	015b      	lsls	r3, r3, #5
 8004a98:	429a      	cmp	r2, r3
 8004a9a:	d10d      	bne.n	8004ab8 <HAL_UART_Receive+0xa8>
 8004a9c:	68fb      	ldr	r3, [r7, #12]
 8004a9e:	691b      	ldr	r3, [r3, #16]
 8004aa0:	2b00      	cmp	r3, #0
 8004aa2:	d104      	bne.n	8004aae <HAL_UART_Receive+0x9e>
 8004aa4:	68fb      	ldr	r3, [r7, #12]
 8004aa6:	225c      	movs	r2, #92	@ 0x5c
 8004aa8:	4942      	ldr	r1, [pc, #264]	@ (8004bb4 <HAL_UART_Receive+0x1a4>)
 8004aaa:	5299      	strh	r1, [r3, r2]
 8004aac:	e01a      	b.n	8004ae4 <HAL_UART_Receive+0xd4>
 8004aae:	68fb      	ldr	r3, [r7, #12]
 8004ab0:	225c      	movs	r2, #92	@ 0x5c
 8004ab2:	21ff      	movs	r1, #255	@ 0xff
 8004ab4:	5299      	strh	r1, [r3, r2]
 8004ab6:	e015      	b.n	8004ae4 <HAL_UART_Receive+0xd4>
 8004ab8:	68fb      	ldr	r3, [r7, #12]
 8004aba:	689b      	ldr	r3, [r3, #8]
 8004abc:	2b00      	cmp	r3, #0
 8004abe:	d10d      	bne.n	8004adc <HAL_UART_Receive+0xcc>
 8004ac0:	68fb      	ldr	r3, [r7, #12]
 8004ac2:	691b      	ldr	r3, [r3, #16]
 8004ac4:	2b00      	cmp	r3, #0
 8004ac6:	d104      	bne.n	8004ad2 <HAL_UART_Receive+0xc2>
 8004ac8:	68fb      	ldr	r3, [r7, #12]
 8004aca:	225c      	movs	r2, #92	@ 0x5c
 8004acc:	21ff      	movs	r1, #255	@ 0xff
 8004ace:	5299      	strh	r1, [r3, r2]
 8004ad0:	e008      	b.n	8004ae4 <HAL_UART_Receive+0xd4>
 8004ad2:	68fb      	ldr	r3, [r7, #12]
 8004ad4:	225c      	movs	r2, #92	@ 0x5c
 8004ad6:	217f      	movs	r1, #127	@ 0x7f
 8004ad8:	5299      	strh	r1, [r3, r2]
 8004ada:	e003      	b.n	8004ae4 <HAL_UART_Receive+0xd4>
 8004adc:	68fb      	ldr	r3, [r7, #12]
 8004ade:	225c      	movs	r2, #92	@ 0x5c
 8004ae0:	2100      	movs	r1, #0
 8004ae2:	5299      	strh	r1, [r3, r2]
    uhMask = huart->Mask;
 8004ae4:	2312      	movs	r3, #18
 8004ae6:	18fb      	adds	r3, r7, r3
 8004ae8:	68fa      	ldr	r2, [r7, #12]
 8004aea:	215c      	movs	r1, #92	@ 0x5c
 8004aec:	5a52      	ldrh	r2, [r2, r1]
 8004aee:	801a      	strh	r2, [r3, #0]

    /* In case of 9bits/No Parity transfer, pRxData needs to be handled as a uint16_t pointer */
    if ((huart->Init.WordLength == UART_WORDLENGTH_9B) && (huart->Init.Parity == UART_PARITY_NONE))
 8004af0:	68fb      	ldr	r3, [r7, #12]
 8004af2:	689a      	ldr	r2, [r3, #8]
 8004af4:	2380      	movs	r3, #128	@ 0x80
 8004af6:	015b      	lsls	r3, r3, #5
 8004af8:	429a      	cmp	r2, r3
 8004afa:	d108      	bne.n	8004b0e <HAL_UART_Receive+0xfe>
 8004afc:	68fb      	ldr	r3, [r7, #12]
 8004afe:	691b      	ldr	r3, [r3, #16]
 8004b00:	2b00      	cmp	r3, #0
 8004b02:	d104      	bne.n	8004b0e <HAL_UART_Receive+0xfe>
    {
      pdata8bits  = NULL;
 8004b04:	2300      	movs	r3, #0
 8004b06:	61fb      	str	r3, [r7, #28]
      pdata16bits = (uint16_t *) pData;
 8004b08:	68bb      	ldr	r3, [r7, #8]
 8004b0a:	61bb      	str	r3, [r7, #24]
 8004b0c:	e003      	b.n	8004b16 <HAL_UART_Receive+0x106>
    }
    else
    {
      pdata8bits  = pData;
 8004b0e:	68bb      	ldr	r3, [r7, #8]
 8004b10:	61fb      	str	r3, [r7, #28]
      pdata16bits = NULL;
 8004b12:	2300      	movs	r3, #0
 8004b14:	61bb      	str	r3, [r7, #24]
    }

    /* as long as data have to be received */
    while (huart->RxXferCount > 0U)
 8004b16:	e03b      	b.n	8004b90 <HAL_UART_Receive+0x180>
    {
      if (UART_WaitOnFlagUntilTimeout(huart, UART_FLAG_RXNE, RESET, tickstart, Timeout) != HAL_OK)
 8004b18:	697a      	ldr	r2, [r7, #20]
 8004b1a:	68f8      	ldr	r0, [r7, #12]
 8004b1c:	683b      	ldr	r3, [r7, #0]
 8004b1e:	9300      	str	r3, [sp, #0]
 8004b20:	0013      	movs	r3, r2
 8004b22:	2200      	movs	r2, #0
 8004b24:	2120      	movs	r1, #32
 8004b26:	f000 fdc7 	bl	80056b8 <UART_WaitOnFlagUntilTimeout>
 8004b2a:	1e03      	subs	r3, r0, #0
 8004b2c:	d005      	beq.n	8004b3a <HAL_UART_Receive+0x12a>
      {
        huart->RxState = HAL_UART_STATE_READY;
 8004b2e:	68fb      	ldr	r3, [r7, #12]
 8004b30:	2280      	movs	r2, #128	@ 0x80
 8004b32:	2120      	movs	r1, #32
 8004b34:	5099      	str	r1, [r3, r2]

        return HAL_TIMEOUT;
 8004b36:	2303      	movs	r3, #3
 8004b38:	e037      	b.n	8004baa <HAL_UART_Receive+0x19a>
      }
      if (pdata8bits == NULL)
 8004b3a:	69fb      	ldr	r3, [r7, #28]
 8004b3c:	2b00      	cmp	r3, #0
 8004b3e:	d10e      	bne.n	8004b5e <HAL_UART_Receive+0x14e>
      {
        *pdata16bits = (uint16_t)(huart->Instance->RDR & uhMask);
 8004b40:	68fb      	ldr	r3, [r7, #12]
 8004b42:	681b      	ldr	r3, [r3, #0]
 8004b44:	8c9b      	ldrh	r3, [r3, #36]	@ 0x24
 8004b46:	b29b      	uxth	r3, r3
 8004b48:	2212      	movs	r2, #18
 8004b4a:	18ba      	adds	r2, r7, r2
 8004b4c:	8812      	ldrh	r2, [r2, #0]
 8004b4e:	4013      	ands	r3, r2
 8004b50:	b29a      	uxth	r2, r3
 8004b52:	69bb      	ldr	r3, [r7, #24]
 8004b54:	801a      	strh	r2, [r3, #0]
        pdata16bits++;
 8004b56:	69bb      	ldr	r3, [r7, #24]
 8004b58:	3302      	adds	r3, #2
 8004b5a:	61bb      	str	r3, [r7, #24]
 8004b5c:	e00f      	b.n	8004b7e <HAL_UART_Receive+0x16e>
      }
      else
      {
        *pdata8bits = (uint8_t)(huart->Instance->RDR & (uint8_t)uhMask);
 8004b5e:	68fb      	ldr	r3, [r7, #12]
 8004b60:	681b      	ldr	r3, [r3, #0]
 8004b62:	8c9b      	ldrh	r3, [r3, #36]	@ 0x24
 8004b64:	b29b      	uxth	r3, r3
 8004b66:	b2db      	uxtb	r3, r3
 8004b68:	2212      	movs	r2, #18
 8004b6a:	18ba      	adds	r2, r7, r2
 8004b6c:	8812      	ldrh	r2, [r2, #0]
 8004b6e:	b2d2      	uxtb	r2, r2
 8004b70:	4013      	ands	r3, r2
 8004b72:	b2da      	uxtb	r2, r3
 8004b74:	69fb      	ldr	r3, [r7, #28]
 8004b76:	701a      	strb	r2, [r3, #0]
        pdata8bits++;
 8004b78:	69fb      	ldr	r3, [r7, #28]
 8004b7a:	3301      	adds	r3, #1
 8004b7c:	61fb      	str	r3, [r7, #28]
      }
      huart->RxXferCount--;
 8004b7e:	68fb      	ldr	r3, [r7, #12]
 8004b80:	225a      	movs	r2, #90	@ 0x5a
 8004b82:	5a9b      	ldrh	r3, [r3, r2]
 8004b84:	b29b      	uxth	r3, r3
 8004b86:	3b01      	subs	r3, #1
 8004b88:	b299      	uxth	r1, r3
 8004b8a:	68fb      	ldr	r3, [r7, #12]
 8004b8c:	225a      	movs	r2, #90	@ 0x5a
 8004b8e:	5299      	strh	r1, [r3, r2]
    while (huart->RxXferCount > 0U)
 8004b90:	68fb      	ldr	r3, [r7, #12]
 8004b92:	225a      	movs	r2, #90	@ 0x5a
 8004b94:	5a9b      	ldrh	r3, [r3, r2]
 8004b96:	b29b      	uxth	r3, r3
 8004b98:	2b00      	cmp	r3, #0
 8004b9a:	d1bd      	bne.n	8004b18 <HAL_UART_Receive+0x108>
    }

    /* At end of Rx process, restore huart->RxState to Ready */
    huart->RxState = HAL_UART_STATE_READY;
 8004b9c:	68fb      	ldr	r3, [r7, #12]
 8004b9e:	2280      	movs	r2, #128	@ 0x80
 8004ba0:	2120      	movs	r1, #32
 8004ba2:	5099      	str	r1, [r3, r2]

    return HAL_OK;
 8004ba4:	2300      	movs	r3, #0
 8004ba6:	e000      	b.n	8004baa <HAL_UART_Receive+0x19a>
  }
  else
  {
    return HAL_BUSY;
 8004ba8:	2302      	movs	r3, #2
  }
}
 8004baa:	0018      	movs	r0, r3
 8004bac:	46bd      	mov	sp, r7
 8004bae:	b008      	add	sp, #32
 8004bb0:	bd80      	pop	{r7, pc}
 8004bb2:	46c0      	nop			@ (mov r8, r8)
 8004bb4:	000001ff 	.word	0x000001ff

08004bb8 <HAL_UART_IRQHandler>:
  * @brief Handle UART interrupt request.
  * @param huart UART handle.
  * @retval None
  */
void HAL_UART_IRQHandler(UART_HandleTypeDef *huart)
{
 8004bb8:	b590      	push	{r4, r7, lr}
 8004bba:	b0ab      	sub	sp, #172	@ 0xac
 8004bbc:	af00      	add	r7, sp, #0
 8004bbe:	6078      	str	r0, [r7, #4]
  uint32_t isrflags   = READ_REG(huart->Instance->ISR);
 8004bc0:	687b      	ldr	r3, [r7, #4]
 8004bc2:	681b      	ldr	r3, [r3, #0]
 8004bc4:	69db      	ldr	r3, [r3, #28]
 8004bc6:	22a4      	movs	r2, #164	@ 0xa4
 8004bc8:	18b9      	adds	r1, r7, r2
 8004bca:	600b      	str	r3, [r1, #0]
  uint32_t cr1its     = READ_REG(huart->Instance->CR1);
 8004bcc:	687b      	ldr	r3, [r7, #4]
 8004bce:	681b      	ldr	r3, [r3, #0]
 8004bd0:	681b      	ldr	r3, [r3, #0]
 8004bd2:	20a0      	movs	r0, #160	@ 0xa0
 8004bd4:	1839      	adds	r1, r7, r0
 8004bd6:	600b      	str	r3, [r1, #0]
  uint32_t cr3its     = READ_REG(huart->Instance->CR3);
 8004bd8:	687b      	ldr	r3, [r7, #4]
 8004bda:	681b      	ldr	r3, [r3, #0]
 8004bdc:	689b      	ldr	r3, [r3, #8]
 8004bde:	219c      	movs	r1, #156	@ 0x9c
 8004be0:	1879      	adds	r1, r7, r1
 8004be2:	600b      	str	r3, [r1, #0]

  uint32_t errorflags;
  uint32_t errorcode;

  /* If no error occurs */
  errorflags = (isrflags & (uint32_t)(USART_ISR_PE | USART_ISR_FE | USART_ISR_ORE | USART_ISR_NE | USART_ISR_RTOF));
 8004be4:	0011      	movs	r1, r2
 8004be6:	18bb      	adds	r3, r7, r2
 8004be8:	681b      	ldr	r3, [r3, #0]
 8004bea:	4a99      	ldr	r2, [pc, #612]	@ (8004e50 <HAL_UART_IRQHandler+0x298>)
 8004bec:	4013      	ands	r3, r2
 8004bee:	2298      	movs	r2, #152	@ 0x98
 8004bf0:	18bc      	adds	r4, r7, r2
 8004bf2:	6023      	str	r3, [r4, #0]
  if (errorflags == 0U)
 8004bf4:	18bb      	adds	r3, r7, r2
 8004bf6:	681b      	ldr	r3, [r3, #0]
 8004bf8:	2b00      	cmp	r3, #0
 8004bfa:	d114      	bne.n	8004c26 <HAL_UART_IRQHandler+0x6e>
  {
    /* UART in mode Receiver ---------------------------------------------------*/
    if (((isrflags & USART_ISR_RXNE) != 0U)
 8004bfc:	187b      	adds	r3, r7, r1
 8004bfe:	681b      	ldr	r3, [r3, #0]
 8004c00:	2220      	movs	r2, #32
 8004c02:	4013      	ands	r3, r2
 8004c04:	d00f      	beq.n	8004c26 <HAL_UART_IRQHandler+0x6e>
        && ((cr1its & USART_CR1_RXNEIE) != 0U))
 8004c06:	183b      	adds	r3, r7, r0
 8004c08:	681b      	ldr	r3, [r3, #0]
 8004c0a:	2220      	movs	r2, #32
 8004c0c:	4013      	ands	r3, r2
 8004c0e:	d00a      	beq.n	8004c26 <HAL_UART_IRQHandler+0x6e>
    {
      if (huart->RxISR != NULL)
 8004c10:	687b      	ldr	r3, [r7, #4]
 8004c12:	6e9b      	ldr	r3, [r3, #104]	@ 0x68
 8004c14:	2b00      	cmp	r3, #0
 8004c16:	d100      	bne.n	8004c1a <HAL_UART_IRQHandler+0x62>
 8004c18:	e286      	b.n	8005128 <HAL_UART_IRQHandler+0x570>
      {
        huart->RxISR(huart);
 8004c1a:	687b      	ldr	r3, [r7, #4]
 8004c1c:	6e9b      	ldr	r3, [r3, #104]	@ 0x68
 8004c1e:	687a      	ldr	r2, [r7, #4]
 8004c20:	0010      	movs	r0, r2
 8004c22:	4798      	blx	r3
      }
      return;
 8004c24:	e280      	b.n	8005128 <HAL_UART_IRQHandler+0x570>
    }
  }

  /* If some errors occur */
  if ((errorflags != 0U)
 8004c26:	2398      	movs	r3, #152	@ 0x98
 8004c28:	18fb      	adds	r3, r7, r3
 8004c2a:	681b      	ldr	r3, [r3, #0]
 8004c2c:	2b00      	cmp	r3, #0
 8004c2e:	d100      	bne.n	8004c32 <HAL_UART_IRQHandler+0x7a>
 8004c30:	e114      	b.n	8004e5c <HAL_UART_IRQHandler+0x2a4>
      && (((cr3its & USART_CR3_EIE) != 0U)
 8004c32:	239c      	movs	r3, #156	@ 0x9c
 8004c34:	18fb      	adds	r3, r7, r3
 8004c36:	681b      	ldr	r3, [r3, #0]
 8004c38:	2201      	movs	r2, #1
 8004c3a:	4013      	ands	r3, r2
 8004c3c:	d106      	bne.n	8004c4c <HAL_UART_IRQHandler+0x94>
          || ((cr1its & (USART_CR1_RXNEIE | USART_CR1_PEIE | USART_CR1_RTOIE)) != 0U)))
 8004c3e:	23a0      	movs	r3, #160	@ 0xa0
 8004c40:	18fb      	adds	r3, r7, r3
 8004c42:	681b      	ldr	r3, [r3, #0]
 8004c44:	4a83      	ldr	r2, [pc, #524]	@ (8004e54 <HAL_UART_IRQHandler+0x29c>)
 8004c46:	4013      	ands	r3, r2
 8004c48:	d100      	bne.n	8004c4c <HAL_UART_IRQHandler+0x94>
 8004c4a:	e107      	b.n	8004e5c <HAL_UART_IRQHandler+0x2a4>
  {
    /* UART parity error interrupt occurred -------------------------------------*/
    if (((isrflags & USART_ISR_PE) != 0U) && ((cr1its & USART_CR1_PEIE) != 0U))
 8004c4c:	23a4      	movs	r3, #164	@ 0xa4
 8004c4e:	18fb      	adds	r3, r7, r3
 8004c50:	681b      	ldr	r3, [r3, #0]
 8004c52:	2201      	movs	r2, #1
 8004c54:	4013      	ands	r3, r2
 8004c56:	d012      	beq.n	8004c7e <HAL_UART_IRQHandler+0xc6>
 8004c58:	23a0      	movs	r3, #160	@ 0xa0
 8004c5a:	18fb      	adds	r3, r7, r3
 8004c5c:	681a      	ldr	r2, [r3, #0]
 8004c5e:	2380      	movs	r3, #128	@ 0x80
 8004c60:	005b      	lsls	r3, r3, #1
 8004c62:	4013      	ands	r3, r2
 8004c64:	d00b      	beq.n	8004c7e <HAL_UART_IRQHandler+0xc6>
    {
      __HAL_UART_CLEAR_FLAG(huart, UART_CLEAR_PEF);
 8004c66:	687b      	ldr	r3, [r7, #4]
 8004c68:	681b      	ldr	r3, [r3, #0]
 8004c6a:	2201      	movs	r2, #1
 8004c6c:	621a      	str	r2, [r3, #32]

      huart->ErrorCode |= HAL_UART_ERROR_PE;
 8004c6e:	687b      	ldr	r3, [r7, #4]
 8004c70:	2284      	movs	r2, #132	@ 0x84
 8004c72:	589b      	ldr	r3, [r3, r2]
 8004c74:	2201      	movs	r2, #1
 8004c76:	431a      	orrs	r2, r3
 8004c78:	687b      	ldr	r3, [r7, #4]
 8004c7a:	2184      	movs	r1, #132	@ 0x84
 8004c7c:	505a      	str	r2, [r3, r1]
    }

    /* UART frame error interrupt occurred --------------------------------------*/
    if (((isrflags & USART_ISR_FE) != 0U) && ((cr3its & USART_CR3_EIE) != 0U))
 8004c7e:	23a4      	movs	r3, #164	@ 0xa4
 8004c80:	18fb      	adds	r3, r7, r3
 8004c82:	681b      	ldr	r3, [r3, #0]
 8004c84:	2202      	movs	r2, #2
 8004c86:	4013      	ands	r3, r2
 8004c88:	d011      	beq.n	8004cae <HAL_UART_IRQHandler+0xf6>
 8004c8a:	239c      	movs	r3, #156	@ 0x9c
 8004c8c:	18fb      	adds	r3, r7, r3
 8004c8e:	681b      	ldr	r3, [r3, #0]
 8004c90:	2201      	movs	r2, #1
 8004c92:	4013      	ands	r3, r2
 8004c94:	d00b      	beq.n	8004cae <HAL_UART_IRQHandler+0xf6>
    {
      __HAL_UART_CLEAR_FLAG(huart, UART_CLEAR_FEF);
 8004c96:	687b      	ldr	r3, [r7, #4]
 8004c98:	681b      	ldr	r3, [r3, #0]
 8004c9a:	2202      	movs	r2, #2
 8004c9c:	621a      	str	r2, [r3, #32]

      huart->ErrorCode |= HAL_UART_ERROR_FE;
 8004c9e:	687b      	ldr	r3, [r7, #4]
 8004ca0:	2284      	movs	r2, #132	@ 0x84
 8004ca2:	589b      	ldr	r3, [r3, r2]
 8004ca4:	2204      	movs	r2, #4
 8004ca6:	431a      	orrs	r2, r3
 8004ca8:	687b      	ldr	r3, [r7, #4]
 8004caa:	2184      	movs	r1, #132	@ 0x84
 8004cac:	505a      	str	r2, [r3, r1]
    }

    /* UART noise error interrupt occurred --------------------------------------*/
    if (((isrflags & USART_ISR_NE) != 0U) && ((cr3its & USART_CR3_EIE) != 0U))
 8004cae:	23a4      	movs	r3, #164	@ 0xa4
 8004cb0:	18fb      	adds	r3, r7, r3
 8004cb2:	681b      	ldr	r3, [r3, #0]
 8004cb4:	2204      	movs	r2, #4
 8004cb6:	4013      	ands	r3, r2
 8004cb8:	d011      	beq.n	8004cde <HAL_UART_IRQHandler+0x126>
 8004cba:	239c      	movs	r3, #156	@ 0x9c
 8004cbc:	18fb      	adds	r3, r7, r3
 8004cbe:	681b      	ldr	r3, [r3, #0]
 8004cc0:	2201      	movs	r2, #1
 8004cc2:	4013      	ands	r3, r2
 8004cc4:	d00b      	beq.n	8004cde <HAL_UART_IRQHandler+0x126>
    {
      __HAL_UART_CLEAR_FLAG(huart, UART_CLEAR_NEF);
 8004cc6:	687b      	ldr	r3, [r7, #4]
 8004cc8:	681b      	ldr	r3, [r3, #0]
 8004cca:	2204      	movs	r2, #4
 8004ccc:	621a      	str	r2, [r3, #32]

      huart->ErrorCode |= HAL_UART_ERROR_NE;
 8004cce:	687b      	ldr	r3, [r7, #4]
 8004cd0:	2284      	movs	r2, #132	@ 0x84
 8004cd2:	589b      	ldr	r3, [r3, r2]
 8004cd4:	2202      	movs	r2, #2
 8004cd6:	431a      	orrs	r2, r3
 8004cd8:	687b      	ldr	r3, [r7, #4]
 8004cda:	2184      	movs	r1, #132	@ 0x84
 8004cdc:	505a      	str	r2, [r3, r1]
    }

    /* UART Over-Run interrupt occurred -----------------------------------------*/
    if (((isrflags & USART_ISR_ORE) != 0U)
 8004cde:	23a4      	movs	r3, #164	@ 0xa4
 8004ce0:	18fb      	adds	r3, r7, r3
 8004ce2:	681b      	ldr	r3, [r3, #0]
 8004ce4:	2208      	movs	r2, #8
 8004ce6:	4013      	ands	r3, r2
 8004ce8:	d017      	beq.n	8004d1a <HAL_UART_IRQHandler+0x162>
        && (((cr1its & USART_CR1_RXNEIE) != 0U) ||
 8004cea:	23a0      	movs	r3, #160	@ 0xa0
 8004cec:	18fb      	adds	r3, r7, r3
 8004cee:	681b      	ldr	r3, [r3, #0]
 8004cf0:	2220      	movs	r2, #32
 8004cf2:	4013      	ands	r3, r2
 8004cf4:	d105      	bne.n	8004d02 <HAL_UART_IRQHandler+0x14a>
            ((cr3its & USART_CR3_EIE) != 0U)))
 8004cf6:	239c      	movs	r3, #156	@ 0x9c
 8004cf8:	18fb      	adds	r3, r7, r3
 8004cfa:	681b      	ldr	r3, [r3, #0]
 8004cfc:	2201      	movs	r2, #1
 8004cfe:	4013      	ands	r3, r2
        && (((cr1its & USART_CR1_RXNEIE) != 0U) ||
 8004d00:	d00b      	beq.n	8004d1a <HAL_UART_IRQHandler+0x162>
    {
      __HAL_UART_CLEAR_FLAG(huart, UART_CLEAR_OREF);
 8004d02:	687b      	ldr	r3, [r7, #4]
 8004d04:	681b      	ldr	r3, [r3, #0]
 8004d06:	2208      	movs	r2, #8
 8004d08:	621a      	str	r2, [r3, #32]

      huart->ErrorCode |= HAL_UART_ERROR_ORE;
 8004d0a:	687b      	ldr	r3, [r7, #4]
 8004d0c:	2284      	movs	r2, #132	@ 0x84
 8004d0e:	589b      	ldr	r3, [r3, r2]
 8004d10:	2208      	movs	r2, #8
 8004d12:	431a      	orrs	r2, r3
 8004d14:	687b      	ldr	r3, [r7, #4]
 8004d16:	2184      	movs	r1, #132	@ 0x84
 8004d18:	505a      	str	r2, [r3, r1]
    }

    /* UART Receiver Timeout interrupt occurred ---------------------------------*/
    if (((isrflags & USART_ISR_RTOF) != 0U) && ((cr1its & USART_CR1_RTOIE) != 0U))
 8004d1a:	23a4      	movs	r3, #164	@ 0xa4
 8004d1c:	18fb      	adds	r3, r7, r3
 8004d1e:	681a      	ldr	r2, [r3, #0]
 8004d20:	2380      	movs	r3, #128	@ 0x80
 8004d22:	011b      	lsls	r3, r3, #4
 8004d24:	4013      	ands	r3, r2
 8004d26:	d013      	beq.n	8004d50 <HAL_UART_IRQHandler+0x198>
 8004d28:	23a0      	movs	r3, #160	@ 0xa0
 8004d2a:	18fb      	adds	r3, r7, r3
 8004d2c:	681a      	ldr	r2, [r3, #0]
 8004d2e:	2380      	movs	r3, #128	@ 0x80
 8004d30:	04db      	lsls	r3, r3, #19
 8004d32:	4013      	ands	r3, r2
 8004d34:	d00c      	beq.n	8004d50 <HAL_UART_IRQHandler+0x198>
    {
      __HAL_UART_CLEAR_FLAG(huart, UART_CLEAR_RTOF);
 8004d36:	687b      	ldr	r3, [r7, #4]
 8004d38:	681b      	ldr	r3, [r3, #0]
 8004d3a:	2280      	movs	r2, #128	@ 0x80
 8004d3c:	0112      	lsls	r2, r2, #4
 8004d3e:	621a      	str	r2, [r3, #32]

      huart->ErrorCode |= HAL_UART_ERROR_RTO;
 8004d40:	687b      	ldr	r3, [r7, #4]
 8004d42:	2284      	movs	r2, #132	@ 0x84
 8004d44:	589b      	ldr	r3, [r3, r2]
 8004d46:	2220      	movs	r2, #32
 8004d48:	431a      	orrs	r2, r3
 8004d4a:	687b      	ldr	r3, [r7, #4]
 8004d4c:	2184      	movs	r1, #132	@ 0x84
 8004d4e:	505a      	str	r2, [r3, r1]
    }

    /* Call UART Error Call back function if need be ----------------------------*/
    if (huart->ErrorCode != HAL_UART_ERROR_NONE)
 8004d50:	687b      	ldr	r3, [r7, #4]
 8004d52:	2284      	movs	r2, #132	@ 0x84
 8004d54:	589b      	ldr	r3, [r3, r2]
 8004d56:	2b00      	cmp	r3, #0
 8004d58:	d100      	bne.n	8004d5c <HAL_UART_IRQHandler+0x1a4>
 8004d5a:	e1e7      	b.n	800512c <HAL_UART_IRQHandler+0x574>
    {
      /* UART in mode Receiver --------------------------------------------------*/
      if (((isrflags & USART_ISR_RXNE) != 0U)
 8004d5c:	23a4      	movs	r3, #164	@ 0xa4
 8004d5e:	18fb      	adds	r3, r7, r3
 8004d60:	681b      	ldr	r3, [r3, #0]
 8004d62:	2220      	movs	r2, #32
 8004d64:	4013      	ands	r3, r2
 8004d66:	d00e      	beq.n	8004d86 <HAL_UART_IRQHandler+0x1ce>
          && ((cr1its & USART_CR1_RXNEIE) != 0U))
 8004d68:	23a0      	movs	r3, #160	@ 0xa0
 8004d6a:	18fb      	adds	r3, r7, r3
 8004d6c:	681b      	ldr	r3, [r3, #0]
 8004d6e:	2220      	movs	r2, #32
 8004d70:	4013      	ands	r3, r2
 8004d72:	d008      	beq.n	8004d86 <HAL_UART_IRQHandler+0x1ce>
      {
        if (huart->RxISR != NULL)
 8004d74:	687b      	ldr	r3, [r7, #4]
 8004d76:	6e9b      	ldr	r3, [r3, #104]	@ 0x68
 8004d78:	2b00      	cmp	r3, #0
 8004d7a:	d004      	beq.n	8004d86 <HAL_UART_IRQHandler+0x1ce>
        {
          huart->RxISR(huart);
 8004d7c:	687b      	ldr	r3, [r7, #4]
 8004d7e:	6e9b      	ldr	r3, [r3, #104]	@ 0x68
 8004d80:	687a      	ldr	r2, [r7, #4]
 8004d82:	0010      	movs	r0, r2
 8004d84:	4798      	blx	r3
      /* If Error is to be considered as blocking :
          - Receiver Timeout error in Reception
          - Overrun error in Reception
          - any error occurs in DMA mode reception
      */
      errorcode = huart->ErrorCode;
 8004d86:	687b      	ldr	r3, [r7, #4]
 8004d88:	2284      	movs	r2, #132	@ 0x84
 8004d8a:	589b      	ldr	r3, [r3, r2]
 8004d8c:	2194      	movs	r1, #148	@ 0x94
 8004d8e:	187a      	adds	r2, r7, r1
 8004d90:	6013      	str	r3, [r2, #0]
      if ((HAL_IS_BIT_SET(huart->Instance->CR3, USART_CR3_DMAR)) ||
 8004d92:	687b      	ldr	r3, [r7, #4]
 8004d94:	681b      	ldr	r3, [r3, #0]
 8004d96:	689b      	ldr	r3, [r3, #8]
 8004d98:	2240      	movs	r2, #64	@ 0x40
 8004d9a:	4013      	ands	r3, r2
 8004d9c:	2b40      	cmp	r3, #64	@ 0x40
 8004d9e:	d004      	beq.n	8004daa <HAL_UART_IRQHandler+0x1f2>
          ((errorcode & (HAL_UART_ERROR_RTO | HAL_UART_ERROR_ORE)) != 0U))
 8004da0:	187b      	adds	r3, r7, r1
 8004da2:	681b      	ldr	r3, [r3, #0]
 8004da4:	2228      	movs	r2, #40	@ 0x28
 8004da6:	4013      	ands	r3, r2
      if ((HAL_IS_BIT_SET(huart->Instance->CR3, USART_CR3_DMAR)) ||
 8004da8:	d047      	beq.n	8004e3a <HAL_UART_IRQHandler+0x282>
      {
        /* Blocking error : transfer is aborted
           Set the UART state ready to be able to start again the process,
           Disable Rx Interrupts, and disable Rx DMA request, if ongoing */
        UART_EndRxTransfer(huart);
 8004daa:	687b      	ldr	r3, [r7, #4]
 8004dac:	0018      	movs	r0, r3
 8004dae:	f000 fcf3 	bl	8005798 <UART_EndRxTransfer>

        /* Abort the UART DMA Rx channel if enabled */
        if (HAL_IS_BIT_SET(huart->Instance->CR3, USART_CR3_DMAR))
 8004db2:	687b      	ldr	r3, [r7, #4]
 8004db4:	681b      	ldr	r3, [r3, #0]
 8004db6:	689b      	ldr	r3, [r3, #8]
 8004db8:	2240      	movs	r2, #64	@ 0x40
 8004dba:	4013      	ands	r3, r2
 8004dbc:	2b40      	cmp	r3, #64	@ 0x40
 8004dbe:	d137      	bne.n	8004e30 <HAL_UART_IRQHandler+0x278>
 */
__STATIC_FORCEINLINE uint32_t __get_PRIMASK(void)
{
  uint32_t result;

  __ASM volatile ("MRS %0, primask" : "=r" (result) :: "memory");
 8004dc0:	f3ef 8310 	mrs	r3, PRIMASK
 8004dc4:	663b      	str	r3, [r7, #96]	@ 0x60
  return(result);
 8004dc6:	6e3b      	ldr	r3, [r7, #96]	@ 0x60
        {
          /* Disable the UART DMA Rx request if enabled */
          ATOMIC_CLEAR_BIT(huart->Instance->CR3, USART_CR3_DMAR);
 8004dc8:	2090      	movs	r0, #144	@ 0x90
 8004dca:	183a      	adds	r2, r7, r0
 8004dcc:	6013      	str	r3, [r2, #0]
 8004dce:	2301      	movs	r3, #1
 8004dd0:	667b      	str	r3, [r7, #100]	@ 0x64
  \details Assigns the given value to the Priority Mask Register.
  \param [in]    priMask  Priority Mask
 */
__STATIC_FORCEINLINE void __set_PRIMASK(uint32_t priMask)
{
  __ASM volatile ("MSR primask, %0" : : "r" (priMask) : "memory");
 8004dd2:	6e7b      	ldr	r3, [r7, #100]	@ 0x64
 8004dd4:	f383 8810 	msr	PRIMASK, r3
}
 8004dd8:	46c0      	nop			@ (mov r8, r8)
 8004dda:	687b      	ldr	r3, [r7, #4]
 8004ddc:	681b      	ldr	r3, [r3, #0]
 8004dde:	689a      	ldr	r2, [r3, #8]
 8004de0:	687b      	ldr	r3, [r7, #4]
 8004de2:	681b      	ldr	r3, [r3, #0]
 8004de4:	2140      	movs	r1, #64	@ 0x40
 8004de6:	438a      	bics	r2, r1
 8004de8:	609a      	str	r2, [r3, #8]
 8004dea:	183b      	adds	r3, r7, r0
 8004dec:	681b      	ldr	r3, [r3, #0]
 8004dee:	66bb      	str	r3, [r7, #104]	@ 0x68
  __ASM volatile ("MSR primask, %0" : : "r" (priMask) : "memory");
 8004df0:	6ebb      	ldr	r3, [r7, #104]	@ 0x68
 8004df2:	f383 8810 	msr	PRIMASK, r3
}
 8004df6:	46c0      	nop			@ (mov r8, r8)

          /* Abort the UART DMA Rx channel */
          if (huart->hdmarx != NULL)
 8004df8:	687b      	ldr	r3, [r7, #4]
 8004dfa:	6f5b      	ldr	r3, [r3, #116]	@ 0x74
 8004dfc:	2b00      	cmp	r3, #0
 8004dfe:	d012      	beq.n	8004e26 <HAL_UART_IRQHandler+0x26e>
          {
            /* Set the UART DMA Abort callback :
               will lead to call HAL_UART_ErrorCallback() at end of DMA abort procedure */
            huart->hdmarx->XferAbortCallback = UART_DMAAbortOnError;
 8004e00:	687b      	ldr	r3, [r7, #4]
 8004e02:	6f5b      	ldr	r3, [r3, #116]	@ 0x74
 8004e04:	4a14      	ldr	r2, [pc, #80]	@ (8004e58 <HAL_UART_IRQHandler+0x2a0>)
 8004e06:	635a      	str	r2, [r3, #52]	@ 0x34

            /* Abort DMA RX */
            if (HAL_DMA_Abort_IT(huart->hdmarx) != HAL_OK)
 8004e08:	687b      	ldr	r3, [r7, #4]
 8004e0a:	6f5b      	ldr	r3, [r3, #116]	@ 0x74
 8004e0c:	0018      	movs	r0, r3
 8004e0e:	f7fd fc41 	bl	8002694 <HAL_DMA_Abort_IT>
 8004e12:	1e03      	subs	r3, r0, #0
 8004e14:	d01a      	beq.n	8004e4c <HAL_UART_IRQHandler+0x294>
            {
              /* Call Directly huart->hdmarx->XferAbortCallback function in case of error */
              huart->hdmarx->XferAbortCallback(huart->hdmarx);
 8004e16:	687b      	ldr	r3, [r7, #4]
 8004e18:	6f5b      	ldr	r3, [r3, #116]	@ 0x74
 8004e1a:	6b5a      	ldr	r2, [r3, #52]	@ 0x34
 8004e1c:	687b      	ldr	r3, [r7, #4]
 8004e1e:	6f5b      	ldr	r3, [r3, #116]	@ 0x74
 8004e20:	0018      	movs	r0, r3
 8004e22:	4790      	blx	r2
        if (HAL_IS_BIT_SET(huart->Instance->CR3, USART_CR3_DMAR))
 8004e24:	e012      	b.n	8004e4c <HAL_UART_IRQHandler+0x294>
#if (USE_HAL_UART_REGISTER_CALLBACKS == 1)
            /*Call registered error callback*/
            huart->ErrorCallback(huart);
#else
            /*Call legacy weak error callback*/
            HAL_UART_ErrorCallback(huart);
 8004e26:	687b      	ldr	r3, [r7, #4]
 8004e28:	0018      	movs	r0, r3
 8004e2a:	f000 f995 	bl	8005158 <HAL_UART_ErrorCallback>
        if (HAL_IS_BIT_SET(huart->Instance->CR3, USART_CR3_DMAR))
 8004e2e:	e00d      	b.n	8004e4c <HAL_UART_IRQHandler+0x294>
#if (USE_HAL_UART_REGISTER_CALLBACKS == 1)
          /*Call registered error callback*/
          huart->ErrorCallback(huart);
#else
          /*Call legacy weak error callback*/
          HAL_UART_ErrorCallback(huart);
 8004e30:	687b      	ldr	r3, [r7, #4]
 8004e32:	0018      	movs	r0, r3
 8004e34:	f000 f990 	bl	8005158 <HAL_UART_ErrorCallback>
        if (HAL_IS_BIT_SET(huart->Instance->CR3, USART_CR3_DMAR))
 8004e38:	e008      	b.n	8004e4c <HAL_UART_IRQHandler+0x294>
#if (USE_HAL_UART_REGISTER_CALLBACKS == 1)
        /*Call registered error callback*/
        huart->ErrorCallback(huart);
#else
        /*Call legacy weak error callback*/
        HAL_UART_ErrorCallback(huart);
 8004e3a:	687b      	ldr	r3, [r7, #4]
 8004e3c:	0018      	movs	r0, r3
 8004e3e:	f000 f98b 	bl	8005158 <HAL_UART_ErrorCallback>
#endif /* USE_HAL_UART_REGISTER_CALLBACKS */
        huart->ErrorCode = HAL_UART_ERROR_NONE;
 8004e42:	687b      	ldr	r3, [r7, #4]
 8004e44:	2284      	movs	r2, #132	@ 0x84
 8004e46:	2100      	movs	r1, #0
 8004e48:	5099      	str	r1, [r3, r2]
      }
    }
    return;
 8004e4a:	e16f      	b.n	800512c <HAL_UART_IRQHandler+0x574>
        if (HAL_IS_BIT_SET(huart->Instance->CR3, USART_CR3_DMAR))
 8004e4c:	46c0      	nop			@ (mov r8, r8)
    return;
 8004e4e:	e16d      	b.n	800512c <HAL_UART_IRQHandler+0x574>
 8004e50:	0000080f 	.word	0x0000080f
 8004e54:	04000120 	.word	0x04000120
 8004e58:	08005861 	.word	0x08005861

  } /* End if some error occurs */

  /* Check current reception Mode :
     If Reception till IDLE event has been selected : */
  if ((huart->ReceptionType == HAL_UART_RECEPTION_TOIDLE)
 8004e5c:	687b      	ldr	r3, [r7, #4]
 8004e5e:	6e1b      	ldr	r3, [r3, #96]	@ 0x60
 8004e60:	2b01      	cmp	r3, #1
 8004e62:	d000      	beq.n	8004e66 <HAL_UART_IRQHandler+0x2ae>
 8004e64:	e139      	b.n	80050da <HAL_UART_IRQHandler+0x522>
      && ((isrflags & USART_ISR_IDLE) != 0U)
 8004e66:	23a4      	movs	r3, #164	@ 0xa4
 8004e68:	18fb      	adds	r3, r7, r3
 8004e6a:	681b      	ldr	r3, [r3, #0]
 8004e6c:	2210      	movs	r2, #16
 8004e6e:	4013      	ands	r3, r2
 8004e70:	d100      	bne.n	8004e74 <HAL_UART_IRQHandler+0x2bc>
 8004e72:	e132      	b.n	80050da <HAL_UART_IRQHandler+0x522>
      && ((cr1its & USART_ISR_IDLE) != 0U))
 8004e74:	23a0      	movs	r3, #160	@ 0xa0
 8004e76:	18fb      	adds	r3, r7, r3
 8004e78:	681b      	ldr	r3, [r3, #0]
 8004e7a:	2210      	movs	r2, #16
 8004e7c:	4013      	ands	r3, r2
 8004e7e:	d100      	bne.n	8004e82 <HAL_UART_IRQHandler+0x2ca>
 8004e80:	e12b      	b.n	80050da <HAL_UART_IRQHandler+0x522>
  {
    __HAL_UART_CLEAR_FLAG(huart, UART_CLEAR_IDLEF);
 8004e82:	687b      	ldr	r3, [r7, #4]
 8004e84:	681b      	ldr	r3, [r3, #0]
 8004e86:	2210      	movs	r2, #16
 8004e88:	621a      	str	r2, [r3, #32]

    /* Check if DMA mode is enabled in UART */
    if (HAL_IS_BIT_SET(huart->Instance->CR3, USART_CR3_DMAR))
 8004e8a:	687b      	ldr	r3, [r7, #4]
 8004e8c:	681b      	ldr	r3, [r3, #0]
 8004e8e:	689b      	ldr	r3, [r3, #8]
 8004e90:	2240      	movs	r2, #64	@ 0x40
 8004e92:	4013      	ands	r3, r2
 8004e94:	2b40      	cmp	r3, #64	@ 0x40
 8004e96:	d000      	beq.n	8004e9a <HAL_UART_IRQHandler+0x2e2>
 8004e98:	e09f      	b.n	8004fda <HAL_UART_IRQHandler+0x422>
    {
      /* DMA mode enabled */
      /* Check received length : If all expected data are received, do nothing,
         (DMA cplt callback will be called).
         Otherwise, if at least one data has already been received, IDLE event is to be notified to user */
      uint16_t nb_remaining_rx_data = (uint16_t) __HAL_DMA_GET_COUNTER(huart->hdmarx);
 8004e9a:	687b      	ldr	r3, [r7, #4]
 8004e9c:	6f5b      	ldr	r3, [r3, #116]	@ 0x74
 8004e9e:	681b      	ldr	r3, [r3, #0]
 8004ea0:	685a      	ldr	r2, [r3, #4]
 8004ea2:	217e      	movs	r1, #126	@ 0x7e
 8004ea4:	187b      	adds	r3, r7, r1
 8004ea6:	801a      	strh	r2, [r3, #0]
      if ((nb_remaining_rx_data > 0U)
 8004ea8:	187b      	adds	r3, r7, r1
 8004eaa:	881b      	ldrh	r3, [r3, #0]
 8004eac:	2b00      	cmp	r3, #0
 8004eae:	d100      	bne.n	8004eb2 <HAL_UART_IRQHandler+0x2fa>
 8004eb0:	e13e      	b.n	8005130 <HAL_UART_IRQHandler+0x578>
          && (nb_remaining_rx_data < huart->RxXferSize))
 8004eb2:	687b      	ldr	r3, [r7, #4]
 8004eb4:	2258      	movs	r2, #88	@ 0x58
 8004eb6:	5a9b      	ldrh	r3, [r3, r2]
 8004eb8:	187a      	adds	r2, r7, r1
 8004eba:	8812      	ldrh	r2, [r2, #0]
 8004ebc:	429a      	cmp	r2, r3
 8004ebe:	d300      	bcc.n	8004ec2 <HAL_UART_IRQHandler+0x30a>
 8004ec0:	e136      	b.n	8005130 <HAL_UART_IRQHandler+0x578>
      {
        /* Reception is not complete */
        huart->RxXferCount = nb_remaining_rx_data;
 8004ec2:	687b      	ldr	r3, [r7, #4]
 8004ec4:	187a      	adds	r2, r7, r1
 8004ec6:	215a      	movs	r1, #90	@ 0x5a
 8004ec8:	8812      	ldrh	r2, [r2, #0]
 8004eca:	525a      	strh	r2, [r3, r1]

        /* In Normal mode, end DMA xfer and HAL UART Rx process*/
        if (huart->hdmarx->Init.Mode != DMA_CIRCULAR)
 8004ecc:	687b      	ldr	r3, [r7, #4]
 8004ece:	6f5b      	ldr	r3, [r3, #116]	@ 0x74
 8004ed0:	699b      	ldr	r3, [r3, #24]
 8004ed2:	2b20      	cmp	r3, #32
 8004ed4:	d06f      	beq.n	8004fb6 <HAL_UART_IRQHandler+0x3fe>
  __ASM volatile ("MRS %0, primask" : "=r" (result) :: "memory");
 8004ed6:	f3ef 8310 	mrs	r3, PRIMASK
 8004eda:	633b      	str	r3, [r7, #48]	@ 0x30
  return(result);
 8004edc:	6b3b      	ldr	r3, [r7, #48]	@ 0x30
        {
          /* Disable PE and ERR (Frame error, noise error, overrun error) interrupts */
          ATOMIC_CLEAR_BIT(huart->Instance->CR1, USART_CR1_PEIE);
 8004ede:	67bb      	str	r3, [r7, #120]	@ 0x78
 8004ee0:	2301      	movs	r3, #1
 8004ee2:	637b      	str	r3, [r7, #52]	@ 0x34
  __ASM volatile ("MSR primask, %0" : : "r" (priMask) : "memory");
 8004ee4:	6b7b      	ldr	r3, [r7, #52]	@ 0x34
 8004ee6:	f383 8810 	msr	PRIMASK, r3
}
 8004eea:	46c0      	nop			@ (mov r8, r8)
 8004eec:	687b      	ldr	r3, [r7, #4]
 8004eee:	681b      	ldr	r3, [r3, #0]
 8004ef0:	681a      	ldr	r2, [r3, #0]
 8004ef2:	687b      	ldr	r3, [r7, #4]
 8004ef4:	681b      	ldr	r3, [r3, #0]
 8004ef6:	4992      	ldr	r1, [pc, #584]	@ (8005140 <HAL_UART_IRQHandler+0x588>)
 8004ef8:	400a      	ands	r2, r1
 8004efa:	601a      	str	r2, [r3, #0]
 8004efc:	6fbb      	ldr	r3, [r7, #120]	@ 0x78
 8004efe:	63bb      	str	r3, [r7, #56]	@ 0x38
  __ASM volatile ("MSR primask, %0" : : "r" (priMask) : "memory");
 8004f00:	6bbb      	ldr	r3, [r7, #56]	@ 0x38
 8004f02:	f383 8810 	msr	PRIMASK, r3
}
 8004f06:	46c0      	nop			@ (mov r8, r8)
  __ASM volatile ("MRS %0, primask" : "=r" (result) :: "memory");
 8004f08:	f3ef 8310 	mrs	r3, PRIMASK
 8004f0c:	63fb      	str	r3, [r7, #60]	@ 0x3c
  return(result);
 8004f0e:	6bfb      	ldr	r3, [r7, #60]	@ 0x3c
          ATOMIC_CLEAR_BIT(huart->Instance->CR3, USART_CR3_EIE);
 8004f10:	677b      	str	r3, [r7, #116]	@ 0x74
 8004f12:	2301      	movs	r3, #1
 8004f14:	643b      	str	r3, [r7, #64]	@ 0x40
  __ASM volatile ("MSR primask, %0" : : "r" (priMask) : "memory");
 8004f16:	6c3b      	ldr	r3, [r7, #64]	@ 0x40
 8004f18:	f383 8810 	msr	PRIMASK, r3
}
 8004f1c:	46c0      	nop			@ (mov r8, r8)
 8004f1e:	687b      	ldr	r3, [r7, #4]
 8004f20:	681b      	ldr	r3, [r3, #0]
 8004f22:	689a      	ldr	r2, [r3, #8]
 8004f24:	687b      	ldr	r3, [r7, #4]
 8004f26:	681b      	ldr	r3, [r3, #0]
 8004f28:	2101      	movs	r1, #1
 8004f2a:	438a      	bics	r2, r1
 8004f2c:	609a      	str	r2, [r3, #8]
 8004f2e:	6f7b      	ldr	r3, [r7, #116]	@ 0x74
 8004f30:	647b      	str	r3, [r7, #68]	@ 0x44
  __ASM volatile ("MSR primask, %0" : : "r" (priMask) : "memory");
 8004f32:	6c7b      	ldr	r3, [r7, #68]	@ 0x44
 8004f34:	f383 8810 	msr	PRIMASK, r3
}
 8004f38:	46c0      	nop			@ (mov r8, r8)
  __ASM volatile ("MRS %0, primask" : "=r" (result) :: "memory");
 8004f3a:	f3ef 8310 	mrs	r3, PRIMASK
 8004f3e:	64bb      	str	r3, [r7, #72]	@ 0x48
  return(result);
 8004f40:	6cbb      	ldr	r3, [r7, #72]	@ 0x48

          /* Disable the DMA transfer for the receiver request by resetting the DMAR bit
             in the UART CR3 register */
          ATOMIC_CLEAR_BIT(huart->Instance->CR3, USART_CR3_DMAR);
 8004f42:	673b      	str	r3, [r7, #112]	@ 0x70
 8004f44:	2301      	movs	r3, #1
 8004f46:	64fb      	str	r3, [r7, #76]	@ 0x4c
  __ASM volatile ("MSR primask, %0" : : "r" (priMask) : "memory");
 8004f48:	6cfb      	ldr	r3, [r7, #76]	@ 0x4c
 8004f4a:	f383 8810 	msr	PRIMASK, r3
}
 8004f4e:	46c0      	nop			@ (mov r8, r8)
 8004f50:	687b      	ldr	r3, [r7, #4]
 8004f52:	681b      	ldr	r3, [r3, #0]
 8004f54:	689a      	ldr	r2, [r3, #8]
 8004f56:	687b      	ldr	r3, [r7, #4]
 8004f58:	681b      	ldr	r3, [r3, #0]
 8004f5a:	2140      	movs	r1, #64	@ 0x40
 8004f5c:	438a      	bics	r2, r1
 8004f5e:	609a      	str	r2, [r3, #8]
 8004f60:	6f3b      	ldr	r3, [r7, #112]	@ 0x70
 8004f62:	653b      	str	r3, [r7, #80]	@ 0x50
  __ASM volatile ("MSR primask, %0" : : "r" (priMask) : "memory");
 8004f64:	6d3b      	ldr	r3, [r7, #80]	@ 0x50
 8004f66:	f383 8810 	msr	PRIMASK, r3
}
 8004f6a:	46c0      	nop			@ (mov r8, r8)

          /* At end of Rx process, restore huart->RxState to Ready */
          huart->RxState = HAL_UART_STATE_READY;
 8004f6c:	687b      	ldr	r3, [r7, #4]
 8004f6e:	2280      	movs	r2, #128	@ 0x80
 8004f70:	2120      	movs	r1, #32
 8004f72:	5099      	str	r1, [r3, r2]
          huart->ReceptionType = HAL_UART_RECEPTION_STANDARD;
 8004f74:	687b      	ldr	r3, [r7, #4]
 8004f76:	2200      	movs	r2, #0
 8004f78:	661a      	str	r2, [r3, #96]	@ 0x60
  __ASM volatile ("MRS %0, primask" : "=r" (result) :: "memory");
 8004f7a:	f3ef 8310 	mrs	r3, PRIMASK
 8004f7e:	657b      	str	r3, [r7, #84]	@ 0x54
  return(result);
 8004f80:	6d7b      	ldr	r3, [r7, #84]	@ 0x54

          ATOMIC_CLEAR_BIT(huart->Instance->CR1, USART_CR1_IDLEIE);
 8004f82:	66fb      	str	r3, [r7, #108]	@ 0x6c
 8004f84:	2301      	movs	r3, #1
 8004f86:	65bb      	str	r3, [r7, #88]	@ 0x58
  __ASM volatile ("MSR primask, %0" : : "r" (priMask) : "memory");
 8004f88:	6dbb      	ldr	r3, [r7, #88]	@ 0x58
 8004f8a:	f383 8810 	msr	PRIMASK, r3
}
 8004f8e:	46c0      	nop			@ (mov r8, r8)
 8004f90:	687b      	ldr	r3, [r7, #4]
 8004f92:	681b      	ldr	r3, [r3, #0]
 8004f94:	681a      	ldr	r2, [r3, #0]
 8004f96:	687b      	ldr	r3, [r7, #4]
 8004f98:	681b      	ldr	r3, [r3, #0]
 8004f9a:	2110      	movs	r1, #16
 8004f9c:	438a      	bics	r2, r1
 8004f9e:	601a      	str	r2, [r3, #0]
 8004fa0:	6efb      	ldr	r3, [r7, #108]	@ 0x6c
 8004fa2:	65fb      	str	r3, [r7, #92]	@ 0x5c
  __ASM volatile ("MSR primask, %0" : : "r" (priMask) : "memory");
 8004fa4:	6dfb      	ldr	r3, [r7, #92]	@ 0x5c
 8004fa6:	f383 8810 	msr	PRIMASK, r3
}
 8004faa:	46c0      	nop			@ (mov r8, r8)

          /* Last bytes received, so no need as the abort is immediate */
          (void)HAL_DMA_Abort(huart->hdmarx);
 8004fac:	687b      	ldr	r3, [r7, #4]
 8004fae:	6f5b      	ldr	r3, [r3, #116]	@ 0x74
 8004fb0:	0018      	movs	r0, r3
 8004fb2:	f7fd fb37 	bl	8002624 <HAL_DMA_Abort>
        }

        /* Initialize type of RxEvent that correspond to RxEvent callback execution;
           In this case, Rx Event type is Idle Event */
        huart->RxEventType = HAL_UART_RXEVENT_IDLE;
 8004fb6:	687b      	ldr	r3, [r7, #4]
 8004fb8:	2202      	movs	r2, #2
 8004fba:	665a      	str	r2, [r3, #100]	@ 0x64
#if (USE_HAL_UART_REGISTER_CALLBACKS == 1)
        /*Call registered Rx Event callback*/
        huart->RxEventCallback(huart, (huart->RxXferSize - huart->RxXferCount));
#else
        /*Call legacy weak Rx Event callback*/
        HAL_UARTEx_RxEventCallback(huart, (huart->RxXferSize - huart->RxXferCount));
 8004fbc:	687b      	ldr	r3, [r7, #4]
 8004fbe:	2258      	movs	r2, #88	@ 0x58
 8004fc0:	5a9a      	ldrh	r2, [r3, r2]
 8004fc2:	687b      	ldr	r3, [r7, #4]
 8004fc4:	215a      	movs	r1, #90	@ 0x5a
 8004fc6:	5a5b      	ldrh	r3, [r3, r1]
 8004fc8:	b29b      	uxth	r3, r3
 8004fca:	1ad3      	subs	r3, r2, r3
 8004fcc:	b29a      	uxth	r2, r3
 8004fce:	687b      	ldr	r3, [r7, #4]
 8004fd0:	0011      	movs	r1, r2
 8004fd2:	0018      	movs	r0, r3
 8004fd4:	f000 f8c8 	bl	8005168 <HAL_UARTEx_RxEventCallback>
#endif /* (USE_HAL_UART_REGISTER_CALLBACKS) */
      }
      return;
 8004fd8:	e0aa      	b.n	8005130 <HAL_UART_IRQHandler+0x578>
    else
    {
      /* DMA mode not enabled */
      /* Check received length : If all expected data are received, do nothing.
         Otherwise, if at least one data has already been received, IDLE event is to be notified to user */
      uint16_t nb_rx_data = huart->RxXferSize - huart->RxXferCount;
 8004fda:	687b      	ldr	r3, [r7, #4]
 8004fdc:	2258      	movs	r2, #88	@ 0x58
 8004fde:	5a99      	ldrh	r1, [r3, r2]
 8004fe0:	687b      	ldr	r3, [r7, #4]
 8004fe2:	225a      	movs	r2, #90	@ 0x5a
 8004fe4:	5a9b      	ldrh	r3, [r3, r2]
 8004fe6:	b29a      	uxth	r2, r3
 8004fe8:	208e      	movs	r0, #142	@ 0x8e
 8004fea:	183b      	adds	r3, r7, r0
 8004fec:	1a8a      	subs	r2, r1, r2
 8004fee:	801a      	strh	r2, [r3, #0]
      if ((huart->RxXferCount > 0U)
 8004ff0:	687b      	ldr	r3, [r7, #4]
 8004ff2:	225a      	movs	r2, #90	@ 0x5a
 8004ff4:	5a9b      	ldrh	r3, [r3, r2]
 8004ff6:	b29b      	uxth	r3, r3
 8004ff8:	2b00      	cmp	r3, #0
 8004ffa:	d100      	bne.n	8004ffe <HAL_UART_IRQHandler+0x446>
 8004ffc:	e09a      	b.n	8005134 <HAL_UART_IRQHandler+0x57c>
          && (nb_rx_data > 0U))
 8004ffe:	183b      	adds	r3, r7, r0
 8005000:	881b      	ldrh	r3, [r3, #0]
 8005002:	2b00      	cmp	r3, #0
 8005004:	d100      	bne.n	8005008 <HAL_UART_IRQHandler+0x450>
 8005006:	e095      	b.n	8005134 <HAL_UART_IRQHandler+0x57c>
  __ASM volatile ("MRS %0, primask" : "=r" (result) :: "memory");
 8005008:	f3ef 8310 	mrs	r3, PRIMASK
 800500c:	60fb      	str	r3, [r7, #12]
  return(result);
 800500e:	68fb      	ldr	r3, [r7, #12]
      {
        /* Disable the UART Parity Error Interrupt and RXNE interrupts */
        ATOMIC_CLEAR_BIT(huart->Instance->CR1, (USART_CR1_RXNEIE | USART_CR1_PEIE));
 8005010:	2488      	movs	r4, #136	@ 0x88
 8005012:	193a      	adds	r2, r7, r4
 8005014:	6013      	str	r3, [r2, #0]
 8005016:	2301      	movs	r3, #1
 8005018:	613b      	str	r3, [r7, #16]
  __ASM volatile ("MSR primask, %0" : : "r" (priMask) : "memory");
 800501a:	693b      	ldr	r3, [r7, #16]
 800501c:	f383 8810 	msr	PRIMASK, r3
}
 8005020:	46c0      	nop			@ (mov r8, r8)
 8005022:	687b      	ldr	r3, [r7, #4]
 8005024:	681b      	ldr	r3, [r3, #0]
 8005026:	681a      	ldr	r2, [r3, #0]
 8005028:	687b      	ldr	r3, [r7, #4]
 800502a:	681b      	ldr	r3, [r3, #0]
 800502c:	4945      	ldr	r1, [pc, #276]	@ (8005144 <HAL_UART_IRQHandler+0x58c>)
 800502e:	400a      	ands	r2, r1
 8005030:	601a      	str	r2, [r3, #0]
 8005032:	193b      	adds	r3, r7, r4
 8005034:	681b      	ldr	r3, [r3, #0]
 8005036:	617b      	str	r3, [r7, #20]
  __ASM volatile ("MSR primask, %0" : : "r" (priMask) : "memory");
 8005038:	697b      	ldr	r3, [r7, #20]
 800503a:	f383 8810 	msr	PRIMASK, r3
}
 800503e:	46c0      	nop			@ (mov r8, r8)
  __ASM volatile ("MRS %0, primask" : "=r" (result) :: "memory");
 8005040:	f3ef 8310 	mrs	r3, PRIMASK
 8005044:	61bb      	str	r3, [r7, #24]
  return(result);
 8005046:	69bb      	ldr	r3, [r7, #24]

        /* Disable the UART Error Interrupt: (Frame error, noise error, overrun error) */
        ATOMIC_CLEAR_BIT(huart->Instance->CR3, USART_CR3_EIE);
 8005048:	2484      	movs	r4, #132	@ 0x84
 800504a:	193a      	adds	r2, r7, r4
 800504c:	6013      	str	r3, [r2, #0]
 800504e:	2301      	movs	r3, #1
 8005050:	61fb      	str	r3, [r7, #28]
  __ASM volatile ("MSR primask, %0" : : "r" (priMask) : "memory");
 8005052:	69fb      	ldr	r3, [r7, #28]
 8005054:	f383 8810 	msr	PRIMASK, r3
}
 8005058:	46c0      	nop			@ (mov r8, r8)
 800505a:	687b      	ldr	r3, [r7, #4]
 800505c:	681b      	ldr	r3, [r3, #0]
 800505e:	689a      	ldr	r2, [r3, #8]
 8005060:	687b      	ldr	r3, [r7, #4]
 8005062:	681b      	ldr	r3, [r3, #0]
 8005064:	2101      	movs	r1, #1
 8005066:	438a      	bics	r2, r1
 8005068:	609a      	str	r2, [r3, #8]
 800506a:	193b      	adds	r3, r7, r4
 800506c:	681b      	ldr	r3, [r3, #0]
 800506e:	623b      	str	r3, [r7, #32]
  __ASM volatile ("MSR primask, %0" : : "r" (priMask) : "memory");
 8005070:	6a3b      	ldr	r3, [r7, #32]
 8005072:	f383 8810 	msr	PRIMASK, r3
}
 8005076:	46c0      	nop			@ (mov r8, r8)

        /* Rx process is completed, restore huart->RxState to Ready */
        huart->RxState = HAL_UART_STATE_READY;
 8005078:	687b      	ldr	r3, [r7, #4]
 800507a:	2280      	movs	r2, #128	@ 0x80
 800507c:	2120      	movs	r1, #32
 800507e:	5099      	str	r1, [r3, r2]
        huart->ReceptionType = HAL_UART_RECEPTION_STANDARD;
 8005080:	687b      	ldr	r3, [r7, #4]
 8005082:	2200      	movs	r2, #0
 8005084:	661a      	str	r2, [r3, #96]	@ 0x60

        /* Clear RxISR function pointer */
        huart->RxISR = NULL;
 8005086:	687b      	ldr	r3, [r7, #4]
 8005088:	2200      	movs	r2, #0
 800508a:	669a      	str	r2, [r3, #104]	@ 0x68
  __ASM volatile ("MRS %0, primask" : "=r" (result) :: "memory");
 800508c:	f3ef 8310 	mrs	r3, PRIMASK
 8005090:	627b      	str	r3, [r7, #36]	@ 0x24
  return(result);
 8005092:	6a7b      	ldr	r3, [r7, #36]	@ 0x24

        ATOMIC_CLEAR_BIT(huart->Instance->CR1, USART_CR1_IDLEIE);
 8005094:	2480      	movs	r4, #128	@ 0x80
 8005096:	193a      	adds	r2, r7, r4
 8005098:	6013      	str	r3, [r2, #0]
 800509a:	2301      	movs	r3, #1
 800509c:	62bb      	str	r3, [r7, #40]	@ 0x28
  __ASM volatile ("MSR primask, %0" : : "r" (priMask) : "memory");
 800509e:	6abb      	ldr	r3, [r7, #40]	@ 0x28
 80050a0:	f383 8810 	msr	PRIMASK, r3
}
 80050a4:	46c0      	nop			@ (mov r8, r8)
 80050a6:	687b      	ldr	r3, [r7, #4]
 80050a8:	681b      	ldr	r3, [r3, #0]
 80050aa:	681a      	ldr	r2, [r3, #0]
 80050ac:	687b      	ldr	r3, [r7, #4]
 80050ae:	681b      	ldr	r3, [r3, #0]
 80050b0:	2110      	movs	r1, #16
 80050b2:	438a      	bics	r2, r1
 80050b4:	601a      	str	r2, [r3, #0]
 80050b6:	193b      	adds	r3, r7, r4
 80050b8:	681b      	ldr	r3, [r3, #0]
 80050ba:	62fb      	str	r3, [r7, #44]	@ 0x2c
  __ASM volatile ("MSR primask, %0" : : "r" (priMask) : "memory");
 80050bc:	6afb      	ldr	r3, [r7, #44]	@ 0x2c
 80050be:	f383 8810 	msr	PRIMASK, r3
}
 80050c2:	46c0      	nop			@ (mov r8, r8)

        /* Initialize type of RxEvent that correspond to RxEvent callback execution;
           In this case, Rx Event type is Idle Event */
        huart->RxEventType = HAL_UART_RXEVENT_IDLE;
 80050c4:	687b      	ldr	r3, [r7, #4]
 80050c6:	2202      	movs	r2, #2
 80050c8:	665a      	str	r2, [r3, #100]	@ 0x64
#if (USE_HAL_UART_REGISTER_CALLBACKS == 1)
        /*Call registered Rx complete callback*/
        huart->RxEventCallback(huart, nb_rx_data);
#else
        /*Call legacy weak Rx Event callback*/
        HAL_UARTEx_RxEventCallback(huart, nb_rx_data);
 80050ca:	183b      	adds	r3, r7, r0
 80050cc:	881a      	ldrh	r2, [r3, #0]
 80050ce:	687b      	ldr	r3, [r7, #4]
 80050d0:	0011      	movs	r1, r2
 80050d2:	0018      	movs	r0, r3
 80050d4:	f000 f848 	bl	8005168 <HAL_UARTEx_RxEventCallback>
#endif /* (USE_HAL_UART_REGISTER_CALLBACKS) */
      }
      return;
 80050d8:	e02c      	b.n	8005134 <HAL_UART_IRQHandler+0x57c>
  }
#endif /* USART_CR3_WUFIE */
#endif /* USART_CR1_UESM */

  /* UART in mode Transmitter ------------------------------------------------*/
  if (((isrflags & USART_ISR_TXE) != 0U)
 80050da:	23a4      	movs	r3, #164	@ 0xa4
 80050dc:	18fb      	adds	r3, r7, r3
 80050de:	681b      	ldr	r3, [r3, #0]
 80050e0:	2280      	movs	r2, #128	@ 0x80
 80050e2:	4013      	ands	r3, r2
 80050e4:	d00f      	beq.n	8005106 <HAL_UART_IRQHandler+0x54e>
      && ((cr1its & USART_CR1_TXEIE) != 0U))
 80050e6:	23a0      	movs	r3, #160	@ 0xa0
 80050e8:	18fb      	adds	r3, r7, r3
 80050ea:	681b      	ldr	r3, [r3, #0]
 80050ec:	2280      	movs	r2, #128	@ 0x80
 80050ee:	4013      	ands	r3, r2
 80050f0:	d009      	beq.n	8005106 <HAL_UART_IRQHandler+0x54e>
  {
    if (huart->TxISR != NULL)
 80050f2:	687b      	ldr	r3, [r7, #4]
 80050f4:	6edb      	ldr	r3, [r3, #108]	@ 0x6c
 80050f6:	2b00      	cmp	r3, #0
 80050f8:	d01e      	beq.n	8005138 <HAL_UART_IRQHandler+0x580>
    {
      huart->TxISR(huart);
 80050fa:	687b      	ldr	r3, [r7, #4]
 80050fc:	6edb      	ldr	r3, [r3, #108]	@ 0x6c
 80050fe:	687a      	ldr	r2, [r7, #4]
 8005100:	0010      	movs	r0, r2
 8005102:	4798      	blx	r3
    }
    return;
 8005104:	e018      	b.n	8005138 <HAL_UART_IRQHandler+0x580>
  }

  /* UART in mode Transmitter (transmission end) -----------------------------*/
  if (((isrflags & USART_ISR_TC) != 0U) && ((cr1its & USART_CR1_TCIE) != 0U))
 8005106:	23a4      	movs	r3, #164	@ 0xa4
 8005108:	18fb      	adds	r3, r7, r3
 800510a:	681b      	ldr	r3, [r3, #0]
 800510c:	2240      	movs	r2, #64	@ 0x40
 800510e:	4013      	ands	r3, r2
 8005110:	d013      	beq.n	800513a <HAL_UART_IRQHandler+0x582>
 8005112:	23a0      	movs	r3, #160	@ 0xa0
 8005114:	18fb      	adds	r3, r7, r3
 8005116:	681b      	ldr	r3, [r3, #0]
 8005118:	2240      	movs	r2, #64	@ 0x40
 800511a:	4013      	ands	r3, r2
 800511c:	d00d      	beq.n	800513a <HAL_UART_IRQHandler+0x582>
  {
    UART_EndTransmit_IT(huart);
 800511e:	687b      	ldr	r3, [r7, #4]
 8005120:	0018      	movs	r0, r3
 8005122:	f000 fbb4 	bl	800588e <UART_EndTransmit_IT>
    return;
 8005126:	e008      	b.n	800513a <HAL_UART_IRQHandler+0x582>
      return;
 8005128:	46c0      	nop			@ (mov r8, r8)
 800512a:	e006      	b.n	800513a <HAL_UART_IRQHandler+0x582>
    return;
 800512c:	46c0      	nop			@ (mov r8, r8)
 800512e:	e004      	b.n	800513a <HAL_UART_IRQHandler+0x582>
      return;
 8005130:	46c0      	nop			@ (mov r8, r8)
 8005132:	e002      	b.n	800513a <HAL_UART_IRQHandler+0x582>
      return;
 8005134:	46c0      	nop			@ (mov r8, r8)
 8005136:	e000      	b.n	800513a <HAL_UART_IRQHandler+0x582>
    return;
 8005138:	46c0      	nop			@ (mov r8, r8)
  }

}
 800513a:	46bd      	mov	sp, r7
 800513c:	b02b      	add	sp, #172	@ 0xac
 800513e:	bd90      	pop	{r4, r7, pc}
 8005140:	fffffeff 	.word	0xfffffeff
 8005144:	fffffedf 	.word	0xfffffedf

08005148 <HAL_UART_TxCpltCallback>:
  * @brief Tx Transfer completed callback.
  * @param huart UART handle.
  * @retval None
  */
__weak void HAL_UART_TxCpltCallback(UART_HandleTypeDef *huart)
{
 8005148:	b580      	push	{r7, lr}
 800514a:	b082      	sub	sp, #8
 800514c:	af00      	add	r7, sp, #0
 800514e:	6078      	str	r0, [r7, #4]
  UNUSED(huart);

  /* NOTE : This function should not be modified, when the callback is needed,
            the HAL_UART_TxCpltCallback can be implemented in the user file.
   */
}
 8005150:	46c0      	nop			@ (mov r8, r8)
 8005152:	46bd      	mov	sp, r7
 8005154:	b002      	add	sp, #8
 8005156:	bd80      	pop	{r7, pc}

08005158 <HAL_UART_ErrorCallback>:
  * @brief  UART error callback.
  * @param  huart UART handle.
  * @retval None
  */
__weak void HAL_UART_ErrorCallback(UART_HandleTypeDef *huart)
{
 8005158:	b580      	push	{r7, lr}
 800515a:	b082      	sub	sp, #8
 800515c:	af00      	add	r7, sp, #0
 800515e:	6078      	str	r0, [r7, #4]
  UNUSED(huart);

  /* NOTE : This function should not be modified, when the callback is needed,
            the HAL_UART_ErrorCallback can be implemented in the user file.
   */
}
 8005160:	46c0      	nop			@ (mov r8, r8)
 8005162:	46bd      	mov	sp, r7
 8005164:	b002      	add	sp, #8
 8005166:	bd80      	pop	{r7, pc}

08005168 <HAL_UARTEx_RxEventCallback>:
  * @param  Size  Number of data available in application reception buffer (indicates a position in
  *               reception buffer until which, data are available)
  * @retval None
  */
__weak void HAL_UARTEx_RxEventCallback(UART_HandleTypeDef *huart, uint16_t Size)
{
 8005168:	b580      	push	{r7, lr}
 800516a:	b082      	sub	sp, #8
 800516c:	af00      	add	r7, sp, #0
 800516e:	6078      	str	r0, [r7, #4]
 8005170:	000a      	movs	r2, r1
 8005172:	1cbb      	adds	r3, r7, #2
 8005174:	801a      	strh	r2, [r3, #0]
  UNUSED(Size);

  /* NOTE : This function should not be modified, when the callback is needed,
            the HAL_UARTEx_RxEventCallback can be implemented in the user file.
   */
}
 8005176:	46c0      	nop			@ (mov r8, r8)
 8005178:	46bd      	mov	sp, r7
 800517a:	b002      	add	sp, #8
 800517c:	bd80      	pop	{r7, pc}
	...

08005180 <UART_SetConfig>:
  * @brief Configure the UART peripheral.
  * @param huart UART handle.
  * @retval HAL status
  */
HAL_StatusTypeDef UART_SetConfig(UART_HandleTypeDef *huart)
{
 8005180:	b580      	push	{r7, lr}
 8005182:	b088      	sub	sp, #32
 8005184:	af00      	add	r7, sp, #0
 8005186:	6078      	str	r0, [r7, #4]
  uint32_t tmpreg;
  uint16_t brrtemp;
  UART_ClockSourceTypeDef clocksource;
  uint32_t usartdiv;
  HAL_StatusTypeDef ret               = HAL_OK;
 8005188:	231e      	movs	r3, #30
 800518a:	18fb      	adds	r3, r7, r3
 800518c:	2200      	movs	r2, #0
 800518e:	701a      	strb	r2, [r3, #0]
  *  the UART Word Length, Parity, Mode and oversampling:
  *  set the M bits according to huart->Init.WordLength value
  *  set PCE and PS bits according to huart->Init.Parity value
  *  set TE and RE bits according to huart->Init.Mode value
  *  set OVER8 bit according to huart->Init.OverSampling value */
  tmpreg = (uint32_t)huart->Init.WordLength | huart->Init.Parity | huart->Init.Mode | huart->Init.OverSampling ;
 8005190:	687b      	ldr	r3, [r7, #4]
 8005192:	689a      	ldr	r2, [r3, #8]
 8005194:	687b      	ldr	r3, [r7, #4]
 8005196:	691b      	ldr	r3, [r3, #16]
 8005198:	431a      	orrs	r2, r3
 800519a:	687b      	ldr	r3, [r7, #4]
 800519c:	695b      	ldr	r3, [r3, #20]
 800519e:	431a      	orrs	r2, r3
 80051a0:	687b      	ldr	r3, [r7, #4]
 80051a2:	69db      	ldr	r3, [r3, #28]
 80051a4:	4313      	orrs	r3, r2
 80051a6:	617b      	str	r3, [r7, #20]
  MODIFY_REG(huart->Instance->CR1, USART_CR1_FIELDS, tmpreg);
 80051a8:	687b      	ldr	r3, [r7, #4]
 80051aa:	681b      	ldr	r3, [r3, #0]
 80051ac:	681b      	ldr	r3, [r3, #0]
 80051ae:	4a8d      	ldr	r2, [pc, #564]	@ (80053e4 <UART_SetConfig+0x264>)
 80051b0:	4013      	ands	r3, r2
 80051b2:	0019      	movs	r1, r3
 80051b4:	687b      	ldr	r3, [r7, #4]
 80051b6:	681b      	ldr	r3, [r3, #0]
 80051b8:	697a      	ldr	r2, [r7, #20]
 80051ba:	430a      	orrs	r2, r1
 80051bc:	601a      	str	r2, [r3, #0]

  /*-------------------------- USART CR2 Configuration -----------------------*/
  /* Configure the UART Stop Bits: Set STOP[13:12] bits according
  * to huart->Init.StopBits value */
  MODIFY_REG(huart->Instance->CR2, USART_CR2_STOP, huart->Init.StopBits);
 80051be:	687b      	ldr	r3, [r7, #4]
 80051c0:	681b      	ldr	r3, [r3, #0]
 80051c2:	685b      	ldr	r3, [r3, #4]
 80051c4:	4a88      	ldr	r2, [pc, #544]	@ (80053e8 <UART_SetConfig+0x268>)
 80051c6:	4013      	ands	r3, r2
 80051c8:	0019      	movs	r1, r3
 80051ca:	687b      	ldr	r3, [r7, #4]
 80051cc:	68da      	ldr	r2, [r3, #12]
 80051ce:	687b      	ldr	r3, [r7, #4]
 80051d0:	681b      	ldr	r3, [r3, #0]
 80051d2:	430a      	orrs	r2, r1
 80051d4:	605a      	str	r2, [r3, #4]
  /* Configure
  * - UART HardWare Flow Control: set CTSE and RTSE bits according
  *   to huart->Init.HwFlowCtl value
  * - one-bit sampling method versus three samples' majority rule according
  *   to huart->Init.OneBitSampling (not applicable to LPUART) */
  tmpreg = (uint32_t)huart->Init.HwFlowCtl;
 80051d6:	687b      	ldr	r3, [r7, #4]
 80051d8:	699b      	ldr	r3, [r3, #24]
 80051da:	617b      	str	r3, [r7, #20]

  tmpreg |= huart->Init.OneBitSampling;
 80051dc:	687b      	ldr	r3, [r7, #4]
 80051de:	6a1b      	ldr	r3, [r3, #32]
 80051e0:	697a      	ldr	r2, [r7, #20]
 80051e2:	4313      	orrs	r3, r2
 80051e4:	617b      	str	r3, [r7, #20]
  MODIFY_REG(huart->Instance->CR3, USART_CR3_FIELDS, tmpreg);
 80051e6:	687b      	ldr	r3, [r7, #4]
 80051e8:	681b      	ldr	r3, [r3, #0]
 80051ea:	689b      	ldr	r3, [r3, #8]
 80051ec:	4a7f      	ldr	r2, [pc, #508]	@ (80053ec <UART_SetConfig+0x26c>)
 80051ee:	4013      	ands	r3, r2
 80051f0:	0019      	movs	r1, r3
 80051f2:	687b      	ldr	r3, [r7, #4]
 80051f4:	681b      	ldr	r3, [r3, #0]
 80051f6:	697a      	ldr	r2, [r7, #20]
 80051f8:	430a      	orrs	r2, r1
 80051fa:	609a      	str	r2, [r3, #8]


  /*-------------------------- USART BRR Configuration -----------------------*/
  UART_GETCLOCKSOURCE(huart, clocksource);
 80051fc:	687b      	ldr	r3, [r7, #4]
 80051fe:	681b      	ldr	r3, [r3, #0]
 8005200:	4a7b      	ldr	r2, [pc, #492]	@ (80053f0 <UART_SetConfig+0x270>)
 8005202:	4293      	cmp	r3, r2
 8005204:	d127      	bne.n	8005256 <UART_SetConfig+0xd6>
 8005206:	4b7b      	ldr	r3, [pc, #492]	@ (80053f4 <UART_SetConfig+0x274>)
 8005208:	6b1b      	ldr	r3, [r3, #48]	@ 0x30
 800520a:	2203      	movs	r2, #3
 800520c:	4013      	ands	r3, r2
 800520e:	2b03      	cmp	r3, #3
 8005210:	d00d      	beq.n	800522e <UART_SetConfig+0xae>
 8005212:	d81b      	bhi.n	800524c <UART_SetConfig+0xcc>
 8005214:	2b02      	cmp	r3, #2
 8005216:	d014      	beq.n	8005242 <UART_SetConfig+0xc2>
 8005218:	d818      	bhi.n	800524c <UART_SetConfig+0xcc>
 800521a:	2b00      	cmp	r3, #0
 800521c:	d002      	beq.n	8005224 <UART_SetConfig+0xa4>
 800521e:	2b01      	cmp	r3, #1
 8005220:	d00a      	beq.n	8005238 <UART_SetConfig+0xb8>
 8005222:	e013      	b.n	800524c <UART_SetConfig+0xcc>
 8005224:	231f      	movs	r3, #31
 8005226:	18fb      	adds	r3, r7, r3
 8005228:	2200      	movs	r2, #0
 800522a:	701a      	strb	r2, [r3, #0]
 800522c:	e021      	b.n	8005272 <UART_SetConfig+0xf2>
 800522e:	231f      	movs	r3, #31
 8005230:	18fb      	adds	r3, r7, r3
 8005232:	2202      	movs	r2, #2
 8005234:	701a      	strb	r2, [r3, #0]
 8005236:	e01c      	b.n	8005272 <UART_SetConfig+0xf2>
 8005238:	231f      	movs	r3, #31
 800523a:	18fb      	adds	r3, r7, r3
 800523c:	2204      	movs	r2, #4
 800523e:	701a      	strb	r2, [r3, #0]
 8005240:	e017      	b.n	8005272 <UART_SetConfig+0xf2>
 8005242:	231f      	movs	r3, #31
 8005244:	18fb      	adds	r3, r7, r3
 8005246:	2208      	movs	r2, #8
 8005248:	701a      	strb	r2, [r3, #0]
 800524a:	e012      	b.n	8005272 <UART_SetConfig+0xf2>
 800524c:	231f      	movs	r3, #31
 800524e:	18fb      	adds	r3, r7, r3
 8005250:	2210      	movs	r2, #16
 8005252:	701a      	strb	r2, [r3, #0]
 8005254:	e00d      	b.n	8005272 <UART_SetConfig+0xf2>
 8005256:	687b      	ldr	r3, [r7, #4]
 8005258:	681b      	ldr	r3, [r3, #0]
 800525a:	4a67      	ldr	r2, [pc, #412]	@ (80053f8 <UART_SetConfig+0x278>)
 800525c:	4293      	cmp	r3, r2
 800525e:	d104      	bne.n	800526a <UART_SetConfig+0xea>
 8005260:	231f      	movs	r3, #31
 8005262:	18fb      	adds	r3, r7, r3
 8005264:	2200      	movs	r2, #0
 8005266:	701a      	strb	r2, [r3, #0]
 8005268:	e003      	b.n	8005272 <UART_SetConfig+0xf2>
 800526a:	231f      	movs	r3, #31
 800526c:	18fb      	adds	r3, r7, r3
 800526e:	2210      	movs	r2, #16
 8005270:	701a      	strb	r2, [r3, #0]

  if (huart->Init.OverSampling == UART_OVERSAMPLING_8)
 8005272:	687b      	ldr	r3, [r7, #4]
 8005274:	69da      	ldr	r2, [r3, #28]
 8005276:	2380      	movs	r3, #128	@ 0x80
 8005278:	021b      	lsls	r3, r3, #8
 800527a:	429a      	cmp	r2, r3
 800527c:	d15c      	bne.n	8005338 <UART_SetConfig+0x1b8>
  {
    switch (clocksource)
 800527e:	231f      	movs	r3, #31
 8005280:	18fb      	adds	r3, r7, r3
 8005282:	781b      	ldrb	r3, [r3, #0]
 8005284:	2b08      	cmp	r3, #8
 8005286:	d015      	beq.n	80052b4 <UART_SetConfig+0x134>
 8005288:	dc18      	bgt.n	80052bc <UART_SetConfig+0x13c>
 800528a:	2b04      	cmp	r3, #4
 800528c:	d00d      	beq.n	80052aa <UART_SetConfig+0x12a>
 800528e:	dc15      	bgt.n	80052bc <UART_SetConfig+0x13c>
 8005290:	2b00      	cmp	r3, #0
 8005292:	d002      	beq.n	800529a <UART_SetConfig+0x11a>
 8005294:	2b02      	cmp	r3, #2
 8005296:	d005      	beq.n	80052a4 <UART_SetConfig+0x124>
 8005298:	e010      	b.n	80052bc <UART_SetConfig+0x13c>
    {
      case UART_CLOCKSOURCE_PCLK1:
        pclk = HAL_RCC_GetPCLK1Freq();
 800529a:	f7fe f995 	bl	80035c8 <HAL_RCC_GetPCLK1Freq>
 800529e:	0003      	movs	r3, r0
 80052a0:	61bb      	str	r3, [r7, #24]
        break;
 80052a2:	e012      	b.n	80052ca <UART_SetConfig+0x14a>
      case UART_CLOCKSOURCE_HSI:
        pclk = (uint32_t) HSI_VALUE;
 80052a4:	4b55      	ldr	r3, [pc, #340]	@ (80053fc <UART_SetConfig+0x27c>)
 80052a6:	61bb      	str	r3, [r7, #24]
        break;
 80052a8:	e00f      	b.n	80052ca <UART_SetConfig+0x14a>
      case UART_CLOCKSOURCE_SYSCLK:
        pclk = HAL_RCC_GetSysClockFreq();
 80052aa:	f7fe f92d 	bl	8003508 <HAL_RCC_GetSysClockFreq>
 80052ae:	0003      	movs	r3, r0
 80052b0:	61bb      	str	r3, [r7, #24]
        break;
 80052b2:	e00a      	b.n	80052ca <UART_SetConfig+0x14a>
      case UART_CLOCKSOURCE_LSE:
        pclk = (uint32_t) LSE_VALUE;
 80052b4:	2380      	movs	r3, #128	@ 0x80
 80052b6:	021b      	lsls	r3, r3, #8
 80052b8:	61bb      	str	r3, [r7, #24]
        break;
 80052ba:	e006      	b.n	80052ca <UART_SetConfig+0x14a>
      default:
        pclk = 0U;
 80052bc:	2300      	movs	r3, #0
 80052be:	61bb      	str	r3, [r7, #24]
        ret = HAL_ERROR;
 80052c0:	231e      	movs	r3, #30
 80052c2:	18fb      	adds	r3, r7, r3
 80052c4:	2201      	movs	r2, #1
 80052c6:	701a      	strb	r2, [r3, #0]
        break;
 80052c8:	46c0      	nop			@ (mov r8, r8)
    }

    /* USARTDIV must be greater than or equal to 0d16 */
    if (pclk != 0U)
 80052ca:	69bb      	ldr	r3, [r7, #24]
 80052cc:	2b00      	cmp	r3, #0
 80052ce:	d100      	bne.n	80052d2 <UART_SetConfig+0x152>
 80052d0:	e07a      	b.n	80053c8 <UART_SetConfig+0x248>
    {
      usartdiv = (uint32_t)(UART_DIV_SAMPLING8(pclk, huart->Init.BaudRate));
 80052d2:	69bb      	ldr	r3, [r7, #24]
 80052d4:	005a      	lsls	r2, r3, #1
 80052d6:	687b      	ldr	r3, [r7, #4]
 80052d8:	685b      	ldr	r3, [r3, #4]
 80052da:	085b      	lsrs	r3, r3, #1
 80052dc:	18d2      	adds	r2, r2, r3
 80052de:	687b      	ldr	r3, [r7, #4]
 80052e0:	685b      	ldr	r3, [r3, #4]
 80052e2:	0019      	movs	r1, r3
 80052e4:	0010      	movs	r0, r2
 80052e6:	f7fa ff17 	bl	8000118 <__udivsi3>
 80052ea:	0003      	movs	r3, r0
 80052ec:	613b      	str	r3, [r7, #16]
      if ((usartdiv >= UART_BRR_MIN) && (usartdiv <= UART_BRR_MAX))
 80052ee:	693b      	ldr	r3, [r7, #16]
 80052f0:	2b0f      	cmp	r3, #15
 80052f2:	d91c      	bls.n	800532e <UART_SetConfig+0x1ae>
 80052f4:	693a      	ldr	r2, [r7, #16]
 80052f6:	2380      	movs	r3, #128	@ 0x80
 80052f8:	025b      	lsls	r3, r3, #9
 80052fa:	429a      	cmp	r2, r3
 80052fc:	d217      	bcs.n	800532e <UART_SetConfig+0x1ae>
      {
        brrtemp = (uint16_t)(usartdiv & 0xFFF0U);
 80052fe:	693b      	ldr	r3, [r7, #16]
 8005300:	b29a      	uxth	r2, r3
 8005302:	200e      	movs	r0, #14
 8005304:	183b      	adds	r3, r7, r0
 8005306:	210f      	movs	r1, #15
 8005308:	438a      	bics	r2, r1
 800530a:	801a      	strh	r2, [r3, #0]
        brrtemp |= (uint16_t)((usartdiv & (uint16_t)0x000FU) >> 1U);
 800530c:	693b      	ldr	r3, [r7, #16]
 800530e:	085b      	lsrs	r3, r3, #1
 8005310:	b29b      	uxth	r3, r3
 8005312:	2207      	movs	r2, #7
 8005314:	4013      	ands	r3, r2
 8005316:	b299      	uxth	r1, r3
 8005318:	183b      	adds	r3, r7, r0
 800531a:	183a      	adds	r2, r7, r0
 800531c:	8812      	ldrh	r2, [r2, #0]
 800531e:	430a      	orrs	r2, r1
 8005320:	801a      	strh	r2, [r3, #0]
        huart->Instance->BRR = brrtemp;
 8005322:	687b      	ldr	r3, [r7, #4]
 8005324:	681b      	ldr	r3, [r3, #0]
 8005326:	183a      	adds	r2, r7, r0
 8005328:	8812      	ldrh	r2, [r2, #0]
 800532a:	60da      	str	r2, [r3, #12]
 800532c:	e04c      	b.n	80053c8 <UART_SetConfig+0x248>
      }
      else
      {
        ret = HAL_ERROR;
 800532e:	231e      	movs	r3, #30
 8005330:	18fb      	adds	r3, r7, r3
 8005332:	2201      	movs	r2, #1
 8005334:	701a      	strb	r2, [r3, #0]
 8005336:	e047      	b.n	80053c8 <UART_SetConfig+0x248>
      }
    }
  }
  else
  {
    switch (clocksource)
 8005338:	231f      	movs	r3, #31
 800533a:	18fb      	adds	r3, r7, r3
 800533c:	781b      	ldrb	r3, [r3, #0]
 800533e:	2b08      	cmp	r3, #8
 8005340:	d015      	beq.n	800536e <UART_SetConfig+0x1ee>
 8005342:	dc18      	bgt.n	8005376 <UART_SetConfig+0x1f6>
 8005344:	2b04      	cmp	r3, #4
 8005346:	d00d      	beq.n	8005364 <UART_SetConfig+0x1e4>
 8005348:	dc15      	bgt.n	8005376 <UART_SetConfig+0x1f6>
 800534a:	2b00      	cmp	r3, #0
 800534c:	d002      	beq.n	8005354 <UART_SetConfig+0x1d4>
 800534e:	2b02      	cmp	r3, #2
 8005350:	d005      	beq.n	800535e <UART_SetConfig+0x1de>
 8005352:	e010      	b.n	8005376 <UART_SetConfig+0x1f6>
    {
      case UART_CLOCKSOURCE_PCLK1:
        pclk = HAL_RCC_GetPCLK1Freq();
 8005354:	f7fe f938 	bl	80035c8 <HAL_RCC_GetPCLK1Freq>
 8005358:	0003      	movs	r3, r0
 800535a:	61bb      	str	r3, [r7, #24]
        break;
 800535c:	e012      	b.n	8005384 <UART_SetConfig+0x204>
      case UART_CLOCKSOURCE_HSI:
        pclk = (uint32_t) HSI_VALUE;
 800535e:	4b27      	ldr	r3, [pc, #156]	@ (80053fc <UART_SetConfig+0x27c>)
 8005360:	61bb      	str	r3, [r7, #24]
        break;
 8005362:	e00f      	b.n	8005384 <UART_SetConfig+0x204>
      case UART_CLOCKSOURCE_SYSCLK:
        pclk = HAL_RCC_GetSysClockFreq();
 8005364:	f7fe f8d0 	bl	8003508 <HAL_RCC_GetSysClockFreq>
 8005368:	0003      	movs	r3, r0
 800536a:	61bb      	str	r3, [r7, #24]
        break;
 800536c:	e00a      	b.n	8005384 <UART_SetConfig+0x204>
      case UART_CLOCKSOURCE_LSE:
        pclk = (uint32_t) LSE_VALUE;
 800536e:	2380      	movs	r3, #128	@ 0x80
 8005370:	021b      	lsls	r3, r3, #8
 8005372:	61bb      	str	r3, [r7, #24]
        break;
 8005374:	e006      	b.n	8005384 <UART_SetConfig+0x204>
      default:
        pclk = 0U;
 8005376:	2300      	movs	r3, #0
 8005378:	61bb      	str	r3, [r7, #24]
        ret = HAL_ERROR;
 800537a:	231e      	movs	r3, #30
 800537c:	18fb      	adds	r3, r7, r3
 800537e:	2201      	movs	r2, #1
 8005380:	701a      	strb	r2, [r3, #0]
        break;
 8005382:	46c0      	nop			@ (mov r8, r8)
    }

    if (pclk != 0U)
 8005384:	69bb      	ldr	r3, [r7, #24]
 8005386:	2b00      	cmp	r3, #0
 8005388:	d01e      	beq.n	80053c8 <UART_SetConfig+0x248>
    {
      /* USARTDIV must be greater than or equal to 0d16 */
      usartdiv = (uint32_t)(UART_DIV_SAMPLING16(pclk, huart->Init.BaudRate));
 800538a:	687b      	ldr	r3, [r7, #4]
 800538c:	685b      	ldr	r3, [r3, #4]
 800538e:	085a      	lsrs	r2, r3, #1
 8005390:	69bb      	ldr	r3, [r7, #24]
 8005392:	18d2      	adds	r2, r2, r3
 8005394:	687b      	ldr	r3, [r7, #4]
 8005396:	685b      	ldr	r3, [r3, #4]
 8005398:	0019      	movs	r1, r3
 800539a:	0010      	movs	r0, r2
 800539c:	f7fa febc 	bl	8000118 <__udivsi3>
 80053a0:	0003      	movs	r3, r0
 80053a2:	613b      	str	r3, [r7, #16]
      if ((usartdiv >= UART_BRR_MIN) && (usartdiv <= UART_BRR_MAX))
 80053a4:	693b      	ldr	r3, [r7, #16]
 80053a6:	2b0f      	cmp	r3, #15
 80053a8:	d90a      	bls.n	80053c0 <UART_SetConfig+0x240>
 80053aa:	693a      	ldr	r2, [r7, #16]
 80053ac:	2380      	movs	r3, #128	@ 0x80
 80053ae:	025b      	lsls	r3, r3, #9
 80053b0:	429a      	cmp	r2, r3
 80053b2:	d205      	bcs.n	80053c0 <UART_SetConfig+0x240>
      {
        huart->Instance->BRR = (uint16_t)usartdiv;
 80053b4:	693b      	ldr	r3, [r7, #16]
 80053b6:	b29a      	uxth	r2, r3
 80053b8:	687b      	ldr	r3, [r7, #4]
 80053ba:	681b      	ldr	r3, [r3, #0]
 80053bc:	60da      	str	r2, [r3, #12]
 80053be:	e003      	b.n	80053c8 <UART_SetConfig+0x248>
      }
      else
      {
        ret = HAL_ERROR;
 80053c0:	231e      	movs	r3, #30
 80053c2:	18fb      	adds	r3, r7, r3
 80053c4:	2201      	movs	r2, #1
 80053c6:	701a      	strb	r2, [r3, #0]
    }
  }


  /* Clear ISR function pointers */
  huart->RxISR = NULL;
 80053c8:	687b      	ldr	r3, [r7, #4]
 80053ca:	2200      	movs	r2, #0
 80053cc:	669a      	str	r2, [r3, #104]	@ 0x68
  huart->TxISR = NULL;
 80053ce:	687b      	ldr	r3, [r7, #4]
 80053d0:	2200      	movs	r2, #0
 80053d2:	66da      	str	r2, [r3, #108]	@ 0x6c

  return ret;
 80053d4:	231e      	movs	r3, #30
 80053d6:	18fb      	adds	r3, r7, r3
 80053d8:	781b      	ldrb	r3, [r3, #0]
}
 80053da:	0018      	movs	r0, r3
 80053dc:	46bd      	mov	sp, r7
 80053de:	b008      	add	sp, #32
 80053e0:	bd80      	pop	{r7, pc}
 80053e2:	46c0      	nop			@ (mov r8, r8)
 80053e4:	ffff69f3 	.word	0xffff69f3
 80053e8:	ffffcfff 	.word	0xffffcfff
 80053ec:	fffff4ff 	.word	0xfffff4ff
 80053f0:	40013800 	.word	0x40013800
 80053f4:	40021000 	.word	0x40021000
 80053f8:	40004400 	.word	0x40004400
 80053fc:	007a1200 	.word	0x007a1200

08005400 <UART_AdvFeatureConfig>:
  * @brief Configure the UART peripheral advanced features.
  * @param huart UART handle.
  * @retval None
  */
void UART_AdvFeatureConfig(UART_HandleTypeDef *huart)
{
 8005400:	b580      	push	{r7, lr}
 8005402:	b082      	sub	sp, #8
 8005404:	af00      	add	r7, sp, #0
 8005406:	6078      	str	r0, [r7, #4]
  /* Check whether the set of advanced features to configure is properly set */
  assert_param(IS_UART_ADVFEATURE_INIT(huart->AdvancedInit.AdvFeatureInit));

  /* if required, configure RX/TX pins swap */
  if (HAL_IS_BIT_SET(huart->AdvancedInit.AdvFeatureInit, UART_ADVFEATURE_SWAP_INIT))
 8005408:	687b      	ldr	r3, [r7, #4]
 800540a:	6a5b      	ldr	r3, [r3, #36]	@ 0x24
 800540c:	2208      	movs	r2, #8
 800540e:	4013      	ands	r3, r2
 8005410:	d00b      	beq.n	800542a <UART_AdvFeatureConfig+0x2a>
  {
    assert_param(IS_UART_ADVFEATURE_SWAP(huart->AdvancedInit.Swap));
    MODIFY_REG(huart->Instance->CR2, USART_CR2_SWAP, huart->AdvancedInit.Swap);
 8005412:	687b      	ldr	r3, [r7, #4]
 8005414:	681b      	ldr	r3, [r3, #0]
 8005416:	685b      	ldr	r3, [r3, #4]
 8005418:	4a4a      	ldr	r2, [pc, #296]	@ (8005544 <UART_AdvFeatureConfig+0x144>)
 800541a:	4013      	ands	r3, r2
 800541c:	0019      	movs	r1, r3
 800541e:	687b      	ldr	r3, [r7, #4]
 8005420:	6b5a      	ldr	r2, [r3, #52]	@ 0x34
 8005422:	687b      	ldr	r3, [r7, #4]
 8005424:	681b      	ldr	r3, [r3, #0]
 8005426:	430a      	orrs	r2, r1
 8005428:	605a      	str	r2, [r3, #4]
  }

  /* if required, configure TX pin active level inversion */
  if (HAL_IS_BIT_SET(huart->AdvancedInit.AdvFeatureInit, UART_ADVFEATURE_TXINVERT_INIT))
 800542a:	687b      	ldr	r3, [r7, #4]
 800542c:	6a5b      	ldr	r3, [r3, #36]	@ 0x24
 800542e:	2201      	movs	r2, #1
 8005430:	4013      	ands	r3, r2
 8005432:	d00b      	beq.n	800544c <UART_AdvFeatureConfig+0x4c>
  {
    assert_param(IS_UART_ADVFEATURE_TXINV(huart->AdvancedInit.TxPinLevelInvert));
    MODIFY_REG(huart->Instance->CR2, USART_CR2_TXINV, huart->AdvancedInit.TxPinLevelInvert);
 8005434:	687b      	ldr	r3, [r7, #4]
 8005436:	681b      	ldr	r3, [r3, #0]
 8005438:	685b      	ldr	r3, [r3, #4]
 800543a:	4a43      	ldr	r2, [pc, #268]	@ (8005548 <UART_AdvFeatureConfig+0x148>)
 800543c:	4013      	ands	r3, r2
 800543e:	0019      	movs	r1, r3
 8005440:	687b      	ldr	r3, [r7, #4]
 8005442:	6a9a      	ldr	r2, [r3, #40]	@ 0x28
 8005444:	687b      	ldr	r3, [r7, #4]
 8005446:	681b      	ldr	r3, [r3, #0]
 8005448:	430a      	orrs	r2, r1
 800544a:	605a      	str	r2, [r3, #4]
  }

  /* if required, configure RX pin active level inversion */
  if (HAL_IS_BIT_SET(huart->AdvancedInit.AdvFeatureInit, UART_ADVFEATURE_RXINVERT_INIT))
 800544c:	687b      	ldr	r3, [r7, #4]
 800544e:	6a5b      	ldr	r3, [r3, #36]	@ 0x24
 8005450:	2202      	movs	r2, #2
 8005452:	4013      	ands	r3, r2
 8005454:	d00b      	beq.n	800546e <UART_AdvFeatureConfig+0x6e>
  {
    assert_param(IS_UART_ADVFEATURE_RXINV(huart->AdvancedInit.RxPinLevelInvert));
    MODIFY_REG(huart->Instance->CR2, USART_CR2_RXINV, huart->AdvancedInit.RxPinLevelInvert);
 8005456:	687b      	ldr	r3, [r7, #4]
 8005458:	681b      	ldr	r3, [r3, #0]
 800545a:	685b      	ldr	r3, [r3, #4]
 800545c:	4a3b      	ldr	r2, [pc, #236]	@ (800554c <UART_AdvFeatureConfig+0x14c>)
 800545e:	4013      	ands	r3, r2
 8005460:	0019      	movs	r1, r3
 8005462:	687b      	ldr	r3, [r7, #4]
 8005464:	6ada      	ldr	r2, [r3, #44]	@ 0x2c
 8005466:	687b      	ldr	r3, [r7, #4]
 8005468:	681b      	ldr	r3, [r3, #0]
 800546a:	430a      	orrs	r2, r1
 800546c:	605a      	str	r2, [r3, #4]
  }

  /* if required, configure data inversion */
  if (HAL_IS_BIT_SET(huart->AdvancedInit.AdvFeatureInit, UART_ADVFEATURE_DATAINVERT_INIT))
 800546e:	687b      	ldr	r3, [r7, #4]
 8005470:	6a5b      	ldr	r3, [r3, #36]	@ 0x24
 8005472:	2204      	movs	r2, #4
 8005474:	4013      	ands	r3, r2
 8005476:	d00b      	beq.n	8005490 <UART_AdvFeatureConfig+0x90>
  {
    assert_param(IS_UART_ADVFEATURE_DATAINV(huart->AdvancedInit.DataInvert));
    MODIFY_REG(huart->Instance->CR2, USART_CR2_DATAINV, huart->AdvancedInit.DataInvert);
 8005478:	687b      	ldr	r3, [r7, #4]
 800547a:	681b      	ldr	r3, [r3, #0]
 800547c:	685b      	ldr	r3, [r3, #4]
 800547e:	4a34      	ldr	r2, [pc, #208]	@ (8005550 <UART_AdvFeatureConfig+0x150>)
 8005480:	4013      	ands	r3, r2
 8005482:	0019      	movs	r1, r3
 8005484:	687b      	ldr	r3, [r7, #4]
 8005486:	6b1a      	ldr	r2, [r3, #48]	@ 0x30
 8005488:	687b      	ldr	r3, [r7, #4]
 800548a:	681b      	ldr	r3, [r3, #0]
 800548c:	430a      	orrs	r2, r1
 800548e:	605a      	str	r2, [r3, #4]
  }

  /* if required, configure RX overrun detection disabling */
  if (HAL_IS_BIT_SET(huart->AdvancedInit.AdvFeatureInit, UART_ADVFEATURE_RXOVERRUNDISABLE_INIT))
 8005490:	687b      	ldr	r3, [r7, #4]
 8005492:	6a5b      	ldr	r3, [r3, #36]	@ 0x24
 8005494:	2210      	movs	r2, #16
 8005496:	4013      	ands	r3, r2
 8005498:	d00b      	beq.n	80054b2 <UART_AdvFeatureConfig+0xb2>
  {
    assert_param(IS_UART_OVERRUN(huart->AdvancedInit.OverrunDisable));
    MODIFY_REG(huart->Instance->CR3, USART_CR3_OVRDIS, huart->AdvancedInit.OverrunDisable);
 800549a:	687b      	ldr	r3, [r7, #4]
 800549c:	681b      	ldr	r3, [r3, #0]
 800549e:	689b      	ldr	r3, [r3, #8]
 80054a0:	4a2c      	ldr	r2, [pc, #176]	@ (8005554 <UART_AdvFeatureConfig+0x154>)
 80054a2:	4013      	ands	r3, r2
 80054a4:	0019      	movs	r1, r3
 80054a6:	687b      	ldr	r3, [r7, #4]
 80054a8:	6b9a      	ldr	r2, [r3, #56]	@ 0x38
 80054aa:	687b      	ldr	r3, [r7, #4]
 80054ac:	681b      	ldr	r3, [r3, #0]
 80054ae:	430a      	orrs	r2, r1
 80054b0:	609a      	str	r2, [r3, #8]
  }

  /* if required, configure DMA disabling on reception error */
  if (HAL_IS_BIT_SET(huart->AdvancedInit.AdvFeatureInit, UART_ADVFEATURE_DMADISABLEONERROR_INIT))
 80054b2:	687b      	ldr	r3, [r7, #4]
 80054b4:	6a5b      	ldr	r3, [r3, #36]	@ 0x24
 80054b6:	2220      	movs	r2, #32
 80054b8:	4013      	ands	r3, r2
 80054ba:	d00b      	beq.n	80054d4 <UART_AdvFeatureConfig+0xd4>
  {
    assert_param(IS_UART_ADVFEATURE_DMAONRXERROR(huart->AdvancedInit.DMADisableonRxError));
    MODIFY_REG(huart->Instance->CR3, USART_CR3_DDRE, huart->AdvancedInit.DMADisableonRxError);
 80054bc:	687b      	ldr	r3, [r7, #4]
 80054be:	681b      	ldr	r3, [r3, #0]
 80054c0:	689b      	ldr	r3, [r3, #8]
 80054c2:	4a25      	ldr	r2, [pc, #148]	@ (8005558 <UART_AdvFeatureConfig+0x158>)
 80054c4:	4013      	ands	r3, r2
 80054c6:	0019      	movs	r1, r3
 80054c8:	687b      	ldr	r3, [r7, #4]
 80054ca:	6bda      	ldr	r2, [r3, #60]	@ 0x3c
 80054cc:	687b      	ldr	r3, [r7, #4]
 80054ce:	681b      	ldr	r3, [r3, #0]
 80054d0:	430a      	orrs	r2, r1
 80054d2:	609a      	str	r2, [r3, #8]
  }

  /* if required, configure auto Baud rate detection scheme */
  if (HAL_IS_BIT_SET(huart->AdvancedInit.AdvFeatureInit, UART_ADVFEATURE_AUTOBAUDRATE_INIT))
 80054d4:	687b      	ldr	r3, [r7, #4]
 80054d6:	6a5b      	ldr	r3, [r3, #36]	@ 0x24
 80054d8:	2240      	movs	r2, #64	@ 0x40
 80054da:	4013      	ands	r3, r2
 80054dc:	d01d      	beq.n	800551a <UART_AdvFeatureConfig+0x11a>
  {
    assert_param(IS_USART_AUTOBAUDRATE_DETECTION_INSTANCE(huart->Instance));
    assert_param(IS_UART_ADVFEATURE_AUTOBAUDRATE(huart->AdvancedInit.AutoBaudRateEnable));
    MODIFY_REG(huart->Instance->CR2, USART_CR2_ABREN, huart->AdvancedInit.AutoBaudRateEnable);
 80054de:	687b      	ldr	r3, [r7, #4]
 80054e0:	681b      	ldr	r3, [r3, #0]
 80054e2:	685b      	ldr	r3, [r3, #4]
 80054e4:	4a1d      	ldr	r2, [pc, #116]	@ (800555c <UART_AdvFeatureConfig+0x15c>)
 80054e6:	4013      	ands	r3, r2
 80054e8:	0019      	movs	r1, r3
 80054ea:	687b      	ldr	r3, [r7, #4]
 80054ec:	6c1a      	ldr	r2, [r3, #64]	@ 0x40
 80054ee:	687b      	ldr	r3, [r7, #4]
 80054f0:	681b      	ldr	r3, [r3, #0]
 80054f2:	430a      	orrs	r2, r1
 80054f4:	605a      	str	r2, [r3, #4]
    /* set auto Baudrate detection parameters if detection is enabled */
    if (huart->AdvancedInit.AutoBaudRateEnable == UART_ADVFEATURE_AUTOBAUDRATE_ENABLE)
 80054f6:	687b      	ldr	r3, [r7, #4]
 80054f8:	6c1a      	ldr	r2, [r3, #64]	@ 0x40
 80054fa:	2380      	movs	r3, #128	@ 0x80
 80054fc:	035b      	lsls	r3, r3, #13
 80054fe:	429a      	cmp	r2, r3
 8005500:	d10b      	bne.n	800551a <UART_AdvFeatureConfig+0x11a>
    {
      assert_param(IS_UART_ADVFEATURE_AUTOBAUDRATEMODE(huart->AdvancedInit.AutoBaudRateMode));
      MODIFY_REG(huart->Instance->CR2, USART_CR2_ABRMODE, huart->AdvancedInit.AutoBaudRateMode);
 8005502:	687b      	ldr	r3, [r7, #4]
 8005504:	681b      	ldr	r3, [r3, #0]
 8005506:	685b      	ldr	r3, [r3, #4]
 8005508:	4a15      	ldr	r2, [pc, #84]	@ (8005560 <UART_AdvFeatureConfig+0x160>)
 800550a:	4013      	ands	r3, r2
 800550c:	0019      	movs	r1, r3
 800550e:	687b      	ldr	r3, [r7, #4]
 8005510:	6c5a      	ldr	r2, [r3, #68]	@ 0x44
 8005512:	687b      	ldr	r3, [r7, #4]
 8005514:	681b      	ldr	r3, [r3, #0]
 8005516:	430a      	orrs	r2, r1
 8005518:	605a      	str	r2, [r3, #4]
    }
  }

  /* if required, configure MSB first on communication line */
  if (HAL_IS_BIT_SET(huart->AdvancedInit.AdvFeatureInit, UART_ADVFEATURE_MSBFIRST_INIT))
 800551a:	687b      	ldr	r3, [r7, #4]
 800551c:	6a5b      	ldr	r3, [r3, #36]	@ 0x24
 800551e:	2280      	movs	r2, #128	@ 0x80
 8005520:	4013      	ands	r3, r2
 8005522:	d00b      	beq.n	800553c <UART_AdvFeatureConfig+0x13c>
  {
    assert_param(IS_UART_ADVFEATURE_MSBFIRST(huart->AdvancedInit.MSBFirst));
    MODIFY_REG(huart->Instance->CR2, USART_CR2_MSBFIRST, huart->AdvancedInit.MSBFirst);
 8005524:	687b      	ldr	r3, [r7, #4]
 8005526:	681b      	ldr	r3, [r3, #0]
 8005528:	685b      	ldr	r3, [r3, #4]
 800552a:	4a0e      	ldr	r2, [pc, #56]	@ (8005564 <UART_AdvFeatureConfig+0x164>)
 800552c:	4013      	ands	r3, r2
 800552e:	0019      	movs	r1, r3
 8005530:	687b      	ldr	r3, [r7, #4]
 8005532:	6c9a      	ldr	r2, [r3, #72]	@ 0x48
 8005534:	687b      	ldr	r3, [r7, #4]
 8005536:	681b      	ldr	r3, [r3, #0]
 8005538:	430a      	orrs	r2, r1
 800553a:	605a      	str	r2, [r3, #4]
  }
}
 800553c:	46c0      	nop			@ (mov r8, r8)
 800553e:	46bd      	mov	sp, r7
 8005540:	b002      	add	sp, #8
 8005542:	bd80      	pop	{r7, pc}
 8005544:	ffff7fff 	.word	0xffff7fff
 8005548:	fffdffff 	.word	0xfffdffff
 800554c:	fffeffff 	.word	0xfffeffff
 8005550:	fffbffff 	.word	0xfffbffff
 8005554:	ffffefff 	.word	0xffffefff
 8005558:	ffffdfff 	.word	0xffffdfff
 800555c:	ffefffff 	.word	0xffefffff
 8005560:	ff9fffff 	.word	0xff9fffff
 8005564:	fff7ffff 	.word	0xfff7ffff

08005568 <UART_CheckIdleState>:
  * @brief Check the UART Idle State.
  * @param huart UART handle.
  * @retval HAL status
  */
HAL_StatusTypeDef UART_CheckIdleState(UART_HandleTypeDef *huart)
{
 8005568:	b580      	push	{r7, lr}
 800556a:	b092      	sub	sp, #72	@ 0x48
 800556c:	af02      	add	r7, sp, #8
 800556e:	6078      	str	r0, [r7, #4]
  uint32_t tickstart;

  /* Initialize the UART ErrorCode */
  huart->ErrorCode = HAL_UART_ERROR_NONE;
 8005570:	687b      	ldr	r3, [r7, #4]
 8005572:	2284      	movs	r2, #132	@ 0x84
 8005574:	2100      	movs	r1, #0
 8005576:	5099      	str	r1, [r3, r2]

  /* Init tickstart for timeout management */
  tickstart = HAL_GetTick();
 8005578:	f7fc ff00 	bl	800237c <HAL_GetTick>
 800557c:	0003      	movs	r3, r0
 800557e:	63fb      	str	r3, [r7, #60]	@ 0x3c

  /* Check if the Transmitter is enabled */
  if ((huart->Instance->CR1 & USART_CR1_TE) == USART_CR1_TE)
 8005580:	687b      	ldr	r3, [r7, #4]
 8005582:	681b      	ldr	r3, [r3, #0]
 8005584:	681b      	ldr	r3, [r3, #0]
 8005586:	2208      	movs	r2, #8
 8005588:	4013      	ands	r3, r2
 800558a:	2b08      	cmp	r3, #8
 800558c:	d12c      	bne.n	80055e8 <UART_CheckIdleState+0x80>
  {
    /* Wait until TEACK flag is set */
    if (UART_WaitOnFlagUntilTimeout(huart, USART_ISR_TEACK, RESET, tickstart, HAL_UART_TIMEOUT_VALUE) != HAL_OK)
 800558e:	6bfb      	ldr	r3, [r7, #60]	@ 0x3c
 8005590:	2280      	movs	r2, #128	@ 0x80
 8005592:	0391      	lsls	r1, r2, #14
 8005594:	6878      	ldr	r0, [r7, #4]
 8005596:	4a46      	ldr	r2, [pc, #280]	@ (80056b0 <UART_CheckIdleState+0x148>)
 8005598:	9200      	str	r2, [sp, #0]
 800559a:	2200      	movs	r2, #0
 800559c:	f000 f88c 	bl	80056b8 <UART_WaitOnFlagUntilTimeout>
 80055a0:	1e03      	subs	r3, r0, #0
 80055a2:	d021      	beq.n	80055e8 <UART_CheckIdleState+0x80>
  __ASM volatile ("MRS %0, primask" : "=r" (result) :: "memory");
 80055a4:	f3ef 8310 	mrs	r3, PRIMASK
 80055a8:	627b      	str	r3, [r7, #36]	@ 0x24
  return(result);
 80055aa:	6a7b      	ldr	r3, [r7, #36]	@ 0x24
    {
      /* Disable TXE interrupt for the interrupt process */
      ATOMIC_CLEAR_BIT(huart->Instance->CR1, (USART_CR1_TXEIE));
 80055ac:	63bb      	str	r3, [r7, #56]	@ 0x38
 80055ae:	2301      	movs	r3, #1
 80055b0:	62bb      	str	r3, [r7, #40]	@ 0x28
  __ASM volatile ("MSR primask, %0" : : "r" (priMask) : "memory");
 80055b2:	6abb      	ldr	r3, [r7, #40]	@ 0x28
 80055b4:	f383 8810 	msr	PRIMASK, r3
}
 80055b8:	46c0      	nop			@ (mov r8, r8)
 80055ba:	687b      	ldr	r3, [r7, #4]
 80055bc:	681b      	ldr	r3, [r3, #0]
 80055be:	681a      	ldr	r2, [r3, #0]
 80055c0:	687b      	ldr	r3, [r7, #4]
 80055c2:	681b      	ldr	r3, [r3, #0]
 80055c4:	2180      	movs	r1, #128	@ 0x80
 80055c6:	438a      	bics	r2, r1
 80055c8:	601a      	str	r2, [r3, #0]
 80055ca:	6bbb      	ldr	r3, [r7, #56]	@ 0x38
 80055cc:	62fb      	str	r3, [r7, #44]	@ 0x2c
  __ASM volatile ("MSR primask, %0" : : "r" (priMask) : "memory");
 80055ce:	6afb      	ldr	r3, [r7, #44]	@ 0x2c
 80055d0:	f383 8810 	msr	PRIMASK, r3
}
 80055d4:	46c0      	nop			@ (mov r8, r8)

      huart->gState = HAL_UART_STATE_READY;
 80055d6:	687b      	ldr	r3, [r7, #4]
 80055d8:	2220      	movs	r2, #32
 80055da:	67da      	str	r2, [r3, #124]	@ 0x7c

      __HAL_UNLOCK(huart);
 80055dc:	687b      	ldr	r3, [r7, #4]
 80055de:	2278      	movs	r2, #120	@ 0x78
 80055e0:	2100      	movs	r1, #0
 80055e2:	5499      	strb	r1, [r3, r2]

      /* Timeout occurred */
      return HAL_TIMEOUT;
 80055e4:	2303      	movs	r3, #3
 80055e6:	e05f      	b.n	80056a8 <UART_CheckIdleState+0x140>
    }
  }

  /* Check if the Receiver is enabled */
  if ((huart->Instance->CR1 & USART_CR1_RE) == USART_CR1_RE)
 80055e8:	687b      	ldr	r3, [r7, #4]
 80055ea:	681b      	ldr	r3, [r3, #0]
 80055ec:	681b      	ldr	r3, [r3, #0]
 80055ee:	2204      	movs	r2, #4
 80055f0:	4013      	ands	r3, r2
 80055f2:	2b04      	cmp	r3, #4
 80055f4:	d146      	bne.n	8005684 <UART_CheckIdleState+0x11c>
  {
    /* Wait until REACK flag is set */
    if (UART_WaitOnFlagUntilTimeout(huart, USART_ISR_REACK, RESET, tickstart, HAL_UART_TIMEOUT_VALUE) != HAL_OK)
 80055f6:	6bfb      	ldr	r3, [r7, #60]	@ 0x3c
 80055f8:	2280      	movs	r2, #128	@ 0x80
 80055fa:	03d1      	lsls	r1, r2, #15
 80055fc:	6878      	ldr	r0, [r7, #4]
 80055fe:	4a2c      	ldr	r2, [pc, #176]	@ (80056b0 <UART_CheckIdleState+0x148>)
 8005600:	9200      	str	r2, [sp, #0]
 8005602:	2200      	movs	r2, #0
 8005604:	f000 f858 	bl	80056b8 <UART_WaitOnFlagUntilTimeout>
 8005608:	1e03      	subs	r3, r0, #0
 800560a:	d03b      	beq.n	8005684 <UART_CheckIdleState+0x11c>
  __ASM volatile ("MRS %0, primask" : "=r" (result) :: "memory");
 800560c:	f3ef 8310 	mrs	r3, PRIMASK
 8005610:	60fb      	str	r3, [r7, #12]
  return(result);
 8005612:	68fb      	ldr	r3, [r7, #12]
    {
      /* Disable RXNE, PE and ERR (Frame error, noise error, overrun error)
      interrupts for the interrupt process */
      ATOMIC_CLEAR_BIT(huart->Instance->CR1, (USART_CR1_RXNEIE | USART_CR1_PEIE));
 8005614:	637b      	str	r3, [r7, #52]	@ 0x34
 8005616:	2301      	movs	r3, #1
 8005618:	613b      	str	r3, [r7, #16]
  __ASM volatile ("MSR primask, %0" : : "r" (priMask) : "memory");
 800561a:	693b      	ldr	r3, [r7, #16]
 800561c:	f383 8810 	msr	PRIMASK, r3
}
 8005620:	46c0      	nop			@ (mov r8, r8)
 8005622:	687b      	ldr	r3, [r7, #4]
 8005624:	681b      	ldr	r3, [r3, #0]
 8005626:	681a      	ldr	r2, [r3, #0]
 8005628:	687b      	ldr	r3, [r7, #4]
 800562a:	681b      	ldr	r3, [r3, #0]
 800562c:	4921      	ldr	r1, [pc, #132]	@ (80056b4 <UART_CheckIdleState+0x14c>)
 800562e:	400a      	ands	r2, r1
 8005630:	601a      	str	r2, [r3, #0]
 8005632:	6b7b      	ldr	r3, [r7, #52]	@ 0x34
 8005634:	617b      	str	r3, [r7, #20]
  __ASM volatile ("MSR primask, %0" : : "r" (priMask) : "memory");
 8005636:	697b      	ldr	r3, [r7, #20]
 8005638:	f383 8810 	msr	PRIMASK, r3
}
 800563c:	46c0      	nop			@ (mov r8, r8)
  __ASM volatile ("MRS %0, primask" : "=r" (result) :: "memory");
 800563e:	f3ef 8310 	mrs	r3, PRIMASK
 8005642:	61bb      	str	r3, [r7, #24]
  return(result);
 8005644:	69bb      	ldr	r3, [r7, #24]
      ATOMIC_CLEAR_BIT(huart->Instance->CR3, USART_CR3_EIE);
 8005646:	633b      	str	r3, [r7, #48]	@ 0x30
 8005648:	2301      	movs	r3, #1
 800564a:	61fb      	str	r3, [r7, #28]
  __ASM volatile ("MSR primask, %0" : : "r" (priMask) : "memory");
 800564c:	69fb      	ldr	r3, [r7, #28]
 800564e:	f383 8810 	msr	PRIMASK, r3
}
 8005652:	46c0      	nop			@ (mov r8, r8)
 8005654:	687b      	ldr	r3, [r7, #4]
 8005656:	681b      	ldr	r3, [r3, #0]
 8005658:	689a      	ldr	r2, [r3, #8]
 800565a:	687b      	ldr	r3, [r7, #4]
 800565c:	681b      	ldr	r3, [r3, #0]
 800565e:	2101      	movs	r1, #1
 8005660:	438a      	bics	r2, r1
 8005662:	609a      	str	r2, [r3, #8]
 8005664:	6b3b      	ldr	r3, [r7, #48]	@ 0x30
 8005666:	623b      	str	r3, [r7, #32]
  __ASM volatile ("MSR primask, %0" : : "r" (priMask) : "memory");
 8005668:	6a3b      	ldr	r3, [r7, #32]
 800566a:	f383 8810 	msr	PRIMASK, r3
}
 800566e:	46c0      	nop			@ (mov r8, r8)

      huart->RxState = HAL_UART_STATE_READY;
 8005670:	687b      	ldr	r3, [r7, #4]
 8005672:	2280      	movs	r2, #128	@ 0x80
 8005674:	2120      	movs	r1, #32
 8005676:	5099      	str	r1, [r3, r2]

      __HAL_UNLOCK(huart);
 8005678:	687b      	ldr	r3, [r7, #4]
 800567a:	2278      	movs	r2, #120	@ 0x78
 800567c:	2100      	movs	r1, #0
 800567e:	5499      	strb	r1, [r3, r2]

      /* Timeout occurred */
      return HAL_TIMEOUT;
 8005680:	2303      	movs	r3, #3
 8005682:	e011      	b.n	80056a8 <UART_CheckIdleState+0x140>
    }
  }

  /* Initialize the UART State */
  huart->gState = HAL_UART_STATE_READY;
 8005684:	687b      	ldr	r3, [r7, #4]
 8005686:	2220      	movs	r2, #32
 8005688:	67da      	str	r2, [r3, #124]	@ 0x7c
  huart->RxState = HAL_UART_STATE_READY;
 800568a:	687b      	ldr	r3, [r7, #4]
 800568c:	2280      	movs	r2, #128	@ 0x80
 800568e:	2120      	movs	r1, #32
 8005690:	5099      	str	r1, [r3, r2]
  huart->ReceptionType = HAL_UART_RECEPTION_STANDARD;
 8005692:	687b      	ldr	r3, [r7, #4]
 8005694:	2200      	movs	r2, #0
 8005696:	661a      	str	r2, [r3, #96]	@ 0x60
  huart->RxEventType = HAL_UART_RXEVENT_TC;
 8005698:	687b      	ldr	r3, [r7, #4]
 800569a:	2200      	movs	r2, #0
 800569c:	665a      	str	r2, [r3, #100]	@ 0x64

  __HAL_UNLOCK(huart);
 800569e:	687b      	ldr	r3, [r7, #4]
 80056a0:	2278      	movs	r2, #120	@ 0x78
 80056a2:	2100      	movs	r1, #0
 80056a4:	5499      	strb	r1, [r3, r2]

  return HAL_OK;
 80056a6:	2300      	movs	r3, #0
}
 80056a8:	0018      	movs	r0, r3
 80056aa:	46bd      	mov	sp, r7
 80056ac:	b010      	add	sp, #64	@ 0x40
 80056ae:	bd80      	pop	{r7, pc}
 80056b0:	01ffffff 	.word	0x01ffffff
 80056b4:	fffffedf 	.word	0xfffffedf

080056b8 <UART_WaitOnFlagUntilTimeout>:
  * @param Timeout   Timeout duration
  * @retval HAL status
  */
HAL_StatusTypeDef UART_WaitOnFlagUntilTimeout(UART_HandleTypeDef *huart, uint32_t Flag, FlagStatus Status,
                                              uint32_t Tickstart, uint32_t Timeout)
{
 80056b8:	b580      	push	{r7, lr}
 80056ba:	b084      	sub	sp, #16
 80056bc:	af00      	add	r7, sp, #0
 80056be:	60f8      	str	r0, [r7, #12]
 80056c0:	60b9      	str	r1, [r7, #8]
 80056c2:	603b      	str	r3, [r7, #0]
 80056c4:	1dfb      	adds	r3, r7, #7
 80056c6:	701a      	strb	r2, [r3, #0]
  /* Wait until flag is set */
  while ((__HAL_UART_GET_FLAG(huart, Flag) ? SET : RESET) == Status)
 80056c8:	e051      	b.n	800576e <UART_WaitOnFlagUntilTimeout+0xb6>
  {
    /* Check for the Timeout */
    if (Timeout != HAL_MAX_DELAY)
 80056ca:	69bb      	ldr	r3, [r7, #24]
 80056cc:	3301      	adds	r3, #1
 80056ce:	d04e      	beq.n	800576e <UART_WaitOnFlagUntilTimeout+0xb6>
    {
      if (((HAL_GetTick() - Tickstart) > Timeout) || (Timeout == 0U))
 80056d0:	f7fc fe54 	bl	800237c <HAL_GetTick>
 80056d4:	0002      	movs	r2, r0
 80056d6:	683b      	ldr	r3, [r7, #0]
 80056d8:	1ad3      	subs	r3, r2, r3
 80056da:	69ba      	ldr	r2, [r7, #24]
 80056dc:	429a      	cmp	r2, r3
 80056de:	d302      	bcc.n	80056e6 <UART_WaitOnFlagUntilTimeout+0x2e>
 80056e0:	69bb      	ldr	r3, [r7, #24]
 80056e2:	2b00      	cmp	r3, #0
 80056e4:	d101      	bne.n	80056ea <UART_WaitOnFlagUntilTimeout+0x32>
      {

        return HAL_TIMEOUT;
 80056e6:	2303      	movs	r3, #3
 80056e8:	e051      	b.n	800578e <UART_WaitOnFlagUntilTimeout+0xd6>
      }

      if ((READ_BIT(huart->Instance->CR1, USART_CR1_RE) != 0U) && (Flag != UART_FLAG_TXE) && (Flag != UART_FLAG_TC))
 80056ea:	68fb      	ldr	r3, [r7, #12]
 80056ec:	681b      	ldr	r3, [r3, #0]
 80056ee:	681b      	ldr	r3, [r3, #0]
 80056f0:	2204      	movs	r2, #4
 80056f2:	4013      	ands	r3, r2
 80056f4:	d03b      	beq.n	800576e <UART_WaitOnFlagUntilTimeout+0xb6>
 80056f6:	68bb      	ldr	r3, [r7, #8]
 80056f8:	2b80      	cmp	r3, #128	@ 0x80
 80056fa:	d038      	beq.n	800576e <UART_WaitOnFlagUntilTimeout+0xb6>
 80056fc:	68bb      	ldr	r3, [r7, #8]
 80056fe:	2b40      	cmp	r3, #64	@ 0x40
 8005700:	d035      	beq.n	800576e <UART_WaitOnFlagUntilTimeout+0xb6>
      {
        if (__HAL_UART_GET_FLAG(huart, UART_FLAG_ORE) == SET)
 8005702:	68fb      	ldr	r3, [r7, #12]
 8005704:	681b      	ldr	r3, [r3, #0]
 8005706:	69db      	ldr	r3, [r3, #28]
 8005708:	2208      	movs	r2, #8
 800570a:	4013      	ands	r3, r2
 800570c:	2b08      	cmp	r3, #8
 800570e:	d111      	bne.n	8005734 <UART_WaitOnFlagUntilTimeout+0x7c>
        {
          /* Clear Overrun Error flag*/
          __HAL_UART_CLEAR_FLAG(huart, UART_CLEAR_OREF);
 8005710:	68fb      	ldr	r3, [r7, #12]
 8005712:	681b      	ldr	r3, [r3, #0]
 8005714:	2208      	movs	r2, #8
 8005716:	621a      	str	r2, [r3, #32]

          /* Blocking error : transfer is aborted
          Set the UART state ready to be able to start again the process,
          Disable Rx Interrupts if ongoing */
          UART_EndRxTransfer(huart);
 8005718:	68fb      	ldr	r3, [r7, #12]
 800571a:	0018      	movs	r0, r3
 800571c:	f000 f83c 	bl	8005798 <UART_EndRxTransfer>

          huart->ErrorCode = HAL_UART_ERROR_ORE;
 8005720:	68fb      	ldr	r3, [r7, #12]
 8005722:	2284      	movs	r2, #132	@ 0x84
 8005724:	2108      	movs	r1, #8
 8005726:	5099      	str	r1, [r3, r2]

          /* Process Unlocked */
          __HAL_UNLOCK(huart);
 8005728:	68fb      	ldr	r3, [r7, #12]
 800572a:	2278      	movs	r2, #120	@ 0x78
 800572c:	2100      	movs	r1, #0
 800572e:	5499      	strb	r1, [r3, r2]

          return HAL_ERROR;
 8005730:	2301      	movs	r3, #1
 8005732:	e02c      	b.n	800578e <UART_WaitOnFlagUntilTimeout+0xd6>
        }
        if (__HAL_UART_GET_FLAG(huart, UART_FLAG_RTOF) == SET)
 8005734:	68fb      	ldr	r3, [r7, #12]
 8005736:	681b      	ldr	r3, [r3, #0]
 8005738:	69da      	ldr	r2, [r3, #28]
 800573a:	2380      	movs	r3, #128	@ 0x80
 800573c:	011b      	lsls	r3, r3, #4
 800573e:	401a      	ands	r2, r3
 8005740:	2380      	movs	r3, #128	@ 0x80
 8005742:	011b      	lsls	r3, r3, #4
 8005744:	429a      	cmp	r2, r3
 8005746:	d112      	bne.n	800576e <UART_WaitOnFlagUntilTimeout+0xb6>
        {
          /* Clear Receiver Timeout flag*/
          __HAL_UART_CLEAR_FLAG(huart, UART_CLEAR_RTOF);
 8005748:	68fb      	ldr	r3, [r7, #12]
 800574a:	681b      	ldr	r3, [r3, #0]
 800574c:	2280      	movs	r2, #128	@ 0x80
 800574e:	0112      	lsls	r2, r2, #4
 8005750:	621a      	str	r2, [r3, #32]

          /* Blocking error : transfer is aborted
          Set the UART state ready to be able to start again the process,
          Disable Rx Interrupts if ongoing */
          UART_EndRxTransfer(huart);
 8005752:	68fb      	ldr	r3, [r7, #12]
 8005754:	0018      	movs	r0, r3
 8005756:	f000 f81f 	bl	8005798 <UART_EndRxTransfer>

          huart->ErrorCode = HAL_UART_ERROR_RTO;
 800575a:	68fb      	ldr	r3, [r7, #12]
 800575c:	2284      	movs	r2, #132	@ 0x84
 800575e:	2120      	movs	r1, #32
 8005760:	5099      	str	r1, [r3, r2]

          /* Process Unlocked */
          __HAL_UNLOCK(huart);
 8005762:	68fb      	ldr	r3, [r7, #12]
 8005764:	2278      	movs	r2, #120	@ 0x78
 8005766:	2100      	movs	r1, #0
 8005768:	5499      	strb	r1, [r3, r2]

          return HAL_TIMEOUT;
 800576a:	2303      	movs	r3, #3
 800576c:	e00f      	b.n	800578e <UART_WaitOnFlagUntilTimeout+0xd6>
  while ((__HAL_UART_GET_FLAG(huart, Flag) ? SET : RESET) == Status)
 800576e:	68fb      	ldr	r3, [r7, #12]
 8005770:	681b      	ldr	r3, [r3, #0]
 8005772:	69db      	ldr	r3, [r3, #28]
 8005774:	68ba      	ldr	r2, [r7, #8]
 8005776:	4013      	ands	r3, r2
 8005778:	68ba      	ldr	r2, [r7, #8]
 800577a:	1ad3      	subs	r3, r2, r3
 800577c:	425a      	negs	r2, r3
 800577e:	4153      	adcs	r3, r2
 8005780:	b2db      	uxtb	r3, r3
 8005782:	001a      	movs	r2, r3
 8005784:	1dfb      	adds	r3, r7, #7
 8005786:	781b      	ldrb	r3, [r3, #0]
 8005788:	429a      	cmp	r2, r3
 800578a:	d09e      	beq.n	80056ca <UART_WaitOnFlagUntilTimeout+0x12>
        }
      }
    }
  }
  return HAL_OK;
 800578c:	2300      	movs	r3, #0
}
 800578e:	0018      	movs	r0, r3
 8005790:	46bd      	mov	sp, r7
 8005792:	b004      	add	sp, #16
 8005794:	bd80      	pop	{r7, pc}
	...

08005798 <UART_EndRxTransfer>:
  * @brief  End ongoing Rx transfer on UART peripheral (following error detection or Reception completion).
  * @param  huart UART handle.
  * @retval None
  */
static void UART_EndRxTransfer(UART_HandleTypeDef *huart)
{
 8005798:	b580      	push	{r7, lr}
 800579a:	b08e      	sub	sp, #56	@ 0x38
 800579c:	af00      	add	r7, sp, #0
 800579e:	6078      	str	r0, [r7, #4]
  __ASM volatile ("MRS %0, primask" : "=r" (result) :: "memory");
 80057a0:	f3ef 8310 	mrs	r3, PRIMASK
 80057a4:	617b      	str	r3, [r7, #20]
  return(result);
 80057a6:	697b      	ldr	r3, [r7, #20]
  /* Disable RXNE, PE and ERR (Frame error, noise error, overrun error) interrupts */
  ATOMIC_CLEAR_BIT(huart->Instance->CR1, (USART_CR1_RXNEIE | USART_CR1_PEIE));
 80057a8:	637b      	str	r3, [r7, #52]	@ 0x34
 80057aa:	2301      	movs	r3, #1
 80057ac:	61bb      	str	r3, [r7, #24]
  __ASM volatile ("MSR primask, %0" : : "r" (priMask) : "memory");
 80057ae:	69bb      	ldr	r3, [r7, #24]
 80057b0:	f383 8810 	msr	PRIMASK, r3
}
 80057b4:	46c0      	nop			@ (mov r8, r8)
 80057b6:	687b      	ldr	r3, [r7, #4]
 80057b8:	681b      	ldr	r3, [r3, #0]
 80057ba:	681a      	ldr	r2, [r3, #0]
 80057bc:	687b      	ldr	r3, [r7, #4]
 80057be:	681b      	ldr	r3, [r3, #0]
 80057c0:	4926      	ldr	r1, [pc, #152]	@ (800585c <UART_EndRxTransfer+0xc4>)
 80057c2:	400a      	ands	r2, r1
 80057c4:	601a      	str	r2, [r3, #0]
 80057c6:	6b7b      	ldr	r3, [r7, #52]	@ 0x34
 80057c8:	61fb      	str	r3, [r7, #28]
  __ASM volatile ("MSR primask, %0" : : "r" (priMask) : "memory");
 80057ca:	69fb      	ldr	r3, [r7, #28]
 80057cc:	f383 8810 	msr	PRIMASK, r3
}
 80057d0:	46c0      	nop			@ (mov r8, r8)
  __ASM volatile ("MRS %0, primask" : "=r" (result) :: "memory");
 80057d2:	f3ef 8310 	mrs	r3, PRIMASK
 80057d6:	623b      	str	r3, [r7, #32]
  return(result);
 80057d8:	6a3b      	ldr	r3, [r7, #32]
  ATOMIC_CLEAR_BIT(huart->Instance->CR3, USART_CR3_EIE);
 80057da:	633b      	str	r3, [r7, #48]	@ 0x30
 80057dc:	2301      	movs	r3, #1
 80057de:	627b      	str	r3, [r7, #36]	@ 0x24
  __ASM volatile ("MSR primask, %0" : : "r" (priMask) : "memory");
 80057e0:	6a7b      	ldr	r3, [r7, #36]	@ 0x24
 80057e2:	f383 8810 	msr	PRIMASK, r3
}
 80057e6:	46c0      	nop			@ (mov r8, r8)
 80057e8:	687b      	ldr	r3, [r7, #4]
 80057ea:	681b      	ldr	r3, [r3, #0]
 80057ec:	689a      	ldr	r2, [r3, #8]
 80057ee:	687b      	ldr	r3, [r7, #4]
 80057f0:	681b      	ldr	r3, [r3, #0]
 80057f2:	2101      	movs	r1, #1
 80057f4:	438a      	bics	r2, r1
 80057f6:	609a      	str	r2, [r3, #8]
 80057f8:	6b3b      	ldr	r3, [r7, #48]	@ 0x30
 80057fa:	62bb      	str	r3, [r7, #40]	@ 0x28
  __ASM volatile ("MSR primask, %0" : : "r" (priMask) : "memory");
 80057fc:	6abb      	ldr	r3, [r7, #40]	@ 0x28
 80057fe:	f383 8810 	msr	PRIMASK, r3
}
 8005802:	46c0      	nop			@ (mov r8, r8)

  /* In case of reception waiting for IDLE event, disable also the IDLE IE interrupt source */
  if (huart->ReceptionType == HAL_UART_RECEPTION_TOIDLE)
 8005804:	687b      	ldr	r3, [r7, #4]
 8005806:	6e1b      	ldr	r3, [r3, #96]	@ 0x60
 8005808:	2b01      	cmp	r3, #1
 800580a:	d118      	bne.n	800583e <UART_EndRxTransfer+0xa6>
  __ASM volatile ("MRS %0, primask" : "=r" (result) :: "memory");
 800580c:	f3ef 8310 	mrs	r3, PRIMASK
 8005810:	60bb      	str	r3, [r7, #8]
  return(result);
 8005812:	68bb      	ldr	r3, [r7, #8]
  {
    ATOMIC_CLEAR_BIT(huart->Instance->CR1, USART_CR1_IDLEIE);
 8005814:	62fb      	str	r3, [r7, #44]	@ 0x2c
 8005816:	2301      	movs	r3, #1
 8005818:	60fb      	str	r3, [r7, #12]
  __ASM volatile ("MSR primask, %0" : : "r" (priMask) : "memory");
 800581a:	68fb      	ldr	r3, [r7, #12]
 800581c:	f383 8810 	msr	PRIMASK, r3
}
 8005820:	46c0      	nop			@ (mov r8, r8)
 8005822:	687b      	ldr	r3, [r7, #4]
 8005824:	681b      	ldr	r3, [r3, #0]
 8005826:	681a      	ldr	r2, [r3, #0]
 8005828:	687b      	ldr	r3, [r7, #4]
 800582a:	681b      	ldr	r3, [r3, #0]
 800582c:	2110      	movs	r1, #16
 800582e:	438a      	bics	r2, r1
 8005830:	601a      	str	r2, [r3, #0]
 8005832:	6afb      	ldr	r3, [r7, #44]	@ 0x2c
 8005834:	613b      	str	r3, [r7, #16]
  __ASM volatile ("MSR primask, %0" : : "r" (priMask) : "memory");
 8005836:	693b      	ldr	r3, [r7, #16]
 8005838:	f383 8810 	msr	PRIMASK, r3
}
 800583c:	46c0      	nop			@ (mov r8, r8)
  }

  /* At end of Rx process, restore huart->RxState to Ready */
  huart->RxState = HAL_UART_STATE_READY;
 800583e:	687b      	ldr	r3, [r7, #4]
 8005840:	2280      	movs	r2, #128	@ 0x80
 8005842:	2120      	movs	r1, #32
 8005844:	5099      	str	r1, [r3, r2]
  huart->ReceptionType = HAL_UART_RECEPTION_STANDARD;
 8005846:	687b      	ldr	r3, [r7, #4]
 8005848:	2200      	movs	r2, #0
 800584a:	661a      	str	r2, [r3, #96]	@ 0x60

  /* Reset RxIsr function pointer */
  huart->RxISR = NULL;
 800584c:	687b      	ldr	r3, [r7, #4]
 800584e:	2200      	movs	r2, #0
 8005850:	669a      	str	r2, [r3, #104]	@ 0x68
}
 8005852:	46c0      	nop			@ (mov r8, r8)
 8005854:	46bd      	mov	sp, r7
 8005856:	b00e      	add	sp, #56	@ 0x38
 8005858:	bd80      	pop	{r7, pc}
 800585a:	46c0      	nop			@ (mov r8, r8)
 800585c:	fffffedf 	.word	0xfffffedf

08005860 <UART_DMAAbortOnError>:
  *         (To be called at end of DMA Abort procedure following error occurrence).
  * @param  hdma DMA handle.
  * @retval None
  */
static void UART_DMAAbortOnError(DMA_HandleTypeDef *hdma)
{
 8005860:	b580      	push	{r7, lr}
 8005862:	b084      	sub	sp, #16
 8005864:	af00      	add	r7, sp, #0
 8005866:	6078      	str	r0, [r7, #4]
  UART_HandleTypeDef *huart = (UART_HandleTypeDef *)(hdma->Parent);
 8005868:	687b      	ldr	r3, [r7, #4]
 800586a:	6a5b      	ldr	r3, [r3, #36]	@ 0x24
 800586c:	60fb      	str	r3, [r7, #12]
  huart->RxXferCount = 0U;
 800586e:	68fb      	ldr	r3, [r7, #12]
 8005870:	225a      	movs	r2, #90	@ 0x5a
 8005872:	2100      	movs	r1, #0
 8005874:	5299      	strh	r1, [r3, r2]
  huart->TxXferCount = 0U;
 8005876:	68fb      	ldr	r3, [r7, #12]
 8005878:	2252      	movs	r2, #82	@ 0x52
 800587a:	2100      	movs	r1, #0
 800587c:	5299      	strh	r1, [r3, r2]
#if (USE_HAL_UART_REGISTER_CALLBACKS == 1)
  /*Call registered error callback*/
  huart->ErrorCallback(huart);
#else
  /*Call legacy weak error callback*/
  HAL_UART_ErrorCallback(huart);
 800587e:	68fb      	ldr	r3, [r7, #12]
 8005880:	0018      	movs	r0, r3
 8005882:	f7ff fc69 	bl	8005158 <HAL_UART_ErrorCallback>
#endif /* USE_HAL_UART_REGISTER_CALLBACKS */
}
 8005886:	46c0      	nop			@ (mov r8, r8)
 8005888:	46bd      	mov	sp, r7
 800588a:	b004      	add	sp, #16
 800588c:	bd80      	pop	{r7, pc}

0800588e <UART_EndTransmit_IT>:
  * @param  huart pointer to a UART_HandleTypeDef structure that contains
  *                the configuration information for the specified UART module.
  * @retval None
  */
static void UART_EndTransmit_IT(UART_HandleTypeDef *huart)
{
 800588e:	b580      	push	{r7, lr}
 8005890:	b086      	sub	sp, #24
 8005892:	af00      	add	r7, sp, #0
 8005894:	6078      	str	r0, [r7, #4]
  __ASM volatile ("MRS %0, primask" : "=r" (result) :: "memory");
 8005896:	f3ef 8310 	mrs	r3, PRIMASK
 800589a:	60bb      	str	r3, [r7, #8]
  return(result);
 800589c:	68bb      	ldr	r3, [r7, #8]
  /* Disable the UART Transmit Complete Interrupt */
  ATOMIC_CLEAR_BIT(huart->Instance->CR1, USART_CR1_TCIE);
 800589e:	617b      	str	r3, [r7, #20]
 80058a0:	2301      	movs	r3, #1
 80058a2:	60fb      	str	r3, [r7, #12]
  __ASM volatile ("MSR primask, %0" : : "r" (priMask) : "memory");
 80058a4:	68fb      	ldr	r3, [r7, #12]
 80058a6:	f383 8810 	msr	PRIMASK, r3
}
 80058aa:	46c0      	nop			@ (mov r8, r8)
 80058ac:	687b      	ldr	r3, [r7, #4]
 80058ae:	681b      	ldr	r3, [r3, #0]
 80058b0:	681a      	ldr	r2, [r3, #0]
 80058b2:	687b      	ldr	r3, [r7, #4]
 80058b4:	681b      	ldr	r3, [r3, #0]
 80058b6:	2140      	movs	r1, #64	@ 0x40
 80058b8:	438a      	bics	r2, r1
 80058ba:	601a      	str	r2, [r3, #0]
 80058bc:	697b      	ldr	r3, [r7, #20]
 80058be:	613b      	str	r3, [r7, #16]
  __ASM volatile ("MSR primask, %0" : : "r" (priMask) : "memory");
 80058c0:	693b      	ldr	r3, [r7, #16]
 80058c2:	f383 8810 	msr	PRIMASK, r3
}
 80058c6:	46c0      	nop			@ (mov r8, r8)

  /* Tx process is ended, restore huart->gState to Ready */
  huart->gState = HAL_UART_STATE_READY;
 80058c8:	687b      	ldr	r3, [r7, #4]
 80058ca:	2220      	movs	r2, #32
 80058cc:	67da      	str	r2, [r3, #124]	@ 0x7c

  /* Cleat TxISR function pointer */
  huart->TxISR = NULL;
 80058ce:	687b      	ldr	r3, [r7, #4]
 80058d0:	2200      	movs	r2, #0
 80058d2:	66da      	str	r2, [r3, #108]	@ 0x6c
#if (USE_HAL_UART_REGISTER_CALLBACKS == 1)
  /*Call registered Tx complete callback*/
  huart->TxCpltCallback(huart);
#else
  /*Call legacy weak Tx complete callback*/
  HAL_UART_TxCpltCallback(huart);
 80058d4:	687b      	ldr	r3, [r7, #4]
 80058d6:	0018      	movs	r0, r3
 80058d8:	f7ff fc36 	bl	8005148 <HAL_UART_TxCpltCallback>
#endif /* USE_HAL_UART_REGISTER_CALLBACKS */
}
 80058dc:	46c0      	nop			@ (mov r8, r8)
 80058de:	46bd      	mov	sp, r7
 80058e0:	b006      	add	sp, #24
 80058e2:	bd80      	pop	{r7, pc}

080058e4 <memcmp>:
 80058e4:	b530      	push	{r4, r5, lr}
 80058e6:	2400      	movs	r4, #0
 80058e8:	3901      	subs	r1, #1
 80058ea:	42a2      	cmp	r2, r4
 80058ec:	d101      	bne.n	80058f2 <memcmp+0xe>
 80058ee:	2000      	movs	r0, #0
 80058f0:	e005      	b.n	80058fe <memcmp+0x1a>
 80058f2:	5d03      	ldrb	r3, [r0, r4]
 80058f4:	3401      	adds	r4, #1
 80058f6:	5d0d      	ldrb	r5, [r1, r4]
 80058f8:	42ab      	cmp	r3, r5
 80058fa:	d0f6      	beq.n	80058ea <memcmp+0x6>
 80058fc:	1b58      	subs	r0, r3, r5
 80058fe:	bd30      	pop	{r4, r5, pc}

08005900 <memset>:
 8005900:	0003      	movs	r3, r0
 8005902:	1882      	adds	r2, r0, r2
 8005904:	4293      	cmp	r3, r2
 8005906:	d100      	bne.n	800590a <memset+0xa>
 8005908:	4770      	bx	lr
 800590a:	7019      	strb	r1, [r3, #0]
 800590c:	3301      	adds	r3, #1
 800590e:	e7f9      	b.n	8005904 <memset+0x4>

08005910 <__libc_init_array>:
 8005910:	b570      	push	{r4, r5, r6, lr}
 8005912:	2600      	movs	r6, #0
 8005914:	4c0c      	ldr	r4, [pc, #48]	@ (8005948 <__libc_init_array+0x38>)
 8005916:	4d0d      	ldr	r5, [pc, #52]	@ (800594c <__libc_init_array+0x3c>)
 8005918:	1b64      	subs	r4, r4, r5
 800591a:	10a4      	asrs	r4, r4, #2
 800591c:	42a6      	cmp	r6, r4
 800591e:	d109      	bne.n	8005934 <__libc_init_array+0x24>
 8005920:	2600      	movs	r6, #0
 8005922:	f000 f823 	bl	800596c <_init>
 8005926:	4c0a      	ldr	r4, [pc, #40]	@ (8005950 <__libc_init_array+0x40>)
 8005928:	4d0a      	ldr	r5, [pc, #40]	@ (8005954 <__libc_init_array+0x44>)
 800592a:	1b64      	subs	r4, r4, r5
 800592c:	10a4      	asrs	r4, r4, #2
 800592e:	42a6      	cmp	r6, r4
 8005930:	d105      	bne.n	800593e <__libc_init_array+0x2e>
 8005932:	bd70      	pop	{r4, r5, r6, pc}
 8005934:	00b3      	lsls	r3, r6, #2
 8005936:	58eb      	ldr	r3, [r5, r3]
 8005938:	4798      	blx	r3
 800593a:	3601      	adds	r6, #1
 800593c:	e7ee      	b.n	800591c <__libc_init_array+0xc>
 800593e:	00b3      	lsls	r3, r6, #2
 8005940:	58eb      	ldr	r3, [r5, r3]
 8005942:	4798      	blx	r3
 8005944:	3601      	adds	r6, #1
 8005946:	e7f2      	b.n	800592e <__libc_init_array+0x1e>
 8005948:	0800603c 	.word	0x0800603c
 800594c:	0800603c 	.word	0x0800603c
 8005950:	08006040 	.word	0x08006040
 8005954:	0800603c 	.word	0x0800603c

08005958 <memcpy>:
 8005958:	2300      	movs	r3, #0
 800595a:	b510      	push	{r4, lr}
 800595c:	429a      	cmp	r2, r3
 800595e:	d100      	bne.n	8005962 <memcpy+0xa>
 8005960:	bd10      	pop	{r4, pc}
 8005962:	5ccc      	ldrb	r4, [r1, r3]
 8005964:	54c4      	strb	r4, [r0, r3]
 8005966:	3301      	adds	r3, #1
 8005968:	e7f8      	b.n	800595c <memcpy+0x4>
	...

0800596c <_init>:
 800596c:	b5f8      	push	{r3, r4, r5, r6, r7, lr}
 800596e:	46c0      	nop			@ (mov r8, r8)
 8005970:	bcf8      	pop	{r3, r4, r5, r6, r7}
 8005972:	bc08      	pop	{r3}
 8005974:	469e      	mov	lr, r3
 8005976:	4770      	bx	lr

08005978 <_fini>:
 8005978:	b5f8      	push	{r3, r4, r5, r6, r7, lr}
 800597a:	46c0      	nop			@ (mov r8, r8)
 800597c:	bcf8      	pop	{r3, r4, r5, r6, r7}
 800597e:	bc08      	pop	{r3}
 8005980:	469e      	mov	lr, r3
 8005982:	4770      	bx	lr
